   1              		.syntax unified
   2              		.cpu cortex-m3
   3              		.fpu softvfp
   4              		.eabi_attribute 20, 1
   5              		.eabi_attribute 21, 1
   6              		.eabi_attribute 23, 3
   7              		.eabi_attribute 24, 1
   8              		.eabi_attribute 25, 1
   9              		.eabi_attribute 26, 1
  10              		.eabi_attribute 30, 6
  11              		.eabi_attribute 34, 1
  12              		.eabi_attribute 18, 4
  13              		.thumb
  14              		.file	"hci.c"
  15              		.text
  16              	.Ltext0:
  17              		.cfi_sections	.debug_frame
  18              		.section	.text.hci_command_send,"ax",%progbits
  19              		.align	2
  20              		.global	hci_command_send
  21              		.thumb
  22              		.thumb_func
  24              	hci_command_send:
  25              	.LFB56:
  26              		.file 1 "../libraries/CC3000_Host_Driver/hci.c"
   1:../libraries/CC3000_Host_Driver/hci.c **** /*****************************************************************************
   2:../libraries/CC3000_Host_Driver/hci.c **** *
   3:../libraries/CC3000_Host_Driver/hci.c **** *  hci.c  - CC3000 Host Driver Implementation.
   4:../libraries/CC3000_Host_Driver/hci.c **** *  Copyright (C) 2011 Texas Instruments Incorporated - http://www.ti.com/
   5:../libraries/CC3000_Host_Driver/hci.c **** *
   6:../libraries/CC3000_Host_Driver/hci.c **** *  Redistribution and use in source and binary forms, with or without
   7:../libraries/CC3000_Host_Driver/hci.c **** *  modification, are permitted provided that the following conditions
   8:../libraries/CC3000_Host_Driver/hci.c **** *  are met:
   9:../libraries/CC3000_Host_Driver/hci.c **** *
  10:../libraries/CC3000_Host_Driver/hci.c **** *    Redistributions of source code must retain the above copyright
  11:../libraries/CC3000_Host_Driver/hci.c **** *    notice, this list of conditions and the following disclaimer.
  12:../libraries/CC3000_Host_Driver/hci.c **** *
  13:../libraries/CC3000_Host_Driver/hci.c **** *    Redistributions in binary form must reproduce the above copyright
  14:../libraries/CC3000_Host_Driver/hci.c **** *    notice, this list of conditions and the following disclaimer in the
  15:../libraries/CC3000_Host_Driver/hci.c **** *    documentation and/or other materials provided with the   
  16:../libraries/CC3000_Host_Driver/hci.c **** *    distribution.
  17:../libraries/CC3000_Host_Driver/hci.c **** *
  18:../libraries/CC3000_Host_Driver/hci.c **** *    Neither the name of Texas Instruments Incorporated nor the names of
  19:../libraries/CC3000_Host_Driver/hci.c **** *    its contributors may be used to endorse or promote products derived
  20:../libraries/CC3000_Host_Driver/hci.c **** *    from this software without specific prior written permission.
  21:../libraries/CC3000_Host_Driver/hci.c **** *
  22:../libraries/CC3000_Host_Driver/hci.c **** *  THIS SOFTWARE IS PROVIDED BY THE COPYRIGHT HOLDERS AND CONTRIBUTORS 
  23:../libraries/CC3000_Host_Driver/hci.c **** *  "AS IS" AND ANY EXPRESS OR IMPLIED WARRANTIES, INCLUDING, BUT NOT 
  24:../libraries/CC3000_Host_Driver/hci.c **** *  LIMITED TO, THE IMPLIED WARRANTIES OF MERCHANTABILITY AND FITNESS FOR
  25:../libraries/CC3000_Host_Driver/hci.c **** *  A PARTICULAR PURPOSE ARE DISCLAIMED. IN NO EVENT SHALL THE COPYRIGHT 
  26:../libraries/CC3000_Host_Driver/hci.c **** *  OWNER OR CONTRIBUTORS BE LIABLE FOR ANY DIRECT, INDIRECT, INCIDENTAL, 
  27:../libraries/CC3000_Host_Driver/hci.c **** *  SPECIAL, EXEMPLARY, OR CONSEQUENTIAL DAMAGES (INCLUDING, BUT NOT 
  28:../libraries/CC3000_Host_Driver/hci.c **** *  LIMITED TO, PROCUREMENT OF SUBSTITUTE GOODS OR SERVICES; LOSS OF USE,
  29:../libraries/CC3000_Host_Driver/hci.c **** *  DATA, OR PROFITS; OR BUSINESS INTERRUPTION) HOWEVER CAUSED AND ON ANY
  30:../libraries/CC3000_Host_Driver/hci.c **** *  THEORY OF LIABILITY, WHETHER IN CONTRACT, STRICT LIABILITY, OR TORT 
  31:../libraries/CC3000_Host_Driver/hci.c **** *  (INCLUDING NEGLIGENCE OR OTHERWISE) ARISING IN ANY WAY OUT OF THE USE 
  32:../libraries/CC3000_Host_Driver/hci.c **** *  OF THIS SOFTWARE, EVEN IF ADVISED OF THE POSSIBILITY OF SUCH DAMAGE.
  33:../libraries/CC3000_Host_Driver/hci.c **** *
  34:../libraries/CC3000_Host_Driver/hci.c **** *****************************************************************************/
  35:../libraries/CC3000_Host_Driver/hci.c **** 
  36:../libraries/CC3000_Host_Driver/hci.c **** //*****************************************************************************
  37:../libraries/CC3000_Host_Driver/hci.c **** //
  38:../libraries/CC3000_Host_Driver/hci.c **** //! \addtogroup hci_app
  39:../libraries/CC3000_Host_Driver/hci.c **** //! @{
  40:../libraries/CC3000_Host_Driver/hci.c **** //
  41:../libraries/CC3000_Host_Driver/hci.c **** //*****************************************************************************
  42:../libraries/CC3000_Host_Driver/hci.c **** 
  43:../libraries/CC3000_Host_Driver/hci.c **** #include "cc3000_common.h"
  44:../libraries/CC3000_Host_Driver/hci.c **** #include "hci.h"
  45:../libraries/CC3000_Host_Driver/hci.c **** #include "spi.h"
  46:../libraries/CC3000_Host_Driver/hci.c **** #include "evnt_handler.h"
  47:../libraries/CC3000_Host_Driver/hci.c **** #include "wlan.h"
  48:../libraries/CC3000_Host_Driver/hci.c **** 
  49:../libraries/CC3000_Host_Driver/hci.c **** #define SL_PATCH_PORTION_SIZE		(1000)
  50:../libraries/CC3000_Host_Driver/hci.c **** 
  51:../libraries/CC3000_Host_Driver/hci.c **** 
  52:../libraries/CC3000_Host_Driver/hci.c **** //*****************************************************************************
  53:../libraries/CC3000_Host_Driver/hci.c **** //
  54:../libraries/CC3000_Host_Driver/hci.c **** //!  hci_command_send
  55:../libraries/CC3000_Host_Driver/hci.c **** //!
  56:../libraries/CC3000_Host_Driver/hci.c **** //!  @param  usOpcode     command operation code
  57:../libraries/CC3000_Host_Driver/hci.c **** //!  @param  pucBuff      pointer to the command's arguments buffer
  58:../libraries/CC3000_Host_Driver/hci.c **** //!  @param  ucArgsLength length of the arguments
  59:../libraries/CC3000_Host_Driver/hci.c **** //!
  60:../libraries/CC3000_Host_Driver/hci.c **** //!  @return              none
  61:../libraries/CC3000_Host_Driver/hci.c **** //!
  62:../libraries/CC3000_Host_Driver/hci.c **** //!  @brief               Initiate an HCI command.
  63:../libraries/CC3000_Host_Driver/hci.c **** //
  64:../libraries/CC3000_Host_Driver/hci.c **** //*****************************************************************************
  65:../libraries/CC3000_Host_Driver/hci.c **** unsigned short 
  66:../libraries/CC3000_Host_Driver/hci.c **** hci_command_send(unsigned short usOpcode, unsigned char *pucBuff,
  67:../libraries/CC3000_Host_Driver/hci.c ****                      unsigned char ucArgsLength)
  68:../libraries/CC3000_Host_Driver/hci.c **** { 
  27              		.loc 1 68 0
  28              		.cfi_startproc
  29              		@ args = 0, pretend = 0, frame = 16
  30              		@ frame_needed = 1, uses_anonymous_args = 0
  31 0000 80B5     		push	{r7, lr}
  32              	.LCFI0:
  33              		.cfi_def_cfa_offset 8
  34              		.cfi_offset 7, -8
  35              		.cfi_offset 14, -4
  36 0002 84B0     		sub	sp, sp, #16
  37              	.LCFI1:
  38              		.cfi_def_cfa_offset 24
  39 0004 00AF     		add	r7, sp, #0
  40              	.LCFI2:
  41              		.cfi_def_cfa_register 7
  42 0006 3960     		str	r1, [r7, #0]
  43 0008 1346     		mov	r3, r2
  44 000a 0246     		mov	r2, r0	@ movhi
  45 000c FA80     		strh	r2, [r7, #6]	@ movhi
  46 000e 7B71     		strb	r3, [r7, #5]
  69:../libraries/CC3000_Host_Driver/hci.c **** 	unsigned char *stream;
  70:../libraries/CC3000_Host_Driver/hci.c **** 	
  71:../libraries/CC3000_Host_Driver/hci.c **** 	stream = (pucBuff + SPI_HEADER_SIZE);
  47              		.loc 1 71 0
  48 0010 3B68     		ldr	r3, [r7, #0]
  49 0012 03F10503 		add	r3, r3, #5
  50 0016 FB60     		str	r3, [r7, #12]
  72:../libraries/CC3000_Host_Driver/hci.c **** 	
  73:../libraries/CC3000_Host_Driver/hci.c **** 	UINT8_TO_STREAM(stream, HCI_TYPE_CMND);
  51              		.loc 1 73 0
  52 0018 FB68     		ldr	r3, [r7, #12]
  53 001a 4FF00102 		mov	r2, #1
  54 001e 1A70     		strb	r2, [r3, #0]
  55 0020 FB68     		ldr	r3, [r7, #12]
  56 0022 03F10103 		add	r3, r3, #1
  57 0026 FB60     		str	r3, [r7, #12]
  74:../libraries/CC3000_Host_Driver/hci.c **** 	stream = UINT16_TO_STREAM(stream, usOpcode);
  58              		.loc 1 74 0
  59 0028 FB88     		ldrh	r3, [r7, #6]
  60 002a F868     		ldr	r0, [r7, #12]
  61 002c 1946     		mov	r1, r3
  62 002e FFF7FEFF 		bl	UINT16_TO_STREAM_f
  63 0032 F860     		str	r0, [r7, #12]
  75:../libraries/CC3000_Host_Driver/hci.c **** 	UINT8_TO_STREAM(stream, ucArgsLength);
  64              		.loc 1 75 0
  65 0034 FB68     		ldr	r3, [r7, #12]
  66 0036 7A79     		ldrb	r2, [r7, #5]
  67 0038 1A70     		strb	r2, [r3, #0]
  68 003a FB68     		ldr	r3, [r7, #12]
  69 003c 03F10103 		add	r3, r3, #1
  70 0040 FB60     		str	r3, [r7, #12]
  76:../libraries/CC3000_Host_Driver/hci.c **** 	
  77:../libraries/CC3000_Host_Driver/hci.c **** 	//Update the opcode of the event we will be waiting for
  78:../libraries/CC3000_Host_Driver/hci.c **** 	SpiWrite(pucBuff, ucArgsLength + SIMPLE_LINK_HCI_CMND_HEADER_SIZE);
  71              		.loc 1 78 0
  72 0042 7B79     		ldrb	r3, [r7, #5]	@ zero_extendqisi2
  73 0044 9BB2     		uxth	r3, r3
  74 0046 03F10403 		add	r3, r3, #4
  75 004a 9BB2     		uxth	r3, r3
  76 004c 3868     		ldr	r0, [r7, #0]
  77 004e 1946     		mov	r1, r3
  78 0050 FFF7FEFF 		bl	SpiWrite
  79:../libraries/CC3000_Host_Driver/hci.c **** 	
  80:../libraries/CC3000_Host_Driver/hci.c **** 	return(0);
  79              		.loc 1 80 0
  80 0054 4FF00003 		mov	r3, #0
  81:../libraries/CC3000_Host_Driver/hci.c **** }
  81              		.loc 1 81 0
  82 0058 1846     		mov	r0, r3
  83 005a 07F11007 		add	r7, r7, #16
  84 005e BD46     		mov	sp, r7
  85 0060 80BD     		pop	{r7, pc}
  86              		.cfi_endproc
  87              	.LFE56:
  89 0062 00BF     		.section	.text.hci_data_send,"ax",%progbits
  90              		.align	2
  91              		.global	hci_data_send
  92              		.thumb
  93              		.thumb_func
  95              	hci_data_send:
  96              	.LFB57:
  82:../libraries/CC3000_Host_Driver/hci.c **** 
  83:../libraries/CC3000_Host_Driver/hci.c **** //*****************************************************************************
  84:../libraries/CC3000_Host_Driver/hci.c **** //
  85:../libraries/CC3000_Host_Driver/hci.c **** //!  hci_data_send
  86:../libraries/CC3000_Host_Driver/hci.c **** //!
  87:../libraries/CC3000_Host_Driver/hci.c **** //!  @param  usOpcode        command operation code
  88:../libraries/CC3000_Host_Driver/hci.c **** //!	 @param  ucArgs					 pointer to the command's arguments buffer
  89:../libraries/CC3000_Host_Driver/hci.c **** //!  @param  usArgsLength    length of the arguments
  90:../libraries/CC3000_Host_Driver/hci.c **** //!  @param  ucTail          pointer to the data buffer
  91:../libraries/CC3000_Host_Driver/hci.c **** //!  @param  usTailLength    buffer length
  92:../libraries/CC3000_Host_Driver/hci.c **** //!
  93:../libraries/CC3000_Host_Driver/hci.c **** //!  @return none
  94:../libraries/CC3000_Host_Driver/hci.c **** //!
  95:../libraries/CC3000_Host_Driver/hci.c **** //!  @brief              Initiate an HCI data write operation
  96:../libraries/CC3000_Host_Driver/hci.c **** //
  97:../libraries/CC3000_Host_Driver/hci.c **** //*****************************************************************************
  98:../libraries/CC3000_Host_Driver/hci.c **** long
  99:../libraries/CC3000_Host_Driver/hci.c **** hci_data_send(unsigned char ucOpcode, 
 100:../libraries/CC3000_Host_Driver/hci.c **** 							unsigned char *ucArgs,
 101:../libraries/CC3000_Host_Driver/hci.c **** 							unsigned short usArgsLength, 
 102:../libraries/CC3000_Host_Driver/hci.c **** 							unsigned short usDataLength,
 103:../libraries/CC3000_Host_Driver/hci.c **** 							const unsigned char *ucTail,
 104:../libraries/CC3000_Host_Driver/hci.c **** 							unsigned short usTailLength)
 105:../libraries/CC3000_Host_Driver/hci.c **** {
  97              		.loc 1 105 0
  98              		.cfi_startproc
  99              		@ args = 8, pretend = 0, frame = 24
 100              		@ frame_needed = 1, uses_anonymous_args = 0
 101 0000 80B5     		push	{r7, lr}
 102              	.LCFI3:
 103              		.cfi_def_cfa_offset 8
 104              		.cfi_offset 7, -8
 105              		.cfi_offset 14, -4
 106 0002 86B0     		sub	sp, sp, #24
 107              	.LCFI4:
 108              		.cfi_def_cfa_offset 32
 109 0004 00AF     		add	r7, sp, #0
 110              	.LCFI5:
 111              		.cfi_def_cfa_register 7
 112 0006 B960     		str	r1, [r7, #8]
 113 0008 0146     		mov	r1, r0
 114 000a F973     		strb	r1, [r7, #15]
 115 000c BA81     		strh	r2, [r7, #12]	@ movhi
 116 000e FB80     		strh	r3, [r7, #6]	@ movhi
 106:../libraries/CC3000_Host_Driver/hci.c **** 	unsigned char *stream;
 107:../libraries/CC3000_Host_Driver/hci.c **** 	
 108:../libraries/CC3000_Host_Driver/hci.c **** 	stream = ((ucArgs) + SPI_HEADER_SIZE);
 117              		.loc 1 108 0
 118 0010 BB68     		ldr	r3, [r7, #8]
 119 0012 03F10503 		add	r3, r3, #5
 120 0016 7B61     		str	r3, [r7, #20]
 109:../libraries/CC3000_Host_Driver/hci.c **** 	
 110:../libraries/CC3000_Host_Driver/hci.c **** 	UINT8_TO_STREAM(stream, HCI_TYPE_DATA);
 121              		.loc 1 110 0
 122 0018 7B69     		ldr	r3, [r7, #20]
 123 001a 4FF00202 		mov	r2, #2
 124 001e 1A70     		strb	r2, [r3, #0]
 125 0020 7B69     		ldr	r3, [r7, #20]
 126 0022 03F10103 		add	r3, r3, #1
 127 0026 7B61     		str	r3, [r7, #20]
 111:../libraries/CC3000_Host_Driver/hci.c **** 	UINT8_TO_STREAM(stream, ucOpcode);
 128              		.loc 1 111 0
 129 0028 7B69     		ldr	r3, [r7, #20]
 130 002a FA7B     		ldrb	r2, [r7, #15]
 131 002c 1A70     		strb	r2, [r3, #0]
 132 002e 7B69     		ldr	r3, [r7, #20]
 133 0030 03F10103 		add	r3, r3, #1
 134 0034 7B61     		str	r3, [r7, #20]
 112:../libraries/CC3000_Host_Driver/hci.c **** 	UINT8_TO_STREAM(stream, usArgsLength);
 135              		.loc 1 112 0
 136 0036 BB89     		ldrh	r3, [r7, #12]	@ movhi
 137 0038 DAB2     		uxtb	r2, r3
 138 003a 7B69     		ldr	r3, [r7, #20]
 139 003c 1A70     		strb	r2, [r3, #0]
 140 003e 7B69     		ldr	r3, [r7, #20]
 141 0040 03F10103 		add	r3, r3, #1
 142 0044 7B61     		str	r3, [r7, #20]
 113:../libraries/CC3000_Host_Driver/hci.c **** 	stream = UINT16_TO_STREAM(stream, usArgsLength + usDataLength + usTailLength);
 143              		.loc 1 113 0
 144 0046 BA89     		ldrh	r2, [r7, #12]	@ movhi
 145 0048 FB88     		ldrh	r3, [r7, #6]	@ movhi
 146 004a D318     		adds	r3, r2, r3
 147 004c 9AB2     		uxth	r2, r3
 148 004e BB8C     		ldrh	r3, [r7, #36]	@ movhi
 149 0050 D318     		adds	r3, r2, r3
 150 0052 9BB2     		uxth	r3, r3
 151 0054 7869     		ldr	r0, [r7, #20]
 152 0056 1946     		mov	r1, r3
 153 0058 FFF7FEFF 		bl	UINT16_TO_STREAM_f
 154 005c 7861     		str	r0, [r7, #20]
 114:../libraries/CC3000_Host_Driver/hci.c **** 	
 115:../libraries/CC3000_Host_Driver/hci.c **** 	// Send the packet over the SPI
 116:../libraries/CC3000_Host_Driver/hci.c **** 	SpiWrite(ucArgs, SIMPLE_LINK_HCI_DATA_HEADER_SIZE + usArgsLength + usDataLength + usTailLength);
 155              		.loc 1 116 0
 156 005e BA89     		ldrh	r2, [r7, #12]	@ movhi
 157 0060 FB88     		ldrh	r3, [r7, #6]	@ movhi
 158 0062 D318     		adds	r3, r2, r3
 159 0064 9AB2     		uxth	r2, r3
 160 0066 BB8C     		ldrh	r3, [r7, #36]	@ movhi
 161 0068 D318     		adds	r3, r2, r3
 162 006a 9BB2     		uxth	r3, r3
 163 006c 03F10503 		add	r3, r3, #5
 164 0070 9BB2     		uxth	r3, r3
 165 0072 B868     		ldr	r0, [r7, #8]
 166 0074 1946     		mov	r1, r3
 167 0076 FFF7FEFF 		bl	SpiWrite
 117:../libraries/CC3000_Host_Driver/hci.c **** 	
 118:../libraries/CC3000_Host_Driver/hci.c **** 	return(ESUCCESS);
 168              		.loc 1 118 0
 169 007a 4FF00003 		mov	r3, #0
 119:../libraries/CC3000_Host_Driver/hci.c **** }
 170              		.loc 1 119 0
 171 007e 1846     		mov	r0, r3
 172 0080 07F11807 		add	r7, r7, #24
 173 0084 BD46     		mov	sp, r7
 174 0086 80BD     		pop	{r7, pc}
 175              		.cfi_endproc
 176              	.LFE57:
 178              		.section	.text.hci_data_command_send,"ax",%progbits
 179              		.align	2
 180              		.global	hci_data_command_send
 181              		.thumb
 182              		.thumb_func
 184              	hci_data_command_send:
 185              	.LFB58:
 120:../libraries/CC3000_Host_Driver/hci.c **** 
 121:../libraries/CC3000_Host_Driver/hci.c **** 
 122:../libraries/CC3000_Host_Driver/hci.c **** //*****************************************************************************
 123:../libraries/CC3000_Host_Driver/hci.c **** //
 124:../libraries/CC3000_Host_Driver/hci.c **** //!  hci_data_command_send
 125:../libraries/CC3000_Host_Driver/hci.c **** //!
 126:../libraries/CC3000_Host_Driver/hci.c **** //!  @param  usOpcode      command operation code
 127:../libraries/CC3000_Host_Driver/hci.c **** //!  @param  pucBuff       pointer to the data buffer
 128:../libraries/CC3000_Host_Driver/hci.c **** //!  @param  ucArgsLength  arguments length
 129:../libraries/CC3000_Host_Driver/hci.c **** //!  @param  ucDataLength  data length
 130:../libraries/CC3000_Host_Driver/hci.c **** //!
 131:../libraries/CC3000_Host_Driver/hci.c **** //!  @return none
 132:../libraries/CC3000_Host_Driver/hci.c **** //!
 133:../libraries/CC3000_Host_Driver/hci.c **** //!  @brief              Prepeare HCI header and initiate an HCI data write operation
 134:../libraries/CC3000_Host_Driver/hci.c **** //
 135:../libraries/CC3000_Host_Driver/hci.c **** //*****************************************************************************
 136:../libraries/CC3000_Host_Driver/hci.c **** void hci_data_command_send(unsigned short usOpcode, unsigned char *pucBuff,
 137:../libraries/CC3000_Host_Driver/hci.c ****                      unsigned char ucArgsLength,unsigned short ucDataLength)
 138:../libraries/CC3000_Host_Driver/hci.c **** { 
 186              		.loc 1 138 0
 187              		.cfi_startproc
 188              		@ args = 0, pretend = 0, frame = 24
 189              		@ frame_needed = 1, uses_anonymous_args = 0
 190 0000 80B5     		push	{r7, lr}
 191              	.LCFI6:
 192              		.cfi_def_cfa_offset 8
 193              		.cfi_offset 7, -8
 194              		.cfi_offset 14, -4
 195 0002 86B0     		sub	sp, sp, #24
 196              	.LCFI7:
 197              		.cfi_def_cfa_offset 32
 198 0004 00AF     		add	r7, sp, #0
 199              	.LCFI8:
 200              		.cfi_def_cfa_register 7
 201 0006 B960     		str	r1, [r7, #8]
 202 0008 0146     		mov	r1, r0	@ movhi
 203 000a F981     		strh	r1, [r7, #14]	@ movhi
 204 000c 7A73     		strb	r2, [r7, #13]
 205 000e FB80     		strh	r3, [r7, #6]	@ movhi
 139:../libraries/CC3000_Host_Driver/hci.c ****  	unsigned char *stream = (pucBuff + SPI_HEADER_SIZE);
 206              		.loc 1 139 0
 207 0010 BB68     		ldr	r3, [r7, #8]
 208 0012 03F10503 		add	r3, r3, #5
 209 0016 7B61     		str	r3, [r7, #20]
 140:../libraries/CC3000_Host_Driver/hci.c **** 	
 141:../libraries/CC3000_Host_Driver/hci.c **** 	UINT8_TO_STREAM(stream, HCI_TYPE_DATA);
 210              		.loc 1 141 0
 211 0018 7B69     		ldr	r3, [r7, #20]
 212 001a 4FF00202 		mov	r2, #2
 213 001e 1A70     		strb	r2, [r3, #0]
 214 0020 7B69     		ldr	r3, [r7, #20]
 215 0022 03F10103 		add	r3, r3, #1
 216 0026 7B61     		str	r3, [r7, #20]
 142:../libraries/CC3000_Host_Driver/hci.c **** 	UINT8_TO_STREAM(stream, usOpcode);
 217              		.loc 1 142 0
 218 0028 FB89     		ldrh	r3, [r7, #14]	@ movhi
 219 002a DAB2     		uxtb	r2, r3
 220 002c 7B69     		ldr	r3, [r7, #20]
 221 002e 1A70     		strb	r2, [r3, #0]
 222 0030 7B69     		ldr	r3, [r7, #20]
 223 0032 03F10103 		add	r3, r3, #1
 224 0036 7B61     		str	r3, [r7, #20]
 143:../libraries/CC3000_Host_Driver/hci.c **** 	UINT8_TO_STREAM(stream, ucArgsLength);
 225              		.loc 1 143 0
 226 0038 7B69     		ldr	r3, [r7, #20]
 227 003a 7A7B     		ldrb	r2, [r7, #13]
 228 003c 1A70     		strb	r2, [r3, #0]
 229 003e 7B69     		ldr	r3, [r7, #20]
 230 0040 03F10103 		add	r3, r3, #1
 231 0044 7B61     		str	r3, [r7, #20]
 144:../libraries/CC3000_Host_Driver/hci.c **** 	stream = UINT16_TO_STREAM(stream, ucArgsLength + ucDataLength);
 232              		.loc 1 144 0
 233 0046 7B7B     		ldrb	r3, [r7, #13]	@ zero_extendqisi2
 234 0048 9AB2     		uxth	r2, r3
 235 004a FB88     		ldrh	r3, [r7, #6]	@ movhi
 236 004c D318     		adds	r3, r2, r3
 237 004e 9BB2     		uxth	r3, r3
 238 0050 7869     		ldr	r0, [r7, #20]
 239 0052 1946     		mov	r1, r3
 240 0054 FFF7FEFF 		bl	UINT16_TO_STREAM_f
 241 0058 7861     		str	r0, [r7, #20]
 145:../libraries/CC3000_Host_Driver/hci.c **** 	
 146:../libraries/CC3000_Host_Driver/hci.c **** 	// Send the command over SPI on data channel
 147:../libraries/CC3000_Host_Driver/hci.c **** 	SpiWrite(pucBuff, ucArgsLength + ucDataLength + SIMPLE_LINK_HCI_DATA_CMND_HEADER_SIZE);
 242              		.loc 1 147 0
 243 005a 7B7B     		ldrb	r3, [r7, #13]	@ zero_extendqisi2
 244 005c 9AB2     		uxth	r2, r3
 245 005e FB88     		ldrh	r3, [r7, #6]	@ movhi
 246 0060 D318     		adds	r3, r2, r3
 247 0062 9BB2     		uxth	r3, r3
 248 0064 03F10503 		add	r3, r3, #5
 249 0068 9BB2     		uxth	r3, r3
 250 006a B868     		ldr	r0, [r7, #8]
 251 006c 1946     		mov	r1, r3
 252 006e FFF7FEFF 		bl	SpiWrite
 148:../libraries/CC3000_Host_Driver/hci.c **** 	
 149:../libraries/CC3000_Host_Driver/hci.c **** 	return;
 253              		.loc 1 149 0
 254 0072 00BF     		nop
 150:../libraries/CC3000_Host_Driver/hci.c **** }
 255              		.loc 1 150 0
 256 0074 07F11807 		add	r7, r7, #24
 257 0078 BD46     		mov	sp, r7
 258 007a 80BD     		pop	{r7, pc}
 259              		.cfi_endproc
 260              	.LFE58:
 262              		.section	.text.hci_patch_send,"ax",%progbits
 263              		.align	2
 264              		.global	hci_patch_send
 265              		.thumb
 266              		.thumb_func
 268              	hci_patch_send:
 269              	.LFB59:
 151:../libraries/CC3000_Host_Driver/hci.c **** 
 152:../libraries/CC3000_Host_Driver/hci.c **** //*****************************************************************************
 153:../libraries/CC3000_Host_Driver/hci.c **** //
 154:../libraries/CC3000_Host_Driver/hci.c **** //!  hci_patch_send
 155:../libraries/CC3000_Host_Driver/hci.c **** //!
 156:../libraries/CC3000_Host_Driver/hci.c **** //!  @param  usOpcode      command operation code
 157:../libraries/CC3000_Host_Driver/hci.c **** //!  @param  pucBuff       pointer to the command's arguments buffer
 158:../libraries/CC3000_Host_Driver/hci.c **** //!  @param  patch         pointer to patch content buffer 
 159:../libraries/CC3000_Host_Driver/hci.c **** //!  @param  usDataLength  data length
 160:../libraries/CC3000_Host_Driver/hci.c **** //!
 161:../libraries/CC3000_Host_Driver/hci.c **** //!  @return              none
 162:../libraries/CC3000_Host_Driver/hci.c **** //!
 163:../libraries/CC3000_Host_Driver/hci.c **** //!  @brief               Prepeare HCI header and initiate an HCI patch write operation
 164:../libraries/CC3000_Host_Driver/hci.c **** //
 165:../libraries/CC3000_Host_Driver/hci.c **** //*****************************************************************************
 166:../libraries/CC3000_Host_Driver/hci.c **** void
 167:../libraries/CC3000_Host_Driver/hci.c **** hci_patch_send(unsigned char ucOpcode, unsigned char *pucBuff, char *patch, unsigned short usDataLe
 168:../libraries/CC3000_Host_Driver/hci.c **** { 
 270              		.loc 1 168 0
 271              		.cfi_startproc
 272              		@ args = 0, pretend = 0, frame = 32
 273              		@ frame_needed = 1, uses_anonymous_args = 0
 274 0000 80B5     		push	{r7, lr}
 275              	.LCFI9:
 276              		.cfi_def_cfa_offset 8
 277              		.cfi_offset 7, -8
 278              		.cfi_offset 14, -4
 279 0002 88B0     		sub	sp, sp, #32
 280              	.LCFI10:
 281              		.cfi_def_cfa_offset 40
 282 0004 00AF     		add	r7, sp, #0
 283              	.LCFI11:
 284              		.cfi_def_cfa_register 7
 285 0006 B960     		str	r1, [r7, #8]
 286 0008 7A60     		str	r2, [r7, #4]
 287 000a 0246     		mov	r2, r0
 288 000c FA73     		strb	r2, [r7, #15]
 289 000e BB81     		strh	r3, [r7, #12]	@ movhi
 169:../libraries/CC3000_Host_Driver/hci.c ****  	unsigned char *data_ptr = (pucBuff + SPI_HEADER_SIZE);
 290              		.loc 1 169 0
 291 0010 BB68     		ldr	r3, [r7, #8]
 292 0012 03F10503 		add	r3, r3, #5
 293 0016 BB61     		str	r3, [r7, #24]
 170:../libraries/CC3000_Host_Driver/hci.c **** 	unsigned short usTransLength;
 171:../libraries/CC3000_Host_Driver/hci.c **** 	unsigned char *stream = (pucBuff + SPI_HEADER_SIZE);
 294              		.loc 1 171 0
 295 0018 BB68     		ldr	r3, [r7, #8]
 296 001a 03F10503 		add	r3, r3, #5
 297 001e 7B61     		str	r3, [r7, #20]
 172:../libraries/CC3000_Host_Driver/hci.c **** 	
 173:../libraries/CC3000_Host_Driver/hci.c **** 	UINT8_TO_STREAM(stream, HCI_TYPE_PATCH);
 298              		.loc 1 173 0
 299 0020 7B69     		ldr	r3, [r7, #20]
 300 0022 4FF00302 		mov	r2, #3
 301 0026 1A70     		strb	r2, [r3, #0]
 302 0028 7B69     		ldr	r3, [r7, #20]
 303 002a 03F10103 		add	r3, r3, #1
 304 002e 7B61     		str	r3, [r7, #20]
 174:../libraries/CC3000_Host_Driver/hci.c **** 	UINT8_TO_STREAM(stream, ucOpcode);
 305              		.loc 1 174 0
 306 0030 7B69     		ldr	r3, [r7, #20]
 307 0032 FA7B     		ldrb	r2, [r7, #15]
 308 0034 1A70     		strb	r2, [r3, #0]
 309 0036 7B69     		ldr	r3, [r7, #20]
 310 0038 03F10103 		add	r3, r3, #1
 311 003c 7B61     		str	r3, [r7, #20]
 175:../libraries/CC3000_Host_Driver/hci.c **** 	stream = UINT16_TO_STREAM(stream, usDataLength + SIMPLE_LINK_HCI_PATCH_HEADER_SIZE);
 312              		.loc 1 175 0
 313 003e BB89     		ldrh	r3, [r7, #12]	@ movhi
 314 0040 03F10203 		add	r3, r3, #2
 315 0044 9BB2     		uxth	r3, r3
 316 0046 7869     		ldr	r0, [r7, #20]
 317 0048 1946     		mov	r1, r3
 318 004a FFF7FEFF 		bl	UINT16_TO_STREAM_f
 319 004e 7861     		str	r0, [r7, #20]
 176:../libraries/CC3000_Host_Driver/hci.c **** 	
 177:../libraries/CC3000_Host_Driver/hci.c **** 	if (usDataLength <= SL_PATCH_PORTION_SIZE)
 320              		.loc 1 177 0
 321 0050 BB89     		ldrh	r3, [r7, #12]
 322 0052 B3F57A7F 		cmp	r3, #1000
 323 0056 1CD8     		bhi	.L8
 178:../libraries/CC3000_Host_Driver/hci.c **** 	{
 179:../libraries/CC3000_Host_Driver/hci.c **** 		UINT16_TO_STREAM(stream, usDataLength);
 324              		.loc 1 179 0
 325 0058 BB89     		ldrh	r3, [r7, #12]
 326 005a 7869     		ldr	r0, [r7, #20]
 327 005c 1946     		mov	r1, r3
 328 005e FFF7FEFF 		bl	UINT16_TO_STREAM_f
 180:../libraries/CC3000_Host_Driver/hci.c **** 		stream = UINT16_TO_STREAM(stream, usDataLength);
 329              		.loc 1 180 0
 330 0062 BB89     		ldrh	r3, [r7, #12]
 331 0064 7869     		ldr	r0, [r7, #20]
 332 0066 1946     		mov	r1, r3
 333 0068 FFF7FEFF 		bl	UINT16_TO_STREAM_f
 334 006c 7861     		str	r0, [r7, #20]
 181:../libraries/CC3000_Host_Driver/hci.c **** 		memcpy((pucBuff + SPI_HEADER_SIZE) + HCI_PATCH_HEADER_SIZE, patch, usDataLength);
 335              		.loc 1 181 0
 336 006e BB68     		ldr	r3, [r7, #8]
 337 0070 03F10B02 		add	r2, r3, #11
 338 0074 BB89     		ldrh	r3, [r7, #12]
 339 0076 1046     		mov	r0, r2
 340 0078 7968     		ldr	r1, [r7, #4]
 341 007a 1A46     		mov	r2, r3
 342 007c FFF7FEFF 		bl	memcpy
 182:../libraries/CC3000_Host_Driver/hci.c **** 		
 183:../libraries/CC3000_Host_Driver/hci.c **** 		// Update the opcode of the event we will be waiting for
 184:../libraries/CC3000_Host_Driver/hci.c **** 		SpiWrite(pucBuff, usDataLength + HCI_PATCH_HEADER_SIZE);
 343              		.loc 1 184 0
 344 0080 BB89     		ldrh	r3, [r7, #12]	@ movhi
 345 0082 03F10603 		add	r3, r3, #6
 346 0086 9BB2     		uxth	r3, r3
 347 0088 B868     		ldr	r0, [r7, #8]
 348 008a 1946     		mov	r1, r3
 349 008c FFF7FEFF 		bl	SpiWrite
 350 0090 60E0     		b	.L7
 351              	.L8:
 185:../libraries/CC3000_Host_Driver/hci.c **** 	}
 186:../libraries/CC3000_Host_Driver/hci.c **** 	else
 187:../libraries/CC3000_Host_Driver/hci.c **** 	{
 188:../libraries/CC3000_Host_Driver/hci.c **** 		
 189:../libraries/CC3000_Host_Driver/hci.c **** 		usTransLength = (usDataLength/SL_PATCH_PORTION_SIZE);
 352              		.loc 1 189 0
 353 0092 BA89     		ldrh	r2, [r7, #12]
 354 0094 44F6D353 		movw	r3, #19923
 355 0098 C1F26203 		movt	r3, 4194
 356 009c A3FB0213 		umull	r1, r3, r3, r2
 357 00a0 4FEA9313 		lsr	r3, r3, #6
 358 00a4 FB83     		strh	r3, [r7, #30]	@ movhi
 190:../libraries/CC3000_Host_Driver/hci.c **** 		UINT16_TO_STREAM(stream, usDataLength + SIMPLE_LINK_HCI_PATCH_HEADER_SIZE + usTransLength*SIMPLE_
 359              		.loc 1 190 0
 360 00a6 FB8B     		ldrh	r3, [r7, #30]	@ movhi
 361 00a8 4FEA4303 		lsl	r3, r3, #1
 362 00ac 9AB2     		uxth	r2, r3
 363 00ae BB89     		ldrh	r3, [r7, #12]	@ movhi
 364 00b0 D318     		adds	r3, r2, r3
 365 00b2 9BB2     		uxth	r3, r3
 366 00b4 03F10203 		add	r3, r3, #2
 367 00b8 9BB2     		uxth	r3, r3
 368 00ba 7869     		ldr	r0, [r7, #20]
 369 00bc 1946     		mov	r1, r3
 370 00be FFF7FEFF 		bl	UINT16_TO_STREAM_f
 191:../libraries/CC3000_Host_Driver/hci.c **** 		stream = UINT16_TO_STREAM(stream, SL_PATCH_PORTION_SIZE);
 371              		.loc 1 191 0
 372 00c2 7869     		ldr	r0, [r7, #20]
 373 00c4 4FF47A71 		mov	r1, #1000
 374 00c8 FFF7FEFF 		bl	UINT16_TO_STREAM_f
 375 00cc 7861     		str	r0, [r7, #20]
 192:../libraries/CC3000_Host_Driver/hci.c **** 		memcpy(pucBuff + SPI_HEADER_SIZE + HCI_PATCH_HEADER_SIZE, patch, SL_PATCH_PORTION_SIZE);
 376              		.loc 1 192 0
 377 00ce BB68     		ldr	r3, [r7, #8]
 378 00d0 03F10B03 		add	r3, r3, #11
 379 00d4 1846     		mov	r0, r3
 380 00d6 7968     		ldr	r1, [r7, #4]
 381 00d8 4FF47A72 		mov	r2, #1000
 382 00dc FFF7FEFF 		bl	memcpy
 193:../libraries/CC3000_Host_Driver/hci.c **** 		usDataLength -= SL_PATCH_PORTION_SIZE;
 383              		.loc 1 193 0
 384 00e0 BB89     		ldrh	r3, [r7, #12]	@ movhi
 385 00e2 A3F57A73 		sub	r3, r3, #1000
 386 00e6 BB81     		strh	r3, [r7, #12]	@ movhi
 194:../libraries/CC3000_Host_Driver/hci.c **** 		patch += SL_PATCH_PORTION_SIZE;
 387              		.loc 1 194 0
 388 00e8 7B68     		ldr	r3, [r7, #4]
 389 00ea 03F57A73 		add	r3, r3, #1000
 390 00ee 7B60     		str	r3, [r7, #4]
 195:../libraries/CC3000_Host_Driver/hci.c **** 		
 196:../libraries/CC3000_Host_Driver/hci.c **** 		// Update the opcode of the event we will be waiting for
 197:../libraries/CC3000_Host_Driver/hci.c **** 		SpiWrite(pucBuff, SL_PATCH_PORTION_SIZE + HCI_PATCH_HEADER_SIZE);
 391              		.loc 1 197 0
 392 00f0 B868     		ldr	r0, [r7, #8]
 393 00f2 40F2EE31 		movw	r1, #1006
 394 00f6 FFF7FEFF 		bl	SpiWrite
 198:../libraries/CC3000_Host_Driver/hci.c **** 		
 199:../libraries/CC3000_Host_Driver/hci.c **** 		while (usDataLength)
 395              		.loc 1 199 0
 396 00fa 28E0     		b	.L10
 397              	.L13:
 200:../libraries/CC3000_Host_Driver/hci.c **** 		{
 201:../libraries/CC3000_Host_Driver/hci.c **** 			if (usDataLength <= SL_PATCH_PORTION_SIZE)
 398              		.loc 1 201 0
 399 00fc BB89     		ldrh	r3, [r7, #12]
 400 00fe B3F57A7F 		cmp	r3, #1000
 401 0102 05D8     		bhi	.L11
 202:../libraries/CC3000_Host_Driver/hci.c **** 			{
 203:../libraries/CC3000_Host_Driver/hci.c **** 				usTransLength = usDataLength;
 402              		.loc 1 203 0
 403 0104 BB89     		ldrh	r3, [r7, #12]	@ movhi
 404 0106 FB83     		strh	r3, [r7, #30]	@ movhi
 204:../libraries/CC3000_Host_Driver/hci.c **** 				usDataLength = 0;
 405              		.loc 1 204 0
 406 0108 4FF00003 		mov	r3, #0
 407 010c BB81     		strh	r3, [r7, #12]	@ movhi
 408 010e 06E0     		b	.L12
 409              	.L11:
 205:../libraries/CC3000_Host_Driver/hci.c **** 				
 206:../libraries/CC3000_Host_Driver/hci.c **** 			}
 207:../libraries/CC3000_Host_Driver/hci.c **** 			else
 208:../libraries/CC3000_Host_Driver/hci.c **** 			{
 209:../libraries/CC3000_Host_Driver/hci.c **** 				usTransLength = SL_PATCH_PORTION_SIZE;
 410              		.loc 1 209 0
 411 0110 4FF47A73 		mov	r3, #1000
 412 0114 FB83     		strh	r3, [r7, #30]	@ movhi
 210:../libraries/CC3000_Host_Driver/hci.c **** 				usDataLength -= usTransLength;
 413              		.loc 1 210 0
 414 0116 BA89     		ldrh	r2, [r7, #12]	@ movhi
 415 0118 FB8B     		ldrh	r3, [r7, #30]	@ movhi
 416 011a D31A     		subs	r3, r2, r3
 417 011c BB81     		strh	r3, [r7, #12]	@ movhi
 418              	.L12:
 211:../libraries/CC3000_Host_Driver/hci.c **** 			}
 212:../libraries/CC3000_Host_Driver/hci.c **** 			
 213:../libraries/CC3000_Host_Driver/hci.c **** 			*(unsigned short *)data_ptr = usTransLength;
 419              		.loc 1 213 0
 420 011e BB69     		ldr	r3, [r7, #24]
 421 0120 FA8B     		ldrh	r2, [r7, #30]	@ movhi
 422 0122 1A80     		strh	r2, [r3, #0]	@ movhi
 214:../libraries/CC3000_Host_Driver/hci.c **** 			memcpy(data_ptr + SIMPLE_LINK_HCI_PATCH_HEADER_SIZE, patch, usTransLength);
 423              		.loc 1 214 0
 424 0124 BB69     		ldr	r3, [r7, #24]
 425 0126 03F10202 		add	r2, r3, #2
 426 012a FB8B     		ldrh	r3, [r7, #30]
 427 012c 1046     		mov	r0, r2
 428 012e 7968     		ldr	r1, [r7, #4]
 429 0130 1A46     		mov	r2, r3
 430 0132 FFF7FEFF 		bl	memcpy
 215:../libraries/CC3000_Host_Driver/hci.c **** 			patch += usTransLength;
 431              		.loc 1 215 0
 432 0136 FB8B     		ldrh	r3, [r7, #30]
 433 0138 7A68     		ldr	r2, [r7, #4]
 434 013a D318     		adds	r3, r2, r3
 435 013c 7B60     		str	r3, [r7, #4]
 216:../libraries/CC3000_Host_Driver/hci.c **** 			
 217:../libraries/CC3000_Host_Driver/hci.c **** 			// Update the opcode of the event we will be waiting for
 218:../libraries/CC3000_Host_Driver/hci.c **** 			SpiWrite((unsigned char *)data_ptr, usTransLength + sizeof(usTransLength));
 436              		.loc 1 218 0
 437 013e FB8B     		ldrh	r3, [r7, #30]	@ movhi
 438 0140 03F10203 		add	r3, r3, #2
 439 0144 9BB2     		uxth	r3, r3
 440 0146 B869     		ldr	r0, [r7, #24]
 441 0148 1946     		mov	r1, r3
 442 014a FFF7FEFF 		bl	SpiWrite
 443              	.L10:
 199:../libraries/CC3000_Host_Driver/hci.c **** 		while (usDataLength)
 444              		.loc 1 199 0 discriminator 1
 445 014e BB89     		ldrh	r3, [r7, #12]
 446 0150 002B     		cmp	r3, #0
 447 0152 D3D1     		bne	.L13
 448              	.L7:
 219:../libraries/CC3000_Host_Driver/hci.c **** 		}
 220:../libraries/CC3000_Host_Driver/hci.c **** 	}
 221:../libraries/CC3000_Host_Driver/hci.c **** }
 449              		.loc 1 221 0
 450 0154 07F12007 		add	r7, r7, #32
 451 0158 BD46     		mov	sp, r7
 452 015a 80BD     		pop	{r7, pc}
 453              		.cfi_endproc
 454              	.LFE59:
 456              		.text
 457              	.Letext0:
 458              		.file 2 "/usr/local/gcc-arm-none-eabi-4_7-2013q1/bin/../lib/gcc/arm-none-eabi/4.7.3/../../../../ar
 459              		.file 3 "/Users/zac/code/spark/marvin/libraries/CMSIS/Include/core_cm3.h"