   1              		.syntax unified
   2              		.cpu cortex-m3
   3              		.fpu softvfp
   4              		.eabi_attribute 20, 1
   5              		.eabi_attribute 21, 1
   6              		.eabi_attribute 23, 3
   7              		.eabi_attribute 24, 1
   8              		.eabi_attribute 25, 1
   9              		.eabi_attribute 26, 1
  10              		.eabi_attribute 30, 6
  11              		.eabi_attribute 34, 1
  12              		.eabi_attribute 18, 4
  13              		.thumb
  14              		.file	"netapp.c"
  15              		.text
  16              	.Ltext0:
  17              		.cfi_sections	.debug_frame
  18              		.section	.text.netapp_config_mac_adrress,"ax",%progbits
  19              		.align	2
  20              		.global	netapp_config_mac_adrress
  21              		.thumb
  22              		.thumb_func
  24              	netapp_config_mac_adrress:
  25              	.LFB0:
  26              		.file 1 "../libraries/CC3000_Host_Driver/netapp.c"
   1:../libraries/CC3000_Host_Driver/netapp.c **** /*****************************************************************************
   2:../libraries/CC3000_Host_Driver/netapp.c **** *
   3:../libraries/CC3000_Host_Driver/netapp.c **** *  netapp.c  - CC3000 Host Driver Implementation.
   4:../libraries/CC3000_Host_Driver/netapp.c **** *  Copyright (C) 2011 Texas Instruments Incorporated - http://www.ti.com/
   5:../libraries/CC3000_Host_Driver/netapp.c **** *
   6:../libraries/CC3000_Host_Driver/netapp.c **** *  Redistribution and use in source and binary forms, with or without
   7:../libraries/CC3000_Host_Driver/netapp.c **** *  modification, are permitted provided that the following conditions
   8:../libraries/CC3000_Host_Driver/netapp.c **** *  are met:
   9:../libraries/CC3000_Host_Driver/netapp.c **** *
  10:../libraries/CC3000_Host_Driver/netapp.c **** *    Redistributions of source code must retain the above copyright
  11:../libraries/CC3000_Host_Driver/netapp.c **** *    notice, this list of conditions and the following disclaimer.
  12:../libraries/CC3000_Host_Driver/netapp.c **** *
  13:../libraries/CC3000_Host_Driver/netapp.c **** *    Redistributions in binary form must reproduce the above copyright
  14:../libraries/CC3000_Host_Driver/netapp.c **** *    notice, this list of conditions and the following disclaimer in the
  15:../libraries/CC3000_Host_Driver/netapp.c **** *    documentation and/or other materials provided with the   
  16:../libraries/CC3000_Host_Driver/netapp.c **** *    distribution.
  17:../libraries/CC3000_Host_Driver/netapp.c **** *
  18:../libraries/CC3000_Host_Driver/netapp.c **** *    Neither the name of Texas Instruments Incorporated nor the names of
  19:../libraries/CC3000_Host_Driver/netapp.c **** *    its contributors may be used to endorse or promote products derived
  20:../libraries/CC3000_Host_Driver/netapp.c **** *    from this software without specific prior written permission.
  21:../libraries/CC3000_Host_Driver/netapp.c **** *
  22:../libraries/CC3000_Host_Driver/netapp.c **** *  THIS SOFTWARE IS PROVIDED BY THE COPYRIGHT HOLDERS AND CONTRIBUTORS 
  23:../libraries/CC3000_Host_Driver/netapp.c **** *  "AS IS" AND ANY EXPRESS OR IMPLIED WARRANTIES, INCLUDING, BUT NOT 
  24:../libraries/CC3000_Host_Driver/netapp.c **** *  LIMITED TO, THE IMPLIED WARRANTIES OF MERCHANTABILITY AND FITNESS FOR
  25:../libraries/CC3000_Host_Driver/netapp.c **** *  A PARTICULAR PURPOSE ARE DISCLAIMED. IN NO EVENT SHALL THE COPYRIGHT 
  26:../libraries/CC3000_Host_Driver/netapp.c **** *  OWNER OR CONTRIBUTORS BE LIABLE FOR ANY DIRECT, INDIRECT, INCIDENTAL, 
  27:../libraries/CC3000_Host_Driver/netapp.c **** *  SPECIAL, EXEMPLARY, OR CONSEQUENTIAL DAMAGES (INCLUDING, BUT NOT 
  28:../libraries/CC3000_Host_Driver/netapp.c **** *  LIMITED TO, PROCUREMENT OF SUBSTITUTE GOODS OR SERVICES; LOSS OF USE,
  29:../libraries/CC3000_Host_Driver/netapp.c **** *  DATA, OR PROFITS; OR BUSINESS INTERRUPTION) HOWEVER CAUSED AND ON ANY
  30:../libraries/CC3000_Host_Driver/netapp.c **** *  THEORY OF LIABILITY, WHETHER IN CONTRACT, STRICT LIABILITY, OR TORT 
  31:../libraries/CC3000_Host_Driver/netapp.c **** *  (INCLUDING NEGLIGENCE OR OTHERWISE) ARISING IN ANY WAY OUT OF THE USE 
  32:../libraries/CC3000_Host_Driver/netapp.c **** *  OF THIS SOFTWARE, EVEN IF ADVISED OF THE POSSIBILITY OF SUCH DAMAGE.
  33:../libraries/CC3000_Host_Driver/netapp.c **** *
  34:../libraries/CC3000_Host_Driver/netapp.c **** *****************************************************************************/
  35:../libraries/CC3000_Host_Driver/netapp.c **** #include <string.h>
  36:../libraries/CC3000_Host_Driver/netapp.c **** #include "netapp.h"
  37:../libraries/CC3000_Host_Driver/netapp.c **** #include "hci.h"
  38:../libraries/CC3000_Host_Driver/netapp.c **** #include "socket.h"
  39:../libraries/CC3000_Host_Driver/netapp.c **** #include "evnt_handler.h"
  40:../libraries/CC3000_Host_Driver/netapp.c **** #include "nvmem.h"
  41:../libraries/CC3000_Host_Driver/netapp.c **** 
  42:../libraries/CC3000_Host_Driver/netapp.c **** #define MIN_TIMER_VAL_SECONDS      20
  43:../libraries/CC3000_Host_Driver/netapp.c **** #define MIN_TIMER_SET(t)    if ((0 != t) && (t < MIN_TIMER_VAL_SECONDS)) \
  44:../libraries/CC3000_Host_Driver/netapp.c ****                             { \
  45:../libraries/CC3000_Host_Driver/netapp.c ****                                 t = MIN_TIMER_VAL_SECONDS; \
  46:../libraries/CC3000_Host_Driver/netapp.c ****                             }
  47:../libraries/CC3000_Host_Driver/netapp.c **** 
  48:../libraries/CC3000_Host_Driver/netapp.c **** 
  49:../libraries/CC3000_Host_Driver/netapp.c **** #define NETAPP_DHCP_PARAMS_LEN 				(20)
  50:../libraries/CC3000_Host_Driver/netapp.c **** #define NETAPP_SET_TIMER_PARAMS_LEN 		(20)
  51:../libraries/CC3000_Host_Driver/netapp.c **** #define NETAPP_SET_DEBUG_LEVEL_PARAMS_LEN	(4)
  52:../libraries/CC3000_Host_Driver/netapp.c **** #define NETAPP_PING_SEND_PARAMS_LEN			(16)
  53:../libraries/CC3000_Host_Driver/netapp.c **** 
  54:../libraries/CC3000_Host_Driver/netapp.c **** 
  55:../libraries/CC3000_Host_Driver/netapp.c **** //*****************************************************************************
  56:../libraries/CC3000_Host_Driver/netapp.c **** //
  57:../libraries/CC3000_Host_Driver/netapp.c **** //!  netapp_config_mac_adrress
  58:../libraries/CC3000_Host_Driver/netapp.c **** //!
  59:../libraries/CC3000_Host_Driver/netapp.c **** //!  @param  mac   device mac address, 6 bytes. Saved: yes 
  60:../libraries/CC3000_Host_Driver/netapp.c **** //!
  61:../libraries/CC3000_Host_Driver/netapp.c **** //!  @return       return on success 0, otherwise error.
  62:../libraries/CC3000_Host_Driver/netapp.c **** //!
  63:../libraries/CC3000_Host_Driver/netapp.c **** //!  @brief        Configure device MAC address and store it in NVMEM. 
  64:../libraries/CC3000_Host_Driver/netapp.c **** //!                The value of the MAC address configured through the API will
  65:../libraries/CC3000_Host_Driver/netapp.c **** //!		             be stored in CC3000 non volatile memory, thus preserved 
  66:../libraries/CC3000_Host_Driver/netapp.c **** //!                over resets.
  67:../libraries/CC3000_Host_Driver/netapp.c **** //
  68:../libraries/CC3000_Host_Driver/netapp.c **** //*****************************************************************************
  69:../libraries/CC3000_Host_Driver/netapp.c **** long netapp_config_mac_adrress(unsigned char * mac)
  70:../libraries/CC3000_Host_Driver/netapp.c **** {
  27              		.loc 1 70 0
  28              		.cfi_startproc
  29              		@ args = 0, pretend = 0, frame = 8
  30              		@ frame_needed = 1, uses_anonymous_args = 0
  31 0000 80B5     		push	{r7, lr}
  32              	.LCFI0:
  33              		.cfi_def_cfa_offset 8
  34              		.cfi_offset 7, -8
  35              		.cfi_offset 14, -4
  36 0002 82B0     		sub	sp, sp, #8
  37              	.LCFI1:
  38              		.cfi_def_cfa_offset 16
  39 0004 00AF     		add	r7, sp, #0
  40              	.LCFI2:
  41              		.cfi_def_cfa_register 7
  42 0006 7860     		str	r0, [r7, #4]
  71:../libraries/CC3000_Host_Driver/netapp.c **** 	return  nvmem_set_mac_address(mac);
  43              		.loc 1 71 0
  44 0008 7868     		ldr	r0, [r7, #4]
  45 000a FFF7FEFF 		bl	nvmem_set_mac_address
  46 000e 0346     		mov	r3, r0
  72:../libraries/CC3000_Host_Driver/netapp.c **** }
  47              		.loc 1 72 0
  48 0010 1846     		mov	r0, r3
  49 0012 07F10807 		add	r7, r7, #8
  50 0016 BD46     		mov	sp, r7
  51 0018 80BD     		pop	{r7, pc}
  52              		.cfi_endproc
  53              	.LFE0:
  55 001a 00BF     		.section	.text.netapp_dhcp,"ax",%progbits
  56              		.align	2
  57              		.global	netapp_dhcp
  58              		.thumb
  59              		.thumb_func
  61              	netapp_dhcp:
  62              	.LFB1:
  73:../libraries/CC3000_Host_Driver/netapp.c **** 
  74:../libraries/CC3000_Host_Driver/netapp.c **** //*****************************************************************************
  75:../libraries/CC3000_Host_Driver/netapp.c **** //
  76:../libraries/CC3000_Host_Driver/netapp.c **** //!  netapp_dhcp
  77:../libraries/CC3000_Host_Driver/netapp.c **** //!
  78:../libraries/CC3000_Host_Driver/netapp.c **** //!  @param  aucIP               device mac address, 6 bytes. Saved: yes 
  79:../libraries/CC3000_Host_Driver/netapp.c **** //!  @param  aucSubnetMask       device mac address, 6 bytes. Saved: yes 
  80:../libraries/CC3000_Host_Driver/netapp.c **** //!  @param  aucDefaultGateway   device mac address, 6 bytes. Saved: yes 
  81:../libraries/CC3000_Host_Driver/netapp.c **** //!  @param  aucDNSServer        device mac address, 6 bytes. Saved: yes 
  82:../libraries/CC3000_Host_Driver/netapp.c **** //!
  83:../libraries/CC3000_Host_Driver/netapp.c **** //!  @return       return on success 0, otherwise error.
  84:../libraries/CC3000_Host_Driver/netapp.c **** //!
  85:../libraries/CC3000_Host_Driver/netapp.c **** //!  @brief       netapp_dhcp is used to configure the network interface, 
  86:../libraries/CC3000_Host_Driver/netapp.c **** //!               static or dynamic (DHCP).\n In order to activate DHCP mode, 
  87:../libraries/CC3000_Host_Driver/netapp.c **** //!               aucIP, aucSubnetMask, aucDefaultGateway must be 0.
  88:../libraries/CC3000_Host_Driver/netapp.c **** //!               The default mode of CC3000 is DHCP mode.
  89:../libraries/CC3000_Host_Driver/netapp.c **** //!               Note that the configuration is saved in non volatile memory
  90:../libraries/CC3000_Host_Driver/netapp.c **** //!               and thus preserved over resets.
  91:../libraries/CC3000_Host_Driver/netapp.c **** //!	 
  92:../libraries/CC3000_Host_Driver/netapp.c **** //! @note         If the mode is altered a reset of CC3000 device is required 
  93:../libraries/CC3000_Host_Driver/netapp.c **** //!               in order to apply changes.\nAlso note that asynchronous event 
  94:../libraries/CC3000_Host_Driver/netapp.c **** //!               of DHCP_EVENT, which is generated when an IP address is 
  95:../libraries/CC3000_Host_Driver/netapp.c **** //!               allocated either by the DHCP server or due to static 
  96:../libraries/CC3000_Host_Driver/netapp.c **** //!               allocation is generated only upon a connection to the 
  97:../libraries/CC3000_Host_Driver/netapp.c **** //!               AP was established. 
  98:../libraries/CC3000_Host_Driver/netapp.c **** //!
  99:../libraries/CC3000_Host_Driver/netapp.c **** //*****************************************************************************
 100:../libraries/CC3000_Host_Driver/netapp.c **** long netapp_dhcp(unsigned long *aucIP, unsigned long *aucSubnetMask,unsigned long *aucDefaultGatewa
 101:../libraries/CC3000_Host_Driver/netapp.c **** {
  63              		.loc 1 101 0
  64              		.cfi_startproc
  65              		@ args = 0, pretend = 0, frame = 32
  66              		@ frame_needed = 1, uses_anonymous_args = 0
  67 0000 90B5     		push	{r4, r7, lr}
  68              	.LCFI3:
  69              		.cfi_def_cfa_offset 12
  70              		.cfi_offset 4, -12
  71              		.cfi_offset 7, -8
  72              		.cfi_offset 14, -4
  73 0002 89B0     		sub	sp, sp, #36
  74              	.LCFI4:
  75              		.cfi_def_cfa_offset 48
  76 0004 00AF     		add	r7, sp, #0
  77              	.LCFI5:
  78              		.cfi_def_cfa_register 7
  79 0006 F860     		str	r0, [r7, #12]
  80 0008 B960     		str	r1, [r7, #8]
  81 000a 7A60     		str	r2, [r7, #4]
  82 000c 3B60     		str	r3, [r7, #0]
 102:../libraries/CC3000_Host_Driver/netapp.c **** 	signed char scRet;
 103:../libraries/CC3000_Host_Driver/netapp.c **** 	unsigned char *ptr;
 104:../libraries/CC3000_Host_Driver/netapp.c **** 	unsigned char *args;
 105:../libraries/CC3000_Host_Driver/netapp.c **** 	
 106:../libraries/CC3000_Host_Driver/netapp.c **** 	scRet = EFAIL;
  83              		.loc 1 106 0
  84 000e 4FF0FF03 		mov	r3, #255
  85 0012 FB75     		strb	r3, [r7, #23]
 107:../libraries/CC3000_Host_Driver/netapp.c **** 	ptr = tSLInformation.pucTxCommandBuffer;
  86              		.loc 1 107 0
  87 0014 40F20003 		movw	r3, #:lower16:tSLInformation
  88 0018 C0F20003 		movt	r3, #:upper16:tSLInformation
  89 001c 9B68     		ldr	r3, [r3, #8]
  90 001e BB61     		str	r3, [r7, #24]
 108:../libraries/CC3000_Host_Driver/netapp.c **** 	args = (ptr + HEADERS_SIZE_CMD);
  91              		.loc 1 108 0
  92 0020 BB69     		ldr	r3, [r7, #24]
  93 0022 03F10903 		add	r3, r3, #9
  94 0026 FB61     		str	r3, [r7, #28]
  95              	.LBB2:
 109:../libraries/CC3000_Host_Driver/netapp.c **** 	
 110:../libraries/CC3000_Host_Driver/netapp.c **** 	// Fill in temporary command buffer
 111:../libraries/CC3000_Host_Driver/netapp.c **** 	ARRAY_TO_STREAM(args,aucIP,4);
  96              		.loc 1 111 0
  97 0028 4FF00004 		mov	r4, #0
  98 002c 0DE0     		b	.L4
  99              	.L5:
 100              		.loc 1 111 0 is_stmt 0 discriminator 2
 101 002e 23B2     		sxth	r3, r4
 102 0030 FA68     		ldr	r2, [r7, #12]
 103 0032 D318     		adds	r3, r2, r3
 104 0034 1A78     		ldrb	r2, [r3, #0]	@ zero_extendqisi2
 105 0036 FB69     		ldr	r3, [r7, #28]
 106 0038 1A70     		strb	r2, [r3, #0]
 107 003a FB69     		ldr	r3, [r7, #28]
 108 003c 03F10103 		add	r3, r3, #1
 109 0040 FB61     		str	r3, [r7, #28]
 110 0042 2346     		mov	r3, r4	@ movhi
 111 0044 03F10103 		add	r3, r3, #1
 112 0048 9CB2     		uxth	r4, r3
 113              	.L4:
 114              		.loc 1 111 0 discriminator 1
 115 004a 23B2     		sxth	r3, r4
 116 004c 032B     		cmp	r3, #3
 117 004e EEDD     		ble	.L5
 118              	.LBE2:
 119              	.LBB3:
 112:../libraries/CC3000_Host_Driver/netapp.c **** 	ARRAY_TO_STREAM(args,aucSubnetMask,4);
 120              		.loc 1 112 0 is_stmt 1
 121 0050 4FF00004 		mov	r4, #0
 122 0054 0DE0     		b	.L6
 123              	.L7:
 124              		.loc 1 112 0 is_stmt 0 discriminator 2
 125 0056 23B2     		sxth	r3, r4
 126 0058 BA68     		ldr	r2, [r7, #8]
 127 005a D318     		adds	r3, r2, r3
 128 005c 1A78     		ldrb	r2, [r3, #0]	@ zero_extendqisi2
 129 005e FB69     		ldr	r3, [r7, #28]
 130 0060 1A70     		strb	r2, [r3, #0]
 131 0062 FB69     		ldr	r3, [r7, #28]
 132 0064 03F10103 		add	r3, r3, #1
 133 0068 FB61     		str	r3, [r7, #28]
 134 006a 2346     		mov	r3, r4	@ movhi
 135 006c 03F10103 		add	r3, r3, #1
 136 0070 9CB2     		uxth	r4, r3
 137              	.L6:
 138              		.loc 1 112 0 discriminator 1
 139 0072 23B2     		sxth	r3, r4
 140 0074 032B     		cmp	r3, #3
 141 0076 EEDD     		ble	.L7
 142              	.LBE3:
 143              	.LBB4:
 113:../libraries/CC3000_Host_Driver/netapp.c **** 	ARRAY_TO_STREAM(args,aucDefaultGateway,4);
 144              		.loc 1 113 0 is_stmt 1
 145 0078 4FF00004 		mov	r4, #0
 146 007c 0DE0     		b	.L8
 147              	.L9:
 148              		.loc 1 113 0 is_stmt 0 discriminator 2
 149 007e 23B2     		sxth	r3, r4
 150 0080 7A68     		ldr	r2, [r7, #4]
 151 0082 D318     		adds	r3, r2, r3
 152 0084 1A78     		ldrb	r2, [r3, #0]	@ zero_extendqisi2
 153 0086 FB69     		ldr	r3, [r7, #28]
 154 0088 1A70     		strb	r2, [r3, #0]
 155 008a FB69     		ldr	r3, [r7, #28]
 156 008c 03F10103 		add	r3, r3, #1
 157 0090 FB61     		str	r3, [r7, #28]
 158 0092 2346     		mov	r3, r4	@ movhi
 159 0094 03F10103 		add	r3, r3, #1
 160 0098 9CB2     		uxth	r4, r3
 161              	.L8:
 162              		.loc 1 113 0 discriminator 1
 163 009a 23B2     		sxth	r3, r4
 164 009c 032B     		cmp	r3, #3
 165 009e EEDD     		ble	.L9
 166              	.LBE4:
 114:../libraries/CC3000_Host_Driver/netapp.c **** 	args = UINT32_TO_STREAM(args, 0);
 167              		.loc 1 114 0 is_stmt 1
 168 00a0 F869     		ldr	r0, [r7, #28]
 169 00a2 4FF00001 		mov	r1, #0
 170 00a6 FFF7FEFF 		bl	UINT32_TO_STREAM_f
 171 00aa F861     		str	r0, [r7, #28]
 172              	.LBB5:
 115:../libraries/CC3000_Host_Driver/netapp.c **** 	ARRAY_TO_STREAM(args,aucDNSServer,4);
 173              		.loc 1 115 0
 174 00ac 4FF00004 		mov	r4, #0
 175 00b0 0DE0     		b	.L10
 176              	.L11:
 177              		.loc 1 115 0 is_stmt 0 discriminator 2
 178 00b2 23B2     		sxth	r3, r4
 179 00b4 3A68     		ldr	r2, [r7, #0]
 180 00b6 D318     		adds	r3, r2, r3
 181 00b8 1A78     		ldrb	r2, [r3, #0]	@ zero_extendqisi2
 182 00ba FB69     		ldr	r3, [r7, #28]
 183 00bc 1A70     		strb	r2, [r3, #0]
 184 00be FB69     		ldr	r3, [r7, #28]
 185 00c0 03F10103 		add	r3, r3, #1
 186 00c4 FB61     		str	r3, [r7, #28]
 187 00c6 2346     		mov	r3, r4	@ movhi
 188 00c8 03F10103 		add	r3, r3, #1
 189 00cc 9CB2     		uxth	r4, r3
 190              	.L10:
 191              		.loc 1 115 0 discriminator 1
 192 00ce 23B2     		sxth	r3, r4
 193 00d0 032B     		cmp	r3, #3
 194 00d2 EEDD     		ble	.L11
 195              	.LBE5:
 116:../libraries/CC3000_Host_Driver/netapp.c **** 	
 117:../libraries/CC3000_Host_Driver/netapp.c **** 	// Initiate a HCI command
 118:../libraries/CC3000_Host_Driver/netapp.c **** 	hci_command_send(HCI_NETAPP_DHCP, ptr, NETAPP_DHCP_PARAMS_LEN);
 196              		.loc 1 118 0 is_stmt 1
 197 00d4 42F20100 		movw	r0, #8193
 198 00d8 B969     		ldr	r1, [r7, #24]
 199 00da 4FF01402 		mov	r2, #20
 200 00de FFF7FEFF 		bl	hci_command_send
 119:../libraries/CC3000_Host_Driver/netapp.c **** 	
 120:../libraries/CC3000_Host_Driver/netapp.c **** 	// Wait for command complete event
 121:../libraries/CC3000_Host_Driver/netapp.c **** 	SimpleLinkWaitEvent(HCI_NETAPP_DHCP, &scRet);
 201              		.loc 1 121 0
 202 00e2 07F11703 		add	r3, r7, #23
 203 00e6 42F20100 		movw	r0, #8193
 204 00ea 1946     		mov	r1, r3
 205 00ec FFF7FEFF 		bl	SimpleLinkWaitEvent
 122:../libraries/CC3000_Host_Driver/netapp.c **** 	
 123:../libraries/CC3000_Host_Driver/netapp.c **** 	return(scRet);
 206              		.loc 1 123 0
 207 00f0 FB7D     		ldrb	r3, [r7, #23]	@ zero_extendqisi2
 208 00f2 5BB2     		sxtb	r3, r3
 124:../libraries/CC3000_Host_Driver/netapp.c **** }
 209              		.loc 1 124 0
 210 00f4 1846     		mov	r0, r3
 211 00f6 07F12407 		add	r7, r7, #36
 212 00fa BD46     		mov	sp, r7
 213 00fc 90BD     		pop	{r4, r7, pc}
 214              		.cfi_endproc
 215              	.LFE1:
 217 00fe 00BF     		.section	.text.netapp_timeout_values,"ax",%progbits
 218              		.align	2
 219              		.global	netapp_timeout_values
 220              		.thumb
 221              		.thumb_func
 223              	netapp_timeout_values:
 224              	.LFB2:
 125:../libraries/CC3000_Host_Driver/netapp.c **** 
 126:../libraries/CC3000_Host_Driver/netapp.c **** 
 127:../libraries/CC3000_Host_Driver/netapp.c **** //*****************************************************************************
 128:../libraries/CC3000_Host_Driver/netapp.c **** //
 129:../libraries/CC3000_Host_Driver/netapp.c **** //!  netapp_timeout_values
 130:../libraries/CC3000_Host_Driver/netapp.c **** //!
 131:../libraries/CC3000_Host_Driver/netapp.c **** //!  @param  aucDHCP    DHCP lease time request, also impact 
 132:../libraries/CC3000_Host_Driver/netapp.c **** //!                     the DHCP renew timeout. Range: [0-0xffffffff] seconds,
 133:../libraries/CC3000_Host_Driver/netapp.c **** //!                     0 or 0xffffffff == infinity lease timeout.
 134:../libraries/CC3000_Host_Driver/netapp.c **** //!                     Resolution:10 seconds. Influence: only after 
 135:../libraries/CC3000_Host_Driver/netapp.c **** //!                     reconnecting to the AP. 
 136:../libraries/CC3000_Host_Driver/netapp.c **** //!                     Minimal bound value: MIN_TIMER_VAL_SECONDS - 20 seconds.
 137:../libraries/CC3000_Host_Driver/netapp.c **** //!                     The parameter is saved into the CC3000 NVMEM. 
 138:../libraries/CC3000_Host_Driver/netapp.c **** //!                     The default value on CC3000 is 14400 seconds.
 139:../libraries/CC3000_Host_Driver/netapp.c **** //!	 
 140:../libraries/CC3000_Host_Driver/netapp.c **** //!  @param  aucARP     ARP refresh timeout, if ARP entry is not updated by
 141:../libraries/CC3000_Host_Driver/netapp.c **** //!                     incoming packet, the ARP entry will be  deleted by
 142:../libraries/CC3000_Host_Driver/netapp.c **** //!                     the end of the timeout. 
 143:../libraries/CC3000_Host_Driver/netapp.c **** //!                     Range: [0-0xffffffff] seconds, 0 == infinity ARP timeout
 144:../libraries/CC3000_Host_Driver/netapp.c **** //!                     Resolution: 10 seconds. Influence: on runtime.
 145:../libraries/CC3000_Host_Driver/netapp.c **** //!                     Minimal bound value: MIN_TIMER_VAL_SECONDS - 20 seconds
 146:../libraries/CC3000_Host_Driver/netapp.c **** //!                     The parameter is saved into the CC3000 NVMEM. 
 147:../libraries/CC3000_Host_Driver/netapp.c **** //!	                    The default value on CC3000 is 3600 seconds.
 148:../libraries/CC3000_Host_Driver/netapp.c **** //!
 149:../libraries/CC3000_Host_Driver/netapp.c **** //!  @param  aucKeepalive   Keepalive event sent by the end of keepalive timeout
 150:../libraries/CC3000_Host_Driver/netapp.c **** //!                         Range: [0-0xffffffff] seconds, 0 == infinity timeout
 151:../libraries/CC3000_Host_Driver/netapp.c **** //!                         Resolution: 10 seconds.
 152:../libraries/CC3000_Host_Driver/netapp.c **** //!                         Influence: on runtime.
 153:../libraries/CC3000_Host_Driver/netapp.c **** //!                         Minimal bound value: MIN_TIMER_VAL_SECONDS - 20 sec
 154:../libraries/CC3000_Host_Driver/netapp.c **** //!                         The parameter is saved into the CC3000 NVMEM. 
 155:../libraries/CC3000_Host_Driver/netapp.c **** //!                         The default value on CC3000 is 10 seconds.
 156:../libraries/CC3000_Host_Driver/netapp.c **** //!
 157:../libraries/CC3000_Host_Driver/netapp.c **** //!  @param  aucInactivity   Socket inactivity timeout, socket timeout is
 158:../libraries/CC3000_Host_Driver/netapp.c **** //!                          refreshed by incoming or outgoing packet, by the
 159:../libraries/CC3000_Host_Driver/netapp.c **** //!                          end of the socket timeout the socket will be closed
 160:../libraries/CC3000_Host_Driver/netapp.c **** //!                          Range: [0-0xffffffff] sec, 0 == infinity timeout.
 161:../libraries/CC3000_Host_Driver/netapp.c **** //!                          Resolution: 10 seconds. Influence: on runtime.
 162:../libraries/CC3000_Host_Driver/netapp.c **** //!                          Minimal bound value: MIN_TIMER_VAL_SECONDS - 20 sec
 163:../libraries/CC3000_Host_Driver/netapp.c **** //!                          The parameter is saved into the CC3000 NVMEM. 
 164:../libraries/CC3000_Host_Driver/netapp.c **** //!	                         The default value on CC3000 is 60 seconds.
 165:../libraries/CC3000_Host_Driver/netapp.c **** //!
 166:../libraries/CC3000_Host_Driver/netapp.c **** //!  @return       return on success 0, otherwise error.
 167:../libraries/CC3000_Host_Driver/netapp.c **** //!
 168:../libraries/CC3000_Host_Driver/netapp.c **** //!  @brief       Set new timeout values. Function set new timeout values for: 
 169:../libraries/CC3000_Host_Driver/netapp.c **** //!               DHCP lease timeout, ARP  refresh timeout, keepalive event 
 170:../libraries/CC3000_Host_Driver/netapp.c **** //!               timeout and socket inactivity timeout 
 171:../libraries/CC3000_Host_Driver/netapp.c **** //!	 
 172:../libraries/CC3000_Host_Driver/netapp.c **** //! @note         If a parameter set to non zero value which is less than 20s,
 173:../libraries/CC3000_Host_Driver/netapp.c **** //!               it will be set automatically to 20s.
 174:../libraries/CC3000_Host_Driver/netapp.c **** //!
 175:../libraries/CC3000_Host_Driver/netapp.c **** //*****************************************************************************
 176:../libraries/CC3000_Host_Driver/netapp.c **** 
 177:../libraries/CC3000_Host_Driver/netapp.c **** #ifndef CC3000_TINY_DRIVER
 178:../libraries/CC3000_Host_Driver/netapp.c **** long 
 179:../libraries/CC3000_Host_Driver/netapp.c **** netapp_timeout_values(unsigned long *aucDHCP, unsigned long *aucARP,unsigned long *aucKeepalive,	un
 180:../libraries/CC3000_Host_Driver/netapp.c **** {
 225              		.loc 1 180 0
 226              		.cfi_startproc
 227              		@ args = 0, pretend = 0, frame = 32
 228              		@ frame_needed = 1, uses_anonymous_args = 0
 229 0000 80B5     		push	{r7, lr}
 230              	.LCFI6:
 231              		.cfi_def_cfa_offset 8
 232              		.cfi_offset 7, -8
 233              		.cfi_offset 14, -4
 234 0002 88B0     		sub	sp, sp, #32
 235              	.LCFI7:
 236              		.cfi_def_cfa_offset 40
 237 0004 00AF     		add	r7, sp, #0
 238              	.LCFI8:
 239              		.cfi_def_cfa_register 7
 240 0006 F860     		str	r0, [r7, #12]
 241 0008 B960     		str	r1, [r7, #8]
 242 000a 7A60     		str	r2, [r7, #4]
 243 000c 3B60     		str	r3, [r7, #0]
 181:../libraries/CC3000_Host_Driver/netapp.c **** 	signed char scRet;
 182:../libraries/CC3000_Host_Driver/netapp.c **** 	unsigned char *ptr;
 183:../libraries/CC3000_Host_Driver/netapp.c **** 	unsigned char *args;
 184:../libraries/CC3000_Host_Driver/netapp.c **** 	
 185:../libraries/CC3000_Host_Driver/netapp.c **** 	scRet = EFAIL;
 244              		.loc 1 185 0
 245 000e 4FF0FF03 		mov	r3, #255
 246 0012 FB75     		strb	r3, [r7, #23]
 186:../libraries/CC3000_Host_Driver/netapp.c **** 	ptr = tSLInformation.pucTxCommandBuffer;
 247              		.loc 1 186 0
 248 0014 40F20003 		movw	r3, #:lower16:tSLInformation
 249 0018 C0F20003 		movt	r3, #:upper16:tSLInformation
 250 001c 9B68     		ldr	r3, [r3, #8]
 251 001e FB61     		str	r3, [r7, #28]
 187:../libraries/CC3000_Host_Driver/netapp.c **** 	args = (ptr + HEADERS_SIZE_CMD);
 252              		.loc 1 187 0
 253 0020 FB69     		ldr	r3, [r7, #28]
 254 0022 03F10903 		add	r3, r3, #9
 255 0026 BB61     		str	r3, [r7, #24]
 188:../libraries/CC3000_Host_Driver/netapp.c **** 	
 189:../libraries/CC3000_Host_Driver/netapp.c **** 	// Set minimal values of timers 
 190:../libraries/CC3000_Host_Driver/netapp.c **** 	MIN_TIMER_SET(*aucDHCP)
 256              		.loc 1 190 0
 257 0028 FB68     		ldr	r3, [r7, #12]
 258 002a 1B68     		ldr	r3, [r3, #0]
 259 002c 002B     		cmp	r3, #0
 260 002e 07D0     		beq	.L14
 261              		.loc 1 190 0 is_stmt 0 discriminator 1
 262 0030 FB68     		ldr	r3, [r7, #12]
 263 0032 1B68     		ldr	r3, [r3, #0]
 264 0034 132B     		cmp	r3, #19
 265 0036 03D8     		bhi	.L14
 266              		.loc 1 190 0 discriminator 2
 267 0038 FB68     		ldr	r3, [r7, #12]
 268 003a 4FF01402 		mov	r2, #20
 269 003e 1A60     		str	r2, [r3, #0]
 270              	.L14:
 191:../libraries/CC3000_Host_Driver/netapp.c ****     MIN_TIMER_SET(*aucARP)
 271              		.loc 1 191 0 is_stmt 1
 272 0040 BB68     		ldr	r3, [r7, #8]
 273 0042 1B68     		ldr	r3, [r3, #0]
 274 0044 002B     		cmp	r3, #0
 275 0046 07D0     		beq	.L15
 276              		.loc 1 191 0 is_stmt 0 discriminator 1
 277 0048 BB68     		ldr	r3, [r7, #8]
 278 004a 1B68     		ldr	r3, [r3, #0]
 279 004c 132B     		cmp	r3, #19
 280 004e 03D8     		bhi	.L15
 281              		.loc 1 191 0 discriminator 2
 282 0050 BB68     		ldr	r3, [r7, #8]
 283 0052 4FF01402 		mov	r2, #20
 284 0056 1A60     		str	r2, [r3, #0]
 285              	.L15:
 192:../libraries/CC3000_Host_Driver/netapp.c **** 	MIN_TIMER_SET(*aucKeepalive)
 286              		.loc 1 192 0 is_stmt 1
 287 0058 7B68     		ldr	r3, [r7, #4]
 288 005a 1B68     		ldr	r3, [r3, #0]
 289 005c 002B     		cmp	r3, #0
 290 005e 07D0     		beq	.L16
 291              		.loc 1 192 0 is_stmt 0 discriminator 1
 292 0060 7B68     		ldr	r3, [r7, #4]
 293 0062 1B68     		ldr	r3, [r3, #0]
 294 0064 132B     		cmp	r3, #19
 295 0066 03D8     		bhi	.L16
 296              		.loc 1 192 0 discriminator 2
 297 0068 7B68     		ldr	r3, [r7, #4]
 298 006a 4FF01402 		mov	r2, #20
 299 006e 1A60     		str	r2, [r3, #0]
 300              	.L16:
 193:../libraries/CC3000_Host_Driver/netapp.c **** 	MIN_TIMER_SET(*aucInactivity)
 301              		.loc 1 193 0 is_stmt 1
 302 0070 3B68     		ldr	r3, [r7, #0]
 303 0072 1B68     		ldr	r3, [r3, #0]
 304 0074 002B     		cmp	r3, #0
 305 0076 07D0     		beq	.L17
 306              		.loc 1 193 0 is_stmt 0 discriminator 1
 307 0078 3B68     		ldr	r3, [r7, #0]
 308 007a 1B68     		ldr	r3, [r3, #0]
 309 007c 132B     		cmp	r3, #19
 310 007e 03D8     		bhi	.L17
 311              		.loc 1 193 0 discriminator 2
 312 0080 3B68     		ldr	r3, [r7, #0]
 313 0082 4FF01402 		mov	r2, #20
 314 0086 1A60     		str	r2, [r3, #0]
 315              	.L17:
 194:../libraries/CC3000_Host_Driver/netapp.c **** 					
 195:../libraries/CC3000_Host_Driver/netapp.c **** 	// Fill in temporary command buffer
 196:../libraries/CC3000_Host_Driver/netapp.c **** 	args = UINT32_TO_STREAM(args, *aucDHCP);
 316              		.loc 1 196 0 is_stmt 1
 317 0088 FB68     		ldr	r3, [r7, #12]
 318 008a 1B68     		ldr	r3, [r3, #0]
 319 008c B869     		ldr	r0, [r7, #24]
 320 008e 1946     		mov	r1, r3
 321 0090 FFF7FEFF 		bl	UINT32_TO_STREAM_f
 322 0094 B861     		str	r0, [r7, #24]
 197:../libraries/CC3000_Host_Driver/netapp.c **** 	args = UINT32_TO_STREAM(args, *aucARP);
 323              		.loc 1 197 0
 324 0096 BB68     		ldr	r3, [r7, #8]
 325 0098 1B68     		ldr	r3, [r3, #0]
 326 009a B869     		ldr	r0, [r7, #24]
 327 009c 1946     		mov	r1, r3
 328 009e FFF7FEFF 		bl	UINT32_TO_STREAM_f
 329 00a2 B861     		str	r0, [r7, #24]
 198:../libraries/CC3000_Host_Driver/netapp.c **** 	args = UINT32_TO_STREAM(args, *aucKeepalive);
 330              		.loc 1 198 0
 331 00a4 7B68     		ldr	r3, [r7, #4]
 332 00a6 1B68     		ldr	r3, [r3, #0]
 333 00a8 B869     		ldr	r0, [r7, #24]
 334 00aa 1946     		mov	r1, r3
 335 00ac FFF7FEFF 		bl	UINT32_TO_STREAM_f
 336 00b0 B861     		str	r0, [r7, #24]
 199:../libraries/CC3000_Host_Driver/netapp.c **** 	args = UINT32_TO_STREAM(args, *aucInactivity);
 337              		.loc 1 199 0
 338 00b2 3B68     		ldr	r3, [r7, #0]
 339 00b4 1B68     		ldr	r3, [r3, #0]
 340 00b6 B869     		ldr	r0, [r7, #24]
 341 00b8 1946     		mov	r1, r3
 342 00ba FFF7FEFF 		bl	UINT32_TO_STREAM_f
 343 00be B861     		str	r0, [r7, #24]
 200:../libraries/CC3000_Host_Driver/netapp.c **** 	
 201:../libraries/CC3000_Host_Driver/netapp.c **** 	// Initiate a HCI command
 202:../libraries/CC3000_Host_Driver/netapp.c **** 	hci_command_send(HCI_NETAPP_SET_TIMERS, ptr, NETAPP_SET_TIMER_PARAMS_LEN);
 344              		.loc 1 202 0
 345 00c0 42F20900 		movw	r0, #8201
 346 00c4 F969     		ldr	r1, [r7, #28]
 347 00c6 4FF01402 		mov	r2, #20
 348 00ca FFF7FEFF 		bl	hci_command_send
 203:../libraries/CC3000_Host_Driver/netapp.c **** 	
 204:../libraries/CC3000_Host_Driver/netapp.c **** 	// Wait for command complete event
 205:../libraries/CC3000_Host_Driver/netapp.c **** 	SimpleLinkWaitEvent(HCI_NETAPP_SET_TIMERS, &scRet);
 349              		.loc 1 205 0
 350 00ce 07F11703 		add	r3, r7, #23
 351 00d2 42F20900 		movw	r0, #8201
 352 00d6 1946     		mov	r1, r3
 353 00d8 FFF7FEFF 		bl	SimpleLinkWaitEvent
 206:../libraries/CC3000_Host_Driver/netapp.c **** 	
 207:../libraries/CC3000_Host_Driver/netapp.c **** 	return(scRet);
 354              		.loc 1 207 0
 355 00dc FB7D     		ldrb	r3, [r7, #23]	@ zero_extendqisi2
 356 00de 5BB2     		sxtb	r3, r3
 208:../libraries/CC3000_Host_Driver/netapp.c **** }
 357              		.loc 1 208 0
 358 00e0 1846     		mov	r0, r3
 359 00e2 07F12007 		add	r7, r7, #32
 360 00e6 BD46     		mov	sp, r7
 361 00e8 80BD     		pop	{r7, pc}
 362              		.cfi_endproc
 363              	.LFE2:
 365 00ea 00BF     		.section	.text.netapp_ping_send,"ax",%progbits
 366              		.align	2
 367              		.global	netapp_ping_send
 368              		.thumb
 369              		.thumb_func
 371              	netapp_ping_send:
 372              	.LFB3:
 209:../libraries/CC3000_Host_Driver/netapp.c **** #endif
 210:../libraries/CC3000_Host_Driver/netapp.c **** 
 211:../libraries/CC3000_Host_Driver/netapp.c **** 
 212:../libraries/CC3000_Host_Driver/netapp.c **** //*****************************************************************************
 213:../libraries/CC3000_Host_Driver/netapp.c **** //
 214:../libraries/CC3000_Host_Driver/netapp.c **** //!  netapp_ping_send
 215:../libraries/CC3000_Host_Driver/netapp.c **** //!
 216:../libraries/CC3000_Host_Driver/netapp.c **** //!  @param  ip              destination IP address
 217:../libraries/CC3000_Host_Driver/netapp.c **** //!  @param  pingAttempts    number of echo requests to send
 218:../libraries/CC3000_Host_Driver/netapp.c **** //!  @param  pingSize        send buffer size which may be up to 1400 bytes 
 219:../libraries/CC3000_Host_Driver/netapp.c **** //!  @param  pingTimeout     Time to wait for a response,in milliseconds.
 220:../libraries/CC3000_Host_Driver/netapp.c **** //!
 221:../libraries/CC3000_Host_Driver/netapp.c **** //!  @return       return on success 0, otherwise error.
 222:../libraries/CC3000_Host_Driver/netapp.c **** //!
 223:../libraries/CC3000_Host_Driver/netapp.c **** //!  @brief       send ICMP ECHO_REQUEST to network hosts 
 224:../libraries/CC3000_Host_Driver/netapp.c **** //!	 
 225:../libraries/CC3000_Host_Driver/netapp.c **** //! @note         If an operation finished successfully asynchronous ping report 
 226:../libraries/CC3000_Host_Driver/netapp.c **** //!               event will be generated. The report structure is as defined
 227:../libraries/CC3000_Host_Driver/netapp.c **** //!               by structure netapp_pingreport_args_t.
 228:../libraries/CC3000_Host_Driver/netapp.c **** //!
 229:../libraries/CC3000_Host_Driver/netapp.c **** //! @warning      Calling this function while a previous Ping Requests are in 
 230:../libraries/CC3000_Host_Driver/netapp.c **** //!               progress will stop the previous ping request.
 231:../libraries/CC3000_Host_Driver/netapp.c **** //*****************************************************************************
 232:../libraries/CC3000_Host_Driver/netapp.c **** 
 233:../libraries/CC3000_Host_Driver/netapp.c **** #ifndef CC3000_TINY_DRIVER
 234:../libraries/CC3000_Host_Driver/netapp.c **** long
 235:../libraries/CC3000_Host_Driver/netapp.c **** netapp_ping_send(unsigned long *ip, unsigned long ulPingAttempts, unsigned long ulPingSize, unsigne
 236:../libraries/CC3000_Host_Driver/netapp.c **** {
 373              		.loc 1 236 0
 374              		.cfi_startproc
 375              		@ args = 0, pretend = 0, frame = 32
 376              		@ frame_needed = 1, uses_anonymous_args = 0
 377 0000 80B5     		push	{r7, lr}
 378              	.LCFI9:
 379              		.cfi_def_cfa_offset 8
 380              		.cfi_offset 7, -8
 381              		.cfi_offset 14, -4
 382 0002 88B0     		sub	sp, sp, #32
 383              	.LCFI10:
 384              		.cfi_def_cfa_offset 40
 385 0004 00AF     		add	r7, sp, #0
 386              	.LCFI11:
 387              		.cfi_def_cfa_register 7
 388 0006 F860     		str	r0, [r7, #12]
 389 0008 B960     		str	r1, [r7, #8]
 390 000a 7A60     		str	r2, [r7, #4]
 391 000c 3B60     		str	r3, [r7, #0]
 237:../libraries/CC3000_Host_Driver/netapp.c **** 	signed char scRet;
 238:../libraries/CC3000_Host_Driver/netapp.c **** 	unsigned char *ptr, *args;
 239:../libraries/CC3000_Host_Driver/netapp.c **** 	
 240:../libraries/CC3000_Host_Driver/netapp.c **** 	scRet = EFAIL;
 392              		.loc 1 240 0
 393 000e 4FF0FF03 		mov	r3, #255
 394 0012 FB75     		strb	r3, [r7, #23]
 241:../libraries/CC3000_Host_Driver/netapp.c **** 	ptr = tSLInformation.pucTxCommandBuffer;
 395              		.loc 1 241 0
 396 0014 40F20003 		movw	r3, #:lower16:tSLInformation
 397 0018 C0F20003 		movt	r3, #:upper16:tSLInformation
 398 001c 9B68     		ldr	r3, [r3, #8]
 399 001e FB61     		str	r3, [r7, #28]
 242:../libraries/CC3000_Host_Driver/netapp.c **** 	args = (ptr + HEADERS_SIZE_CMD);
 400              		.loc 1 242 0
 401 0020 FB69     		ldr	r3, [r7, #28]
 402 0022 03F10903 		add	r3, r3, #9
 403 0026 BB61     		str	r3, [r7, #24]
 243:../libraries/CC3000_Host_Driver/netapp.c **** 	
 244:../libraries/CC3000_Host_Driver/netapp.c **** 	// Fill in temporary command buffer
 245:../libraries/CC3000_Host_Driver/netapp.c **** 	args = UINT32_TO_STREAM(args, *ip);
 404              		.loc 1 245 0
 405 0028 FB68     		ldr	r3, [r7, #12]
 406 002a 1B68     		ldr	r3, [r3, #0]
 407 002c B869     		ldr	r0, [r7, #24]
 408 002e 1946     		mov	r1, r3
 409 0030 FFF7FEFF 		bl	UINT32_TO_STREAM_f
 410 0034 B861     		str	r0, [r7, #24]
 246:../libraries/CC3000_Host_Driver/netapp.c **** 	args = UINT32_TO_STREAM(args, ulPingAttempts);
 411              		.loc 1 246 0
 412 0036 B869     		ldr	r0, [r7, #24]
 413 0038 B968     		ldr	r1, [r7, #8]
 414 003a FFF7FEFF 		bl	UINT32_TO_STREAM_f
 415 003e B861     		str	r0, [r7, #24]
 247:../libraries/CC3000_Host_Driver/netapp.c **** 	args = UINT32_TO_STREAM(args, ulPingSize);
 416              		.loc 1 247 0
 417 0040 B869     		ldr	r0, [r7, #24]
 418 0042 7968     		ldr	r1, [r7, #4]
 419 0044 FFF7FEFF 		bl	UINT32_TO_STREAM_f
 420 0048 B861     		str	r0, [r7, #24]
 248:../libraries/CC3000_Host_Driver/netapp.c **** 	args = UINT32_TO_STREAM(args, ulPingTimeout);
 421              		.loc 1 248 0
 422 004a B869     		ldr	r0, [r7, #24]
 423 004c 3968     		ldr	r1, [r7, #0]
 424 004e FFF7FEFF 		bl	UINT32_TO_STREAM_f
 425 0052 B861     		str	r0, [r7, #24]
 249:../libraries/CC3000_Host_Driver/netapp.c **** 	
 250:../libraries/CC3000_Host_Driver/netapp.c **** 	// Initiate a HCI command
 251:../libraries/CC3000_Host_Driver/netapp.c **** 	hci_command_send(HCI_NETAPP_PING_SEND, ptr, NETAPP_PING_SEND_PARAMS_LEN);
 426              		.loc 1 251 0
 427 0054 42F20200 		movw	r0, #8194
 428 0058 F969     		ldr	r1, [r7, #28]
 429 005a 4FF01002 		mov	r2, #16
 430 005e FFF7FEFF 		bl	hci_command_send
 252:../libraries/CC3000_Host_Driver/netapp.c **** 	
 253:../libraries/CC3000_Host_Driver/netapp.c **** 	// Wait for command complete event
 254:../libraries/CC3000_Host_Driver/netapp.c **** 	SimpleLinkWaitEvent(HCI_NETAPP_PING_SEND, &scRet);
 431              		.loc 1 254 0
 432 0062 07F11703 		add	r3, r7, #23
 433 0066 42F20200 		movw	r0, #8194
 434 006a 1946     		mov	r1, r3
 435 006c FFF7FEFF 		bl	SimpleLinkWaitEvent
 255:../libraries/CC3000_Host_Driver/netapp.c **** 	
 256:../libraries/CC3000_Host_Driver/netapp.c **** 	return(scRet);
 436              		.loc 1 256 0
 437 0070 FB7D     		ldrb	r3, [r7, #23]	@ zero_extendqisi2
 438 0072 5BB2     		sxtb	r3, r3
 257:../libraries/CC3000_Host_Driver/netapp.c **** }
 439              		.loc 1 257 0
 440 0074 1846     		mov	r0, r3
 441 0076 07F12007 		add	r7, r7, #32
 442 007a BD46     		mov	sp, r7
 443 007c 80BD     		pop	{r7, pc}
 444              		.cfi_endproc
 445              	.LFE3:
 447 007e 00BF     		.section	.text.netapp_ping_report,"ax",%progbits
 448              		.align	2
 449              		.global	netapp_ping_report
 450              		.thumb
 451              		.thumb_func
 453              	netapp_ping_report:
 454              	.LFB4:
 258:../libraries/CC3000_Host_Driver/netapp.c **** #endif
 259:../libraries/CC3000_Host_Driver/netapp.c **** 
 260:../libraries/CC3000_Host_Driver/netapp.c **** //*****************************************************************************
 261:../libraries/CC3000_Host_Driver/netapp.c **** //
 262:../libraries/CC3000_Host_Driver/netapp.c **** //!  netapp_ping_report
 263:../libraries/CC3000_Host_Driver/netapp.c **** //!
 264:../libraries/CC3000_Host_Driver/netapp.c **** //!  @param  none
 265:../libraries/CC3000_Host_Driver/netapp.c **** //!
 266:../libraries/CC3000_Host_Driver/netapp.c **** //!  @return  none
 267:../libraries/CC3000_Host_Driver/netapp.c **** //!
 268:../libraries/CC3000_Host_Driver/netapp.c **** //!  @brief   Request for ping status. This API triggers the CC3000 to send 
 269:../libraries/CC3000_Host_Driver/netapp.c **** //!           asynchronous events: HCI_EVNT_WLAN_ASYNC_PING_REPORT.
 270:../libraries/CC3000_Host_Driver/netapp.c **** //!           This event will carry  the report structure:
 271:../libraries/CC3000_Host_Driver/netapp.c **** //!           netapp_pingreport_args_t. This structure is filled in with ping
 272:../libraries/CC3000_Host_Driver/netapp.c **** //!           results up till point of triggering API.
 273:../libraries/CC3000_Host_Driver/netapp.c **** //!           netapp_pingreport_args_t:\n packets_sent - echo sent,
 274:../libraries/CC3000_Host_Driver/netapp.c **** //!           packets_received - echo reply, min_round_time - minimum
 275:../libraries/CC3000_Host_Driver/netapp.c **** //!           round time, max_round_time - max round time,
 276:../libraries/CC3000_Host_Driver/netapp.c **** //!           avg_round_time - average round time
 277:../libraries/CC3000_Host_Driver/netapp.c **** //!	 
 278:../libraries/CC3000_Host_Driver/netapp.c **** //! @note     When a ping operation is not active, the returned structure 
 279:../libraries/CC3000_Host_Driver/netapp.c **** //!           fields are 0.
 280:../libraries/CC3000_Host_Driver/netapp.c **** //!
 281:../libraries/CC3000_Host_Driver/netapp.c **** //*****************************************************************************
 282:../libraries/CC3000_Host_Driver/netapp.c **** 
 283:../libraries/CC3000_Host_Driver/netapp.c **** 
 284:../libraries/CC3000_Host_Driver/netapp.c **** #ifndef CC3000_TINY_DRIVER
 285:../libraries/CC3000_Host_Driver/netapp.c **** void netapp_ping_report()
 286:../libraries/CC3000_Host_Driver/netapp.c **** {
 455              		.loc 1 286 0
 456              		.cfi_startproc
 457              		@ args = 0, pretend = 0, frame = 8
 458              		@ frame_needed = 1, uses_anonymous_args = 0
 459 0000 80B5     		push	{r7, lr}
 460              	.LCFI12:
 461              		.cfi_def_cfa_offset 8
 462              		.cfi_offset 7, -8
 463              		.cfi_offset 14, -4
 464 0002 82B0     		sub	sp, sp, #8
 465              	.LCFI13:
 466              		.cfi_def_cfa_offset 16
 467 0004 00AF     		add	r7, sp, #0
 468              	.LCFI14:
 469              		.cfi_def_cfa_register 7
 287:../libraries/CC3000_Host_Driver/netapp.c **** 	unsigned char *ptr;
 288:../libraries/CC3000_Host_Driver/netapp.c **** 	ptr = tSLInformation.pucTxCommandBuffer;
 470              		.loc 1 288 0
 471 0006 40F20003 		movw	r3, #:lower16:tSLInformation
 472 000a C0F20003 		movt	r3, #:upper16:tSLInformation
 473 000e 9B68     		ldr	r3, [r3, #8]
 474 0010 7B60     		str	r3, [r7, #4]
 289:../libraries/CC3000_Host_Driver/netapp.c **** 	signed char scRet;
 290:../libraries/CC3000_Host_Driver/netapp.c **** 	
 291:../libraries/CC3000_Host_Driver/netapp.c **** 	scRet = EFAIL;
 475              		.loc 1 291 0
 476 0012 4FF0FF03 		mov	r3, #255
 477 0016 FB70     		strb	r3, [r7, #3]
 292:../libraries/CC3000_Host_Driver/netapp.c **** 	
 293:../libraries/CC3000_Host_Driver/netapp.c **** 	// Initiate a HCI command
 294:../libraries/CC3000_Host_Driver/netapp.c **** 	hci_command_send(HCI_NETAPP_PING_REPORT, ptr, 0);
 478              		.loc 1 294 0
 479 0018 42F20300 		movw	r0, #8195
 480 001c 7968     		ldr	r1, [r7, #4]
 481 001e 4FF00002 		mov	r2, #0
 482 0022 FFF7FEFF 		bl	hci_command_send
 295:../libraries/CC3000_Host_Driver/netapp.c **** 	
 296:../libraries/CC3000_Host_Driver/netapp.c **** 	// Wait for command complete event
 297:../libraries/CC3000_Host_Driver/netapp.c **** 	SimpleLinkWaitEvent(HCI_NETAPP_PING_REPORT, &scRet); 
 483              		.loc 1 297 0
 484 0026 07F10303 		add	r3, r7, #3
 485 002a 42F20300 		movw	r0, #8195
 486 002e 1946     		mov	r1, r3
 487 0030 FFF7FEFF 		bl	SimpleLinkWaitEvent
 298:../libraries/CC3000_Host_Driver/netapp.c **** }
 488              		.loc 1 298 0
 489 0034 07F10807 		add	r7, r7, #8
 490 0038 BD46     		mov	sp, r7
 491 003a 80BD     		pop	{r7, pc}
 492              		.cfi_endproc
 493              	.LFE4:
 495              		.section	.text.netapp_ping_stop,"ax",%progbits
 496              		.align	2
 497              		.global	netapp_ping_stop
 498              		.thumb
 499              		.thumb_func
 501              	netapp_ping_stop:
 502              	.LFB5:
 299:../libraries/CC3000_Host_Driver/netapp.c **** #endif
 300:../libraries/CC3000_Host_Driver/netapp.c **** 
 301:../libraries/CC3000_Host_Driver/netapp.c **** //*****************************************************************************
 302:../libraries/CC3000_Host_Driver/netapp.c **** //
 303:../libraries/CC3000_Host_Driver/netapp.c **** //!  netapp_ping_stop
 304:../libraries/CC3000_Host_Driver/netapp.c **** //!
 305:../libraries/CC3000_Host_Driver/netapp.c **** //!  @param  none
 306:../libraries/CC3000_Host_Driver/netapp.c **** //!
 307:../libraries/CC3000_Host_Driver/netapp.c **** //!  @return  On success, zero is returned. On error, -1 is returned.      
 308:../libraries/CC3000_Host_Driver/netapp.c **** //!
 309:../libraries/CC3000_Host_Driver/netapp.c **** //!  @brief   Stop any ping request.
 310:../libraries/CC3000_Host_Driver/netapp.c **** //!	 
 311:../libraries/CC3000_Host_Driver/netapp.c **** //!
 312:../libraries/CC3000_Host_Driver/netapp.c **** //*****************************************************************************
 313:../libraries/CC3000_Host_Driver/netapp.c **** 
 314:../libraries/CC3000_Host_Driver/netapp.c **** #ifndef CC3000_TINY_DRIVER
 315:../libraries/CC3000_Host_Driver/netapp.c **** long netapp_ping_stop()
 316:../libraries/CC3000_Host_Driver/netapp.c **** {
 503              		.loc 1 316 0
 504              		.cfi_startproc
 505              		@ args = 0, pretend = 0, frame = 8
 506              		@ frame_needed = 1, uses_anonymous_args = 0
 507 0000 80B5     		push	{r7, lr}
 508              	.LCFI15:
 509              		.cfi_def_cfa_offset 8
 510              		.cfi_offset 7, -8
 511              		.cfi_offset 14, -4
 512 0002 82B0     		sub	sp, sp, #8
 513              	.LCFI16:
 514              		.cfi_def_cfa_offset 16
 515 0004 00AF     		add	r7, sp, #0
 516              	.LCFI17:
 517              		.cfi_def_cfa_register 7
 317:../libraries/CC3000_Host_Driver/netapp.c **** 	signed char scRet;
 318:../libraries/CC3000_Host_Driver/netapp.c **** 	unsigned char *ptr;
 319:../libraries/CC3000_Host_Driver/netapp.c **** 	
 320:../libraries/CC3000_Host_Driver/netapp.c **** 	scRet = EFAIL;
 518              		.loc 1 320 0
 519 0006 4FF0FF03 		mov	r3, #255
 520 000a FB70     		strb	r3, [r7, #3]
 321:../libraries/CC3000_Host_Driver/netapp.c **** 	ptr = tSLInformation.pucTxCommandBuffer;
 521              		.loc 1 321 0
 522 000c 40F20003 		movw	r3, #:lower16:tSLInformation
 523 0010 C0F20003 		movt	r3, #:upper16:tSLInformation
 524 0014 9B68     		ldr	r3, [r3, #8]
 525 0016 7B60     		str	r3, [r7, #4]
 322:../libraries/CC3000_Host_Driver/netapp.c **** 	
 323:../libraries/CC3000_Host_Driver/netapp.c **** 	// Initiate a HCI command
 324:../libraries/CC3000_Host_Driver/netapp.c **** 	hci_command_send(HCI_NETAPP_PING_STOP, ptr, 0);
 526              		.loc 1 324 0
 527 0018 42F20400 		movw	r0, #8196
 528 001c 7968     		ldr	r1, [r7, #4]
 529 001e 4FF00002 		mov	r2, #0
 530 0022 FFF7FEFF 		bl	hci_command_send
 325:../libraries/CC3000_Host_Driver/netapp.c **** 	
 326:../libraries/CC3000_Host_Driver/netapp.c **** 	// Wait for command complete event
 327:../libraries/CC3000_Host_Driver/netapp.c **** 	SimpleLinkWaitEvent(HCI_NETAPP_PING_STOP, &scRet);
 531              		.loc 1 327 0
 532 0026 07F10303 		add	r3, r7, #3
 533 002a 42F20400 		movw	r0, #8196
 534 002e 1946     		mov	r1, r3
 535 0030 FFF7FEFF 		bl	SimpleLinkWaitEvent
 328:../libraries/CC3000_Host_Driver/netapp.c **** 	
 329:../libraries/CC3000_Host_Driver/netapp.c **** 	return(scRet);
 536              		.loc 1 329 0
 537 0034 FB78     		ldrb	r3, [r7, #3]	@ zero_extendqisi2
 538 0036 5BB2     		sxtb	r3, r3
 330:../libraries/CC3000_Host_Driver/netapp.c **** }
 539              		.loc 1 330 0
 540 0038 1846     		mov	r0, r3
 541 003a 07F10807 		add	r7, r7, #8
 542 003e BD46     		mov	sp, r7
 543 0040 80BD     		pop	{r7, pc}
 544              		.cfi_endproc
 545              	.LFE5:
 547 0042 00BF     		.section	.text.netapp_ipconfig,"ax",%progbits
 548              		.align	2
 549              		.global	netapp_ipconfig
 550              		.thumb
 551              		.thumb_func
 553              	netapp_ipconfig:
 554              	.LFB6:
 331:../libraries/CC3000_Host_Driver/netapp.c **** #endif
 332:../libraries/CC3000_Host_Driver/netapp.c **** 
 333:../libraries/CC3000_Host_Driver/netapp.c **** //*****************************************************************************
 334:../libraries/CC3000_Host_Driver/netapp.c **** //
 335:../libraries/CC3000_Host_Driver/netapp.c **** //!  netapp_ipconfig
 336:../libraries/CC3000_Host_Driver/netapp.c **** //!
 337:../libraries/CC3000_Host_Driver/netapp.c **** //!  @param[out]  ipconfig  This argument is a pointer to a 
 338:../libraries/CC3000_Host_Driver/netapp.c **** //!                         tNetappIpconfigRetArgs structure. This structure is
 339:../libraries/CC3000_Host_Driver/netapp.c **** //!                         filled in with the network interface configuration.
 340:../libraries/CC3000_Host_Driver/netapp.c **** //!                         tNetappIpconfigRetArgs:\n aucIP - ip address,
 341:../libraries/CC3000_Host_Driver/netapp.c **** //!                         aucSubnetMask - mask, aucDefaultGateway - default
 342:../libraries/CC3000_Host_Driver/netapp.c **** //!                         gateway address, aucDHCPServer - dhcp server address
 343:../libraries/CC3000_Host_Driver/netapp.c **** //!                         aucDNSServer - dns server address, uaMacAddr - mac
 344:../libraries/CC3000_Host_Driver/netapp.c **** //!                         address, uaSSID - connected AP ssid
 345:../libraries/CC3000_Host_Driver/netapp.c **** //!
 346:../libraries/CC3000_Host_Driver/netapp.c **** //!  @return  none
 347:../libraries/CC3000_Host_Driver/netapp.c **** //!
 348:../libraries/CC3000_Host_Driver/netapp.c **** //!  @brief   Obtain the CC3000 Network interface information.
 349:../libraries/CC3000_Host_Driver/netapp.c **** //!           Note that the information is available only after the WLAN
 350:../libraries/CC3000_Host_Driver/netapp.c **** //!       		connection was established. Calling this function before
 351:../libraries/CC3000_Host_Driver/netapp.c **** //!           associated, will cause non-defined values to be returned.
 352:../libraries/CC3000_Host_Driver/netapp.c **** //!	 
 353:../libraries/CC3000_Host_Driver/netapp.c **** //! @note     The function is useful for figuring out the IP Configuration of
 354:../libraries/CC3000_Host_Driver/netapp.c **** //!       		the device when DHCP is used and for figuring out the SSID of
 355:../libraries/CC3000_Host_Driver/netapp.c **** //!       		the Wireless network the device is associated with.
 356:../libraries/CC3000_Host_Driver/netapp.c **** //!
 357:../libraries/CC3000_Host_Driver/netapp.c **** //*****************************************************************************
 358:../libraries/CC3000_Host_Driver/netapp.c **** 
 359:../libraries/CC3000_Host_Driver/netapp.c **** #ifndef CC3000_TINY_DRIVER
 360:../libraries/CC3000_Host_Driver/netapp.c **** void netapp_ipconfig( tNetappIpconfigRetArgs * ipconfig )
 361:../libraries/CC3000_Host_Driver/netapp.c **** {
 555              		.loc 1 361 0
 556              		.cfi_startproc
 557              		@ args = 0, pretend = 0, frame = 16
 558              		@ frame_needed = 1, uses_anonymous_args = 0
 559 0000 80B5     		push	{r7, lr}
 560              	.LCFI18:
 561              		.cfi_def_cfa_offset 8
 562              		.cfi_offset 7, -8
 563              		.cfi_offset 14, -4
 564 0002 84B0     		sub	sp, sp, #16
 565              	.LCFI19:
 566              		.cfi_def_cfa_offset 24
 567 0004 00AF     		add	r7, sp, #0
 568              	.LCFI20:
 569              		.cfi_def_cfa_register 7
 570 0006 7860     		str	r0, [r7, #4]
 362:../libraries/CC3000_Host_Driver/netapp.c **** 	unsigned char *ptr;
 363:../libraries/CC3000_Host_Driver/netapp.c **** 	
 364:../libraries/CC3000_Host_Driver/netapp.c **** 	ptr = tSLInformation.pucTxCommandBuffer;
 571              		.loc 1 364 0
 572 0008 40F20003 		movw	r3, #:lower16:tSLInformation
 573 000c C0F20003 		movt	r3, #:upper16:tSLInformation
 574 0010 9B68     		ldr	r3, [r3, #8]
 575 0012 FB60     		str	r3, [r7, #12]
 365:../libraries/CC3000_Host_Driver/netapp.c **** 	
 366:../libraries/CC3000_Host_Driver/netapp.c **** 	// Initiate a HCI command
 367:../libraries/CC3000_Host_Driver/netapp.c **** 	hci_command_send(HCI_NETAPP_IPCONFIG, ptr, 0);
 576              		.loc 1 367 0
 577 0014 42F20500 		movw	r0, #8197
 578 0018 F968     		ldr	r1, [r7, #12]
 579 001a 4FF00002 		mov	r2, #0
 580 001e FFF7FEFF 		bl	hci_command_send
 368:../libraries/CC3000_Host_Driver/netapp.c **** 	
 369:../libraries/CC3000_Host_Driver/netapp.c **** 	// Wait for command complete event
 370:../libraries/CC3000_Host_Driver/netapp.c **** 	SimpleLinkWaitEvent(HCI_NETAPP_IPCONFIG, ipconfig );
 581              		.loc 1 370 0
 582 0022 42F20500 		movw	r0, #8197
 583 0026 7968     		ldr	r1, [r7, #4]
 584 0028 FFF7FEFF 		bl	SimpleLinkWaitEvent
 371:../libraries/CC3000_Host_Driver/netapp.c **** 	
 372:../libraries/CC3000_Host_Driver/netapp.c **** }
 585              		.loc 1 372 0
 586 002c 07F11007 		add	r7, r7, #16
 587 0030 BD46     		mov	sp, r7
 588 0032 80BD     		pop	{r7, pc}
 589              		.cfi_endproc
 590              	.LFE6:
 592              		.section	.text.netapp_arp_flush,"ax",%progbits
 593              		.align	2
 594              		.global	netapp_arp_flush
 595              		.thumb
 596              		.thumb_func
 598              	netapp_arp_flush:
 599              	.LFB7:
 373:../libraries/CC3000_Host_Driver/netapp.c **** #else
 374:../libraries/CC3000_Host_Driver/netapp.c **** void netapp_ipconfig( tNetappIpconfigRetArgs * ipconfig )
 375:../libraries/CC3000_Host_Driver/netapp.c **** {
 376:../libraries/CC3000_Host_Driver/netapp.c **** 
 377:../libraries/CC3000_Host_Driver/netapp.c **** }
 378:../libraries/CC3000_Host_Driver/netapp.c **** #endif
 379:../libraries/CC3000_Host_Driver/netapp.c **** 
 380:../libraries/CC3000_Host_Driver/netapp.c **** //*****************************************************************************
 381:../libraries/CC3000_Host_Driver/netapp.c **** //
 382:../libraries/CC3000_Host_Driver/netapp.c **** //!  netapp_arp_flush
 383:../libraries/CC3000_Host_Driver/netapp.c **** //!
 384:../libraries/CC3000_Host_Driver/netapp.c **** //!  @param  none
 385:../libraries/CC3000_Host_Driver/netapp.c **** //!
 386:../libraries/CC3000_Host_Driver/netapp.c **** //!  @return  none
 387:../libraries/CC3000_Host_Driver/netapp.c **** //!
 388:../libraries/CC3000_Host_Driver/netapp.c **** //!  @brief  Flushes ARP table
 389:../libraries/CC3000_Host_Driver/netapp.c **** //!
 390:../libraries/CC3000_Host_Driver/netapp.c **** //*****************************************************************************
 391:../libraries/CC3000_Host_Driver/netapp.c **** 
 392:../libraries/CC3000_Host_Driver/netapp.c **** #ifndef CC3000_TINY_DRIVER
 393:../libraries/CC3000_Host_Driver/netapp.c **** long netapp_arp_flush(void)
 394:../libraries/CC3000_Host_Driver/netapp.c **** {
 600              		.loc 1 394 0
 601              		.cfi_startproc
 602              		@ args = 0, pretend = 0, frame = 8
 603              		@ frame_needed = 1, uses_anonymous_args = 0
 604 0000 80B5     		push	{r7, lr}
 605              	.LCFI21:
 606              		.cfi_def_cfa_offset 8
 607              		.cfi_offset 7, -8
 608              		.cfi_offset 14, -4
 609 0002 82B0     		sub	sp, sp, #8
 610              	.LCFI22:
 611              		.cfi_def_cfa_offset 16
 612 0004 00AF     		add	r7, sp, #0
 613              	.LCFI23:
 614              		.cfi_def_cfa_register 7
 395:../libraries/CC3000_Host_Driver/netapp.c **** 	signed char scRet;
 396:../libraries/CC3000_Host_Driver/netapp.c **** 	unsigned char *ptr;
 397:../libraries/CC3000_Host_Driver/netapp.c **** 	
 398:../libraries/CC3000_Host_Driver/netapp.c **** 	scRet = EFAIL;
 615              		.loc 1 398 0
 616 0006 4FF0FF03 		mov	r3, #255
 617 000a FB70     		strb	r3, [r7, #3]
 399:../libraries/CC3000_Host_Driver/netapp.c **** 	ptr = tSLInformation.pucTxCommandBuffer;
 618              		.loc 1 399 0
 619 000c 40F20003 		movw	r3, #:lower16:tSLInformation
 620 0010 C0F20003 		movt	r3, #:upper16:tSLInformation
 621 0014 9B68     		ldr	r3, [r3, #8]
 622 0016 7B60     		str	r3, [r7, #4]
 400:../libraries/CC3000_Host_Driver/netapp.c **** 	
 401:../libraries/CC3000_Host_Driver/netapp.c **** 	// Initiate a HCI command
 402:../libraries/CC3000_Host_Driver/netapp.c **** 	hci_command_send(HCI_NETAPP_ARP_FLUSH, ptr, 0);
 623              		.loc 1 402 0
 624 0018 42F20600 		movw	r0, #8198
 625 001c 7968     		ldr	r1, [r7, #4]
 626 001e 4FF00002 		mov	r2, #0
 627 0022 FFF7FEFF 		bl	hci_command_send
 403:../libraries/CC3000_Host_Driver/netapp.c **** 	
 404:../libraries/CC3000_Host_Driver/netapp.c **** 	// Wait for command complete event
 405:../libraries/CC3000_Host_Driver/netapp.c **** 	SimpleLinkWaitEvent(HCI_NETAPP_ARP_FLUSH, &scRet);
 628              		.loc 1 405 0
 629 0026 07F10303 		add	r3, r7, #3
 630 002a 42F20600 		movw	r0, #8198
 631 002e 1946     		mov	r1, r3
 632 0030 FFF7FEFF 		bl	SimpleLinkWaitEvent
 406:../libraries/CC3000_Host_Driver/netapp.c **** 	
 407:../libraries/CC3000_Host_Driver/netapp.c **** 	return(scRet);
 633              		.loc 1 407 0
 634 0034 FB78     		ldrb	r3, [r7, #3]	@ zero_extendqisi2
 635 0036 5BB2     		sxtb	r3, r3
 408:../libraries/CC3000_Host_Driver/netapp.c **** }
 636              		.loc 1 408 0
 637 0038 1846     		mov	r0, r3
 638 003a 07F10807 		add	r7, r7, #8
 639 003e BD46     		mov	sp, r7
 640 0040 80BD     		pop	{r7, pc}
 641              		.cfi_endproc
 642              	.LFE7:
 644 0042 00BF     		.text
 645              	.Letext0:
 646              		.file 2 "../libraries/CC3000_Host_Driver/netapp.h"
 647              		.file 3 "../libraries/CC3000_Host_Driver/cc3000_common.h"