   1              		.syntax unified
   2              		.cpu cortex-m3
   3              		.fpu softvfp
   4              		.eabi_attribute 20, 1
   5              		.eabi_attribute 21, 1
   6              		.eabi_attribute 23, 3
   7              		.eabi_attribute 24, 1
   8              		.eabi_attribute 25, 1
   9              		.eabi_attribute 26, 1
  10              		.eabi_attribute 30, 6
  11              		.eabi_attribute 34, 1
  12              		.eabi_attribute 18, 4
  13              		.thumb
  14              		.file	"security.c"
  15              		.text
  16              	.Ltext0:
  17              		.cfi_sections	.debug_frame
  18              		.global	sbox
  19              		.section	.rodata
  20              		.align	2
  23              	sbox:
  24 0000 63       		.byte	99
  25 0001 7C       		.byte	124
  26 0002 77       		.byte	119
  27 0003 7B       		.byte	123
  28 0004 F2       		.byte	-14
  29 0005 6B       		.byte	107
  30 0006 6F       		.byte	111
  31 0007 C5       		.byte	-59
  32 0008 30       		.byte	48
  33 0009 01       		.byte	1
  34 000a 67       		.byte	103
  35 000b 2B       		.byte	43
  36 000c FE       		.byte	-2
  37 000d D7       		.byte	-41
  38 000e AB       		.byte	-85
  39 000f 76       		.byte	118
  40 0010 CA       		.byte	-54
  41 0011 82       		.byte	-126
  42 0012 C9       		.byte	-55
  43 0013 7D       		.byte	125
  44 0014 FA       		.byte	-6
  45 0015 59       		.byte	89
  46 0016 47       		.byte	71
  47 0017 F0       		.byte	-16
  48 0018 AD       		.byte	-83
  49 0019 D4       		.byte	-44
  50 001a A2       		.byte	-94
  51 001b AF       		.byte	-81
  52 001c 9C       		.byte	-100
  53 001d A4       		.byte	-92
  54 001e 72       		.byte	114
  55 001f C0       		.byte	-64
  56 0020 B7       		.byte	-73
  57 0021 FD       		.byte	-3
  58 0022 93       		.byte	-109
  59 0023 26       		.byte	38
  60 0024 36       		.byte	54
  61 0025 3F       		.byte	63
  62 0026 F7       		.byte	-9
  63 0027 CC       		.byte	-52
  64 0028 34       		.byte	52
  65 0029 A5       		.byte	-91
  66 002a E5       		.byte	-27
  67 002b F1       		.byte	-15
  68 002c 71       		.byte	113
  69 002d D8       		.byte	-40
  70 002e 31       		.byte	49
  71 002f 15       		.byte	21
  72 0030 04       		.byte	4
  73 0031 C7       		.byte	-57
  74 0032 23       		.byte	35
  75 0033 C3       		.byte	-61
  76 0034 18       		.byte	24
  77 0035 96       		.byte	-106
  78 0036 05       		.byte	5
  79 0037 9A       		.byte	-102
  80 0038 07       		.byte	7
  81 0039 12       		.byte	18
  82 003a 80       		.byte	-128
  83 003b E2       		.byte	-30
  84 003c EB       		.byte	-21
  85 003d 27       		.byte	39
  86 003e B2       		.byte	-78
  87 003f 75       		.byte	117
  88 0040 09       		.byte	9
  89 0041 83       		.byte	-125
  90 0042 2C       		.byte	44
  91 0043 1A       		.byte	26
  92 0044 1B       		.byte	27
  93 0045 6E       		.byte	110
  94 0046 5A       		.byte	90
  95 0047 A0       		.byte	-96
  96 0048 52       		.byte	82
  97 0049 3B       		.byte	59
  98 004a D6       		.byte	-42
  99 004b B3       		.byte	-77
 100 004c 29       		.byte	41
 101 004d E3       		.byte	-29
 102 004e 2F       		.byte	47
 103 004f 84       		.byte	-124
 104 0050 53       		.byte	83
 105 0051 D1       		.byte	-47
 106 0052 00       		.byte	0
 107 0053 ED       		.byte	-19
 108 0054 20       		.byte	32
 109 0055 FC       		.byte	-4
 110 0056 B1       		.byte	-79
 111 0057 5B       		.byte	91
 112 0058 6A       		.byte	106
 113 0059 CB       		.byte	-53
 114 005a BE       		.byte	-66
 115 005b 39       		.byte	57
 116 005c 4A       		.byte	74
 117 005d 4C       		.byte	76
 118 005e 58       		.byte	88
 119 005f CF       		.byte	-49
 120 0060 D0       		.byte	-48
 121 0061 EF       		.byte	-17
 122 0062 AA       		.byte	-86
 123 0063 FB       		.byte	-5
 124 0064 43       		.byte	67
 125 0065 4D       		.byte	77
 126 0066 33       		.byte	51
 127 0067 85       		.byte	-123
 128 0068 45       		.byte	69
 129 0069 F9       		.byte	-7
 130 006a 02       		.byte	2
 131 006b 7F       		.byte	127
 132 006c 50       		.byte	80
 133 006d 3C       		.byte	60
 134 006e 9F       		.byte	-97
 135 006f A8       		.byte	-88
 136 0070 51       		.byte	81
 137 0071 A3       		.byte	-93
 138 0072 40       		.byte	64
 139 0073 8F       		.byte	-113
 140 0074 92       		.byte	-110
 141 0075 9D       		.byte	-99
 142 0076 38       		.byte	56
 143 0077 F5       		.byte	-11
 144 0078 BC       		.byte	-68
 145 0079 B6       		.byte	-74
 146 007a DA       		.byte	-38
 147 007b 21       		.byte	33
 148 007c 10       		.byte	16
 149 007d FF       		.byte	-1
 150 007e F3       		.byte	-13
 151 007f D2       		.byte	-46
 152 0080 CD       		.byte	-51
 153 0081 0C       		.byte	12
 154 0082 13       		.byte	19
 155 0083 EC       		.byte	-20
 156 0084 5F       		.byte	95
 157 0085 97       		.byte	-105
 158 0086 44       		.byte	68
 159 0087 17       		.byte	23
 160 0088 C4       		.byte	-60
 161 0089 A7       		.byte	-89
 162 008a 7E       		.byte	126
 163 008b 3D       		.byte	61
 164 008c 64       		.byte	100
 165 008d 5D       		.byte	93
 166 008e 19       		.byte	25
 167 008f 73       		.byte	115
 168 0090 60       		.byte	96
 169 0091 81       		.byte	-127
 170 0092 4F       		.byte	79
 171 0093 DC       		.byte	-36
 172 0094 22       		.byte	34
 173 0095 2A       		.byte	42
 174 0096 90       		.byte	-112
 175 0097 88       		.byte	-120
 176 0098 46       		.byte	70
 177 0099 EE       		.byte	-18
 178 009a B8       		.byte	-72
 179 009b 14       		.byte	20
 180 009c DE       		.byte	-34
 181 009d 5E       		.byte	94
 182 009e 0B       		.byte	11
 183 009f DB       		.byte	-37
 184 00a0 E0       		.byte	-32
 185 00a1 32       		.byte	50
 186 00a2 3A       		.byte	58
 187 00a3 0A       		.byte	10
 188 00a4 49       		.byte	73
 189 00a5 06       		.byte	6
 190 00a6 24       		.byte	36
 191 00a7 5C       		.byte	92
 192 00a8 C2       		.byte	-62
 193 00a9 D3       		.byte	-45
 194 00aa AC       		.byte	-84
 195 00ab 62       		.byte	98
 196 00ac 91       		.byte	-111
 197 00ad 95       		.byte	-107
 198 00ae E4       		.byte	-28
 199 00af 79       		.byte	121
 200 00b0 E7       		.byte	-25
 201 00b1 C8       		.byte	-56
 202 00b2 37       		.byte	55
 203 00b3 6D       		.byte	109
 204 00b4 8D       		.byte	-115
 205 00b5 D5       		.byte	-43
 206 00b6 4E       		.byte	78
 207 00b7 A9       		.byte	-87
 208 00b8 6C       		.byte	108
 209 00b9 56       		.byte	86
 210 00ba F4       		.byte	-12
 211 00bb EA       		.byte	-22
 212 00bc 65       		.byte	101
 213 00bd 7A       		.byte	122
 214 00be AE       		.byte	-82
 215 00bf 08       		.byte	8
 216 00c0 BA       		.byte	-70
 217 00c1 78       		.byte	120
 218 00c2 25       		.byte	37
 219 00c3 2E       		.byte	46
 220 00c4 1C       		.byte	28
 221 00c5 A6       		.byte	-90
 222 00c6 B4       		.byte	-76
 223 00c7 C6       		.byte	-58
 224 00c8 E8       		.byte	-24
 225 00c9 DD       		.byte	-35
 226 00ca 74       		.byte	116
 227 00cb 1F       		.byte	31
 228 00cc 4B       		.byte	75
 229 00cd BD       		.byte	-67
 230 00ce 8B       		.byte	-117
 231 00cf 8A       		.byte	-118
 232 00d0 70       		.byte	112
 233 00d1 3E       		.byte	62
 234 00d2 B5       		.byte	-75
 235 00d3 66       		.byte	102
 236 00d4 48       		.byte	72
 237 00d5 03       		.byte	3
 238 00d6 F6       		.byte	-10
 239 00d7 0E       		.byte	14
 240 00d8 61       		.byte	97
 241 00d9 35       		.byte	53
 242 00da 57       		.byte	87
 243 00db B9       		.byte	-71
 244 00dc 86       		.byte	-122
 245 00dd C1       		.byte	-63
 246 00de 1D       		.byte	29
 247 00df 9E       		.byte	-98
 248 00e0 E1       		.byte	-31
 249 00e1 F8       		.byte	-8
 250 00e2 98       		.byte	-104
 251 00e3 11       		.byte	17
 252 00e4 69       		.byte	105
 253 00e5 D9       		.byte	-39
 254 00e6 8E       		.byte	-114
 255 00e7 94       		.byte	-108
 256 00e8 9B       		.byte	-101
 257 00e9 1E       		.byte	30
 258 00ea 87       		.byte	-121
 259 00eb E9       		.byte	-23
 260 00ec CE       		.byte	-50
 261 00ed 55       		.byte	85
 262 00ee 28       		.byte	40
 263 00ef DF       		.byte	-33
 264 00f0 8C       		.byte	-116
 265 00f1 A1       		.byte	-95
 266 00f2 89       		.byte	-119
 267 00f3 0D       		.byte	13
 268 00f4 BF       		.byte	-65
 269 00f5 E6       		.byte	-26
 270 00f6 42       		.byte	66
 271 00f7 68       		.byte	104
 272 00f8 41       		.byte	65
 273 00f9 99       		.byte	-103
 274 00fa 2D       		.byte	45
 275 00fb 0F       		.byte	15
 276 00fc B0       		.byte	-80
 277 00fd 54       		.byte	84
 278 00fe BB       		.byte	-69
 279 00ff 16       		.byte	22
 280              		.global	rsbox
 281              		.align	2
 284              	rsbox:
 285 0100 52       		.byte	82
 286 0101 09       		.byte	9
 287 0102 6A       		.byte	106
 288 0103 D5       		.byte	-43
 289 0104 30       		.byte	48
 290 0105 36       		.byte	54
 291 0106 A5       		.byte	-91
 292 0107 38       		.byte	56
 293 0108 BF       		.byte	-65
 294 0109 40       		.byte	64
 295 010a A3       		.byte	-93
 296 010b 9E       		.byte	-98
 297 010c 81       		.byte	-127
 298 010d F3       		.byte	-13
 299 010e D7       		.byte	-41
 300 010f FB       		.byte	-5
 301 0110 7C       		.byte	124
 302 0111 E3       		.byte	-29
 303 0112 39       		.byte	57
 304 0113 82       		.byte	-126
 305 0114 9B       		.byte	-101
 306 0115 2F       		.byte	47
 307 0116 FF       		.byte	-1
 308 0117 87       		.byte	-121
 309 0118 34       		.byte	52
 310 0119 8E       		.byte	-114
 311 011a 43       		.byte	67
 312 011b 44       		.byte	68
 313 011c C4       		.byte	-60
 314 011d DE       		.byte	-34
 315 011e E9       		.byte	-23
 316 011f CB       		.byte	-53
 317 0120 54       		.byte	84
 318 0121 7B       		.byte	123
 319 0122 94       		.byte	-108
 320 0123 32       		.byte	50
 321 0124 A6       		.byte	-90
 322 0125 C2       		.byte	-62
 323 0126 23       		.byte	35
 324 0127 3D       		.byte	61
 325 0128 EE       		.byte	-18
 326 0129 4C       		.byte	76
 327 012a 95       		.byte	-107
 328 012b 0B       		.byte	11
 329 012c 42       		.byte	66
 330 012d FA       		.byte	-6
 331 012e C3       		.byte	-61
 332 012f 4E       		.byte	78
 333 0130 08       		.byte	8
 334 0131 2E       		.byte	46
 335 0132 A1       		.byte	-95
 336 0133 66       		.byte	102
 337 0134 28       		.byte	40
 338 0135 D9       		.byte	-39
 339 0136 24       		.byte	36
 340 0137 B2       		.byte	-78
 341 0138 76       		.byte	118
 342 0139 5B       		.byte	91
 343 013a A2       		.byte	-94
 344 013b 49       		.byte	73
 345 013c 6D       		.byte	109
 346 013d 8B       		.byte	-117
 347 013e D1       		.byte	-47
 348 013f 25       		.byte	37
 349 0140 72       		.byte	114
 350 0141 F8       		.byte	-8
 351 0142 F6       		.byte	-10
 352 0143 64       		.byte	100
 353 0144 86       		.byte	-122
 354 0145 68       		.byte	104
 355 0146 98       		.byte	-104
 356 0147 16       		.byte	22
 357 0148 D4       		.byte	-44
 358 0149 A4       		.byte	-92
 359 014a 5C       		.byte	92
 360 014b CC       		.byte	-52
 361 014c 5D       		.byte	93
 362 014d 65       		.byte	101
 363 014e B6       		.byte	-74
 364 014f 92       		.byte	-110
 365 0150 6C       		.byte	108
 366 0151 70       		.byte	112
 367 0152 48       		.byte	72
 368 0153 50       		.byte	80
 369 0154 FD       		.byte	-3
 370 0155 ED       		.byte	-19
 371 0156 B9       		.byte	-71
 372 0157 DA       		.byte	-38
 373 0158 5E       		.byte	94
 374 0159 15       		.byte	21
 375 015a 46       		.byte	70
 376 015b 57       		.byte	87
 377 015c A7       		.byte	-89
 378 015d 8D       		.byte	-115
 379 015e 9D       		.byte	-99
 380 015f 84       		.byte	-124
 381 0160 90       		.byte	-112
 382 0161 D8       		.byte	-40
 383 0162 AB       		.byte	-85
 384 0163 00       		.byte	0
 385 0164 8C       		.byte	-116
 386 0165 BC       		.byte	-68
 387 0166 D3       		.byte	-45
 388 0167 0A       		.byte	10
 389 0168 F7       		.byte	-9
 390 0169 E4       		.byte	-28
 391 016a 58       		.byte	88
 392 016b 05       		.byte	5
 393 016c B8       		.byte	-72
 394 016d B3       		.byte	-77
 395 016e 45       		.byte	69
 396 016f 06       		.byte	6
 397 0170 D0       		.byte	-48
 398 0171 2C       		.byte	44
 399 0172 1E       		.byte	30
 400 0173 8F       		.byte	-113
 401 0174 CA       		.byte	-54
 402 0175 3F       		.byte	63
 403 0176 0F       		.byte	15
 404 0177 02       		.byte	2
 405 0178 C1       		.byte	-63
 406 0179 AF       		.byte	-81
 407 017a BD       		.byte	-67
 408 017b 03       		.byte	3
 409 017c 01       		.byte	1
 410 017d 13       		.byte	19
 411 017e 8A       		.byte	-118
 412 017f 6B       		.byte	107
 413 0180 3A       		.byte	58
 414 0181 91       		.byte	-111
 415 0182 11       		.byte	17
 416 0183 41       		.byte	65
 417 0184 4F       		.byte	79
 418 0185 67       		.byte	103
 419 0186 DC       		.byte	-36
 420 0187 EA       		.byte	-22
 421 0188 97       		.byte	-105
 422 0189 F2       		.byte	-14
 423 018a CF       		.byte	-49
 424 018b CE       		.byte	-50
 425 018c F0       		.byte	-16
 426 018d B4       		.byte	-76
 427 018e E6       		.byte	-26
 428 018f 73       		.byte	115
 429 0190 96       		.byte	-106
 430 0191 AC       		.byte	-84
 431 0192 74       		.byte	116
 432 0193 22       		.byte	34
 433 0194 E7       		.byte	-25
 434 0195 AD       		.byte	-83
 435 0196 35       		.byte	53
 436 0197 85       		.byte	-123
 437 0198 E2       		.byte	-30
 438 0199 F9       		.byte	-7
 439 019a 37       		.byte	55
 440 019b E8       		.byte	-24
 441 019c 1C       		.byte	28
 442 019d 75       		.byte	117
 443 019e DF       		.byte	-33
 444 019f 6E       		.byte	110
 445 01a0 47       		.byte	71
 446 01a1 F1       		.byte	-15
 447 01a2 1A       		.byte	26
 448 01a3 71       		.byte	113
 449 01a4 1D       		.byte	29
 450 01a5 29       		.byte	41
 451 01a6 C5       		.byte	-59
 452 01a7 89       		.byte	-119
 453 01a8 6F       		.byte	111
 454 01a9 B7       		.byte	-73
 455 01aa 62       		.byte	98
 456 01ab 0E       		.byte	14
 457 01ac AA       		.byte	-86
 458 01ad 18       		.byte	24
 459 01ae BE       		.byte	-66
 460 01af 1B       		.byte	27
 461 01b0 FC       		.byte	-4
 462 01b1 56       		.byte	86
 463 01b2 3E       		.byte	62
 464 01b3 4B       		.byte	75
 465 01b4 C6       		.byte	-58
 466 01b5 D2       		.byte	-46
 467 01b6 79       		.byte	121
 468 01b7 20       		.byte	32
 469 01b8 9A       		.byte	-102
 470 01b9 DB       		.byte	-37
 471 01ba C0       		.byte	-64
 472 01bb FE       		.byte	-2
 473 01bc 78       		.byte	120
 474 01bd CD       		.byte	-51
 475 01be 5A       		.byte	90
 476 01bf F4       		.byte	-12
 477 01c0 1F       		.byte	31
 478 01c1 DD       		.byte	-35
 479 01c2 A8       		.byte	-88
 480 01c3 33       		.byte	51
 481 01c4 88       		.byte	-120
 482 01c5 07       		.byte	7
 483 01c6 C7       		.byte	-57
 484 01c7 31       		.byte	49
 485 01c8 B1       		.byte	-79
 486 01c9 12       		.byte	18
 487 01ca 10       		.byte	16
 488 01cb 59       		.byte	89
 489 01cc 27       		.byte	39
 490 01cd 80       		.byte	-128
 491 01ce EC       		.byte	-20
 492 01cf 5F       		.byte	95
 493 01d0 60       		.byte	96
 494 01d1 51       		.byte	81
 495 01d2 7F       		.byte	127
 496 01d3 A9       		.byte	-87
 497 01d4 19       		.byte	25
 498 01d5 B5       		.byte	-75
 499 01d6 4A       		.byte	74
 500 01d7 0D       		.byte	13
 501 01d8 2D       		.byte	45
 502 01d9 E5       		.byte	-27
 503 01da 7A       		.byte	122
 504 01db 9F       		.byte	-97
 505 01dc 93       		.byte	-109
 506 01dd C9       		.byte	-55
 507 01de 9C       		.byte	-100
 508 01df EF       		.byte	-17
 509 01e0 A0       		.byte	-96
 510 01e1 E0       		.byte	-32
 511 01e2 3B       		.byte	59
 512 01e3 4D       		.byte	77
 513 01e4 AE       		.byte	-82
 514 01e5 2A       		.byte	42
 515 01e6 F5       		.byte	-11
 516 01e7 B0       		.byte	-80
 517 01e8 C8       		.byte	-56
 518 01e9 EB       		.byte	-21
 519 01ea BB       		.byte	-69
 520 01eb 3C       		.byte	60
 521 01ec 83       		.byte	-125
 522 01ed 53       		.byte	83
 523 01ee 99       		.byte	-103
 524 01ef 61       		.byte	97
 525 01f0 17       		.byte	23
 526 01f1 2B       		.byte	43
 527 01f2 04       		.byte	4
 528 01f3 7E       		.byte	126
 529 01f4 BA       		.byte	-70
 530 01f5 77       		.byte	119
 531 01f6 D6       		.byte	-42
 532 01f7 26       		.byte	38
 533 01f8 E1       		.byte	-31
 534 01f9 69       		.byte	105
 535 01fa 14       		.byte	20
 536 01fb 63       		.byte	99
 537 01fc 55       		.byte	85
 538 01fd 21       		.byte	33
 539 01fe 0C       		.byte	12
 540 01ff 7D       		.byte	125
 541              		.global	Rcon
 542              		.align	2
 545              	Rcon:
 546 0200 8D       		.byte	-115
 547 0201 01       		.byte	1
 548 0202 02       		.byte	2
 549 0203 04       		.byte	4
 550 0204 08       		.byte	8
 551 0205 10       		.byte	16
 552 0206 20       		.byte	32
 553 0207 40       		.byte	64
 554 0208 80       		.byte	-128
 555 0209 1B       		.byte	27
 556 020a 36       		.byte	54
 557              		.comm	expandedKey,176,4
 558 020b 00       		.section	.text.expandKey,"ax",%progbits
 559              		.align	2
 560              		.global	expandKey
 561              		.thumb
 562              		.thumb_func
 564              	expandKey:
 565              	.LFB0:
 566              		.file 1 "../libraries/CC3000_Host_Driver/security.c"
   1:../libraries/CC3000_Host_Driver/security.c **** /*****************************************************************************
   2:../libraries/CC3000_Host_Driver/security.c **** *
   3:../libraries/CC3000_Host_Driver/security.c **** *  security.c  - CC3000 Host Driver Implementation.
   4:../libraries/CC3000_Host_Driver/security.c **** *  Copyright (C) 2011 Texas Instruments Incorporated - http://www.ti.com/
   5:../libraries/CC3000_Host_Driver/security.c **** *
   6:../libraries/CC3000_Host_Driver/security.c **** *  Redistribution and use in source and binary forms, with or without
   7:../libraries/CC3000_Host_Driver/security.c **** *  modification, are permitted provided that the following conditions
   8:../libraries/CC3000_Host_Driver/security.c **** *  are met:
   9:../libraries/CC3000_Host_Driver/security.c **** *
  10:../libraries/CC3000_Host_Driver/security.c **** *    Redistributions of source code must retain the above copyright
  11:../libraries/CC3000_Host_Driver/security.c **** *    notice, this list of conditions and the following disclaimer.
  12:../libraries/CC3000_Host_Driver/security.c **** *
  13:../libraries/CC3000_Host_Driver/security.c **** *    Redistributions in binary form must reproduce the above copyright
  14:../libraries/CC3000_Host_Driver/security.c **** *    notice, this list of conditions and the following disclaimer in the
  15:../libraries/CC3000_Host_Driver/security.c **** *    documentation and/or other materials provided with the   
  16:../libraries/CC3000_Host_Driver/security.c **** *    distribution.
  17:../libraries/CC3000_Host_Driver/security.c **** *
  18:../libraries/CC3000_Host_Driver/security.c **** *    Neither the name of Texas Instruments Incorporated nor the names of
  19:../libraries/CC3000_Host_Driver/security.c **** *    its contributors may be used to endorse or promote products derived
  20:../libraries/CC3000_Host_Driver/security.c **** *    from this software without specific prior written permission.
  21:../libraries/CC3000_Host_Driver/security.c **** *
  22:../libraries/CC3000_Host_Driver/security.c **** *  THIS SOFTWARE IS PROVIDED BY THE COPYRIGHT HOLDERS AND CONTRIBUTORS 
  23:../libraries/CC3000_Host_Driver/security.c **** *  "AS IS" AND ANY EXPRESS OR IMPLIED WARRANTIES, INCLUDING, BUT NOT 
  24:../libraries/CC3000_Host_Driver/security.c **** *  LIMITED TO, THE IMPLIED WARRANTIES OF MERCHANTABILITY AND FITNESS FOR
  25:../libraries/CC3000_Host_Driver/security.c **** *  A PARTICULAR PURPOSE ARE DISCLAIMED. IN NO EVENT SHALL THE COPYRIGHT 
  26:../libraries/CC3000_Host_Driver/security.c **** *  OWNER OR CONTRIBUTORS BE LIABLE FOR ANY DIRECT, INDIRECT, INCIDENTAL, 
  27:../libraries/CC3000_Host_Driver/security.c **** *  SPECIAL, EXEMPLARY, OR CONSEQUENTIAL DAMAGES (INCLUDING, BUT NOT 
  28:../libraries/CC3000_Host_Driver/security.c **** *  LIMITED TO, PROCUREMENT OF SUBSTITUTE GOODS OR SERVICES; LOSS OF USE,
  29:../libraries/CC3000_Host_Driver/security.c **** *  DATA, OR PROFITS; OR BUSINESS INTERRUPTION) HOWEVER CAUSED AND ON ANY
  30:../libraries/CC3000_Host_Driver/security.c **** *  THEORY OF LIABILITY, WHETHER IN CONTRACT, STRICT LIABILITY, OR TORT 
  31:../libraries/CC3000_Host_Driver/security.c **** *  (INCLUDING NEGLIGENCE OR OTHERWISE) ARISING IN ANY WAY OUT OF THE USE 
  32:../libraries/CC3000_Host_Driver/security.c **** *  OF THIS SOFTWARE, EVEN IF ADVISED OF THE POSSIBILITY OF SUCH DAMAGE.
  33:../libraries/CC3000_Host_Driver/security.c **** *
  34:../libraries/CC3000_Host_Driver/security.c **** *****************************************************************************/
  35:../libraries/CC3000_Host_Driver/security.c **** 
  36:../libraries/CC3000_Host_Driver/security.c **** //*****************************************************************************
  37:../libraries/CC3000_Host_Driver/security.c **** //
  38:../libraries/CC3000_Host_Driver/security.c **** //! \addtogroup security_api
  39:../libraries/CC3000_Host_Driver/security.c **** //! @{
  40:../libraries/CC3000_Host_Driver/security.c **** //
  41:../libraries/CC3000_Host_Driver/security.c **** //*****************************************************************************
  42:../libraries/CC3000_Host_Driver/security.c **** 
  43:../libraries/CC3000_Host_Driver/security.c **** #include "security.h"
  44:../libraries/CC3000_Host_Driver/security.c **** 
  45:../libraries/CC3000_Host_Driver/security.c **** #ifndef CC3000_UNENCRYPTED_SMART_CONFIG
  46:../libraries/CC3000_Host_Driver/security.c **** // foreward sbox
  47:../libraries/CC3000_Host_Driver/security.c **** const unsigned char sbox[256] =   { 
  48:../libraries/CC3000_Host_Driver/security.c **** //0     1    2      3     4    5     6     7      8    9     A      B    C     D     E     F
  49:../libraries/CC3000_Host_Driver/security.c **** 0x63, 0x7c, 0x77, 0x7b, 0xf2, 0x6b, 0x6f, 0xc5, 0x30, 0x01, 0x67, 0x2b, 0xfe, 0xd7, 0xab, 0x76, //0
  50:../libraries/CC3000_Host_Driver/security.c **** 0xca, 0x82, 0xc9, 0x7d, 0xfa, 0x59, 0x47, 0xf0, 0xad, 0xd4, 0xa2, 0xaf, 0x9c, 0xa4, 0x72, 0xc0, //1
  51:../libraries/CC3000_Host_Driver/security.c **** 0xb7, 0xfd, 0x93, 0x26, 0x36, 0x3f, 0xf7, 0xcc, 0x34, 0xa5, 0xe5, 0xf1, 0x71, 0xd8, 0x31, 0x15, //2
  52:../libraries/CC3000_Host_Driver/security.c **** 0x04, 0xc7, 0x23, 0xc3, 0x18, 0x96, 0x05, 0x9a, 0x07, 0x12, 0x80, 0xe2, 0xeb, 0x27, 0xb2, 0x75, //3
  53:../libraries/CC3000_Host_Driver/security.c **** 0x09, 0x83, 0x2c, 0x1a, 0x1b, 0x6e, 0x5a, 0xa0, 0x52, 0x3b, 0xd6, 0xb3, 0x29, 0xe3, 0x2f, 0x84, //4
  54:../libraries/CC3000_Host_Driver/security.c **** 0x53, 0xd1, 0x00, 0xed, 0x20, 0xfc, 0xb1, 0x5b, 0x6a, 0xcb, 0xbe, 0x39, 0x4a, 0x4c, 0x58, 0xcf, //5
  55:../libraries/CC3000_Host_Driver/security.c **** 0xd0, 0xef, 0xaa, 0xfb, 0x43, 0x4d, 0x33, 0x85, 0x45, 0xf9, 0x02, 0x7f, 0x50, 0x3c, 0x9f, 0xa8, //6
  56:../libraries/CC3000_Host_Driver/security.c **** 0x51, 0xa3, 0x40, 0x8f, 0x92, 0x9d, 0x38, 0xf5, 0xbc, 0xb6, 0xda, 0x21, 0x10, 0xff, 0xf3, 0xd2, //7
  57:../libraries/CC3000_Host_Driver/security.c **** 0xcd, 0x0c, 0x13, 0xec, 0x5f, 0x97, 0x44, 0x17, 0xc4, 0xa7, 0x7e, 0x3d, 0x64, 0x5d, 0x19, 0x73, //8
  58:../libraries/CC3000_Host_Driver/security.c **** 0x60, 0x81, 0x4f, 0xdc, 0x22, 0x2a, 0x90, 0x88, 0x46, 0xee, 0xb8, 0x14, 0xde, 0x5e, 0x0b, 0xdb, //9
  59:../libraries/CC3000_Host_Driver/security.c **** 0xe0, 0x32, 0x3a, 0x0a, 0x49, 0x06, 0x24, 0x5c, 0xc2, 0xd3, 0xac, 0x62, 0x91, 0x95, 0xe4, 0x79, //A
  60:../libraries/CC3000_Host_Driver/security.c **** 0xe7, 0xc8, 0x37, 0x6d, 0x8d, 0xd5, 0x4e, 0xa9, 0x6c, 0x56, 0xf4, 0xea, 0x65, 0x7a, 0xae, 0x08, //B
  61:../libraries/CC3000_Host_Driver/security.c **** 0xba, 0x78, 0x25, 0x2e, 0x1c, 0xa6, 0xb4, 0xc6, 0xe8, 0xdd, 0x74, 0x1f, 0x4b, 0xbd, 0x8b, 0x8a, //C
  62:../libraries/CC3000_Host_Driver/security.c **** 0x70, 0x3e, 0xb5, 0x66, 0x48, 0x03, 0xf6, 0x0e, 0x61, 0x35, 0x57, 0xb9, 0x86, 0xc1, 0x1d, 0x9e, //D
  63:../libraries/CC3000_Host_Driver/security.c **** 0xe1, 0xf8, 0x98, 0x11, 0x69, 0xd9, 0x8e, 0x94, 0x9b, 0x1e, 0x87, 0xe9, 0xce, 0x55, 0x28, 0xdf, //E
  64:../libraries/CC3000_Host_Driver/security.c **** 0x8c, 0xa1, 0x89, 0x0d, 0xbf, 0xe6, 0x42, 0x68, 0x41, 0x99, 0x2d, 0x0f, 0xb0, 0x54, 0xbb, 0x16 }; /
  65:../libraries/CC3000_Host_Driver/security.c **** // inverse sbox
  66:../libraries/CC3000_Host_Driver/security.c **** const unsigned char rsbox[256] =
  67:../libraries/CC3000_Host_Driver/security.c **** { 0x52, 0x09, 0x6a, 0xd5, 0x30, 0x36, 0xa5, 0x38, 0xbf, 0x40, 0xa3, 0x9e, 0x81, 0xf3, 0xd7, 0xfb
  68:../libraries/CC3000_Host_Driver/security.c **** , 0x7c, 0xe3, 0x39, 0x82, 0x9b, 0x2f, 0xff, 0x87, 0x34, 0x8e, 0x43, 0x44, 0xc4, 0xde, 0xe9, 0xcb
  69:../libraries/CC3000_Host_Driver/security.c **** , 0x54, 0x7b, 0x94, 0x32, 0xa6, 0xc2, 0x23, 0x3d, 0xee, 0x4c, 0x95, 0x0b, 0x42, 0xfa, 0xc3, 0x4e
  70:../libraries/CC3000_Host_Driver/security.c **** , 0x08, 0x2e, 0xa1, 0x66, 0x28, 0xd9, 0x24, 0xb2, 0x76, 0x5b, 0xa2, 0x49, 0x6d, 0x8b, 0xd1, 0x25
  71:../libraries/CC3000_Host_Driver/security.c **** , 0x72, 0xf8, 0xf6, 0x64, 0x86, 0x68, 0x98, 0x16, 0xd4, 0xa4, 0x5c, 0xcc, 0x5d, 0x65, 0xb6, 0x92
  72:../libraries/CC3000_Host_Driver/security.c **** , 0x6c, 0x70, 0x48, 0x50, 0xfd, 0xed, 0xb9, 0xda, 0x5e, 0x15, 0x46, 0x57, 0xa7, 0x8d, 0x9d, 0x84
  73:../libraries/CC3000_Host_Driver/security.c **** , 0x90, 0xd8, 0xab, 0x00, 0x8c, 0xbc, 0xd3, 0x0a, 0xf7, 0xe4, 0x58, 0x05, 0xb8, 0xb3, 0x45, 0x06
  74:../libraries/CC3000_Host_Driver/security.c **** , 0xd0, 0x2c, 0x1e, 0x8f, 0xca, 0x3f, 0x0f, 0x02, 0xc1, 0xaf, 0xbd, 0x03, 0x01, 0x13, 0x8a, 0x6b
  75:../libraries/CC3000_Host_Driver/security.c **** , 0x3a, 0x91, 0x11, 0x41, 0x4f, 0x67, 0xdc, 0xea, 0x97, 0xf2, 0xcf, 0xce, 0xf0, 0xb4, 0xe6, 0x73
  76:../libraries/CC3000_Host_Driver/security.c **** , 0x96, 0xac, 0x74, 0x22, 0xe7, 0xad, 0x35, 0x85, 0xe2, 0xf9, 0x37, 0xe8, 0x1c, 0x75, 0xdf, 0x6e
  77:../libraries/CC3000_Host_Driver/security.c **** , 0x47, 0xf1, 0x1a, 0x71, 0x1d, 0x29, 0xc5, 0x89, 0x6f, 0xb7, 0x62, 0x0e, 0xaa, 0x18, 0xbe, 0x1b
  78:../libraries/CC3000_Host_Driver/security.c **** , 0xfc, 0x56, 0x3e, 0x4b, 0xc6, 0xd2, 0x79, 0x20, 0x9a, 0xdb, 0xc0, 0xfe, 0x78, 0xcd, 0x5a, 0xf4
  79:../libraries/CC3000_Host_Driver/security.c **** , 0x1f, 0xdd, 0xa8, 0x33, 0x88, 0x07, 0xc7, 0x31, 0xb1, 0x12, 0x10, 0x59, 0x27, 0x80, 0xec, 0x5f
  80:../libraries/CC3000_Host_Driver/security.c **** , 0x60, 0x51, 0x7f, 0xa9, 0x19, 0xb5, 0x4a, 0x0d, 0x2d, 0xe5, 0x7a, 0x9f, 0x93, 0xc9, 0x9c, 0xef
  81:../libraries/CC3000_Host_Driver/security.c **** , 0xa0, 0xe0, 0x3b, 0x4d, 0xae, 0x2a, 0xf5, 0xb0, 0xc8, 0xeb, 0xbb, 0x3c, 0x83, 0x53, 0x99, 0x61
  82:../libraries/CC3000_Host_Driver/security.c **** , 0x17, 0x2b, 0x04, 0x7e, 0xba, 0x77, 0xd6, 0x26, 0xe1, 0x69, 0x14, 0x63, 0x55, 0x21, 0x0c, 0x7d };
  83:../libraries/CC3000_Host_Driver/security.c **** // round constant
  84:../libraries/CC3000_Host_Driver/security.c **** const unsigned char Rcon[11] = {
  85:../libraries/CC3000_Host_Driver/security.c ****   0x8d, 0x01, 0x02, 0x04, 0x08, 0x10, 0x20, 0x40, 0x80, 0x1b, 0x36};
  86:../libraries/CC3000_Host_Driver/security.c **** 
  87:../libraries/CC3000_Host_Driver/security.c **** 
  88:../libraries/CC3000_Host_Driver/security.c **** unsigned char expandedKey[176];
  89:../libraries/CC3000_Host_Driver/security.c **** 
  90:../libraries/CC3000_Host_Driver/security.c **** //*****************************************************************************
  91:../libraries/CC3000_Host_Driver/security.c **** //
  92:../libraries/CC3000_Host_Driver/security.c **** //!  expandKey
  93:../libraries/CC3000_Host_Driver/security.c **** //!
  94:../libraries/CC3000_Host_Driver/security.c **** //!  @param  key          AES128 key - 16 bytes
  95:../libraries/CC3000_Host_Driver/security.c **** //!  @param  expandedKey  expanded AES128 key
  96:../libraries/CC3000_Host_Driver/security.c **** //!
  97:../libraries/CC3000_Host_Driver/security.c **** //!  @return  none
  98:../libraries/CC3000_Host_Driver/security.c **** //!
  99:../libraries/CC3000_Host_Driver/security.c **** //!  @brief  expend a 16 bytes key for AES128 implementation
 100:../libraries/CC3000_Host_Driver/security.c **** //!
 101:../libraries/CC3000_Host_Driver/security.c **** //*****************************************************************************
 102:../libraries/CC3000_Host_Driver/security.c **** 
 103:../libraries/CC3000_Host_Driver/security.c **** void expandKey(unsigned char *expandedKey,
 104:../libraries/CC3000_Host_Driver/security.c ****                unsigned char *key)
 105:../libraries/CC3000_Host_Driver/security.c **** {
 567              		.loc 1 105 0
 568              		.cfi_startproc
 569              		@ args = 0, pretend = 0, frame = 16
 570              		@ frame_needed = 1, uses_anonymous_args = 0
 571              		@ link register save eliminated.
 572 0000 80B4     		push	{r7}
 573              	.LCFI0:
 574              		.cfi_def_cfa_offset 4
 575              		.cfi_offset 7, -4
 576 0002 85B0     		sub	sp, sp, #20
 577              	.LCFI1:
 578              		.cfi_def_cfa_offset 24
 579 0004 00AF     		add	r7, sp, #0
 580              	.LCFI2:
 581              		.cfi_def_cfa_register 7
 582 0006 7860     		str	r0, [r7, #4]
 583 0008 3960     		str	r1, [r7, #0]
 106:../libraries/CC3000_Host_Driver/security.c ****   unsigned short ii, buf1;
 107:../libraries/CC3000_Host_Driver/security.c ****   for (ii=0;ii<16;ii++)
 584              		.loc 1 107 0
 585 000a 4FF00003 		mov	r3, #0
 586 000e FB81     		strh	r3, [r7, #14]	@ movhi
 587 0010 0BE0     		b	.L2
 588              	.L3:
 108:../libraries/CC3000_Host_Driver/security.c ****     expandedKey[ii] = key[ii];
 589              		.loc 1 108 0 discriminator 2
 590 0012 FB89     		ldrh	r3, [r7, #14]
 591 0014 7A68     		ldr	r2, [r7, #4]
 592 0016 D318     		adds	r3, r2, r3
 593 0018 FA89     		ldrh	r2, [r7, #14]
 594 001a 3968     		ldr	r1, [r7, #0]
 595 001c 8A18     		adds	r2, r1, r2
 596 001e 1278     		ldrb	r2, [r2, #0]	@ zero_extendqisi2
 597 0020 1A70     		strb	r2, [r3, #0]
 107:../libraries/CC3000_Host_Driver/security.c ****   for (ii=0;ii<16;ii++)
 598              		.loc 1 107 0 discriminator 2
 599 0022 FB89     		ldrh	r3, [r7, #14]	@ movhi
 600 0024 03F10103 		add	r3, r3, #1
 601 0028 FB81     		strh	r3, [r7, #14]	@ movhi
 602              	.L2:
 107:../libraries/CC3000_Host_Driver/security.c ****   for (ii=0;ii<16;ii++)
 603              		.loc 1 107 0 is_stmt 0 discriminator 1
 604 002a FB89     		ldrh	r3, [r7, #14]
 605 002c 0F2B     		cmp	r3, #15
 606 002e F0D9     		bls	.L3
 109:../libraries/CC3000_Host_Driver/security.c ****   for (ii=1;ii<11;ii++){
 607              		.loc 1 109 0 is_stmt 1
 608 0030 4FF00103 		mov	r3, #1
 609 0034 FB81     		strh	r3, [r7, #14]	@ movhi
 610 0036 DEE1     		b	.L4
 611              	.L5:
 110:../libraries/CC3000_Host_Driver/security.c ****     buf1 = expandedKey[ii*16 - 4];
 612              		.loc 1 110 0 discriminator 2
 613 0038 FB89     		ldrh	r3, [r7, #14]
 614 003a 4FEA0313 		lsl	r3, r3, #4
 615 003e A3F10403 		sub	r3, r3, #4
 616 0042 7A68     		ldr	r2, [r7, #4]
 617 0044 D318     		adds	r3, r2, r3
 618 0046 1B78     		ldrb	r3, [r3, #0]	@ zero_extendqisi2
 619 0048 BB81     		strh	r3, [r7, #12]	@ movhi
 111:../libraries/CC3000_Host_Driver/security.c ****     expandedKey[ii*16 + 0] = sbox[expandedKey[ii*16 - 3]]^expandedKey[(ii-1)*16 + 0]^Rcon[ii];
 620              		.loc 1 111 0 discriminator 2
 621 004a FB89     		ldrh	r3, [r7, #14]
 622 004c 4FEA0313 		lsl	r3, r3, #4
 623 0050 7A68     		ldr	r2, [r7, #4]
 624 0052 D218     		adds	r2, r2, r3
 625 0054 FB89     		ldrh	r3, [r7, #14]
 626 0056 4FEA0313 		lsl	r3, r3, #4
 627 005a A3F10303 		sub	r3, r3, #3
 628 005e 7968     		ldr	r1, [r7, #4]
 629 0060 CB18     		adds	r3, r1, r3
 630 0062 1B78     		ldrb	r3, [r3, #0]	@ zero_extendqisi2
 631 0064 1946     		mov	r1, r3
 632 0066 40F20003 		movw	r3, #:lower16:sbox
 633 006a C0F20003 		movt	r3, #:upper16:sbox
 634 006e 595C     		ldrb	r1, [r3, r1]	@ zero_extendqisi2
 635 0070 FB89     		ldrh	r3, [r7, #14]
 636 0072 03F1FF33 		add	r3, r3, #-1
 637 0076 4FEA0313 		lsl	r3, r3, #4
 638 007a 7868     		ldr	r0, [r7, #4]
 639 007c C318     		adds	r3, r0, r3
 640 007e 1B78     		ldrb	r3, [r3, #0]	@ zero_extendqisi2
 641 0080 4B40     		eors	r3, r3, r1
 642 0082 D9B2     		uxtb	r1, r3
 643 0084 F889     		ldrh	r0, [r7, #14]
 644 0086 40F20003 		movw	r3, #:lower16:Rcon
 645 008a C0F20003 		movt	r3, #:upper16:Rcon
 646 008e 1B5C     		ldrb	r3, [r3, r0]	@ zero_extendqisi2
 647 0090 4B40     		eors	r3, r3, r1
 648 0092 DBB2     		uxtb	r3, r3
 649 0094 1370     		strb	r3, [r2, #0]
 112:../libraries/CC3000_Host_Driver/security.c ****     expandedKey[ii*16 + 1] = sbox[expandedKey[ii*16 - 2]]^expandedKey[(ii-1)*16 + 1];
 650              		.loc 1 112 0 discriminator 2
 651 0096 FB89     		ldrh	r3, [r7, #14]
 652 0098 4FEA0313 		lsl	r3, r3, #4
 653 009c 03F10103 		add	r3, r3, #1
 654 00a0 7A68     		ldr	r2, [r7, #4]
 655 00a2 D218     		adds	r2, r2, r3
 656 00a4 FB89     		ldrh	r3, [r7, #14]
 657 00a6 4FEA0313 		lsl	r3, r3, #4
 658 00aa A3F10203 		sub	r3, r3, #2
 659 00ae 7968     		ldr	r1, [r7, #4]
 660 00b0 CB18     		adds	r3, r1, r3
 661 00b2 1B78     		ldrb	r3, [r3, #0]	@ zero_extendqisi2
 662 00b4 1946     		mov	r1, r3
 663 00b6 40F20003 		movw	r3, #:lower16:sbox
 664 00ba C0F20003 		movt	r3, #:upper16:sbox
 665 00be 595C     		ldrb	r1, [r3, r1]	@ zero_extendqisi2
 666 00c0 FB89     		ldrh	r3, [r7, #14]
 667 00c2 03F1FF33 		add	r3, r3, #-1
 668 00c6 4FEA0313 		lsl	r3, r3, #4
 669 00ca 03F10103 		add	r3, r3, #1
 670 00ce 7868     		ldr	r0, [r7, #4]
 671 00d0 C318     		adds	r3, r0, r3
 672 00d2 1B78     		ldrb	r3, [r3, #0]	@ zero_extendqisi2
 673 00d4 4B40     		eors	r3, r3, r1
 674 00d6 DBB2     		uxtb	r3, r3
 675 00d8 1370     		strb	r3, [r2, #0]
 113:../libraries/CC3000_Host_Driver/security.c ****     expandedKey[ii*16 + 2] = sbox[expandedKey[ii*16 - 1]]^expandedKey[(ii-1)*16 + 2];
 676              		.loc 1 113 0 discriminator 2
 677 00da FB89     		ldrh	r3, [r7, #14]
 678 00dc 4FEA0313 		lsl	r3, r3, #4
 679 00e0 03F10203 		add	r3, r3, #2
 680 00e4 7A68     		ldr	r2, [r7, #4]
 681 00e6 D218     		adds	r2, r2, r3
 682 00e8 FB89     		ldrh	r3, [r7, #14]
 683 00ea 4FEA0313 		lsl	r3, r3, #4
 684 00ee 03F1FF33 		add	r3, r3, #-1
 685 00f2 7968     		ldr	r1, [r7, #4]
 686 00f4 CB18     		adds	r3, r1, r3
 687 00f6 1B78     		ldrb	r3, [r3, #0]	@ zero_extendqisi2
 688 00f8 1946     		mov	r1, r3
 689 00fa 40F20003 		movw	r3, #:lower16:sbox
 690 00fe C0F20003 		movt	r3, #:upper16:sbox
 691 0102 595C     		ldrb	r1, [r3, r1]	@ zero_extendqisi2
 692 0104 FB89     		ldrh	r3, [r7, #14]
 693 0106 03F1FF33 		add	r3, r3, #-1
 694 010a 4FEA0313 		lsl	r3, r3, #4
 695 010e 03F10203 		add	r3, r3, #2
 696 0112 7868     		ldr	r0, [r7, #4]
 697 0114 C318     		adds	r3, r0, r3
 698 0116 1B78     		ldrb	r3, [r3, #0]	@ zero_extendqisi2
 699 0118 4B40     		eors	r3, r3, r1
 700 011a DBB2     		uxtb	r3, r3
 701 011c 1370     		strb	r3, [r2, #0]
 114:../libraries/CC3000_Host_Driver/security.c ****     expandedKey[ii*16 + 3] = sbox[buf1                  ]^expandedKey[(ii-1)*16 + 3];
 702              		.loc 1 114 0 discriminator 2
 703 011e FB89     		ldrh	r3, [r7, #14]
 704 0120 4FEA0313 		lsl	r3, r3, #4
 705 0124 03F10303 		add	r3, r3, #3
 706 0128 7A68     		ldr	r2, [r7, #4]
 707 012a D218     		adds	r2, r2, r3
 708 012c B989     		ldrh	r1, [r7, #12]
 709 012e 40F20003 		movw	r3, #:lower16:sbox
 710 0132 C0F20003 		movt	r3, #:upper16:sbox
 711 0136 595C     		ldrb	r1, [r3, r1]	@ zero_extendqisi2
 712 0138 FB89     		ldrh	r3, [r7, #14]
 713 013a 03F1FF33 		add	r3, r3, #-1
 714 013e 4FEA0313 		lsl	r3, r3, #4
 715 0142 03F10303 		add	r3, r3, #3
 716 0146 7868     		ldr	r0, [r7, #4]
 717 0148 C318     		adds	r3, r0, r3
 718 014a 1B78     		ldrb	r3, [r3, #0]	@ zero_extendqisi2
 719 014c 4B40     		eors	r3, r3, r1
 720 014e DBB2     		uxtb	r3, r3
 721 0150 1370     		strb	r3, [r2, #0]
 115:../libraries/CC3000_Host_Driver/security.c ****     expandedKey[ii*16 + 4] = expandedKey[(ii-1)*16 + 4]^expandedKey[ii*16 + 0];
 722              		.loc 1 115 0 discriminator 2
 723 0152 FB89     		ldrh	r3, [r7, #14]
 724 0154 4FEA0313 		lsl	r3, r3, #4
 725 0158 03F10403 		add	r3, r3, #4
 726 015c 7A68     		ldr	r2, [r7, #4]
 727 015e D318     		adds	r3, r2, r3
 728 0160 FA89     		ldrh	r2, [r7, #14]
 729 0162 02F1FF32 		add	r2, r2, #-1
 730 0166 4FEA0212 		lsl	r2, r2, #4
 731 016a 02F10402 		add	r2, r2, #4
 732 016e 7968     		ldr	r1, [r7, #4]
 733 0170 8A18     		adds	r2, r1, r2
 734 0172 1178     		ldrb	r1, [r2, #0]	@ zero_extendqisi2
 735 0174 FA89     		ldrh	r2, [r7, #14]
 736 0176 4FEA0212 		lsl	r2, r2, #4
 737 017a 7868     		ldr	r0, [r7, #4]
 738 017c 8218     		adds	r2, r0, r2
 739 017e 1278     		ldrb	r2, [r2, #0]	@ zero_extendqisi2
 740 0180 4A40     		eors	r2, r2, r1
 741 0182 D2B2     		uxtb	r2, r2
 742 0184 1A70     		strb	r2, [r3, #0]
 116:../libraries/CC3000_Host_Driver/security.c ****     expandedKey[ii*16 + 5] = expandedKey[(ii-1)*16 + 5]^expandedKey[ii*16 + 1];
 743              		.loc 1 116 0 discriminator 2
 744 0186 FB89     		ldrh	r3, [r7, #14]
 745 0188 4FEA0313 		lsl	r3, r3, #4
 746 018c 03F10503 		add	r3, r3, #5
 747 0190 7A68     		ldr	r2, [r7, #4]
 748 0192 D318     		adds	r3, r2, r3
 749 0194 FA89     		ldrh	r2, [r7, #14]
 750 0196 02F1FF32 		add	r2, r2, #-1
 751 019a 4FEA0212 		lsl	r2, r2, #4
 752 019e 02F10502 		add	r2, r2, #5
 753 01a2 7968     		ldr	r1, [r7, #4]
 754 01a4 8A18     		adds	r2, r1, r2
 755 01a6 1178     		ldrb	r1, [r2, #0]	@ zero_extendqisi2
 756 01a8 FA89     		ldrh	r2, [r7, #14]
 757 01aa 4FEA0212 		lsl	r2, r2, #4
 758 01ae 02F10102 		add	r2, r2, #1
 759 01b2 7868     		ldr	r0, [r7, #4]
 760 01b4 8218     		adds	r2, r0, r2
 761 01b6 1278     		ldrb	r2, [r2, #0]	@ zero_extendqisi2
 762 01b8 4A40     		eors	r2, r2, r1
 763 01ba D2B2     		uxtb	r2, r2
 764 01bc 1A70     		strb	r2, [r3, #0]
 117:../libraries/CC3000_Host_Driver/security.c ****     expandedKey[ii*16 + 6] = expandedKey[(ii-1)*16 + 6]^expandedKey[ii*16 + 2];
 765              		.loc 1 117 0 discriminator 2
 766 01be FB89     		ldrh	r3, [r7, #14]
 767 01c0 4FEA0313 		lsl	r3, r3, #4
 768 01c4 03F10603 		add	r3, r3, #6
 769 01c8 7A68     		ldr	r2, [r7, #4]
 770 01ca D318     		adds	r3, r2, r3
 771 01cc FA89     		ldrh	r2, [r7, #14]
 772 01ce 02F1FF32 		add	r2, r2, #-1
 773 01d2 4FEA0212 		lsl	r2, r2, #4
 774 01d6 02F10602 		add	r2, r2, #6
 775 01da 7968     		ldr	r1, [r7, #4]
 776 01dc 8A18     		adds	r2, r1, r2
 777 01de 1178     		ldrb	r1, [r2, #0]	@ zero_extendqisi2
 778 01e0 FA89     		ldrh	r2, [r7, #14]
 779 01e2 4FEA0212 		lsl	r2, r2, #4
 780 01e6 02F10202 		add	r2, r2, #2
 781 01ea 7868     		ldr	r0, [r7, #4]
 782 01ec 8218     		adds	r2, r0, r2
 783 01ee 1278     		ldrb	r2, [r2, #0]	@ zero_extendqisi2
 784 01f0 4A40     		eors	r2, r2, r1
 785 01f2 D2B2     		uxtb	r2, r2
 786 01f4 1A70     		strb	r2, [r3, #0]
 118:../libraries/CC3000_Host_Driver/security.c ****     expandedKey[ii*16 + 7] = expandedKey[(ii-1)*16 + 7]^expandedKey[ii*16 + 3];
 787              		.loc 1 118 0 discriminator 2
 788 01f6 FB89     		ldrh	r3, [r7, #14]
 789 01f8 4FEA0313 		lsl	r3, r3, #4
 790 01fc 03F10703 		add	r3, r3, #7
 791 0200 7A68     		ldr	r2, [r7, #4]
 792 0202 D318     		adds	r3, r2, r3
 793 0204 FA89     		ldrh	r2, [r7, #14]
 794 0206 02F1FF32 		add	r2, r2, #-1
 795 020a 4FEA0212 		lsl	r2, r2, #4
 796 020e 02F10702 		add	r2, r2, #7
 797 0212 7968     		ldr	r1, [r7, #4]
 798 0214 8A18     		adds	r2, r1, r2
 799 0216 1178     		ldrb	r1, [r2, #0]	@ zero_extendqisi2
 800 0218 FA89     		ldrh	r2, [r7, #14]
 801 021a 4FEA0212 		lsl	r2, r2, #4
 802 021e 02F10302 		add	r2, r2, #3
 803 0222 7868     		ldr	r0, [r7, #4]
 804 0224 8218     		adds	r2, r0, r2
 805 0226 1278     		ldrb	r2, [r2, #0]	@ zero_extendqisi2
 806 0228 4A40     		eors	r2, r2, r1
 807 022a D2B2     		uxtb	r2, r2
 808 022c 1A70     		strb	r2, [r3, #0]
 119:../libraries/CC3000_Host_Driver/security.c ****     expandedKey[ii*16 + 8] = expandedKey[(ii-1)*16 + 8]^expandedKey[ii*16 + 4];
 809              		.loc 1 119 0 discriminator 2
 810 022e FB89     		ldrh	r3, [r7, #14]
 811 0230 4FEA0313 		lsl	r3, r3, #4
 812 0234 03F10803 		add	r3, r3, #8
 813 0238 7A68     		ldr	r2, [r7, #4]
 814 023a D318     		adds	r3, r2, r3
 815 023c FA89     		ldrh	r2, [r7, #14]
 816 023e 02F1FF32 		add	r2, r2, #-1
 817 0242 4FEA0212 		lsl	r2, r2, #4
 818 0246 02F10802 		add	r2, r2, #8
 819 024a 7968     		ldr	r1, [r7, #4]
 820 024c 8A18     		adds	r2, r1, r2
 821 024e 1178     		ldrb	r1, [r2, #0]	@ zero_extendqisi2
 822 0250 FA89     		ldrh	r2, [r7, #14]
 823 0252 4FEA0212 		lsl	r2, r2, #4
 824 0256 02F10402 		add	r2, r2, #4
 825 025a 7868     		ldr	r0, [r7, #4]
 826 025c 8218     		adds	r2, r0, r2
 827 025e 1278     		ldrb	r2, [r2, #0]	@ zero_extendqisi2
 828 0260 4A40     		eors	r2, r2, r1
 829 0262 D2B2     		uxtb	r2, r2
 830 0264 1A70     		strb	r2, [r3, #0]
 120:../libraries/CC3000_Host_Driver/security.c ****     expandedKey[ii*16 + 9] = expandedKey[(ii-1)*16 + 9]^expandedKey[ii*16 + 5];
 831              		.loc 1 120 0 discriminator 2
 832 0266 FB89     		ldrh	r3, [r7, #14]
 833 0268 4FEA0313 		lsl	r3, r3, #4
 834 026c 03F10903 		add	r3, r3, #9
 835 0270 7A68     		ldr	r2, [r7, #4]
 836 0272 D318     		adds	r3, r2, r3
 837 0274 FA89     		ldrh	r2, [r7, #14]
 838 0276 02F1FF32 		add	r2, r2, #-1
 839 027a 4FEA0212 		lsl	r2, r2, #4
 840 027e 02F10902 		add	r2, r2, #9
 841 0282 7968     		ldr	r1, [r7, #4]
 842 0284 8A18     		adds	r2, r1, r2
 843 0286 1178     		ldrb	r1, [r2, #0]	@ zero_extendqisi2
 844 0288 FA89     		ldrh	r2, [r7, #14]
 845 028a 4FEA0212 		lsl	r2, r2, #4
 846 028e 02F10502 		add	r2, r2, #5
 847 0292 7868     		ldr	r0, [r7, #4]
 848 0294 8218     		adds	r2, r0, r2
 849 0296 1278     		ldrb	r2, [r2, #0]	@ zero_extendqisi2
 850 0298 4A40     		eors	r2, r2, r1
 851 029a D2B2     		uxtb	r2, r2
 852 029c 1A70     		strb	r2, [r3, #0]
 121:../libraries/CC3000_Host_Driver/security.c ****     expandedKey[ii*16 +10] = expandedKey[(ii-1)*16 +10]^expandedKey[ii*16 + 6];
 853              		.loc 1 121 0 discriminator 2
 854 029e FB89     		ldrh	r3, [r7, #14]
 855 02a0 4FEA0313 		lsl	r3, r3, #4
 856 02a4 03F10A03 		add	r3, r3, #10
 857 02a8 7A68     		ldr	r2, [r7, #4]
 858 02aa D318     		adds	r3, r2, r3
 859 02ac FA89     		ldrh	r2, [r7, #14]
 860 02ae 02F1FF32 		add	r2, r2, #-1
 861 02b2 4FEA0212 		lsl	r2, r2, #4
 862 02b6 02F10A02 		add	r2, r2, #10
 863 02ba 7968     		ldr	r1, [r7, #4]
 864 02bc 8A18     		adds	r2, r1, r2
 865 02be 1178     		ldrb	r1, [r2, #0]	@ zero_extendqisi2
 866 02c0 FA89     		ldrh	r2, [r7, #14]
 867 02c2 4FEA0212 		lsl	r2, r2, #4
 868 02c6 02F10602 		add	r2, r2, #6
 869 02ca 7868     		ldr	r0, [r7, #4]
 870 02cc 8218     		adds	r2, r0, r2
 871 02ce 1278     		ldrb	r2, [r2, #0]	@ zero_extendqisi2
 872 02d0 4A40     		eors	r2, r2, r1
 873 02d2 D2B2     		uxtb	r2, r2
 874 02d4 1A70     		strb	r2, [r3, #0]
 122:../libraries/CC3000_Host_Driver/security.c ****     expandedKey[ii*16 +11] = expandedKey[(ii-1)*16 +11]^expandedKey[ii*16 + 7];
 875              		.loc 1 122 0 discriminator 2
 876 02d6 FB89     		ldrh	r3, [r7, #14]
 877 02d8 4FEA0313 		lsl	r3, r3, #4
 878 02dc 03F10B03 		add	r3, r3, #11
 879 02e0 7A68     		ldr	r2, [r7, #4]
 880 02e2 D318     		adds	r3, r2, r3
 881 02e4 FA89     		ldrh	r2, [r7, #14]
 882 02e6 02F1FF32 		add	r2, r2, #-1
 883 02ea 4FEA0212 		lsl	r2, r2, #4
 884 02ee 02F10B02 		add	r2, r2, #11
 885 02f2 7968     		ldr	r1, [r7, #4]
 886 02f4 8A18     		adds	r2, r1, r2
 887 02f6 1178     		ldrb	r1, [r2, #0]	@ zero_extendqisi2
 888 02f8 FA89     		ldrh	r2, [r7, #14]
 889 02fa 4FEA0212 		lsl	r2, r2, #4
 890 02fe 02F10702 		add	r2, r2, #7
 891 0302 7868     		ldr	r0, [r7, #4]
 892 0304 8218     		adds	r2, r0, r2
 893 0306 1278     		ldrb	r2, [r2, #0]	@ zero_extendqisi2
 894 0308 4A40     		eors	r2, r2, r1
 895 030a D2B2     		uxtb	r2, r2
 896 030c 1A70     		strb	r2, [r3, #0]
 123:../libraries/CC3000_Host_Driver/security.c ****     expandedKey[ii*16 +12] = expandedKey[(ii-1)*16 +12]^expandedKey[ii*16 + 8];
 897              		.loc 1 123 0 discriminator 2
 898 030e FB89     		ldrh	r3, [r7, #14]
 899 0310 4FEA0313 		lsl	r3, r3, #4
 900 0314 03F10C03 		add	r3, r3, #12
 901 0318 7A68     		ldr	r2, [r7, #4]
 902 031a D318     		adds	r3, r2, r3
 903 031c FA89     		ldrh	r2, [r7, #14]
 904 031e 02F1FF32 		add	r2, r2, #-1
 905 0322 4FEA0212 		lsl	r2, r2, #4
 906 0326 02F10C02 		add	r2, r2, #12
 907 032a 7968     		ldr	r1, [r7, #4]
 908 032c 8A18     		adds	r2, r1, r2
 909 032e 1178     		ldrb	r1, [r2, #0]	@ zero_extendqisi2
 910 0330 FA89     		ldrh	r2, [r7, #14]
 911 0332 4FEA0212 		lsl	r2, r2, #4
 912 0336 02F10802 		add	r2, r2, #8
 913 033a 7868     		ldr	r0, [r7, #4]
 914 033c 8218     		adds	r2, r0, r2
 915 033e 1278     		ldrb	r2, [r2, #0]	@ zero_extendqisi2
 916 0340 4A40     		eors	r2, r2, r1
 917 0342 D2B2     		uxtb	r2, r2
 918 0344 1A70     		strb	r2, [r3, #0]
 124:../libraries/CC3000_Host_Driver/security.c ****     expandedKey[ii*16 +13] = expandedKey[(ii-1)*16 +13]^expandedKey[ii*16 + 9];
 919              		.loc 1 124 0 discriminator 2
 920 0346 FB89     		ldrh	r3, [r7, #14]
 921 0348 4FEA0313 		lsl	r3, r3, #4
 922 034c 03F10D03 		add	r3, r3, #13
 923 0350 7A68     		ldr	r2, [r7, #4]
 924 0352 D318     		adds	r3, r2, r3
 925 0354 FA89     		ldrh	r2, [r7, #14]
 926 0356 02F1FF32 		add	r2, r2, #-1
 927 035a 4FEA0212 		lsl	r2, r2, #4
 928 035e 02F10D02 		add	r2, r2, #13
 929 0362 7968     		ldr	r1, [r7, #4]
 930 0364 8A18     		adds	r2, r1, r2
 931 0366 1178     		ldrb	r1, [r2, #0]	@ zero_extendqisi2
 932 0368 FA89     		ldrh	r2, [r7, #14]
 933 036a 4FEA0212 		lsl	r2, r2, #4
 934 036e 02F10902 		add	r2, r2, #9
 935 0372 7868     		ldr	r0, [r7, #4]
 936 0374 8218     		adds	r2, r0, r2
 937 0376 1278     		ldrb	r2, [r2, #0]	@ zero_extendqisi2
 938 0378 4A40     		eors	r2, r2, r1
 939 037a D2B2     		uxtb	r2, r2
 940 037c 1A70     		strb	r2, [r3, #0]
 125:../libraries/CC3000_Host_Driver/security.c ****     expandedKey[ii*16 +14] = expandedKey[(ii-1)*16 +14]^expandedKey[ii*16 +10];
 941              		.loc 1 125 0 discriminator 2
 942 037e FB89     		ldrh	r3, [r7, #14]
 943 0380 4FEA0313 		lsl	r3, r3, #4
 944 0384 03F10E03 		add	r3, r3, #14
 945 0388 7A68     		ldr	r2, [r7, #4]
 946 038a D318     		adds	r3, r2, r3
 947 038c FA89     		ldrh	r2, [r7, #14]
 948 038e 02F1FF32 		add	r2, r2, #-1
 949 0392 4FEA0212 		lsl	r2, r2, #4
 950 0396 02F10E02 		add	r2, r2, #14
 951 039a 7968     		ldr	r1, [r7, #4]
 952 039c 8A18     		adds	r2, r1, r2
 953 039e 1178     		ldrb	r1, [r2, #0]	@ zero_extendqisi2
 954 03a0 FA89     		ldrh	r2, [r7, #14]
 955 03a2 4FEA0212 		lsl	r2, r2, #4
 956 03a6 02F10A02 		add	r2, r2, #10
 957 03aa 7868     		ldr	r0, [r7, #4]
 958 03ac 8218     		adds	r2, r0, r2
 959 03ae 1278     		ldrb	r2, [r2, #0]	@ zero_extendqisi2
 960 03b0 4A40     		eors	r2, r2, r1
 961 03b2 D2B2     		uxtb	r2, r2
 962 03b4 1A70     		strb	r2, [r3, #0]
 126:../libraries/CC3000_Host_Driver/security.c ****     expandedKey[ii*16 +15] = expandedKey[(ii-1)*16 +15]^expandedKey[ii*16 +11];
 963              		.loc 1 126 0 discriminator 2
 964 03b6 FB89     		ldrh	r3, [r7, #14]
 965 03b8 4FEA0313 		lsl	r3, r3, #4
 966 03bc 03F10F03 		add	r3, r3, #15
 967 03c0 7A68     		ldr	r2, [r7, #4]
 968 03c2 D318     		adds	r3, r2, r3
 969 03c4 FA89     		ldrh	r2, [r7, #14]
 970 03c6 02F1FF32 		add	r2, r2, #-1
 971 03ca 4FEA0212 		lsl	r2, r2, #4
 972 03ce 02F10F02 		add	r2, r2, #15
 973 03d2 7968     		ldr	r1, [r7, #4]
 974 03d4 8A18     		adds	r2, r1, r2
 975 03d6 1178     		ldrb	r1, [r2, #0]	@ zero_extendqisi2
 976 03d8 FA89     		ldrh	r2, [r7, #14]
 977 03da 4FEA0212 		lsl	r2, r2, #4
 978 03de 02F10B02 		add	r2, r2, #11
 979 03e2 7868     		ldr	r0, [r7, #4]
 980 03e4 8218     		adds	r2, r0, r2
 981 03e6 1278     		ldrb	r2, [r2, #0]	@ zero_extendqisi2
 982 03e8 4A40     		eors	r2, r2, r1
 983 03ea D2B2     		uxtb	r2, r2
 984 03ec 1A70     		strb	r2, [r3, #0]
 109:../libraries/CC3000_Host_Driver/security.c ****   for (ii=1;ii<11;ii++){
 985              		.loc 1 109 0 discriminator 2
 986 03ee FB89     		ldrh	r3, [r7, #14]	@ movhi
 987 03f0 03F10103 		add	r3, r3, #1
 988 03f4 FB81     		strh	r3, [r7, #14]	@ movhi
 989              	.L4:
 109:../libraries/CC3000_Host_Driver/security.c ****   for (ii=1;ii<11;ii++){
 990              		.loc 1 109 0 is_stmt 0 discriminator 1
 991 03f6 FB89     		ldrh	r3, [r7, #14]
 992 03f8 0A2B     		cmp	r3, #10
 993 03fa 7FF61DAE 		bls	.L5
 127:../libraries/CC3000_Host_Driver/security.c ****   }
 128:../libraries/CC3000_Host_Driver/security.c **** 	
 129:../libraries/CC3000_Host_Driver/security.c **** }
 994              		.loc 1 129 0 is_stmt 1
 995 03fe 07F11407 		add	r7, r7, #20
 996 0402 BD46     		mov	sp, r7
 997 0404 80BC     		pop	{r7}
 998 0406 7047     		bx	lr
 999              		.cfi_endproc
 1000              	.LFE0:
 1002              		.section	.text.galois_mul2,"ax",%progbits
 1003              		.align	2
 1004              		.global	galois_mul2
 1005              		.thumb
 1006              		.thumb_func
 1008              	galois_mul2:
 1009              	.LFB1:
 130:../libraries/CC3000_Host_Driver/security.c **** 
 131:../libraries/CC3000_Host_Driver/security.c **** //*****************************************************************************
 132:../libraries/CC3000_Host_Driver/security.c **** //
 133:../libraries/CC3000_Host_Driver/security.c **** //!  galois_mul2
 134:../libraries/CC3000_Host_Driver/security.c **** //!
 135:../libraries/CC3000_Host_Driver/security.c **** //!  @param  value    argument to multiply
 136:../libraries/CC3000_Host_Driver/security.c **** //!
 137:../libraries/CC3000_Host_Driver/security.c **** //!  @return  multiplied argument
 138:../libraries/CC3000_Host_Driver/security.c **** //!
 139:../libraries/CC3000_Host_Driver/security.c **** //!  @brief  multiply by 2 in the galois field
 140:../libraries/CC3000_Host_Driver/security.c **** //!
 141:../libraries/CC3000_Host_Driver/security.c **** //*****************************************************************************
 142:../libraries/CC3000_Host_Driver/security.c **** 
 143:../libraries/CC3000_Host_Driver/security.c **** unsigned char galois_mul2(unsigned char value)
 144:../libraries/CC3000_Host_Driver/security.c **** {
 1010              		.loc 1 144 0
 1011              		.cfi_startproc
 1012              		@ args = 0, pretend = 0, frame = 8
 1013              		@ frame_needed = 1, uses_anonymous_args = 0
 1014              		@ link register save eliminated.
 1015 0000 80B4     		push	{r7}
 1016              	.LCFI3:
 1017              		.cfi_def_cfa_offset 4
 1018              		.cfi_offset 7, -4
 1019 0002 83B0     		sub	sp, sp, #12
 1020              	.LCFI4:
 1021              		.cfi_def_cfa_offset 16
 1022 0004 00AF     		add	r7, sp, #0
 1023              	.LCFI5:
 1024              		.cfi_def_cfa_register 7
 1025 0006 0346     		mov	r3, r0
 1026 0008 FB71     		strb	r3, [r7, #7]
 145:../libraries/CC3000_Host_Driver/security.c **** 	if (value>>7)
 1027              		.loc 1 145 0
 1028 000a FB79     		ldrb	r3, [r7, #7]	@ zero_extendqisi2
 1029 000c 5BB2     		sxtb	r3, r3
 1030 000e 002B     		cmp	r3, #0
 1031 0010 08DA     		bge	.L7
 146:../libraries/CC3000_Host_Driver/security.c **** 	{
 147:../libraries/CC3000_Host_Driver/security.c **** 		value = value << 1;
 1032              		.loc 1 147 0
 1033 0012 FB79     		ldrb	r3, [r7, #7]
 1034 0014 4FEA4303 		lsl	r3, r3, #1
 1035 0018 FB71     		strb	r3, [r7, #7]
 148:../libraries/CC3000_Host_Driver/security.c **** 		return (value^0x1b);
 1036              		.loc 1 148 0
 1037 001a FB79     		ldrb	r3, [r7, #7]
 1038 001c 83F01B03 		eor	r3, r3, #27
 1039 0020 DBB2     		uxtb	r3, r3
 1040 0022 03E0     		b	.L8
 1041              	.L7:
 149:../libraries/CC3000_Host_Driver/security.c **** 	} else
 150:../libraries/CC3000_Host_Driver/security.c **** 		return value<<1;
 1042              		.loc 1 150 0
 1043 0024 FB79     		ldrb	r3, [r7, #7]
 1044 0026 4FEA4303 		lsl	r3, r3, #1
 1045 002a DBB2     		uxtb	r3, r3
 1046              	.L8:
 151:../libraries/CC3000_Host_Driver/security.c **** }
 1047              		.loc 1 151 0
 1048 002c 1846     		mov	r0, r3
 1049 002e 07F10C07 		add	r7, r7, #12
 1050 0032 BD46     		mov	sp, r7
 1051 0034 80BC     		pop	{r7}
 1052 0036 7047     		bx	lr
 1053              		.cfi_endproc
 1054              	.LFE1:
 1056              		.section	.text.aes_encr,"ax",%progbits
 1057              		.align	2
 1058              		.global	aes_encr
 1059              		.thumb
 1060              		.thumb_func
 1062              	aes_encr:
 1063              	.LFB2:
 152:../libraries/CC3000_Host_Driver/security.c **** 
 153:../libraries/CC3000_Host_Driver/security.c **** //*****************************************************************************
 154:../libraries/CC3000_Host_Driver/security.c **** //
 155:../libraries/CC3000_Host_Driver/security.c **** //!  aes_encr
 156:../libraries/CC3000_Host_Driver/security.c **** //!
 157:../libraries/CC3000_Host_Driver/security.c **** //!  @param[in]  expandedKey expanded AES128 key
 158:../libraries/CC3000_Host_Driver/security.c **** //!  @param[in/out] state 16 bytes of plain text and cipher text
 159:../libraries/CC3000_Host_Driver/security.c **** //!
 160:../libraries/CC3000_Host_Driver/security.c **** //!  @return  none
 161:../libraries/CC3000_Host_Driver/security.c **** //!
 162:../libraries/CC3000_Host_Driver/security.c **** //!  @brief   internal implementation of AES128 encryption.
 163:../libraries/CC3000_Host_Driver/security.c **** //!           straight forward aes encryption implementation
 164:../libraries/CC3000_Host_Driver/security.c **** //!           first the group of operations
 165:../libraries/CC3000_Host_Driver/security.c **** //!          - addRoundKey
 166:../libraries/CC3000_Host_Driver/security.c **** //!          - subbytes
 167:../libraries/CC3000_Host_Driver/security.c **** //!          - shiftrows
 168:../libraries/CC3000_Host_Driver/security.c **** //!          - mixcolums
 169:../libraries/CC3000_Host_Driver/security.c **** //!          is executed 9 times, after this addroundkey to finish the 9th 
 170:../libraries/CC3000_Host_Driver/security.c **** //!          round, after that the 10th round without mixcolums
 171:../libraries/CC3000_Host_Driver/security.c **** //!          no further subfunctions to save cycles for function calls
 172:../libraries/CC3000_Host_Driver/security.c **** //!          no structuring with "for (....)" to save cycles.
 173:../libraries/CC3000_Host_Driver/security.c **** //!	 
 174:../libraries/CC3000_Host_Driver/security.c **** //!
 175:../libraries/CC3000_Host_Driver/security.c **** //*****************************************************************************
 176:../libraries/CC3000_Host_Driver/security.c **** 
 177:../libraries/CC3000_Host_Driver/security.c **** void aes_encr(unsigned char *state, unsigned char *expandedKey)
 178:../libraries/CC3000_Host_Driver/security.c **** {
 1064              		.loc 1 178 0
 1065              		.cfi_startproc
 1066              		@ args = 0, pretend = 0, frame = 16
 1067              		@ frame_needed = 1, uses_anonymous_args = 0
 1068 0000 80B5     		push	{r7, lr}
 1069              	.LCFI6:
 1070              		.cfi_def_cfa_offset 8
 1071              		.cfi_offset 7, -8
 1072              		.cfi_offset 14, -4
 1073 0002 84B0     		sub	sp, sp, #16
 1074              	.LCFI7:
 1075              		.cfi_def_cfa_offset 24
 1076 0004 00AF     		add	r7, sp, #0
 1077              	.LCFI8:
 1078              		.cfi_def_cfa_register 7
 1079 0006 7860     		str	r0, [r7, #4]
 1080 0008 3960     		str	r1, [r7, #0]
 179:../libraries/CC3000_Host_Driver/security.c ****   unsigned char buf1, buf2, buf3, round;
 180:../libraries/CC3000_Host_Driver/security.c **** 		
 181:../libraries/CC3000_Host_Driver/security.c ****   for (round = 0; round < 9; round ++){
 1081              		.loc 1 181 0
 1082 000a 4FF00003 		mov	r3, #0
 1083 000e FB73     		strb	r3, [r7, #15]
 1084 0010 ADE3     		b	.L10
 1085              	.L11:
 182:../libraries/CC3000_Host_Driver/security.c ****     // addroundkey, sbox and shiftrows
 183:../libraries/CC3000_Host_Driver/security.c ****     // row 0
 184:../libraries/CC3000_Host_Driver/security.c ****     state[ 0]  = sbox[(state[ 0] ^ expandedKey[(round*16)     ])];
 1086              		.loc 1 184 0 discriminator 2
 1087 0012 7B68     		ldr	r3, [r7, #4]
 1088 0014 1A78     		ldrb	r2, [r3, #0]	@ zero_extendqisi2
 1089 0016 FB7B     		ldrb	r3, [r7, #15]	@ zero_extendqisi2
 1090 0018 4FEA0313 		lsl	r3, r3, #4
 1091 001c 3968     		ldr	r1, [r7, #0]
 1092 001e CB18     		adds	r3, r1, r3
 1093 0020 1B78     		ldrb	r3, [r3, #0]	@ zero_extendqisi2
 1094 0022 5340     		eors	r3, r3, r2
 1095 0024 DBB2     		uxtb	r3, r3
 1096 0026 1A46     		mov	r2, r3
 1097 0028 40F20003 		movw	r3, #:lower16:sbox
 1098 002c C0F20003 		movt	r3, #:upper16:sbox
 1099 0030 9A5C     		ldrb	r2, [r3, r2]	@ zero_extendqisi2
 1100 0032 7B68     		ldr	r3, [r7, #4]
 1101 0034 1A70     		strb	r2, [r3, #0]
 185:../libraries/CC3000_Host_Driver/security.c ****     state[ 4]  = sbox[(state[ 4] ^ expandedKey[(round*16) +  4])];
 1102              		.loc 1 185 0 discriminator 2
 1103 0036 7B68     		ldr	r3, [r7, #4]
 1104 0038 03F10402 		add	r2, r3, #4
 1105 003c 7B68     		ldr	r3, [r7, #4]
 1106 003e 03F10403 		add	r3, r3, #4
 1107 0042 1978     		ldrb	r1, [r3, #0]	@ zero_extendqisi2
 1108 0044 FB7B     		ldrb	r3, [r7, #15]	@ zero_extendqisi2
 1109 0046 4FEA0313 		lsl	r3, r3, #4
 1110 004a 03F10403 		add	r3, r3, #4
 1111 004e 3868     		ldr	r0, [r7, #0]
 1112 0050 C318     		adds	r3, r0, r3
 1113 0052 1B78     		ldrb	r3, [r3, #0]	@ zero_extendqisi2
 1114 0054 4B40     		eors	r3, r3, r1
 1115 0056 DBB2     		uxtb	r3, r3
 1116 0058 1946     		mov	r1, r3
 1117 005a 40F20003 		movw	r3, #:lower16:sbox
 1118 005e C0F20003 		movt	r3, #:upper16:sbox
 1119 0062 5B5C     		ldrb	r3, [r3, r1]	@ zero_extendqisi2
 1120 0064 1370     		strb	r3, [r2, #0]
 186:../libraries/CC3000_Host_Driver/security.c ****     state[ 8]  = sbox[(state[ 8] ^ expandedKey[(round*16) +  8])];
 1121              		.loc 1 186 0 discriminator 2
 1122 0066 7B68     		ldr	r3, [r7, #4]
 1123 0068 03F10802 		add	r2, r3, #8
 1124 006c 7B68     		ldr	r3, [r7, #4]
 1125 006e 03F10803 		add	r3, r3, #8
 1126 0072 1978     		ldrb	r1, [r3, #0]	@ zero_extendqisi2
 1127 0074 FB7B     		ldrb	r3, [r7, #15]	@ zero_extendqisi2
 1128 0076 4FEA0313 		lsl	r3, r3, #4
 1129 007a 03F10803 		add	r3, r3, #8
 1130 007e 3868     		ldr	r0, [r7, #0]
 1131 0080 C318     		adds	r3, r0, r3
 1132 0082 1B78     		ldrb	r3, [r3, #0]	@ zero_extendqisi2
 1133 0084 4B40     		eors	r3, r3, r1
 1134 0086 DBB2     		uxtb	r3, r3
 1135 0088 1946     		mov	r1, r3
 1136 008a 40F20003 		movw	r3, #:lower16:sbox
 1137 008e C0F20003 		movt	r3, #:upper16:sbox
 1138 0092 5B5C     		ldrb	r3, [r3, r1]	@ zero_extendqisi2
 1139 0094 1370     		strb	r3, [r2, #0]
 187:../libraries/CC3000_Host_Driver/security.c ****     state[12]  = sbox[(state[12] ^ expandedKey[(round*16) + 12])];
 1140              		.loc 1 187 0 discriminator 2
 1141 0096 7B68     		ldr	r3, [r7, #4]
 1142 0098 03F10C02 		add	r2, r3, #12
 1143 009c 7B68     		ldr	r3, [r7, #4]
 1144 009e 03F10C03 		add	r3, r3, #12
 1145 00a2 1978     		ldrb	r1, [r3, #0]	@ zero_extendqisi2
 1146 00a4 FB7B     		ldrb	r3, [r7, #15]	@ zero_extendqisi2
 1147 00a6 4FEA0313 		lsl	r3, r3, #4
 1148 00aa 03F10C03 		add	r3, r3, #12
 1149 00ae 3868     		ldr	r0, [r7, #0]
 1150 00b0 C318     		adds	r3, r0, r3
 1151 00b2 1B78     		ldrb	r3, [r3, #0]	@ zero_extendqisi2
 1152 00b4 4B40     		eors	r3, r3, r1
 1153 00b6 DBB2     		uxtb	r3, r3
 1154 00b8 1946     		mov	r1, r3
 1155 00ba 40F20003 		movw	r3, #:lower16:sbox
 1156 00be C0F20003 		movt	r3, #:upper16:sbox
 1157 00c2 5B5C     		ldrb	r3, [r3, r1]	@ zero_extendqisi2
 1158 00c4 1370     		strb	r3, [r2, #0]
 188:../libraries/CC3000_Host_Driver/security.c ****     // row 1
 189:../libraries/CC3000_Host_Driver/security.c ****     buf1 = state[1] ^ expandedKey[(round*16) + 1];
 1159              		.loc 1 189 0 discriminator 2
 1160 00c6 7B68     		ldr	r3, [r7, #4]
 1161 00c8 03F10103 		add	r3, r3, #1
 1162 00cc 1A78     		ldrb	r2, [r3, #0]	@ zero_extendqisi2
 1163 00ce FB7B     		ldrb	r3, [r7, #15]	@ zero_extendqisi2
 1164 00d0 4FEA0313 		lsl	r3, r3, #4
 1165 00d4 03F10103 		add	r3, r3, #1
 1166 00d8 3968     		ldr	r1, [r7, #0]
 1167 00da CB18     		adds	r3, r1, r3
 1168 00dc 1B78     		ldrb	r3, [r3, #0]	@ zero_extendqisi2
 1169 00de 5340     		eors	r3, r3, r2
 1170 00e0 BB73     		strb	r3, [r7, #14]
 190:../libraries/CC3000_Host_Driver/security.c ****     state[ 1]  = sbox[(state[ 5] ^ expandedKey[(round*16) +  5])];
 1171              		.loc 1 190 0 discriminator 2
 1172 00e2 7B68     		ldr	r3, [r7, #4]
 1173 00e4 03F10102 		add	r2, r3, #1
 1174 00e8 7B68     		ldr	r3, [r7, #4]
 1175 00ea 03F10503 		add	r3, r3, #5
 1176 00ee 1978     		ldrb	r1, [r3, #0]	@ zero_extendqisi2
 1177 00f0 FB7B     		ldrb	r3, [r7, #15]	@ zero_extendqisi2
 1178 00f2 4FEA0313 		lsl	r3, r3, #4
 1179 00f6 03F10503 		add	r3, r3, #5
 1180 00fa 3868     		ldr	r0, [r7, #0]
 1181 00fc C318     		adds	r3, r0, r3
 1182 00fe 1B78     		ldrb	r3, [r3, #0]	@ zero_extendqisi2
 1183 0100 4B40     		eors	r3, r3, r1
 1184 0102 DBB2     		uxtb	r3, r3
 1185 0104 1946     		mov	r1, r3
 1186 0106 40F20003 		movw	r3, #:lower16:sbox
 1187 010a C0F20003 		movt	r3, #:upper16:sbox
 1188 010e 5B5C     		ldrb	r3, [r3, r1]	@ zero_extendqisi2
 1189 0110 1370     		strb	r3, [r2, #0]
 191:../libraries/CC3000_Host_Driver/security.c ****     state[ 5]  = sbox[(state[ 9] ^ expandedKey[(round*16) +  9])];
 1190              		.loc 1 191 0 discriminator 2
 1191 0112 7B68     		ldr	r3, [r7, #4]
 1192 0114 03F10502 		add	r2, r3, #5
 1193 0118 7B68     		ldr	r3, [r7, #4]
 1194 011a 03F10903 		add	r3, r3, #9
 1195 011e 1978     		ldrb	r1, [r3, #0]	@ zero_extendqisi2
 1196 0120 FB7B     		ldrb	r3, [r7, #15]	@ zero_extendqisi2
 1197 0122 4FEA0313 		lsl	r3, r3, #4
 1198 0126 03F10903 		add	r3, r3, #9
 1199 012a 3868     		ldr	r0, [r7, #0]
 1200 012c C318     		adds	r3, r0, r3
 1201 012e 1B78     		ldrb	r3, [r3, #0]	@ zero_extendqisi2
 1202 0130 4B40     		eors	r3, r3, r1
 1203 0132 DBB2     		uxtb	r3, r3
 1204 0134 1946     		mov	r1, r3
 1205 0136 40F20003 		movw	r3, #:lower16:sbox
 1206 013a C0F20003 		movt	r3, #:upper16:sbox
 1207 013e 5B5C     		ldrb	r3, [r3, r1]	@ zero_extendqisi2
 1208 0140 1370     		strb	r3, [r2, #0]
 192:../libraries/CC3000_Host_Driver/security.c ****     state[ 9]  = sbox[(state[13] ^ expandedKey[(round*16) + 13])];
 1209              		.loc 1 192 0 discriminator 2
 1210 0142 7B68     		ldr	r3, [r7, #4]
 1211 0144 03F10902 		add	r2, r3, #9
 1212 0148 7B68     		ldr	r3, [r7, #4]
 1213 014a 03F10D03 		add	r3, r3, #13
 1214 014e 1978     		ldrb	r1, [r3, #0]	@ zero_extendqisi2
 1215 0150 FB7B     		ldrb	r3, [r7, #15]	@ zero_extendqisi2
 1216 0152 4FEA0313 		lsl	r3, r3, #4
 1217 0156 03F10D03 		add	r3, r3, #13
 1218 015a 3868     		ldr	r0, [r7, #0]
 1219 015c C318     		adds	r3, r0, r3
 1220 015e 1B78     		ldrb	r3, [r3, #0]	@ zero_extendqisi2
 1221 0160 4B40     		eors	r3, r3, r1
 1222 0162 DBB2     		uxtb	r3, r3
 1223 0164 1946     		mov	r1, r3
 1224 0166 40F20003 		movw	r3, #:lower16:sbox
 1225 016a C0F20003 		movt	r3, #:upper16:sbox
 1226 016e 5B5C     		ldrb	r3, [r3, r1]	@ zero_extendqisi2
 1227 0170 1370     		strb	r3, [r2, #0]
 193:../libraries/CC3000_Host_Driver/security.c ****     state[13]  = sbox[buf1];
 1228              		.loc 1 193 0 discriminator 2
 1229 0172 7B68     		ldr	r3, [r7, #4]
 1230 0174 03F10D02 		add	r2, r3, #13
 1231 0178 B97B     		ldrb	r1, [r7, #14]	@ zero_extendqisi2
 1232 017a 40F20003 		movw	r3, #:lower16:sbox
 1233 017e C0F20003 		movt	r3, #:upper16:sbox
 1234 0182 5B5C     		ldrb	r3, [r3, r1]	@ zero_extendqisi2
 1235 0184 1370     		strb	r3, [r2, #0]
 194:../libraries/CC3000_Host_Driver/security.c ****     // row 2
 195:../libraries/CC3000_Host_Driver/security.c ****     buf1 = state[2] ^ expandedKey[(round*16) + 2];
 1236              		.loc 1 195 0 discriminator 2
 1237 0186 7B68     		ldr	r3, [r7, #4]
 1238 0188 03F10203 		add	r3, r3, #2
 1239 018c 1A78     		ldrb	r2, [r3, #0]	@ zero_extendqisi2
 1240 018e FB7B     		ldrb	r3, [r7, #15]	@ zero_extendqisi2
 1241 0190 4FEA0313 		lsl	r3, r3, #4
 1242 0194 03F10203 		add	r3, r3, #2
 1243 0198 3968     		ldr	r1, [r7, #0]
 1244 019a CB18     		adds	r3, r1, r3
 1245 019c 1B78     		ldrb	r3, [r3, #0]	@ zero_extendqisi2
 1246 019e 5340     		eors	r3, r3, r2
 1247 01a0 BB73     		strb	r3, [r7, #14]
 196:../libraries/CC3000_Host_Driver/security.c ****     buf2 = state[6] ^ expandedKey[(round*16) + 6];
 1248              		.loc 1 196 0 discriminator 2
 1249 01a2 7B68     		ldr	r3, [r7, #4]
 1250 01a4 03F10603 		add	r3, r3, #6
 1251 01a8 1A78     		ldrb	r2, [r3, #0]	@ zero_extendqisi2
 1252 01aa FB7B     		ldrb	r3, [r7, #15]	@ zero_extendqisi2
 1253 01ac 4FEA0313 		lsl	r3, r3, #4
 1254 01b0 03F10603 		add	r3, r3, #6
 1255 01b4 3968     		ldr	r1, [r7, #0]
 1256 01b6 CB18     		adds	r3, r1, r3
 1257 01b8 1B78     		ldrb	r3, [r3, #0]	@ zero_extendqisi2
 1258 01ba 5340     		eors	r3, r3, r2
 1259 01bc 7B73     		strb	r3, [r7, #13]
 197:../libraries/CC3000_Host_Driver/security.c ****     state[ 2]  = sbox[(state[10] ^ expandedKey[(round*16) + 10])];
 1260              		.loc 1 197 0 discriminator 2
 1261 01be 7B68     		ldr	r3, [r7, #4]
 1262 01c0 03F10202 		add	r2, r3, #2
 1263 01c4 7B68     		ldr	r3, [r7, #4]
 1264 01c6 03F10A03 		add	r3, r3, #10
 1265 01ca 1978     		ldrb	r1, [r3, #0]	@ zero_extendqisi2
 1266 01cc FB7B     		ldrb	r3, [r7, #15]	@ zero_extendqisi2
 1267 01ce 4FEA0313 		lsl	r3, r3, #4
 1268 01d2 03F10A03 		add	r3, r3, #10
 1269 01d6 3868     		ldr	r0, [r7, #0]
 1270 01d8 C318     		adds	r3, r0, r3
 1271 01da 1B78     		ldrb	r3, [r3, #0]	@ zero_extendqisi2
 1272 01dc 4B40     		eors	r3, r3, r1
 1273 01de DBB2     		uxtb	r3, r3
 1274 01e0 1946     		mov	r1, r3
 1275 01e2 40F20003 		movw	r3, #:lower16:sbox
 1276 01e6 C0F20003 		movt	r3, #:upper16:sbox
 1277 01ea 5B5C     		ldrb	r3, [r3, r1]	@ zero_extendqisi2
 1278 01ec 1370     		strb	r3, [r2, #0]
 198:../libraries/CC3000_Host_Driver/security.c ****     state[ 6]  = sbox[(state[14] ^ expandedKey[(round*16) + 14])];
 1279              		.loc 1 198 0 discriminator 2
 1280 01ee 7B68     		ldr	r3, [r7, #4]
 1281 01f0 03F10602 		add	r2, r3, #6
 1282 01f4 7B68     		ldr	r3, [r7, #4]
 1283 01f6 03F10E03 		add	r3, r3, #14
 1284 01fa 1978     		ldrb	r1, [r3, #0]	@ zero_extendqisi2
 1285 01fc FB7B     		ldrb	r3, [r7, #15]	@ zero_extendqisi2
 1286 01fe 4FEA0313 		lsl	r3, r3, #4
 1287 0202 03F10E03 		add	r3, r3, #14
 1288 0206 3868     		ldr	r0, [r7, #0]
 1289 0208 C318     		adds	r3, r0, r3
 1290 020a 1B78     		ldrb	r3, [r3, #0]	@ zero_extendqisi2
 1291 020c 4B40     		eors	r3, r3, r1
 1292 020e DBB2     		uxtb	r3, r3
 1293 0210 1946     		mov	r1, r3
 1294 0212 40F20003 		movw	r3, #:lower16:sbox
 1295 0216 C0F20003 		movt	r3, #:upper16:sbox
 1296 021a 5B5C     		ldrb	r3, [r3, r1]	@ zero_extendqisi2
 1297 021c 1370     		strb	r3, [r2, #0]
 199:../libraries/CC3000_Host_Driver/security.c ****     state[10]  = sbox[buf1];
 1298              		.loc 1 199 0 discriminator 2
 1299 021e 7B68     		ldr	r3, [r7, #4]
 1300 0220 03F10A02 		add	r2, r3, #10
 1301 0224 B97B     		ldrb	r1, [r7, #14]	@ zero_extendqisi2
 1302 0226 40F20003 		movw	r3, #:lower16:sbox
 1303 022a C0F20003 		movt	r3, #:upper16:sbox
 1304 022e 5B5C     		ldrb	r3, [r3, r1]	@ zero_extendqisi2
 1305 0230 1370     		strb	r3, [r2, #0]
 200:../libraries/CC3000_Host_Driver/security.c ****     state[14]  = sbox[buf2];
 1306              		.loc 1 200 0 discriminator 2
 1307 0232 7B68     		ldr	r3, [r7, #4]
 1308 0234 03F10E02 		add	r2, r3, #14
 1309 0238 797B     		ldrb	r1, [r7, #13]	@ zero_extendqisi2
 1310 023a 40F20003 		movw	r3, #:lower16:sbox
 1311 023e C0F20003 		movt	r3, #:upper16:sbox
 1312 0242 5B5C     		ldrb	r3, [r3, r1]	@ zero_extendqisi2
 1313 0244 1370     		strb	r3, [r2, #0]
 201:../libraries/CC3000_Host_Driver/security.c ****     // row 3
 202:../libraries/CC3000_Host_Driver/security.c ****     buf1 = state[15] ^ expandedKey[(round*16) + 15];
 1314              		.loc 1 202 0 discriminator 2
 1315 0246 7B68     		ldr	r3, [r7, #4]
 1316 0248 03F10F03 		add	r3, r3, #15
 1317 024c 1A78     		ldrb	r2, [r3, #0]	@ zero_extendqisi2
 1318 024e FB7B     		ldrb	r3, [r7, #15]	@ zero_extendqisi2
 1319 0250 4FEA0313 		lsl	r3, r3, #4
 1320 0254 03F10F03 		add	r3, r3, #15
 1321 0258 3968     		ldr	r1, [r7, #0]
 1322 025a CB18     		adds	r3, r1, r3
 1323 025c 1B78     		ldrb	r3, [r3, #0]	@ zero_extendqisi2
 1324 025e 5340     		eors	r3, r3, r2
 1325 0260 BB73     		strb	r3, [r7, #14]
 203:../libraries/CC3000_Host_Driver/security.c ****     state[15]  = sbox[(state[11] ^ expandedKey[(round*16) + 11])];
 1326              		.loc 1 203 0 discriminator 2
 1327 0262 7B68     		ldr	r3, [r7, #4]
 1328 0264 03F10F02 		add	r2, r3, #15
 1329 0268 7B68     		ldr	r3, [r7, #4]
 1330 026a 03F10B03 		add	r3, r3, #11
 1331 026e 1978     		ldrb	r1, [r3, #0]	@ zero_extendqisi2
 1332 0270 FB7B     		ldrb	r3, [r7, #15]	@ zero_extendqisi2
 1333 0272 4FEA0313 		lsl	r3, r3, #4
 1334 0276 03F10B03 		add	r3, r3, #11
 1335 027a 3868     		ldr	r0, [r7, #0]
 1336 027c C318     		adds	r3, r0, r3
 1337 027e 1B78     		ldrb	r3, [r3, #0]	@ zero_extendqisi2
 1338 0280 4B40     		eors	r3, r3, r1
 1339 0282 DBB2     		uxtb	r3, r3
 1340 0284 1946     		mov	r1, r3
 1341 0286 40F20003 		movw	r3, #:lower16:sbox
 1342 028a C0F20003 		movt	r3, #:upper16:sbox
 1343 028e 5B5C     		ldrb	r3, [r3, r1]	@ zero_extendqisi2
 1344 0290 1370     		strb	r3, [r2, #0]
 204:../libraries/CC3000_Host_Driver/security.c ****     state[11]  = sbox[(state[ 7] ^ expandedKey[(round*16) +  7])];
 1345              		.loc 1 204 0 discriminator 2
 1346 0292 7B68     		ldr	r3, [r7, #4]
 1347 0294 03F10B02 		add	r2, r3, #11
 1348 0298 7B68     		ldr	r3, [r7, #4]
 1349 029a 03F10703 		add	r3, r3, #7
 1350 029e 1978     		ldrb	r1, [r3, #0]	@ zero_extendqisi2
 1351 02a0 FB7B     		ldrb	r3, [r7, #15]	@ zero_extendqisi2
 1352 02a2 4FEA0313 		lsl	r3, r3, #4
 1353 02a6 03F10703 		add	r3, r3, #7
 1354 02aa 3868     		ldr	r0, [r7, #0]
 1355 02ac C318     		adds	r3, r0, r3
 1356 02ae 1B78     		ldrb	r3, [r3, #0]	@ zero_extendqisi2
 1357 02b0 4B40     		eors	r3, r3, r1
 1358 02b2 DBB2     		uxtb	r3, r3
 1359 02b4 1946     		mov	r1, r3
 1360 02b6 40F20003 		movw	r3, #:lower16:sbox
 1361 02ba C0F20003 		movt	r3, #:upper16:sbox
 1362 02be 5B5C     		ldrb	r3, [r3, r1]	@ zero_extendqisi2
 1363 02c0 1370     		strb	r3, [r2, #0]
 205:../libraries/CC3000_Host_Driver/security.c ****     state[ 7]  = sbox[(state[ 3] ^ expandedKey[(round*16) +  3])];
 1364              		.loc 1 205 0 discriminator 2
 1365 02c2 7B68     		ldr	r3, [r7, #4]
 1366 02c4 03F10702 		add	r2, r3, #7
 1367 02c8 7B68     		ldr	r3, [r7, #4]
 1368 02ca 03F10303 		add	r3, r3, #3
 1369 02ce 1978     		ldrb	r1, [r3, #0]	@ zero_extendqisi2
 1370 02d0 FB7B     		ldrb	r3, [r7, #15]	@ zero_extendqisi2
 1371 02d2 4FEA0313 		lsl	r3, r3, #4
 1372 02d6 03F10303 		add	r3, r3, #3
 1373 02da 3868     		ldr	r0, [r7, #0]
 1374 02dc C318     		adds	r3, r0, r3
 1375 02de 1B78     		ldrb	r3, [r3, #0]	@ zero_extendqisi2
 1376 02e0 4B40     		eors	r3, r3, r1
 1377 02e2 DBB2     		uxtb	r3, r3
 1378 02e4 1946     		mov	r1, r3
 1379 02e6 40F20003 		movw	r3, #:lower16:sbox
 1380 02ea C0F20003 		movt	r3, #:upper16:sbox
 1381 02ee 5B5C     		ldrb	r3, [r3, r1]	@ zero_extendqisi2
 1382 02f0 1370     		strb	r3, [r2, #0]
 206:../libraries/CC3000_Host_Driver/security.c ****     state[ 3]  = sbox[buf1];
 1383              		.loc 1 206 0 discriminator 2
 1384 02f2 7B68     		ldr	r3, [r7, #4]
 1385 02f4 03F10302 		add	r2, r3, #3
 1386 02f8 B97B     		ldrb	r1, [r7, #14]	@ zero_extendqisi2
 1387 02fa 40F20003 		movw	r3, #:lower16:sbox
 1388 02fe C0F20003 		movt	r3, #:upper16:sbox
 1389 0302 5B5C     		ldrb	r3, [r3, r1]	@ zero_extendqisi2
 1390 0304 1370     		strb	r3, [r2, #0]
 207:../libraries/CC3000_Host_Driver/security.c ****     
 208:../libraries/CC3000_Host_Driver/security.c ****     // mixcolums //////////
 209:../libraries/CC3000_Host_Driver/security.c ****     // col1
 210:../libraries/CC3000_Host_Driver/security.c ****     buf1 = state[0] ^ state[1] ^ state[2] ^ state[3];
 1391              		.loc 1 210 0 discriminator 2
 1392 0306 7B68     		ldr	r3, [r7, #4]
 1393 0308 1A78     		ldrb	r2, [r3, #0]	@ zero_extendqisi2
 1394 030a 7B68     		ldr	r3, [r7, #4]
 1395 030c 03F10103 		add	r3, r3, #1
 1396 0310 1B78     		ldrb	r3, [r3, #0]	@ zero_extendqisi2
 1397 0312 5340     		eors	r3, r3, r2
 1398 0314 DAB2     		uxtb	r2, r3
 1399 0316 7B68     		ldr	r3, [r7, #4]
 1400 0318 03F10203 		add	r3, r3, #2
 1401 031c 1B78     		ldrb	r3, [r3, #0]	@ zero_extendqisi2
 1402 031e 5340     		eors	r3, r3, r2
 1403 0320 DAB2     		uxtb	r2, r3
 1404 0322 7B68     		ldr	r3, [r7, #4]
 1405 0324 03F10303 		add	r3, r3, #3
 1406 0328 1B78     		ldrb	r3, [r3, #0]	@ zero_extendqisi2
 1407 032a 5340     		eors	r3, r3, r2
 1408 032c BB73     		strb	r3, [r7, #14]
 211:../libraries/CC3000_Host_Driver/security.c ****     buf2 = state[0];
 1409              		.loc 1 211 0 discriminator 2
 1410 032e 7B68     		ldr	r3, [r7, #4]
 1411 0330 1B78     		ldrb	r3, [r3, #0]
 1412 0332 7B73     		strb	r3, [r7, #13]
 212:../libraries/CC3000_Host_Driver/security.c ****     buf3 = state[0]^state[1]; buf3=galois_mul2(buf3); state[0] = state[0] ^ buf3 ^ buf1;
 1413              		.loc 1 212 0 discriminator 2
 1414 0334 7B68     		ldr	r3, [r7, #4]
 1415 0336 1A78     		ldrb	r2, [r3, #0]	@ zero_extendqisi2
 1416 0338 7B68     		ldr	r3, [r7, #4]
 1417 033a 03F10103 		add	r3, r3, #1
 1418 033e 1B78     		ldrb	r3, [r3, #0]	@ zero_extendqisi2
 1419 0340 5340     		eors	r3, r3, r2
 1420 0342 3B73     		strb	r3, [r7, #12]
 1421 0344 3B7B     		ldrb	r3, [r7, #12]	@ zero_extendqisi2
 1422 0346 1846     		mov	r0, r3
 1423 0348 FFF7FEFF 		bl	galois_mul2
 1424 034c 0346     		mov	r3, r0
 1425 034e 3B73     		strb	r3, [r7, #12]
 1426 0350 7B68     		ldr	r3, [r7, #4]
 1427 0352 1A78     		ldrb	r2, [r3, #0]	@ zero_extendqisi2
 1428 0354 3B7B     		ldrb	r3, [r7, #12]
 1429 0356 5340     		eors	r3, r3, r2
 1430 0358 DAB2     		uxtb	r2, r3
 1431 035a BB7B     		ldrb	r3, [r7, #14]
 1432 035c 5340     		eors	r3, r3, r2
 1433 035e DAB2     		uxtb	r2, r3
 1434 0360 7B68     		ldr	r3, [r7, #4]
 1435 0362 1A70     		strb	r2, [r3, #0]
 213:../libraries/CC3000_Host_Driver/security.c ****     buf3 = state[1]^state[2]; buf3=galois_mul2(buf3); state[1] = state[1] ^ buf3 ^ buf1;
 1436              		.loc 1 213 0 discriminator 2
 1437 0364 7B68     		ldr	r3, [r7, #4]
 1438 0366 03F10103 		add	r3, r3, #1
 1439 036a 1A78     		ldrb	r2, [r3, #0]	@ zero_extendqisi2
 1440 036c 7B68     		ldr	r3, [r7, #4]
 1441 036e 03F10203 		add	r3, r3, #2
 1442 0372 1B78     		ldrb	r3, [r3, #0]	@ zero_extendqisi2
 1443 0374 5340     		eors	r3, r3, r2
 1444 0376 3B73     		strb	r3, [r7, #12]
 1445 0378 3B7B     		ldrb	r3, [r7, #12]	@ zero_extendqisi2
 1446 037a 1846     		mov	r0, r3
 1447 037c FFF7FEFF 		bl	galois_mul2
 1448 0380 0346     		mov	r3, r0
 1449 0382 3B73     		strb	r3, [r7, #12]
 1450 0384 7B68     		ldr	r3, [r7, #4]
 1451 0386 03F10103 		add	r3, r3, #1
 1452 038a 7A68     		ldr	r2, [r7, #4]
 1453 038c 02F10102 		add	r2, r2, #1
 1454 0390 1178     		ldrb	r1, [r2, #0]	@ zero_extendqisi2
 1455 0392 3A7B     		ldrb	r2, [r7, #12]
 1456 0394 4A40     		eors	r2, r2, r1
 1457 0396 D1B2     		uxtb	r1, r2
 1458 0398 BA7B     		ldrb	r2, [r7, #14]
 1459 039a 4A40     		eors	r2, r2, r1
 1460 039c D2B2     		uxtb	r2, r2
 1461 039e 1A70     		strb	r2, [r3, #0]
 214:../libraries/CC3000_Host_Driver/security.c ****     buf3 = state[2]^state[3]; buf3=galois_mul2(buf3); state[2] = state[2] ^ buf3 ^ buf1;
 1462              		.loc 1 214 0 discriminator 2
 1463 03a0 7B68     		ldr	r3, [r7, #4]
 1464 03a2 03F10203 		add	r3, r3, #2
 1465 03a6 1A78     		ldrb	r2, [r3, #0]	@ zero_extendqisi2
 1466 03a8 7B68     		ldr	r3, [r7, #4]
 1467 03aa 03F10303 		add	r3, r3, #3
 1468 03ae 1B78     		ldrb	r3, [r3, #0]	@ zero_extendqisi2
 1469 03b0 5340     		eors	r3, r3, r2
 1470 03b2 3B73     		strb	r3, [r7, #12]
 1471 03b4 3B7B     		ldrb	r3, [r7, #12]	@ zero_extendqisi2
 1472 03b6 1846     		mov	r0, r3
 1473 03b8 FFF7FEFF 		bl	galois_mul2
 1474 03bc 0346     		mov	r3, r0
 1475 03be 3B73     		strb	r3, [r7, #12]
 1476 03c0 7B68     		ldr	r3, [r7, #4]
 1477 03c2 03F10203 		add	r3, r3, #2
 1478 03c6 7A68     		ldr	r2, [r7, #4]
 1479 03c8 02F10202 		add	r2, r2, #2
 1480 03cc 1178     		ldrb	r1, [r2, #0]	@ zero_extendqisi2
 1481 03ce 3A7B     		ldrb	r2, [r7, #12]
 1482 03d0 4A40     		eors	r2, r2, r1
 1483 03d2 D1B2     		uxtb	r1, r2
 1484 03d4 BA7B     		ldrb	r2, [r7, #14]
 1485 03d6 4A40     		eors	r2, r2, r1
 1486 03d8 D2B2     		uxtb	r2, r2
 1487 03da 1A70     		strb	r2, [r3, #0]
 215:../libraries/CC3000_Host_Driver/security.c ****     buf3 = state[3]^buf2;     buf3=galois_mul2(buf3); state[3] = state[3] ^ buf3 ^ buf1;
 1488              		.loc 1 215 0 discriminator 2
 1489 03dc 7B68     		ldr	r3, [r7, #4]
 1490 03de 03F10303 		add	r3, r3, #3
 1491 03e2 1A78     		ldrb	r2, [r3, #0]	@ zero_extendqisi2
 1492 03e4 7B7B     		ldrb	r3, [r7, #13]
 1493 03e6 5340     		eors	r3, r3, r2
 1494 03e8 3B73     		strb	r3, [r7, #12]
 1495 03ea 3B7B     		ldrb	r3, [r7, #12]	@ zero_extendqisi2
 1496 03ec 1846     		mov	r0, r3
 1497 03ee FFF7FEFF 		bl	galois_mul2
 1498 03f2 0346     		mov	r3, r0
 1499 03f4 3B73     		strb	r3, [r7, #12]
 1500 03f6 7B68     		ldr	r3, [r7, #4]
 1501 03f8 03F10303 		add	r3, r3, #3
 1502 03fc 7A68     		ldr	r2, [r7, #4]
 1503 03fe 02F10302 		add	r2, r2, #3
 1504 0402 1178     		ldrb	r1, [r2, #0]	@ zero_extendqisi2
 1505 0404 3A7B     		ldrb	r2, [r7, #12]
 1506 0406 4A40     		eors	r2, r2, r1
 1507 0408 D1B2     		uxtb	r1, r2
 1508 040a BA7B     		ldrb	r2, [r7, #14]
 1509 040c 4A40     		eors	r2, r2, r1
 1510 040e D2B2     		uxtb	r2, r2
 1511 0410 1A70     		strb	r2, [r3, #0]
 216:../libraries/CC3000_Host_Driver/security.c ****     // col2
 217:../libraries/CC3000_Host_Driver/security.c ****     buf1 = state[4] ^ state[5] ^ state[6] ^ state[7];
 1512              		.loc 1 217 0 discriminator 2
 1513 0412 7B68     		ldr	r3, [r7, #4]
 1514 0414 03F10403 		add	r3, r3, #4
 1515 0418 1A78     		ldrb	r2, [r3, #0]	@ zero_extendqisi2
 1516 041a 7B68     		ldr	r3, [r7, #4]
 1517 041c 03F10503 		add	r3, r3, #5
 1518 0420 1B78     		ldrb	r3, [r3, #0]	@ zero_extendqisi2
 1519 0422 5340     		eors	r3, r3, r2
 1520 0424 DAB2     		uxtb	r2, r3
 1521 0426 7B68     		ldr	r3, [r7, #4]
 1522 0428 03F10603 		add	r3, r3, #6
 1523 042c 1B78     		ldrb	r3, [r3, #0]	@ zero_extendqisi2
 1524 042e 5340     		eors	r3, r3, r2
 1525 0430 DAB2     		uxtb	r2, r3
 1526 0432 7B68     		ldr	r3, [r7, #4]
 1527 0434 03F10703 		add	r3, r3, #7
 1528 0438 1B78     		ldrb	r3, [r3, #0]	@ zero_extendqisi2
 1529 043a 5340     		eors	r3, r3, r2
 1530 043c BB73     		strb	r3, [r7, #14]
 218:../libraries/CC3000_Host_Driver/security.c ****     buf2 = state[4];
 1531              		.loc 1 218 0 discriminator 2
 1532 043e 7B68     		ldr	r3, [r7, #4]
 1533 0440 1B79     		ldrb	r3, [r3, #4]
 1534 0442 7B73     		strb	r3, [r7, #13]
 219:../libraries/CC3000_Host_Driver/security.c ****     buf3 = state[4]^state[5]; buf3=galois_mul2(buf3); state[4] = state[4] ^ buf3 ^ buf1;
 1535              		.loc 1 219 0 discriminator 2
 1536 0444 7B68     		ldr	r3, [r7, #4]
 1537 0446 03F10403 		add	r3, r3, #4
 1538 044a 1A78     		ldrb	r2, [r3, #0]	@ zero_extendqisi2
 1539 044c 7B68     		ldr	r3, [r7, #4]
 1540 044e 03F10503 		add	r3, r3, #5
 1541 0452 1B78     		ldrb	r3, [r3, #0]	@ zero_extendqisi2
 1542 0454 5340     		eors	r3, r3, r2
 1543 0456 3B73     		strb	r3, [r7, #12]
 1544 0458 3B7B     		ldrb	r3, [r7, #12]	@ zero_extendqisi2
 1545 045a 1846     		mov	r0, r3
 1546 045c FFF7FEFF 		bl	galois_mul2
 1547 0460 0346     		mov	r3, r0
 1548 0462 3B73     		strb	r3, [r7, #12]
 1549 0464 7B68     		ldr	r3, [r7, #4]
 1550 0466 03F10403 		add	r3, r3, #4
 1551 046a 7A68     		ldr	r2, [r7, #4]
 1552 046c 02F10402 		add	r2, r2, #4
 1553 0470 1178     		ldrb	r1, [r2, #0]	@ zero_extendqisi2
 1554 0472 3A7B     		ldrb	r2, [r7, #12]
 1555 0474 4A40     		eors	r2, r2, r1
 1556 0476 D1B2     		uxtb	r1, r2
 1557 0478 BA7B     		ldrb	r2, [r7, #14]
 1558 047a 4A40     		eors	r2, r2, r1
 1559 047c D2B2     		uxtb	r2, r2
 1560 047e 1A70     		strb	r2, [r3, #0]
 220:../libraries/CC3000_Host_Driver/security.c ****     buf3 = state[5]^state[6]; buf3=galois_mul2(buf3); state[5] = state[5] ^ buf3 ^ buf1;
 1561              		.loc 1 220 0 discriminator 2
 1562 0480 7B68     		ldr	r3, [r7, #4]
 1563 0482 03F10503 		add	r3, r3, #5
 1564 0486 1A78     		ldrb	r2, [r3, #0]	@ zero_extendqisi2
 1565 0488 7B68     		ldr	r3, [r7, #4]
 1566 048a 03F10603 		add	r3, r3, #6
 1567 048e 1B78     		ldrb	r3, [r3, #0]	@ zero_extendqisi2
 1568 0490 5340     		eors	r3, r3, r2
 1569 0492 3B73     		strb	r3, [r7, #12]
 1570 0494 3B7B     		ldrb	r3, [r7, #12]	@ zero_extendqisi2
 1571 0496 1846     		mov	r0, r3
 1572 0498 FFF7FEFF 		bl	galois_mul2
 1573 049c 0346     		mov	r3, r0
 1574 049e 3B73     		strb	r3, [r7, #12]
 1575 04a0 7B68     		ldr	r3, [r7, #4]
 1576 04a2 03F10503 		add	r3, r3, #5
 1577 04a6 7A68     		ldr	r2, [r7, #4]
 1578 04a8 02F10502 		add	r2, r2, #5
 1579 04ac 1178     		ldrb	r1, [r2, #0]	@ zero_extendqisi2
 1580 04ae 3A7B     		ldrb	r2, [r7, #12]
 1581 04b0 4A40     		eors	r2, r2, r1
 1582 04b2 D1B2     		uxtb	r1, r2
 1583 04b4 BA7B     		ldrb	r2, [r7, #14]
 1584 04b6 4A40     		eors	r2, r2, r1
 1585 04b8 D2B2     		uxtb	r2, r2
 1586 04ba 1A70     		strb	r2, [r3, #0]
 221:../libraries/CC3000_Host_Driver/security.c ****     buf3 = state[6]^state[7]; buf3=galois_mul2(buf3); state[6] = state[6] ^ buf3 ^ buf1;
 1587              		.loc 1 221 0 discriminator 2
 1588 04bc 7B68     		ldr	r3, [r7, #4]
 1589 04be 03F10603 		add	r3, r3, #6
 1590 04c2 1A78     		ldrb	r2, [r3, #0]	@ zero_extendqisi2
 1591 04c4 7B68     		ldr	r3, [r7, #4]
 1592 04c6 03F10703 		add	r3, r3, #7
 1593 04ca 1B78     		ldrb	r3, [r3, #0]	@ zero_extendqisi2
 1594 04cc 5340     		eors	r3, r3, r2
 1595 04ce 3B73     		strb	r3, [r7, #12]
 1596 04d0 3B7B     		ldrb	r3, [r7, #12]	@ zero_extendqisi2
 1597 04d2 1846     		mov	r0, r3
 1598 04d4 FFF7FEFF 		bl	galois_mul2
 1599 04d8 0346     		mov	r3, r0
 1600 04da 3B73     		strb	r3, [r7, #12]
 1601 04dc 7B68     		ldr	r3, [r7, #4]
 1602 04de 03F10603 		add	r3, r3, #6
 1603 04e2 7A68     		ldr	r2, [r7, #4]
 1604 04e4 02F10602 		add	r2, r2, #6
 1605 04e8 1178     		ldrb	r1, [r2, #0]	@ zero_extendqisi2
 1606 04ea 3A7B     		ldrb	r2, [r7, #12]
 1607 04ec 4A40     		eors	r2, r2, r1
 1608 04ee D1B2     		uxtb	r1, r2
 1609 04f0 BA7B     		ldrb	r2, [r7, #14]
 1610 04f2 4A40     		eors	r2, r2, r1
 1611 04f4 D2B2     		uxtb	r2, r2
 1612 04f6 1A70     		strb	r2, [r3, #0]
 222:../libraries/CC3000_Host_Driver/security.c ****     buf3 = state[7]^buf2;     buf3=galois_mul2(buf3); state[7] = state[7] ^ buf3 ^ buf1;
 1613              		.loc 1 222 0 discriminator 2
 1614 04f8 7B68     		ldr	r3, [r7, #4]
 1615 04fa 03F10703 		add	r3, r3, #7
 1616 04fe 1A78     		ldrb	r2, [r3, #0]	@ zero_extendqisi2
 1617 0500 7B7B     		ldrb	r3, [r7, #13]
 1618 0502 5340     		eors	r3, r3, r2
 1619 0504 3B73     		strb	r3, [r7, #12]
 1620 0506 3B7B     		ldrb	r3, [r7, #12]	@ zero_extendqisi2
 1621 0508 1846     		mov	r0, r3
 1622 050a FFF7FEFF 		bl	galois_mul2
 1623 050e 0346     		mov	r3, r0
 1624 0510 3B73     		strb	r3, [r7, #12]
 1625 0512 7B68     		ldr	r3, [r7, #4]
 1626 0514 03F10703 		add	r3, r3, #7
 1627 0518 7A68     		ldr	r2, [r7, #4]
 1628 051a 02F10702 		add	r2, r2, #7
 1629 051e 1178     		ldrb	r1, [r2, #0]	@ zero_extendqisi2
 1630 0520 3A7B     		ldrb	r2, [r7, #12]
 1631 0522 4A40     		eors	r2, r2, r1
 1632 0524 D1B2     		uxtb	r1, r2
 1633 0526 BA7B     		ldrb	r2, [r7, #14]
 1634 0528 4A40     		eors	r2, r2, r1
 1635 052a D2B2     		uxtb	r2, r2
 1636 052c 1A70     		strb	r2, [r3, #0]
 223:../libraries/CC3000_Host_Driver/security.c ****     // col3
 224:../libraries/CC3000_Host_Driver/security.c ****     buf1 = state[8] ^ state[9] ^ state[10] ^ state[11];
 1637              		.loc 1 224 0 discriminator 2
 1638 052e 7B68     		ldr	r3, [r7, #4]
 1639 0530 03F10803 		add	r3, r3, #8
 1640 0534 1A78     		ldrb	r2, [r3, #0]	@ zero_extendqisi2
 1641 0536 7B68     		ldr	r3, [r7, #4]
 1642 0538 03F10903 		add	r3, r3, #9
 1643 053c 1B78     		ldrb	r3, [r3, #0]	@ zero_extendqisi2
 1644 053e 5340     		eors	r3, r3, r2
 1645 0540 DAB2     		uxtb	r2, r3
 1646 0542 7B68     		ldr	r3, [r7, #4]
 1647 0544 03F10A03 		add	r3, r3, #10
 1648 0548 1B78     		ldrb	r3, [r3, #0]	@ zero_extendqisi2
 1649 054a 5340     		eors	r3, r3, r2
 1650 054c DAB2     		uxtb	r2, r3
 1651 054e 7B68     		ldr	r3, [r7, #4]
 1652 0550 03F10B03 		add	r3, r3, #11
 1653 0554 1B78     		ldrb	r3, [r3, #0]	@ zero_extendqisi2
 1654 0556 5340     		eors	r3, r3, r2
 1655 0558 BB73     		strb	r3, [r7, #14]
 225:../libraries/CC3000_Host_Driver/security.c ****     buf2 = state[8];
 1656              		.loc 1 225 0 discriminator 2
 1657 055a 7B68     		ldr	r3, [r7, #4]
 1658 055c 1B7A     		ldrb	r3, [r3, #8]
 1659 055e 7B73     		strb	r3, [r7, #13]
 226:../libraries/CC3000_Host_Driver/security.c ****     buf3 = state[8]^state[9];   buf3=galois_mul2(buf3); state[8] = state[8] ^ buf3 ^ buf1;
 1660              		.loc 1 226 0 discriminator 2
 1661 0560 7B68     		ldr	r3, [r7, #4]
 1662 0562 03F10803 		add	r3, r3, #8
 1663 0566 1A78     		ldrb	r2, [r3, #0]	@ zero_extendqisi2
 1664 0568 7B68     		ldr	r3, [r7, #4]
 1665 056a 03F10903 		add	r3, r3, #9
 1666 056e 1B78     		ldrb	r3, [r3, #0]	@ zero_extendqisi2
 1667 0570 5340     		eors	r3, r3, r2
 1668 0572 3B73     		strb	r3, [r7, #12]
 1669 0574 3B7B     		ldrb	r3, [r7, #12]	@ zero_extendqisi2
 1670 0576 1846     		mov	r0, r3
 1671 0578 FFF7FEFF 		bl	galois_mul2
 1672 057c 0346     		mov	r3, r0
 1673 057e 3B73     		strb	r3, [r7, #12]
 1674 0580 7B68     		ldr	r3, [r7, #4]
 1675 0582 03F10803 		add	r3, r3, #8
 1676 0586 7A68     		ldr	r2, [r7, #4]
 1677 0588 02F10802 		add	r2, r2, #8
 1678 058c 1178     		ldrb	r1, [r2, #0]	@ zero_extendqisi2
 1679 058e 3A7B     		ldrb	r2, [r7, #12]
 1680 0590 4A40     		eors	r2, r2, r1
 1681 0592 D1B2     		uxtb	r1, r2
 1682 0594 BA7B     		ldrb	r2, [r7, #14]
 1683 0596 4A40     		eors	r2, r2, r1
 1684 0598 D2B2     		uxtb	r2, r2
 1685 059a 1A70     		strb	r2, [r3, #0]
 227:../libraries/CC3000_Host_Driver/security.c ****     buf3 = state[9]^state[10];  buf3=galois_mul2(buf3); state[9] = state[9] ^ buf3 ^ buf1;
 1686              		.loc 1 227 0 discriminator 2
 1687 059c 7B68     		ldr	r3, [r7, #4]
 1688 059e 03F10903 		add	r3, r3, #9
 1689 05a2 1A78     		ldrb	r2, [r3, #0]	@ zero_extendqisi2
 1690 05a4 7B68     		ldr	r3, [r7, #4]
 1691 05a6 03F10A03 		add	r3, r3, #10
 1692 05aa 1B78     		ldrb	r3, [r3, #0]	@ zero_extendqisi2
 1693 05ac 5340     		eors	r3, r3, r2
 1694 05ae 3B73     		strb	r3, [r7, #12]
 1695 05b0 3B7B     		ldrb	r3, [r7, #12]	@ zero_extendqisi2
 1696 05b2 1846     		mov	r0, r3
 1697 05b4 FFF7FEFF 		bl	galois_mul2
 1698 05b8 0346     		mov	r3, r0
 1699 05ba 3B73     		strb	r3, [r7, #12]
 1700 05bc 7B68     		ldr	r3, [r7, #4]
 1701 05be 03F10903 		add	r3, r3, #9
 1702 05c2 7A68     		ldr	r2, [r7, #4]
 1703 05c4 02F10902 		add	r2, r2, #9
 1704 05c8 1178     		ldrb	r1, [r2, #0]	@ zero_extendqisi2
 1705 05ca 3A7B     		ldrb	r2, [r7, #12]
 1706 05cc 4A40     		eors	r2, r2, r1
 1707 05ce D1B2     		uxtb	r1, r2
 1708 05d0 BA7B     		ldrb	r2, [r7, #14]
 1709 05d2 4A40     		eors	r2, r2, r1
 1710 05d4 D2B2     		uxtb	r2, r2
 1711 05d6 1A70     		strb	r2, [r3, #0]
 228:../libraries/CC3000_Host_Driver/security.c ****     buf3 = state[10]^state[11]; buf3=galois_mul2(buf3); state[10] = state[10] ^ buf3 ^ buf1;
 1712              		.loc 1 228 0 discriminator 2
 1713 05d8 7B68     		ldr	r3, [r7, #4]
 1714 05da 03F10A03 		add	r3, r3, #10
 1715 05de 1A78     		ldrb	r2, [r3, #0]	@ zero_extendqisi2
 1716 05e0 7B68     		ldr	r3, [r7, #4]
 1717 05e2 03F10B03 		add	r3, r3, #11
 1718 05e6 1B78     		ldrb	r3, [r3, #0]	@ zero_extendqisi2
 1719 05e8 5340     		eors	r3, r3, r2
 1720 05ea 3B73     		strb	r3, [r7, #12]
 1721 05ec 3B7B     		ldrb	r3, [r7, #12]	@ zero_extendqisi2
 1722 05ee 1846     		mov	r0, r3
 1723 05f0 FFF7FEFF 		bl	galois_mul2
 1724 05f4 0346     		mov	r3, r0
 1725 05f6 3B73     		strb	r3, [r7, #12]
 1726 05f8 7B68     		ldr	r3, [r7, #4]
 1727 05fa 03F10A03 		add	r3, r3, #10
 1728 05fe 7A68     		ldr	r2, [r7, #4]
 1729 0600 02F10A02 		add	r2, r2, #10
 1730 0604 1178     		ldrb	r1, [r2, #0]	@ zero_extendqisi2
 1731 0606 3A7B     		ldrb	r2, [r7, #12]
 1732 0608 4A40     		eors	r2, r2, r1
 1733 060a D1B2     		uxtb	r1, r2
 1734 060c BA7B     		ldrb	r2, [r7, #14]
 1735 060e 4A40     		eors	r2, r2, r1
 1736 0610 D2B2     		uxtb	r2, r2
 1737 0612 1A70     		strb	r2, [r3, #0]
 229:../libraries/CC3000_Host_Driver/security.c ****     buf3 = state[11]^buf2;      buf3=galois_mul2(buf3); state[11] = state[11] ^ buf3 ^ buf1;
 1738              		.loc 1 229 0 discriminator 2
 1739 0614 7B68     		ldr	r3, [r7, #4]
 1740 0616 03F10B03 		add	r3, r3, #11
 1741 061a 1A78     		ldrb	r2, [r3, #0]	@ zero_extendqisi2
 1742 061c 7B7B     		ldrb	r3, [r7, #13]
 1743 061e 5340     		eors	r3, r3, r2
 1744 0620 3B73     		strb	r3, [r7, #12]
 1745 0622 3B7B     		ldrb	r3, [r7, #12]	@ zero_extendqisi2
 1746 0624 1846     		mov	r0, r3
 1747 0626 FFF7FEFF 		bl	galois_mul2
 1748 062a 0346     		mov	r3, r0
 1749 062c 3B73     		strb	r3, [r7, #12]
 1750 062e 7B68     		ldr	r3, [r7, #4]
 1751 0630 03F10B03 		add	r3, r3, #11
 1752 0634 7A68     		ldr	r2, [r7, #4]
 1753 0636 02F10B02 		add	r2, r2, #11
 1754 063a 1178     		ldrb	r1, [r2, #0]	@ zero_extendqisi2
 1755 063c 3A7B     		ldrb	r2, [r7, #12]
 1756 063e 4A40     		eors	r2, r2, r1
 1757 0640 D1B2     		uxtb	r1, r2
 1758 0642 BA7B     		ldrb	r2, [r7, #14]
 1759 0644 4A40     		eors	r2, r2, r1
 1760 0646 D2B2     		uxtb	r2, r2
 1761 0648 1A70     		strb	r2, [r3, #0]
 230:../libraries/CC3000_Host_Driver/security.c ****     // col4
 231:../libraries/CC3000_Host_Driver/security.c ****     buf1 = state[12] ^ state[13] ^ state[14] ^ state[15];
 1762              		.loc 1 231 0 discriminator 2
 1763 064a 7B68     		ldr	r3, [r7, #4]
 1764 064c 03F10C03 		add	r3, r3, #12
 1765 0650 1A78     		ldrb	r2, [r3, #0]	@ zero_extendqisi2
 1766 0652 7B68     		ldr	r3, [r7, #4]
 1767 0654 03F10D03 		add	r3, r3, #13
 1768 0658 1B78     		ldrb	r3, [r3, #0]	@ zero_extendqisi2
 1769 065a 5340     		eors	r3, r3, r2
 1770 065c DAB2     		uxtb	r2, r3
 1771 065e 7B68     		ldr	r3, [r7, #4]
 1772 0660 03F10E03 		add	r3, r3, #14
 1773 0664 1B78     		ldrb	r3, [r3, #0]	@ zero_extendqisi2
 1774 0666 5340     		eors	r3, r3, r2
 1775 0668 DAB2     		uxtb	r2, r3
 1776 066a 7B68     		ldr	r3, [r7, #4]
 1777 066c 03F10F03 		add	r3, r3, #15
 1778 0670 1B78     		ldrb	r3, [r3, #0]	@ zero_extendqisi2
 1779 0672 5340     		eors	r3, r3, r2
 1780 0674 BB73     		strb	r3, [r7, #14]
 232:../libraries/CC3000_Host_Driver/security.c ****     buf2 = state[12];
 1781              		.loc 1 232 0 discriminator 2
 1782 0676 7B68     		ldr	r3, [r7, #4]
 1783 0678 1B7B     		ldrb	r3, [r3, #12]
 1784 067a 7B73     		strb	r3, [r7, #13]
 233:../libraries/CC3000_Host_Driver/security.c ****     buf3 = state[12]^state[13]; buf3=galois_mul2(buf3); state[12] = state[12] ^ buf3 ^ buf1;
 1785              		.loc 1 233 0 discriminator 2
 1786 067c 7B68     		ldr	r3, [r7, #4]
 1787 067e 03F10C03 		add	r3, r3, #12
 1788 0682 1A78     		ldrb	r2, [r3, #0]	@ zero_extendqisi2
 1789 0684 7B68     		ldr	r3, [r7, #4]
 1790 0686 03F10D03 		add	r3, r3, #13
 1791 068a 1B78     		ldrb	r3, [r3, #0]	@ zero_extendqisi2
 1792 068c 5340     		eors	r3, r3, r2
 1793 068e 3B73     		strb	r3, [r7, #12]
 1794 0690 3B7B     		ldrb	r3, [r7, #12]	@ zero_extendqisi2
 1795 0692 1846     		mov	r0, r3
 1796 0694 FFF7FEFF 		bl	galois_mul2
 1797 0698 0346     		mov	r3, r0
 1798 069a 3B73     		strb	r3, [r7, #12]
 1799 069c 7B68     		ldr	r3, [r7, #4]
 1800 069e 03F10C03 		add	r3, r3, #12
 1801 06a2 7A68     		ldr	r2, [r7, #4]
 1802 06a4 02F10C02 		add	r2, r2, #12
 1803 06a8 1178     		ldrb	r1, [r2, #0]	@ zero_extendqisi2
 1804 06aa 3A7B     		ldrb	r2, [r7, #12]
 1805 06ac 4A40     		eors	r2, r2, r1
 1806 06ae D1B2     		uxtb	r1, r2
 1807 06b0 BA7B     		ldrb	r2, [r7, #14]
 1808 06b2 4A40     		eors	r2, r2, r1
 1809 06b4 D2B2     		uxtb	r2, r2
 1810 06b6 1A70     		strb	r2, [r3, #0]
 234:../libraries/CC3000_Host_Driver/security.c ****     buf3 = state[13]^state[14]; buf3=galois_mul2(buf3); state[13] = state[13] ^ buf3 ^ buf1;
 1811              		.loc 1 234 0 discriminator 2
 1812 06b8 7B68     		ldr	r3, [r7, #4]
 1813 06ba 03F10D03 		add	r3, r3, #13
 1814 06be 1A78     		ldrb	r2, [r3, #0]	@ zero_extendqisi2
 1815 06c0 7B68     		ldr	r3, [r7, #4]
 1816 06c2 03F10E03 		add	r3, r3, #14
 1817 06c6 1B78     		ldrb	r3, [r3, #0]	@ zero_extendqisi2
 1818 06c8 5340     		eors	r3, r3, r2
 1819 06ca 3B73     		strb	r3, [r7, #12]
 1820 06cc 3B7B     		ldrb	r3, [r7, #12]	@ zero_extendqisi2
 1821 06ce 1846     		mov	r0, r3
 1822 06d0 FFF7FEFF 		bl	galois_mul2
 1823 06d4 0346     		mov	r3, r0
 1824 06d6 3B73     		strb	r3, [r7, #12]
 1825 06d8 7B68     		ldr	r3, [r7, #4]
 1826 06da 03F10D03 		add	r3, r3, #13
 1827 06de 7A68     		ldr	r2, [r7, #4]
 1828 06e0 02F10D02 		add	r2, r2, #13
 1829 06e4 1178     		ldrb	r1, [r2, #0]	@ zero_extendqisi2
 1830 06e6 3A7B     		ldrb	r2, [r7, #12]
 1831 06e8 4A40     		eors	r2, r2, r1
 1832 06ea D1B2     		uxtb	r1, r2
 1833 06ec BA7B     		ldrb	r2, [r7, #14]
 1834 06ee 4A40     		eors	r2, r2, r1
 1835 06f0 D2B2     		uxtb	r2, r2
 1836 06f2 1A70     		strb	r2, [r3, #0]
 235:../libraries/CC3000_Host_Driver/security.c ****     buf3 = state[14]^state[15]; buf3=galois_mul2(buf3); state[14] = state[14] ^ buf3 ^ buf1;
 1837              		.loc 1 235 0 discriminator 2
 1838 06f4 7B68     		ldr	r3, [r7, #4]
 1839 06f6 03F10E03 		add	r3, r3, #14
 1840 06fa 1A78     		ldrb	r2, [r3, #0]	@ zero_extendqisi2
 1841 06fc 7B68     		ldr	r3, [r7, #4]
 1842 06fe 03F10F03 		add	r3, r3, #15
 1843 0702 1B78     		ldrb	r3, [r3, #0]	@ zero_extendqisi2
 1844 0704 5340     		eors	r3, r3, r2
 1845 0706 3B73     		strb	r3, [r7, #12]
 1846 0708 3B7B     		ldrb	r3, [r7, #12]	@ zero_extendqisi2
 1847 070a 1846     		mov	r0, r3
 1848 070c FFF7FEFF 		bl	galois_mul2
 1849 0710 0346     		mov	r3, r0
 1850 0712 3B73     		strb	r3, [r7, #12]
 1851 0714 7B68     		ldr	r3, [r7, #4]
 1852 0716 03F10E03 		add	r3, r3, #14
 1853 071a 7A68     		ldr	r2, [r7, #4]
 1854 071c 02F10E02 		add	r2, r2, #14
 1855 0720 1178     		ldrb	r1, [r2, #0]	@ zero_extendqisi2
 1856 0722 3A7B     		ldrb	r2, [r7, #12]
 1857 0724 4A40     		eors	r2, r2, r1
 1858 0726 D1B2     		uxtb	r1, r2
 1859 0728 BA7B     		ldrb	r2, [r7, #14]
 1860 072a 4A40     		eors	r2, r2, r1
 1861 072c D2B2     		uxtb	r2, r2
 1862 072e 1A70     		strb	r2, [r3, #0]
 236:../libraries/CC3000_Host_Driver/security.c ****     buf3 = state[15]^buf2;      buf3=galois_mul2(buf3); state[15] = state[15] ^ buf3 ^ buf1;    
 1863              		.loc 1 236 0 discriminator 2
 1864 0730 7B68     		ldr	r3, [r7, #4]
 1865 0732 03F10F03 		add	r3, r3, #15
 1866 0736 1A78     		ldrb	r2, [r3, #0]	@ zero_extendqisi2
 1867 0738 7B7B     		ldrb	r3, [r7, #13]
 1868 073a 5340     		eors	r3, r3, r2
 1869 073c 3B73     		strb	r3, [r7, #12]
 1870 073e 3B7B     		ldrb	r3, [r7, #12]	@ zero_extendqisi2
 1871 0740 1846     		mov	r0, r3
 1872 0742 FFF7FEFF 		bl	galois_mul2
 1873 0746 0346     		mov	r3, r0
 1874 0748 3B73     		strb	r3, [r7, #12]
 1875 074a 7B68     		ldr	r3, [r7, #4]
 1876 074c 03F10F03 		add	r3, r3, #15
 1877 0750 7A68     		ldr	r2, [r7, #4]
 1878 0752 02F10F02 		add	r2, r2, #15
 1879 0756 1178     		ldrb	r1, [r2, #0]	@ zero_extendqisi2
 1880 0758 3A7B     		ldrb	r2, [r7, #12]
 1881 075a 4A40     		eors	r2, r2, r1
 1882 075c D1B2     		uxtb	r1, r2
 1883 075e BA7B     		ldrb	r2, [r7, #14]
 1884 0760 4A40     		eors	r2, r2, r1
 1885 0762 D2B2     		uxtb	r2, r2
 1886 0764 1A70     		strb	r2, [r3, #0]
 181:../libraries/CC3000_Host_Driver/security.c ****   for (round = 0; round < 9; round ++){
 1887              		.loc 1 181 0 discriminator 2
 1888 0766 FB7B     		ldrb	r3, [r7, #15]
 1889 0768 03F10103 		add	r3, r3, #1
 1890 076c FB73     		strb	r3, [r7, #15]
 1891              	.L10:
 181:../libraries/CC3000_Host_Driver/security.c ****   for (round = 0; round < 9; round ++){
 1892              		.loc 1 181 0 is_stmt 0 discriminator 1
 1893 076e FB7B     		ldrb	r3, [r7, #15]	@ zero_extendqisi2
 1894 0770 082B     		cmp	r3, #8
 1895 0772 7FF64EAC 		bls	.L11
 237:../libraries/CC3000_Host_Driver/security.c **** 		
 238:../libraries/CC3000_Host_Driver/security.c ****   }
 239:../libraries/CC3000_Host_Driver/security.c ****   // 10th round without mixcols
 240:../libraries/CC3000_Host_Driver/security.c ****   state[ 0]  = sbox[(state[ 0] ^ expandedKey[(round*16)     ])];
 1896              		.loc 1 240 0 is_stmt 1
 1897 0776 7B68     		ldr	r3, [r7, #4]
 1898 0778 1A78     		ldrb	r2, [r3, #0]	@ zero_extendqisi2
 1899 077a FB7B     		ldrb	r3, [r7, #15]	@ zero_extendqisi2
 1900 077c 4FEA0313 		lsl	r3, r3, #4
 1901 0780 3968     		ldr	r1, [r7, #0]
 1902 0782 CB18     		adds	r3, r1, r3
 1903 0784 1B78     		ldrb	r3, [r3, #0]	@ zero_extendqisi2
 1904 0786 5340     		eors	r3, r3, r2
 1905 0788 DBB2     		uxtb	r3, r3
 1906 078a 1A46     		mov	r2, r3
 1907 078c 40F20003 		movw	r3, #:lower16:sbox
 1908 0790 C0F20003 		movt	r3, #:upper16:sbox
 1909 0794 9A5C     		ldrb	r2, [r3, r2]	@ zero_extendqisi2
 1910 0796 7B68     		ldr	r3, [r7, #4]
 1911 0798 1A70     		strb	r2, [r3, #0]
 241:../libraries/CC3000_Host_Driver/security.c ****   state[ 4]  = sbox[(state[ 4] ^ expandedKey[(round*16) +  4])];
 1912              		.loc 1 241 0
 1913 079a 7B68     		ldr	r3, [r7, #4]
 1914 079c 03F10402 		add	r2, r3, #4
 1915 07a0 7B68     		ldr	r3, [r7, #4]
 1916 07a2 03F10403 		add	r3, r3, #4
 1917 07a6 1978     		ldrb	r1, [r3, #0]	@ zero_extendqisi2
 1918 07a8 FB7B     		ldrb	r3, [r7, #15]	@ zero_extendqisi2
 1919 07aa 4FEA0313 		lsl	r3, r3, #4
 1920 07ae 03F10403 		add	r3, r3, #4
 1921 07b2 3868     		ldr	r0, [r7, #0]
 1922 07b4 C318     		adds	r3, r0, r3
 1923 07b6 1B78     		ldrb	r3, [r3, #0]	@ zero_extendqisi2
 1924 07b8 4B40     		eors	r3, r3, r1
 1925 07ba DBB2     		uxtb	r3, r3
 1926 07bc 1946     		mov	r1, r3
 1927 07be 40F20003 		movw	r3, #:lower16:sbox
 1928 07c2 C0F20003 		movt	r3, #:upper16:sbox
 1929 07c6 5B5C     		ldrb	r3, [r3, r1]	@ zero_extendqisi2
 1930 07c8 1370     		strb	r3, [r2, #0]
 242:../libraries/CC3000_Host_Driver/security.c ****   state[ 8]  = sbox[(state[ 8] ^ expandedKey[(round*16) +  8])];
 1931              		.loc 1 242 0
 1932 07ca 7B68     		ldr	r3, [r7, #4]
 1933 07cc 03F10802 		add	r2, r3, #8
 1934 07d0 7B68     		ldr	r3, [r7, #4]
 1935 07d2 03F10803 		add	r3, r3, #8
 1936 07d6 1978     		ldrb	r1, [r3, #0]	@ zero_extendqisi2
 1937 07d8 FB7B     		ldrb	r3, [r7, #15]	@ zero_extendqisi2
 1938 07da 4FEA0313 		lsl	r3, r3, #4
 1939 07de 03F10803 		add	r3, r3, #8
 1940 07e2 3868     		ldr	r0, [r7, #0]
 1941 07e4 C318     		adds	r3, r0, r3
 1942 07e6 1B78     		ldrb	r3, [r3, #0]	@ zero_extendqisi2
 1943 07e8 4B40     		eors	r3, r3, r1
 1944 07ea DBB2     		uxtb	r3, r3
 1945 07ec 1946     		mov	r1, r3
 1946 07ee 40F20003 		movw	r3, #:lower16:sbox
 1947 07f2 C0F20003 		movt	r3, #:upper16:sbox
 1948 07f6 5B5C     		ldrb	r3, [r3, r1]	@ zero_extendqisi2
 1949 07f8 1370     		strb	r3, [r2, #0]
 243:../libraries/CC3000_Host_Driver/security.c ****   state[12]  = sbox[(state[12] ^ expandedKey[(round*16) + 12])];
 1950              		.loc 1 243 0
 1951 07fa 7B68     		ldr	r3, [r7, #4]
 1952 07fc 03F10C02 		add	r2, r3, #12
 1953 0800 7B68     		ldr	r3, [r7, #4]
 1954 0802 03F10C03 		add	r3, r3, #12
 1955 0806 1978     		ldrb	r1, [r3, #0]	@ zero_extendqisi2
 1956 0808 FB7B     		ldrb	r3, [r7, #15]	@ zero_extendqisi2
 1957 080a 4FEA0313 		lsl	r3, r3, #4
 1958 080e 03F10C03 		add	r3, r3, #12
 1959 0812 3868     		ldr	r0, [r7, #0]
 1960 0814 C318     		adds	r3, r0, r3
 1961 0816 1B78     		ldrb	r3, [r3, #0]	@ zero_extendqisi2
 1962 0818 4B40     		eors	r3, r3, r1
 1963 081a DBB2     		uxtb	r3, r3
 1964 081c 1946     		mov	r1, r3
 1965 081e 40F20003 		movw	r3, #:lower16:sbox
 1966 0822 C0F20003 		movt	r3, #:upper16:sbox
 1967 0826 5B5C     		ldrb	r3, [r3, r1]	@ zero_extendqisi2
 1968 0828 1370     		strb	r3, [r2, #0]
 244:../libraries/CC3000_Host_Driver/security.c ****   // row 1
 245:../libraries/CC3000_Host_Driver/security.c ****   buf1 = state[1] ^ expandedKey[(round*16) + 1];
 1969              		.loc 1 245 0
 1970 082a 7B68     		ldr	r3, [r7, #4]
 1971 082c 03F10103 		add	r3, r3, #1
 1972 0830 1A78     		ldrb	r2, [r3, #0]	@ zero_extendqisi2
 1973 0832 FB7B     		ldrb	r3, [r7, #15]	@ zero_extendqisi2
 1974 0834 4FEA0313 		lsl	r3, r3, #4
 1975 0838 03F10103 		add	r3, r3, #1
 1976 083c 3968     		ldr	r1, [r7, #0]
 1977 083e CB18     		adds	r3, r1, r3
 1978 0840 1B78     		ldrb	r3, [r3, #0]	@ zero_extendqisi2
 1979 0842 5340     		eors	r3, r3, r2
 1980 0844 BB73     		strb	r3, [r7, #14]
 246:../libraries/CC3000_Host_Driver/security.c ****   state[ 1]  = sbox[(state[ 5] ^ expandedKey[(round*16) +  5])];
 1981              		.loc 1 246 0
 1982 0846 7B68     		ldr	r3, [r7, #4]
 1983 0848 03F10102 		add	r2, r3, #1
 1984 084c 7B68     		ldr	r3, [r7, #4]
 1985 084e 03F10503 		add	r3, r3, #5
 1986 0852 1978     		ldrb	r1, [r3, #0]	@ zero_extendqisi2
 1987 0854 FB7B     		ldrb	r3, [r7, #15]	@ zero_extendqisi2
 1988 0856 4FEA0313 		lsl	r3, r3, #4
 1989 085a 03F10503 		add	r3, r3, #5
 1990 085e 3868     		ldr	r0, [r7, #0]
 1991 0860 C318     		adds	r3, r0, r3
 1992 0862 1B78     		ldrb	r3, [r3, #0]	@ zero_extendqisi2
 1993 0864 4B40     		eors	r3, r3, r1
 1994 0866 DBB2     		uxtb	r3, r3
 1995 0868 1946     		mov	r1, r3
 1996 086a 40F20003 		movw	r3, #:lower16:sbox
 1997 086e C0F20003 		movt	r3, #:upper16:sbox
 1998 0872 5B5C     		ldrb	r3, [r3, r1]	@ zero_extendqisi2
 1999 0874 1370     		strb	r3, [r2, #0]
 247:../libraries/CC3000_Host_Driver/security.c ****   state[ 5]  = sbox[(state[ 9] ^ expandedKey[(round*16) +  9])];
 2000              		.loc 1 247 0
 2001 0876 7B68     		ldr	r3, [r7, #4]
 2002 0878 03F10502 		add	r2, r3, #5
 2003 087c 7B68     		ldr	r3, [r7, #4]
 2004 087e 03F10903 		add	r3, r3, #9
 2005 0882 1978     		ldrb	r1, [r3, #0]	@ zero_extendqisi2
 2006 0884 FB7B     		ldrb	r3, [r7, #15]	@ zero_extendqisi2
 2007 0886 4FEA0313 		lsl	r3, r3, #4
 2008 088a 03F10903 		add	r3, r3, #9
 2009 088e 3868     		ldr	r0, [r7, #0]
 2010 0890 C318     		adds	r3, r0, r3
 2011 0892 1B78     		ldrb	r3, [r3, #0]	@ zero_extendqisi2
 2012 0894 4B40     		eors	r3, r3, r1
 2013 0896 DBB2     		uxtb	r3, r3
 2014 0898 1946     		mov	r1, r3
 2015 089a 40F20003 		movw	r3, #:lower16:sbox
 2016 089e C0F20003 		movt	r3, #:upper16:sbox
 2017 08a2 5B5C     		ldrb	r3, [r3, r1]	@ zero_extendqisi2
 2018 08a4 1370     		strb	r3, [r2, #0]
 248:../libraries/CC3000_Host_Driver/security.c ****   state[ 9]  = sbox[(state[13] ^ expandedKey[(round*16) + 13])];
 2019              		.loc 1 248 0
 2020 08a6 7B68     		ldr	r3, [r7, #4]
 2021 08a8 03F10902 		add	r2, r3, #9
 2022 08ac 7B68     		ldr	r3, [r7, #4]
 2023 08ae 03F10D03 		add	r3, r3, #13
 2024 08b2 1978     		ldrb	r1, [r3, #0]	@ zero_extendqisi2
 2025 08b4 FB7B     		ldrb	r3, [r7, #15]	@ zero_extendqisi2
 2026 08b6 4FEA0313 		lsl	r3, r3, #4
 2027 08ba 03F10D03 		add	r3, r3, #13
 2028 08be 3868     		ldr	r0, [r7, #0]
 2029 08c0 C318     		adds	r3, r0, r3
 2030 08c2 1B78     		ldrb	r3, [r3, #0]	@ zero_extendqisi2
 2031 08c4 4B40     		eors	r3, r3, r1
 2032 08c6 DBB2     		uxtb	r3, r3
 2033 08c8 1946     		mov	r1, r3
 2034 08ca 40F20003 		movw	r3, #:lower16:sbox
 2035 08ce C0F20003 		movt	r3, #:upper16:sbox
 2036 08d2 5B5C     		ldrb	r3, [r3, r1]	@ zero_extendqisi2
 2037 08d4 1370     		strb	r3, [r2, #0]
 249:../libraries/CC3000_Host_Driver/security.c ****   state[13]  = sbox[buf1];
 2038              		.loc 1 249 0
 2039 08d6 7B68     		ldr	r3, [r7, #4]
 2040 08d8 03F10D02 		add	r2, r3, #13
 2041 08dc B97B     		ldrb	r1, [r7, #14]	@ zero_extendqisi2
 2042 08de 40F20003 		movw	r3, #:lower16:sbox
 2043 08e2 C0F20003 		movt	r3, #:upper16:sbox
 2044 08e6 5B5C     		ldrb	r3, [r3, r1]	@ zero_extendqisi2
 2045 08e8 1370     		strb	r3, [r2, #0]
 250:../libraries/CC3000_Host_Driver/security.c ****   // row 2
 251:../libraries/CC3000_Host_Driver/security.c ****   buf1 = state[2] ^ expandedKey[(round*16) + 2];
 2046              		.loc 1 251 0
 2047 08ea 7B68     		ldr	r3, [r7, #4]
 2048 08ec 03F10203 		add	r3, r3, #2
 2049 08f0 1A78     		ldrb	r2, [r3, #0]	@ zero_extendqisi2
 2050 08f2 FB7B     		ldrb	r3, [r7, #15]	@ zero_extendqisi2
 2051 08f4 4FEA0313 		lsl	r3, r3, #4
 2052 08f8 03F10203 		add	r3, r3, #2
 2053 08fc 3968     		ldr	r1, [r7, #0]
 2054 08fe CB18     		adds	r3, r1, r3
 2055 0900 1B78     		ldrb	r3, [r3, #0]	@ zero_extendqisi2
 2056 0902 5340     		eors	r3, r3, r2
 2057 0904 BB73     		strb	r3, [r7, #14]
 252:../libraries/CC3000_Host_Driver/security.c ****   buf2 = state[6] ^ expandedKey[(round*16) + 6];
 2058              		.loc 1 252 0
 2059 0906 7B68     		ldr	r3, [r7, #4]
 2060 0908 03F10603 		add	r3, r3, #6
 2061 090c 1A78     		ldrb	r2, [r3, #0]	@ zero_extendqisi2
 2062 090e FB7B     		ldrb	r3, [r7, #15]	@ zero_extendqisi2
 2063 0910 4FEA0313 		lsl	r3, r3, #4
 2064 0914 03F10603 		add	r3, r3, #6
 2065 0918 3968     		ldr	r1, [r7, #0]
 2066 091a CB18     		adds	r3, r1, r3
 2067 091c 1B78     		ldrb	r3, [r3, #0]	@ zero_extendqisi2
 2068 091e 5340     		eors	r3, r3, r2
 2069 0920 7B73     		strb	r3, [r7, #13]
 253:../libraries/CC3000_Host_Driver/security.c ****   state[ 2]  = sbox[(state[10] ^ expandedKey[(round*16) + 10])];
 2070              		.loc 1 253 0
 2071 0922 7B68     		ldr	r3, [r7, #4]
 2072 0924 03F10202 		add	r2, r3, #2
 2073 0928 7B68     		ldr	r3, [r7, #4]
 2074 092a 03F10A03 		add	r3, r3, #10
 2075 092e 1978     		ldrb	r1, [r3, #0]	@ zero_extendqisi2
 2076 0930 FB7B     		ldrb	r3, [r7, #15]	@ zero_extendqisi2
 2077 0932 4FEA0313 		lsl	r3, r3, #4
 2078 0936 03F10A03 		add	r3, r3, #10
 2079 093a 3868     		ldr	r0, [r7, #0]
 2080 093c C318     		adds	r3, r0, r3
 2081 093e 1B78     		ldrb	r3, [r3, #0]	@ zero_extendqisi2
 2082 0940 4B40     		eors	r3, r3, r1
 2083 0942 DBB2     		uxtb	r3, r3
 2084 0944 1946     		mov	r1, r3
 2085 0946 40F20003 		movw	r3, #:lower16:sbox
 2086 094a C0F20003 		movt	r3, #:upper16:sbox
 2087 094e 5B5C     		ldrb	r3, [r3, r1]	@ zero_extendqisi2
 2088 0950 1370     		strb	r3, [r2, #0]
 254:../libraries/CC3000_Host_Driver/security.c ****   state[ 6]  = sbox[(state[14] ^ expandedKey[(round*16) + 14])];
 2089              		.loc 1 254 0
 2090 0952 7B68     		ldr	r3, [r7, #4]
 2091 0954 03F10602 		add	r2, r3, #6
 2092 0958 7B68     		ldr	r3, [r7, #4]
 2093 095a 03F10E03 		add	r3, r3, #14
 2094 095e 1978     		ldrb	r1, [r3, #0]	@ zero_extendqisi2
 2095 0960 FB7B     		ldrb	r3, [r7, #15]	@ zero_extendqisi2
 2096 0962 4FEA0313 		lsl	r3, r3, #4
 2097 0966 03F10E03 		add	r3, r3, #14
 2098 096a 3868     		ldr	r0, [r7, #0]
 2099 096c C318     		adds	r3, r0, r3
 2100 096e 1B78     		ldrb	r3, [r3, #0]	@ zero_extendqisi2
 2101 0970 4B40     		eors	r3, r3, r1
 2102 0972 DBB2     		uxtb	r3, r3
 2103 0974 1946     		mov	r1, r3
 2104 0976 40F20003 		movw	r3, #:lower16:sbox
 2105 097a C0F20003 		movt	r3, #:upper16:sbox
 2106 097e 5B5C     		ldrb	r3, [r3, r1]	@ zero_extendqisi2
 2107 0980 1370     		strb	r3, [r2, #0]
 255:../libraries/CC3000_Host_Driver/security.c ****   state[10]  = sbox[buf1];
 2108              		.loc 1 255 0
 2109 0982 7B68     		ldr	r3, [r7, #4]
 2110 0984 03F10A02 		add	r2, r3, #10
 2111 0988 B97B     		ldrb	r1, [r7, #14]	@ zero_extendqisi2
 2112 098a 40F20003 		movw	r3, #:lower16:sbox
 2113 098e C0F20003 		movt	r3, #:upper16:sbox
 2114 0992 5B5C     		ldrb	r3, [r3, r1]	@ zero_extendqisi2
 2115 0994 1370     		strb	r3, [r2, #0]
 256:../libraries/CC3000_Host_Driver/security.c ****   state[14]  = sbox[buf2];
 2116              		.loc 1 256 0
 2117 0996 7B68     		ldr	r3, [r7, #4]
 2118 0998 03F10E02 		add	r2, r3, #14
 2119 099c 797B     		ldrb	r1, [r7, #13]	@ zero_extendqisi2
 2120 099e 40F20003 		movw	r3, #:lower16:sbox
 2121 09a2 C0F20003 		movt	r3, #:upper16:sbox
 2122 09a6 5B5C     		ldrb	r3, [r3, r1]	@ zero_extendqisi2
 2123 09a8 1370     		strb	r3, [r2, #0]
 257:../libraries/CC3000_Host_Driver/security.c ****   // row 3
 258:../libraries/CC3000_Host_Driver/security.c ****   buf1 = state[15] ^ expandedKey[(round*16) + 15];
 2124              		.loc 1 258 0
 2125 09aa 7B68     		ldr	r3, [r7, #4]
 2126 09ac 03F10F03 		add	r3, r3, #15
 2127 09b0 1A78     		ldrb	r2, [r3, #0]	@ zero_extendqisi2
 2128 09b2 FB7B     		ldrb	r3, [r7, #15]	@ zero_extendqisi2
 2129 09b4 4FEA0313 		lsl	r3, r3, #4
 2130 09b8 03F10F03 		add	r3, r3, #15
 2131 09bc 3968     		ldr	r1, [r7, #0]
 2132 09be CB18     		adds	r3, r1, r3
 2133 09c0 1B78     		ldrb	r3, [r3, #0]	@ zero_extendqisi2
 2134 09c2 5340     		eors	r3, r3, r2
 2135 09c4 BB73     		strb	r3, [r7, #14]
 259:../libraries/CC3000_Host_Driver/security.c ****   state[15]  = sbox[(state[11] ^ expandedKey[(round*16) + 11])];
 2136              		.loc 1 259 0
 2137 09c6 7B68     		ldr	r3, [r7, #4]
 2138 09c8 03F10F02 		add	r2, r3, #15
 2139 09cc 7B68     		ldr	r3, [r7, #4]
 2140 09ce 03F10B03 		add	r3, r3, #11
 2141 09d2 1978     		ldrb	r1, [r3, #0]	@ zero_extendqisi2
 2142 09d4 FB7B     		ldrb	r3, [r7, #15]	@ zero_extendqisi2
 2143 09d6 4FEA0313 		lsl	r3, r3, #4
 2144 09da 03F10B03 		add	r3, r3, #11
 2145 09de 3868     		ldr	r0, [r7, #0]
 2146 09e0 C318     		adds	r3, r0, r3
 2147 09e2 1B78     		ldrb	r3, [r3, #0]	@ zero_extendqisi2
 2148 09e4 4B40     		eors	r3, r3, r1
 2149 09e6 DBB2     		uxtb	r3, r3
 2150 09e8 1946     		mov	r1, r3
 2151 09ea 40F20003 		movw	r3, #:lower16:sbox
 2152 09ee C0F20003 		movt	r3, #:upper16:sbox
 2153 09f2 5B5C     		ldrb	r3, [r3, r1]	@ zero_extendqisi2
 2154 09f4 1370     		strb	r3, [r2, #0]
 260:../libraries/CC3000_Host_Driver/security.c ****   state[11]  = sbox[(state[ 7] ^ expandedKey[(round*16) +  7])];
 2155              		.loc 1 260 0
 2156 09f6 7B68     		ldr	r3, [r7, #4]
 2157 09f8 03F10B02 		add	r2, r3, #11
 2158 09fc 7B68     		ldr	r3, [r7, #4]
 2159 09fe 03F10703 		add	r3, r3, #7
 2160 0a02 1978     		ldrb	r1, [r3, #0]	@ zero_extendqisi2
 2161 0a04 FB7B     		ldrb	r3, [r7, #15]	@ zero_extendqisi2
 2162 0a06 4FEA0313 		lsl	r3, r3, #4
 2163 0a0a 03F10703 		add	r3, r3, #7
 2164 0a0e 3868     		ldr	r0, [r7, #0]
 2165 0a10 C318     		adds	r3, r0, r3
 2166 0a12 1B78     		ldrb	r3, [r3, #0]	@ zero_extendqisi2
 2167 0a14 4B40     		eors	r3, r3, r1
 2168 0a16 DBB2     		uxtb	r3, r3
 2169 0a18 1946     		mov	r1, r3
 2170 0a1a 40F20003 		movw	r3, #:lower16:sbox
 2171 0a1e C0F20003 		movt	r3, #:upper16:sbox
 2172 0a22 5B5C     		ldrb	r3, [r3, r1]	@ zero_extendqisi2
 2173 0a24 1370     		strb	r3, [r2, #0]
 261:../libraries/CC3000_Host_Driver/security.c ****   state[ 7]  = sbox[(state[ 3] ^ expandedKey[(round*16) +  3])];
 2174              		.loc 1 261 0
 2175 0a26 7B68     		ldr	r3, [r7, #4]
 2176 0a28 03F10702 		add	r2, r3, #7
 2177 0a2c 7B68     		ldr	r3, [r7, #4]
 2178 0a2e 03F10303 		add	r3, r3, #3
 2179 0a32 1978     		ldrb	r1, [r3, #0]	@ zero_extendqisi2
 2180 0a34 FB7B     		ldrb	r3, [r7, #15]	@ zero_extendqisi2
 2181 0a36 4FEA0313 		lsl	r3, r3, #4
 2182 0a3a 03F10303 		add	r3, r3, #3
 2183 0a3e 3868     		ldr	r0, [r7, #0]
 2184 0a40 C318     		adds	r3, r0, r3
 2185 0a42 1B78     		ldrb	r3, [r3, #0]	@ zero_extendqisi2
 2186 0a44 4B40     		eors	r3, r3, r1
 2187 0a46 DBB2     		uxtb	r3, r3
 2188 0a48 1946     		mov	r1, r3
 2189 0a4a 40F20003 		movw	r3, #:lower16:sbox
 2190 0a4e C0F20003 		movt	r3, #:upper16:sbox
 2191 0a52 5B5C     		ldrb	r3, [r3, r1]	@ zero_extendqisi2
 2192 0a54 1370     		strb	r3, [r2, #0]
 262:../libraries/CC3000_Host_Driver/security.c ****   state[ 3]  = sbox[buf1];
 2193              		.loc 1 262 0
 2194 0a56 7B68     		ldr	r3, [r7, #4]
 2195 0a58 03F10302 		add	r2, r3, #3
 2196 0a5c B97B     		ldrb	r1, [r7, #14]	@ zero_extendqisi2
 2197 0a5e 40F20003 		movw	r3, #:lower16:sbox
 2198 0a62 C0F20003 		movt	r3, #:upper16:sbox
 2199 0a66 5B5C     		ldrb	r3, [r3, r1]	@ zero_extendqisi2
 2200 0a68 1370     		strb	r3, [r2, #0]
 263:../libraries/CC3000_Host_Driver/security.c ****   // last addroundkey
 264:../libraries/CC3000_Host_Driver/security.c ****   state[ 0]^=expandedKey[160];
 2201              		.loc 1 264 0
 2202 0a6a 7B68     		ldr	r3, [r7, #4]
 2203 0a6c 1A78     		ldrb	r2, [r3, #0]	@ zero_extendqisi2
 2204 0a6e 3B68     		ldr	r3, [r7, #0]
 2205 0a70 03F1A003 		add	r3, r3, #160
 2206 0a74 1B78     		ldrb	r3, [r3, #0]	@ zero_extendqisi2
 2207 0a76 5340     		eors	r3, r3, r2
 2208 0a78 DAB2     		uxtb	r2, r3
 2209 0a7a 7B68     		ldr	r3, [r7, #4]
 2210 0a7c 1A70     		strb	r2, [r3, #0]
 265:../libraries/CC3000_Host_Driver/security.c ****   state[ 1]^=expandedKey[161];
 2211              		.loc 1 265 0
 2212 0a7e 7B68     		ldr	r3, [r7, #4]
 2213 0a80 03F10103 		add	r3, r3, #1
 2214 0a84 7A68     		ldr	r2, [r7, #4]
 2215 0a86 02F10102 		add	r2, r2, #1
 2216 0a8a 1178     		ldrb	r1, [r2, #0]	@ zero_extendqisi2
 2217 0a8c 3A68     		ldr	r2, [r7, #0]
 2218 0a8e 02F1A102 		add	r2, r2, #161
 2219 0a92 1278     		ldrb	r2, [r2, #0]	@ zero_extendqisi2
 2220 0a94 4A40     		eors	r2, r2, r1
 2221 0a96 D2B2     		uxtb	r2, r2
 2222 0a98 1A70     		strb	r2, [r3, #0]
 266:../libraries/CC3000_Host_Driver/security.c ****   state[ 2]^=expandedKey[162];
 2223              		.loc 1 266 0
 2224 0a9a 7B68     		ldr	r3, [r7, #4]
 2225 0a9c 03F10203 		add	r3, r3, #2
 2226 0aa0 7A68     		ldr	r2, [r7, #4]
 2227 0aa2 02F10202 		add	r2, r2, #2
 2228 0aa6 1178     		ldrb	r1, [r2, #0]	@ zero_extendqisi2
 2229 0aa8 3A68     		ldr	r2, [r7, #0]
 2230 0aaa 02F1A202 		add	r2, r2, #162
 2231 0aae 1278     		ldrb	r2, [r2, #0]	@ zero_extendqisi2
 2232 0ab0 4A40     		eors	r2, r2, r1
 2233 0ab2 D2B2     		uxtb	r2, r2
 2234 0ab4 1A70     		strb	r2, [r3, #0]
 267:../libraries/CC3000_Host_Driver/security.c ****   state[ 3]^=expandedKey[163];
 2235              		.loc 1 267 0
 2236 0ab6 7B68     		ldr	r3, [r7, #4]
 2237 0ab8 03F10303 		add	r3, r3, #3
 2238 0abc 7A68     		ldr	r2, [r7, #4]
 2239 0abe 02F10302 		add	r2, r2, #3
 2240 0ac2 1178     		ldrb	r1, [r2, #0]	@ zero_extendqisi2
 2241 0ac4 3A68     		ldr	r2, [r7, #0]
 2242 0ac6 02F1A302 		add	r2, r2, #163
 2243 0aca 1278     		ldrb	r2, [r2, #0]	@ zero_extendqisi2
 2244 0acc 4A40     		eors	r2, r2, r1
 2245 0ace D2B2     		uxtb	r2, r2
 2246 0ad0 1A70     		strb	r2, [r3, #0]
 268:../libraries/CC3000_Host_Driver/security.c ****   state[ 4]^=expandedKey[164];
 2247              		.loc 1 268 0
 2248 0ad2 7B68     		ldr	r3, [r7, #4]
 2249 0ad4 03F10403 		add	r3, r3, #4
 2250 0ad8 7A68     		ldr	r2, [r7, #4]
 2251 0ada 02F10402 		add	r2, r2, #4
 2252 0ade 1178     		ldrb	r1, [r2, #0]	@ zero_extendqisi2
 2253 0ae0 3A68     		ldr	r2, [r7, #0]
 2254 0ae2 02F1A402 		add	r2, r2, #164
 2255 0ae6 1278     		ldrb	r2, [r2, #0]	@ zero_extendqisi2
 2256 0ae8 4A40     		eors	r2, r2, r1
 2257 0aea D2B2     		uxtb	r2, r2
 2258 0aec 1A70     		strb	r2, [r3, #0]
 269:../libraries/CC3000_Host_Driver/security.c ****   state[ 5]^=expandedKey[165];
 2259              		.loc 1 269 0
 2260 0aee 7B68     		ldr	r3, [r7, #4]
 2261 0af0 03F10503 		add	r3, r3, #5
 2262 0af4 7A68     		ldr	r2, [r7, #4]
 2263 0af6 02F10502 		add	r2, r2, #5
 2264 0afa 1178     		ldrb	r1, [r2, #0]	@ zero_extendqisi2
 2265 0afc 3A68     		ldr	r2, [r7, #0]
 2266 0afe 02F1A502 		add	r2, r2, #165
 2267 0b02 1278     		ldrb	r2, [r2, #0]	@ zero_extendqisi2
 2268 0b04 4A40     		eors	r2, r2, r1
 2269 0b06 D2B2     		uxtb	r2, r2
 2270 0b08 1A70     		strb	r2, [r3, #0]
 270:../libraries/CC3000_Host_Driver/security.c ****   state[ 6]^=expandedKey[166];
 2271              		.loc 1 270 0
 2272 0b0a 7B68     		ldr	r3, [r7, #4]
 2273 0b0c 03F10603 		add	r3, r3, #6
 2274 0b10 7A68     		ldr	r2, [r7, #4]
 2275 0b12 02F10602 		add	r2, r2, #6
 2276 0b16 1178     		ldrb	r1, [r2, #0]	@ zero_extendqisi2
 2277 0b18 3A68     		ldr	r2, [r7, #0]
 2278 0b1a 02F1A602 		add	r2, r2, #166
 2279 0b1e 1278     		ldrb	r2, [r2, #0]	@ zero_extendqisi2
 2280 0b20 4A40     		eors	r2, r2, r1
 2281 0b22 D2B2     		uxtb	r2, r2
 2282 0b24 1A70     		strb	r2, [r3, #0]
 271:../libraries/CC3000_Host_Driver/security.c ****   state[ 7]^=expandedKey[167];
 2283              		.loc 1 271 0
 2284 0b26 7B68     		ldr	r3, [r7, #4]
 2285 0b28 03F10703 		add	r3, r3, #7
 2286 0b2c 7A68     		ldr	r2, [r7, #4]
 2287 0b2e 02F10702 		add	r2, r2, #7
 2288 0b32 1178     		ldrb	r1, [r2, #0]	@ zero_extendqisi2
 2289 0b34 3A68     		ldr	r2, [r7, #0]
 2290 0b36 02F1A702 		add	r2, r2, #167
 2291 0b3a 1278     		ldrb	r2, [r2, #0]	@ zero_extendqisi2
 2292 0b3c 4A40     		eors	r2, r2, r1
 2293 0b3e D2B2     		uxtb	r2, r2
 2294 0b40 1A70     		strb	r2, [r3, #0]
 272:../libraries/CC3000_Host_Driver/security.c ****   state[ 8]^=expandedKey[168];
 2295              		.loc 1 272 0
 2296 0b42 7B68     		ldr	r3, [r7, #4]
 2297 0b44 03F10803 		add	r3, r3, #8
 2298 0b48 7A68     		ldr	r2, [r7, #4]
 2299 0b4a 02F10802 		add	r2, r2, #8
 2300 0b4e 1178     		ldrb	r1, [r2, #0]	@ zero_extendqisi2
 2301 0b50 3A68     		ldr	r2, [r7, #0]
 2302 0b52 02F1A802 		add	r2, r2, #168
 2303 0b56 1278     		ldrb	r2, [r2, #0]	@ zero_extendqisi2
 2304 0b58 4A40     		eors	r2, r2, r1
 2305 0b5a D2B2     		uxtb	r2, r2
 2306 0b5c 1A70     		strb	r2, [r3, #0]
 273:../libraries/CC3000_Host_Driver/security.c ****   state[ 9]^=expandedKey[169];
 2307              		.loc 1 273 0
 2308 0b5e 7B68     		ldr	r3, [r7, #4]
 2309 0b60 03F10903 		add	r3, r3, #9
 2310 0b64 7A68     		ldr	r2, [r7, #4]
 2311 0b66 02F10902 		add	r2, r2, #9
 2312 0b6a 1178     		ldrb	r1, [r2, #0]	@ zero_extendqisi2
 2313 0b6c 3A68     		ldr	r2, [r7, #0]
 2314 0b6e 02F1A902 		add	r2, r2, #169
 2315 0b72 1278     		ldrb	r2, [r2, #0]	@ zero_extendqisi2
 2316 0b74 4A40     		eors	r2, r2, r1
 2317 0b76 D2B2     		uxtb	r2, r2
 2318 0b78 1A70     		strb	r2, [r3, #0]
 274:../libraries/CC3000_Host_Driver/security.c ****   state[10]^=expandedKey[170];
 2319              		.loc 1 274 0
 2320 0b7a 7B68     		ldr	r3, [r7, #4]
 2321 0b7c 03F10A03 		add	r3, r3, #10
 2322 0b80 7A68     		ldr	r2, [r7, #4]
 2323 0b82 02F10A02 		add	r2, r2, #10
 2324 0b86 1178     		ldrb	r1, [r2, #0]	@ zero_extendqisi2
 2325 0b88 3A68     		ldr	r2, [r7, #0]
 2326 0b8a 02F1AA02 		add	r2, r2, #170
 2327 0b8e 1278     		ldrb	r2, [r2, #0]	@ zero_extendqisi2
 2328 0b90 4A40     		eors	r2, r2, r1
 2329 0b92 D2B2     		uxtb	r2, r2
 2330 0b94 1A70     		strb	r2, [r3, #0]
 275:../libraries/CC3000_Host_Driver/security.c ****   state[11]^=expandedKey[171];
 2331              		.loc 1 275 0
 2332 0b96 7B68     		ldr	r3, [r7, #4]
 2333 0b98 03F10B03 		add	r3, r3, #11
 2334 0b9c 7A68     		ldr	r2, [r7, #4]
 2335 0b9e 02F10B02 		add	r2, r2, #11
 2336 0ba2 1178     		ldrb	r1, [r2, #0]	@ zero_extendqisi2
 2337 0ba4 3A68     		ldr	r2, [r7, #0]
 2338 0ba6 02F1AB02 		add	r2, r2, #171
 2339 0baa 1278     		ldrb	r2, [r2, #0]	@ zero_extendqisi2
 2340 0bac 4A40     		eors	r2, r2, r1
 2341 0bae D2B2     		uxtb	r2, r2
 2342 0bb0 1A70     		strb	r2, [r3, #0]
 276:../libraries/CC3000_Host_Driver/security.c ****   state[12]^=expandedKey[172];
 2343              		.loc 1 276 0
 2344 0bb2 7B68     		ldr	r3, [r7, #4]
 2345 0bb4 03F10C03 		add	r3, r3, #12
 2346 0bb8 7A68     		ldr	r2, [r7, #4]
 2347 0bba 02F10C02 		add	r2, r2, #12
 2348 0bbe 1178     		ldrb	r1, [r2, #0]	@ zero_extendqisi2
 2349 0bc0 3A68     		ldr	r2, [r7, #0]
 2350 0bc2 02F1AC02 		add	r2, r2, #172
 2351 0bc6 1278     		ldrb	r2, [r2, #0]	@ zero_extendqisi2
 2352 0bc8 4A40     		eors	r2, r2, r1
 2353 0bca D2B2     		uxtb	r2, r2
 2354 0bcc 1A70     		strb	r2, [r3, #0]
 277:../libraries/CC3000_Host_Driver/security.c ****   state[13]^=expandedKey[173];
 2355              		.loc 1 277 0
 2356 0bce 7B68     		ldr	r3, [r7, #4]
 2357 0bd0 03F10D03 		add	r3, r3, #13
 2358 0bd4 7A68     		ldr	r2, [r7, #4]
 2359 0bd6 02F10D02 		add	r2, r2, #13
 2360 0bda 1178     		ldrb	r1, [r2, #0]	@ zero_extendqisi2
 2361 0bdc 3A68     		ldr	r2, [r7, #0]
 2362 0bde 02F1AD02 		add	r2, r2, #173
 2363 0be2 1278     		ldrb	r2, [r2, #0]	@ zero_extendqisi2
 2364 0be4 4A40     		eors	r2, r2, r1
 2365 0be6 D2B2     		uxtb	r2, r2
 2366 0be8 1A70     		strb	r2, [r3, #0]
 278:../libraries/CC3000_Host_Driver/security.c ****   state[14]^=expandedKey[174]; 
 2367              		.loc 1 278 0
 2368 0bea 7B68     		ldr	r3, [r7, #4]
 2369 0bec 03F10E03 		add	r3, r3, #14
 2370 0bf0 7A68     		ldr	r2, [r7, #4]
 2371 0bf2 02F10E02 		add	r2, r2, #14
 2372 0bf6 1178     		ldrb	r1, [r2, #0]	@ zero_extendqisi2
 2373 0bf8 3A68     		ldr	r2, [r7, #0]
 2374 0bfa 02F1AE02 		add	r2, r2, #174
 2375 0bfe 1278     		ldrb	r2, [r2, #0]	@ zero_extendqisi2
 2376 0c00 4A40     		eors	r2, r2, r1
 2377 0c02 D2B2     		uxtb	r2, r2
 2378 0c04 1A70     		strb	r2, [r3, #0]
 279:../libraries/CC3000_Host_Driver/security.c ****   state[15]^=expandedKey[175];
 2379              		.loc 1 279 0
 2380 0c06 7B68     		ldr	r3, [r7, #4]
 2381 0c08 03F10F03 		add	r3, r3, #15
 2382 0c0c 7A68     		ldr	r2, [r7, #4]
 2383 0c0e 02F10F02 		add	r2, r2, #15
 2384 0c12 1178     		ldrb	r1, [r2, #0]	@ zero_extendqisi2
 2385 0c14 3A68     		ldr	r2, [r7, #0]
 2386 0c16 02F1AF02 		add	r2, r2, #175
 2387 0c1a 1278     		ldrb	r2, [r2, #0]	@ zero_extendqisi2
 2388 0c1c 4A40     		eors	r2, r2, r1
 2389 0c1e D2B2     		uxtb	r2, r2
 2390 0c20 1A70     		strb	r2, [r3, #0]
 280:../libraries/CC3000_Host_Driver/security.c **** } 
 2391              		.loc 1 280 0
 2392 0c22 07F11007 		add	r7, r7, #16
 2393 0c26 BD46     		mov	sp, r7
 2394 0c28 80BD     		pop	{r7, pc}
 2395              		.cfi_endproc
 2396              	.LFE2:
 2398 0c2a 00BF     		.section	.text.aes_decr,"ax",%progbits
 2399              		.align	2
 2400              		.global	aes_decr
 2401              		.thumb
 2402              		.thumb_func
 2404              	aes_decr:
 2405              	.LFB3:
 281:../libraries/CC3000_Host_Driver/security.c **** 
 282:../libraries/CC3000_Host_Driver/security.c **** //*****************************************************************************
 283:../libraries/CC3000_Host_Driver/security.c **** //
 284:../libraries/CC3000_Host_Driver/security.c **** //!  aes_decr
 285:../libraries/CC3000_Host_Driver/security.c **** //!
 286:../libraries/CC3000_Host_Driver/security.c **** //!  @param[in]  expandedKey expanded AES128 key
 287:../libraries/CC3000_Host_Driver/security.c **** //!  @param[in\out] state 16 bytes of cipher text and plain text
 288:../libraries/CC3000_Host_Driver/security.c **** //!
 289:../libraries/CC3000_Host_Driver/security.c **** //!  @return  none
 290:../libraries/CC3000_Host_Driver/security.c **** //!
 291:../libraries/CC3000_Host_Driver/security.c **** //!  @brief   internal implementation of AES128 decryption.
 292:../libraries/CC3000_Host_Driver/security.c **** //!           straight forward aes decryption implementation
 293:../libraries/CC3000_Host_Driver/security.c **** //!           the order of substeps is the exact reverse of decryption
 294:../libraries/CC3000_Host_Driver/security.c **** //!           inverse functions:
 295:../libraries/CC3000_Host_Driver/security.c **** //!            - addRoundKey is its own inverse
 296:../libraries/CC3000_Host_Driver/security.c **** //!            - rsbox is inverse of sbox
 297:../libraries/CC3000_Host_Driver/security.c **** //!            - rightshift instead of leftshift
 298:../libraries/CC3000_Host_Driver/security.c **** //!            - invMixColumns = barreto + mixColumns
 299:../libraries/CC3000_Host_Driver/security.c **** //!           no further subfunctions to save cycles for function calls
 300:../libraries/CC3000_Host_Driver/security.c **** //!           no structuring with "for (....)" to save cycles
 301:../libraries/CC3000_Host_Driver/security.c **** //!
 302:../libraries/CC3000_Host_Driver/security.c **** //*****************************************************************************
 303:../libraries/CC3000_Host_Driver/security.c **** 
 304:../libraries/CC3000_Host_Driver/security.c **** void aes_decr(unsigned char *state, unsigned char *expandedKey)
 305:../libraries/CC3000_Host_Driver/security.c **** {
 2406              		.loc 1 305 0
 2407              		.cfi_startproc
 2408              		@ args = 0, pretend = 0, frame = 16
 2409              		@ frame_needed = 1, uses_anonymous_args = 0
 2410 0000 80B5     		push	{r7, lr}
 2411              	.LCFI9:
 2412              		.cfi_def_cfa_offset 8
 2413              		.cfi_offset 7, -8
 2414              		.cfi_offset 14, -4
 2415 0002 84B0     		sub	sp, sp, #16
 2416              	.LCFI10:
 2417              		.cfi_def_cfa_offset 24
 2418 0004 00AF     		add	r7, sp, #0
 2419              	.LCFI11:
 2420              		.cfi_def_cfa_register 7
 2421 0006 7860     		str	r0, [r7, #4]
 2422 0008 3960     		str	r1, [r7, #0]
 306:../libraries/CC3000_Host_Driver/security.c ****   unsigned char buf1, buf2, buf3;
 307:../libraries/CC3000_Host_Driver/security.c ****   signed char round;
 308:../libraries/CC3000_Host_Driver/security.c ****   round = 9;
 2423              		.loc 1 308 0
 2424 000a 4FF00903 		mov	r3, #9
 2425 000e FB73     		strb	r3, [r7, #15]
 309:../libraries/CC3000_Host_Driver/security.c **** 	
 310:../libraries/CC3000_Host_Driver/security.c ****   // initial addroundkey
 311:../libraries/CC3000_Host_Driver/security.c ****   state[ 0]^=expandedKey[160];
 2426              		.loc 1 311 0
 2427 0010 7B68     		ldr	r3, [r7, #4]
 2428 0012 1A78     		ldrb	r2, [r3, #0]	@ zero_extendqisi2
 2429 0014 3B68     		ldr	r3, [r7, #0]
 2430 0016 03F1A003 		add	r3, r3, #160
 2431 001a 1B78     		ldrb	r3, [r3, #0]	@ zero_extendqisi2
 2432 001c 5340     		eors	r3, r3, r2
 2433 001e DAB2     		uxtb	r2, r3
 2434 0020 7B68     		ldr	r3, [r7, #4]
 2435 0022 1A70     		strb	r2, [r3, #0]
 312:../libraries/CC3000_Host_Driver/security.c ****   state[ 1]^=expandedKey[161];
 2436              		.loc 1 312 0
 2437 0024 7B68     		ldr	r3, [r7, #4]
 2438 0026 03F10103 		add	r3, r3, #1
 2439 002a 7A68     		ldr	r2, [r7, #4]
 2440 002c 02F10102 		add	r2, r2, #1
 2441 0030 1178     		ldrb	r1, [r2, #0]	@ zero_extendqisi2
 2442 0032 3A68     		ldr	r2, [r7, #0]
 2443 0034 02F1A102 		add	r2, r2, #161
 2444 0038 1278     		ldrb	r2, [r2, #0]	@ zero_extendqisi2
 2445 003a 4A40     		eors	r2, r2, r1
 2446 003c D2B2     		uxtb	r2, r2
 2447 003e 1A70     		strb	r2, [r3, #0]
 313:../libraries/CC3000_Host_Driver/security.c ****   state[ 2]^=expandedKey[162];
 2448              		.loc 1 313 0
 2449 0040 7B68     		ldr	r3, [r7, #4]
 2450 0042 03F10203 		add	r3, r3, #2
 2451 0046 7A68     		ldr	r2, [r7, #4]
 2452 0048 02F10202 		add	r2, r2, #2
 2453 004c 1178     		ldrb	r1, [r2, #0]	@ zero_extendqisi2
 2454 004e 3A68     		ldr	r2, [r7, #0]
 2455 0050 02F1A202 		add	r2, r2, #162
 2456 0054 1278     		ldrb	r2, [r2, #0]	@ zero_extendqisi2
 2457 0056 4A40     		eors	r2, r2, r1
 2458 0058 D2B2     		uxtb	r2, r2
 2459 005a 1A70     		strb	r2, [r3, #0]
 314:../libraries/CC3000_Host_Driver/security.c ****   state[ 3]^=expandedKey[163];
 2460              		.loc 1 314 0
 2461 005c 7B68     		ldr	r3, [r7, #4]
 2462 005e 03F10303 		add	r3, r3, #3
 2463 0062 7A68     		ldr	r2, [r7, #4]
 2464 0064 02F10302 		add	r2, r2, #3
 2465 0068 1178     		ldrb	r1, [r2, #0]	@ zero_extendqisi2
 2466 006a 3A68     		ldr	r2, [r7, #0]
 2467 006c 02F1A302 		add	r2, r2, #163
 2468 0070 1278     		ldrb	r2, [r2, #0]	@ zero_extendqisi2
 2469 0072 4A40     		eors	r2, r2, r1
 2470 0074 D2B2     		uxtb	r2, r2
 2471 0076 1A70     		strb	r2, [r3, #0]
 315:../libraries/CC3000_Host_Driver/security.c ****   state[ 4]^=expandedKey[164];
 2472              		.loc 1 315 0
 2473 0078 7B68     		ldr	r3, [r7, #4]
 2474 007a 03F10403 		add	r3, r3, #4
 2475 007e 7A68     		ldr	r2, [r7, #4]
 2476 0080 02F10402 		add	r2, r2, #4
 2477 0084 1178     		ldrb	r1, [r2, #0]	@ zero_extendqisi2
 2478 0086 3A68     		ldr	r2, [r7, #0]
 2479 0088 02F1A402 		add	r2, r2, #164
 2480 008c 1278     		ldrb	r2, [r2, #0]	@ zero_extendqisi2
 2481 008e 4A40     		eors	r2, r2, r1
 2482 0090 D2B2     		uxtb	r2, r2
 2483 0092 1A70     		strb	r2, [r3, #0]
 316:../libraries/CC3000_Host_Driver/security.c ****   state[ 5]^=expandedKey[165];
 2484              		.loc 1 316 0
 2485 0094 7B68     		ldr	r3, [r7, #4]
 2486 0096 03F10503 		add	r3, r3, #5
 2487 009a 7A68     		ldr	r2, [r7, #4]
 2488 009c 02F10502 		add	r2, r2, #5
 2489 00a0 1178     		ldrb	r1, [r2, #0]	@ zero_extendqisi2
 2490 00a2 3A68     		ldr	r2, [r7, #0]
 2491 00a4 02F1A502 		add	r2, r2, #165
 2492 00a8 1278     		ldrb	r2, [r2, #0]	@ zero_extendqisi2
 2493 00aa 4A40     		eors	r2, r2, r1
 2494 00ac D2B2     		uxtb	r2, r2
 2495 00ae 1A70     		strb	r2, [r3, #0]
 317:../libraries/CC3000_Host_Driver/security.c ****   state[ 6]^=expandedKey[166];
 2496              		.loc 1 317 0
 2497 00b0 7B68     		ldr	r3, [r7, #4]
 2498 00b2 03F10603 		add	r3, r3, #6
 2499 00b6 7A68     		ldr	r2, [r7, #4]
 2500 00b8 02F10602 		add	r2, r2, #6
 2501 00bc 1178     		ldrb	r1, [r2, #0]	@ zero_extendqisi2
 2502 00be 3A68     		ldr	r2, [r7, #0]
 2503 00c0 02F1A602 		add	r2, r2, #166
 2504 00c4 1278     		ldrb	r2, [r2, #0]	@ zero_extendqisi2
 2505 00c6 4A40     		eors	r2, r2, r1
 2506 00c8 D2B2     		uxtb	r2, r2
 2507 00ca 1A70     		strb	r2, [r3, #0]
 318:../libraries/CC3000_Host_Driver/security.c ****   state[ 7]^=expandedKey[167];
 2508              		.loc 1 318 0
 2509 00cc 7B68     		ldr	r3, [r7, #4]
 2510 00ce 03F10703 		add	r3, r3, #7
 2511 00d2 7A68     		ldr	r2, [r7, #4]
 2512 00d4 02F10702 		add	r2, r2, #7
 2513 00d8 1178     		ldrb	r1, [r2, #0]	@ zero_extendqisi2
 2514 00da 3A68     		ldr	r2, [r7, #0]
 2515 00dc 02F1A702 		add	r2, r2, #167
 2516 00e0 1278     		ldrb	r2, [r2, #0]	@ zero_extendqisi2
 2517 00e2 4A40     		eors	r2, r2, r1
 2518 00e4 D2B2     		uxtb	r2, r2
 2519 00e6 1A70     		strb	r2, [r3, #0]
 319:../libraries/CC3000_Host_Driver/security.c ****   state[ 8]^=expandedKey[168];
 2520              		.loc 1 319 0
 2521 00e8 7B68     		ldr	r3, [r7, #4]
 2522 00ea 03F10803 		add	r3, r3, #8
 2523 00ee 7A68     		ldr	r2, [r7, #4]
 2524 00f0 02F10802 		add	r2, r2, #8
 2525 00f4 1178     		ldrb	r1, [r2, #0]	@ zero_extendqisi2
 2526 00f6 3A68     		ldr	r2, [r7, #0]
 2527 00f8 02F1A802 		add	r2, r2, #168
 2528 00fc 1278     		ldrb	r2, [r2, #0]	@ zero_extendqisi2
 2529 00fe 4A40     		eors	r2, r2, r1
 2530 0100 D2B2     		uxtb	r2, r2
 2531 0102 1A70     		strb	r2, [r3, #0]
 320:../libraries/CC3000_Host_Driver/security.c ****   state[ 9]^=expandedKey[169];
 2532              		.loc 1 320 0
 2533 0104 7B68     		ldr	r3, [r7, #4]
 2534 0106 03F10903 		add	r3, r3, #9
 2535 010a 7A68     		ldr	r2, [r7, #4]
 2536 010c 02F10902 		add	r2, r2, #9
 2537 0110 1178     		ldrb	r1, [r2, #0]	@ zero_extendqisi2
 2538 0112 3A68     		ldr	r2, [r7, #0]
 2539 0114 02F1A902 		add	r2, r2, #169
 2540 0118 1278     		ldrb	r2, [r2, #0]	@ zero_extendqisi2
 2541 011a 4A40     		eors	r2, r2, r1
 2542 011c D2B2     		uxtb	r2, r2
 2543 011e 1A70     		strb	r2, [r3, #0]
 321:../libraries/CC3000_Host_Driver/security.c ****   state[10]^=expandedKey[170];
 2544              		.loc 1 321 0
 2545 0120 7B68     		ldr	r3, [r7, #4]
 2546 0122 03F10A03 		add	r3, r3, #10
 2547 0126 7A68     		ldr	r2, [r7, #4]
 2548 0128 02F10A02 		add	r2, r2, #10
 2549 012c 1178     		ldrb	r1, [r2, #0]	@ zero_extendqisi2
 2550 012e 3A68     		ldr	r2, [r7, #0]
 2551 0130 02F1AA02 		add	r2, r2, #170
 2552 0134 1278     		ldrb	r2, [r2, #0]	@ zero_extendqisi2
 2553 0136 4A40     		eors	r2, r2, r1
 2554 0138 D2B2     		uxtb	r2, r2
 2555 013a 1A70     		strb	r2, [r3, #0]
 322:../libraries/CC3000_Host_Driver/security.c ****   state[11]^=expandedKey[171];
 2556              		.loc 1 322 0
 2557 013c 7B68     		ldr	r3, [r7, #4]
 2558 013e 03F10B03 		add	r3, r3, #11
 2559 0142 7A68     		ldr	r2, [r7, #4]
 2560 0144 02F10B02 		add	r2, r2, #11
 2561 0148 1178     		ldrb	r1, [r2, #0]	@ zero_extendqisi2
 2562 014a 3A68     		ldr	r2, [r7, #0]
 2563 014c 02F1AB02 		add	r2, r2, #171
 2564 0150 1278     		ldrb	r2, [r2, #0]	@ zero_extendqisi2
 2565 0152 4A40     		eors	r2, r2, r1
 2566 0154 D2B2     		uxtb	r2, r2
 2567 0156 1A70     		strb	r2, [r3, #0]
 323:../libraries/CC3000_Host_Driver/security.c ****   state[12]^=expandedKey[172];
 2568              		.loc 1 323 0
 2569 0158 7B68     		ldr	r3, [r7, #4]
 2570 015a 03F10C03 		add	r3, r3, #12
 2571 015e 7A68     		ldr	r2, [r7, #4]
 2572 0160 02F10C02 		add	r2, r2, #12
 2573 0164 1178     		ldrb	r1, [r2, #0]	@ zero_extendqisi2
 2574 0166 3A68     		ldr	r2, [r7, #0]
 2575 0168 02F1AC02 		add	r2, r2, #172
 2576 016c 1278     		ldrb	r2, [r2, #0]	@ zero_extendqisi2
 2577 016e 4A40     		eors	r2, r2, r1
 2578 0170 D2B2     		uxtb	r2, r2
 2579 0172 1A70     		strb	r2, [r3, #0]
 324:../libraries/CC3000_Host_Driver/security.c ****   state[13]^=expandedKey[173];
 2580              		.loc 1 324 0
 2581 0174 7B68     		ldr	r3, [r7, #4]
 2582 0176 03F10D03 		add	r3, r3, #13
 2583 017a 7A68     		ldr	r2, [r7, #4]
 2584 017c 02F10D02 		add	r2, r2, #13
 2585 0180 1178     		ldrb	r1, [r2, #0]	@ zero_extendqisi2
 2586 0182 3A68     		ldr	r2, [r7, #0]
 2587 0184 02F1AD02 		add	r2, r2, #173
 2588 0188 1278     		ldrb	r2, [r2, #0]	@ zero_extendqisi2
 2589 018a 4A40     		eors	r2, r2, r1
 2590 018c D2B2     		uxtb	r2, r2
 2591 018e 1A70     		strb	r2, [r3, #0]
 325:../libraries/CC3000_Host_Driver/security.c ****   state[14]^=expandedKey[174]; 
 2592              		.loc 1 325 0
 2593 0190 7B68     		ldr	r3, [r7, #4]
 2594 0192 03F10E03 		add	r3, r3, #14
 2595 0196 7A68     		ldr	r2, [r7, #4]
 2596 0198 02F10E02 		add	r2, r2, #14
 2597 019c 1178     		ldrb	r1, [r2, #0]	@ zero_extendqisi2
 2598 019e 3A68     		ldr	r2, [r7, #0]
 2599 01a0 02F1AE02 		add	r2, r2, #174
 2600 01a4 1278     		ldrb	r2, [r2, #0]	@ zero_extendqisi2
 2601 01a6 4A40     		eors	r2, r2, r1
 2602 01a8 D2B2     		uxtb	r2, r2
 2603 01aa 1A70     		strb	r2, [r3, #0]
 326:../libraries/CC3000_Host_Driver/security.c ****   state[15]^=expandedKey[175];
 2604              		.loc 1 326 0
 2605 01ac 7B68     		ldr	r3, [r7, #4]
 2606 01ae 03F10F03 		add	r3, r3, #15
 2607 01b2 7A68     		ldr	r2, [r7, #4]
 2608 01b4 02F10F02 		add	r2, r2, #15
 2609 01b8 1178     		ldrb	r1, [r2, #0]	@ zero_extendqisi2
 2610 01ba 3A68     		ldr	r2, [r7, #0]
 2611 01bc 02F1AF02 		add	r2, r2, #175
 2612 01c0 1278     		ldrb	r2, [r2, #0]	@ zero_extendqisi2
 2613 01c2 4A40     		eors	r2, r2, r1
 2614 01c4 D2B2     		uxtb	r2, r2
 2615 01c6 1A70     		strb	r2, [r3, #0]
 327:../libraries/CC3000_Host_Driver/security.c **** 	
 328:../libraries/CC3000_Host_Driver/security.c ****   // 10th round without mixcols
 329:../libraries/CC3000_Host_Driver/security.c ****   state[ 0]  = rsbox[state[ 0]] ^ expandedKey[(round*16)     ];
 2616              		.loc 1 329 0
 2617 01c8 7B68     		ldr	r3, [r7, #4]
 2618 01ca 1B78     		ldrb	r3, [r3, #0]	@ zero_extendqisi2
 2619 01cc 1A46     		mov	r2, r3
 2620 01ce 40F20003 		movw	r3, #:lower16:rsbox
 2621 01d2 C0F20003 		movt	r3, #:upper16:rsbox
 2622 01d6 9A5C     		ldrb	r2, [r3, r2]	@ zero_extendqisi2
 2623 01d8 97F90F30 		ldrsb	r3, [r7, #15]
 2624 01dc 4FEA0313 		lsl	r3, r3, #4
 2625 01e0 3968     		ldr	r1, [r7, #0]
 2626 01e2 CB18     		adds	r3, r1, r3
 2627 01e4 1B78     		ldrb	r3, [r3, #0]	@ zero_extendqisi2
 2628 01e6 5340     		eors	r3, r3, r2
 2629 01e8 DAB2     		uxtb	r2, r3
 2630 01ea 7B68     		ldr	r3, [r7, #4]
 2631 01ec 1A70     		strb	r2, [r3, #0]
 330:../libraries/CC3000_Host_Driver/security.c ****   state[ 4]  = rsbox[state[ 4]] ^ expandedKey[(round*16) +  4];
 2632              		.loc 1 330 0
 2633 01ee 7B68     		ldr	r3, [r7, #4]
 2634 01f0 03F10402 		add	r2, r3, #4
 2635 01f4 7B68     		ldr	r3, [r7, #4]
 2636 01f6 03F10403 		add	r3, r3, #4
 2637 01fa 1B78     		ldrb	r3, [r3, #0]	@ zero_extendqisi2
 2638 01fc 1946     		mov	r1, r3
 2639 01fe 40F20003 		movw	r3, #:lower16:rsbox
 2640 0202 C0F20003 		movt	r3, #:upper16:rsbox
 2641 0206 595C     		ldrb	r1, [r3, r1]	@ zero_extendqisi2
 2642 0208 97F90F30 		ldrsb	r3, [r7, #15]
 2643 020c 4FEA0313 		lsl	r3, r3, #4
 2644 0210 03F10403 		add	r3, r3, #4
 2645 0214 3868     		ldr	r0, [r7, #0]
 2646 0216 C318     		adds	r3, r0, r3
 2647 0218 1B78     		ldrb	r3, [r3, #0]	@ zero_extendqisi2
 2648 021a 4B40     		eors	r3, r3, r1
 2649 021c DBB2     		uxtb	r3, r3
 2650 021e 1370     		strb	r3, [r2, #0]
 331:../libraries/CC3000_Host_Driver/security.c ****   state[ 8]  = rsbox[state[ 8]] ^ expandedKey[(round*16) +  8];
 2651              		.loc 1 331 0
 2652 0220 7B68     		ldr	r3, [r7, #4]
 2653 0222 03F10802 		add	r2, r3, #8
 2654 0226 7B68     		ldr	r3, [r7, #4]
 2655 0228 03F10803 		add	r3, r3, #8
 2656 022c 1B78     		ldrb	r3, [r3, #0]	@ zero_extendqisi2
 2657 022e 1946     		mov	r1, r3
 2658 0230 40F20003 		movw	r3, #:lower16:rsbox
 2659 0234 C0F20003 		movt	r3, #:upper16:rsbox
 2660 0238 595C     		ldrb	r1, [r3, r1]	@ zero_extendqisi2
 2661 023a 97F90F30 		ldrsb	r3, [r7, #15]
 2662 023e 4FEA0313 		lsl	r3, r3, #4
 2663 0242 03F10803 		add	r3, r3, #8
 2664 0246 3868     		ldr	r0, [r7, #0]
 2665 0248 C318     		adds	r3, r0, r3
 2666 024a 1B78     		ldrb	r3, [r3, #0]	@ zero_extendqisi2
 2667 024c 4B40     		eors	r3, r3, r1
 2668 024e DBB2     		uxtb	r3, r3
 2669 0250 1370     		strb	r3, [r2, #0]
 332:../libraries/CC3000_Host_Driver/security.c ****   state[12]  = rsbox[state[12]] ^ expandedKey[(round*16) + 12];
 2670              		.loc 1 332 0
 2671 0252 7B68     		ldr	r3, [r7, #4]
 2672 0254 03F10C02 		add	r2, r3, #12
 2673 0258 7B68     		ldr	r3, [r7, #4]
 2674 025a 03F10C03 		add	r3, r3, #12
 2675 025e 1B78     		ldrb	r3, [r3, #0]	@ zero_extendqisi2
 2676 0260 1946     		mov	r1, r3
 2677 0262 40F20003 		movw	r3, #:lower16:rsbox
 2678 0266 C0F20003 		movt	r3, #:upper16:rsbox
 2679 026a 595C     		ldrb	r1, [r3, r1]	@ zero_extendqisi2
 2680 026c 97F90F30 		ldrsb	r3, [r7, #15]
 2681 0270 4FEA0313 		lsl	r3, r3, #4
 2682 0274 03F10C03 		add	r3, r3, #12
 2683 0278 3868     		ldr	r0, [r7, #0]
 2684 027a C318     		adds	r3, r0, r3
 2685 027c 1B78     		ldrb	r3, [r3, #0]	@ zero_extendqisi2
 2686 027e 4B40     		eors	r3, r3, r1
 2687 0280 DBB2     		uxtb	r3, r3
 2688 0282 1370     		strb	r3, [r2, #0]
 333:../libraries/CC3000_Host_Driver/security.c ****   // row 1
 334:../libraries/CC3000_Host_Driver/security.c ****   buf1 =       rsbox[state[13]] ^ expandedKey[(round*16) +  1];
 2689              		.loc 1 334 0
 2690 0284 7B68     		ldr	r3, [r7, #4]
 2691 0286 03F10D03 		add	r3, r3, #13
 2692 028a 1B78     		ldrb	r3, [r3, #0]	@ zero_extendqisi2
 2693 028c 1A46     		mov	r2, r3
 2694 028e 40F20003 		movw	r3, #:lower16:rsbox
 2695 0292 C0F20003 		movt	r3, #:upper16:rsbox
 2696 0296 9A5C     		ldrb	r2, [r3, r2]	@ zero_extendqisi2
 2697 0298 97F90F30 		ldrsb	r3, [r7, #15]
 2698 029c 4FEA0313 		lsl	r3, r3, #4
 2699 02a0 03F10103 		add	r3, r3, #1
 2700 02a4 3968     		ldr	r1, [r7, #0]
 2701 02a6 CB18     		adds	r3, r1, r3
 2702 02a8 1B78     		ldrb	r3, [r3, #0]	@ zero_extendqisi2
 2703 02aa 5340     		eors	r3, r3, r2
 2704 02ac BB73     		strb	r3, [r7, #14]
 335:../libraries/CC3000_Host_Driver/security.c ****   state[13]  = rsbox[state[ 9]] ^ expandedKey[(round*16) + 13];
 2705              		.loc 1 335 0
 2706 02ae 7B68     		ldr	r3, [r7, #4]
 2707 02b0 03F10D02 		add	r2, r3, #13
 2708 02b4 7B68     		ldr	r3, [r7, #4]
 2709 02b6 03F10903 		add	r3, r3, #9
 2710 02ba 1B78     		ldrb	r3, [r3, #0]	@ zero_extendqisi2
 2711 02bc 1946     		mov	r1, r3
 2712 02be 40F20003 		movw	r3, #:lower16:rsbox
 2713 02c2 C0F20003 		movt	r3, #:upper16:rsbox
 2714 02c6 595C     		ldrb	r1, [r3, r1]	@ zero_extendqisi2
 2715 02c8 97F90F30 		ldrsb	r3, [r7, #15]
 2716 02cc 4FEA0313 		lsl	r3, r3, #4
 2717 02d0 03F10D03 		add	r3, r3, #13
 2718 02d4 3868     		ldr	r0, [r7, #0]
 2719 02d6 C318     		adds	r3, r0, r3
 2720 02d8 1B78     		ldrb	r3, [r3, #0]	@ zero_extendqisi2
 2721 02da 4B40     		eors	r3, r3, r1
 2722 02dc DBB2     		uxtb	r3, r3
 2723 02de 1370     		strb	r3, [r2, #0]
 336:../libraries/CC3000_Host_Driver/security.c ****   state[ 9]  = rsbox[state[ 5]] ^ expandedKey[(round*16) +  9];
 2724              		.loc 1 336 0
 2725 02e0 7B68     		ldr	r3, [r7, #4]
 2726 02e2 03F10902 		add	r2, r3, #9
 2727 02e6 7B68     		ldr	r3, [r7, #4]
 2728 02e8 03F10503 		add	r3, r3, #5
 2729 02ec 1B78     		ldrb	r3, [r3, #0]	@ zero_extendqisi2
 2730 02ee 1946     		mov	r1, r3
 2731 02f0 40F20003 		movw	r3, #:lower16:rsbox
 2732 02f4 C0F20003 		movt	r3, #:upper16:rsbox
 2733 02f8 595C     		ldrb	r1, [r3, r1]	@ zero_extendqisi2
 2734 02fa 97F90F30 		ldrsb	r3, [r7, #15]
 2735 02fe 4FEA0313 		lsl	r3, r3, #4
 2736 0302 03F10903 		add	r3, r3, #9
 2737 0306 3868     		ldr	r0, [r7, #0]
 2738 0308 C318     		adds	r3, r0, r3
 2739 030a 1B78     		ldrb	r3, [r3, #0]	@ zero_extendqisi2
 2740 030c 4B40     		eors	r3, r3, r1
 2741 030e DBB2     		uxtb	r3, r3
 2742 0310 1370     		strb	r3, [r2, #0]
 337:../libraries/CC3000_Host_Driver/security.c ****   state[ 5]  = rsbox[state[ 1]] ^ expandedKey[(round*16) +  5];
 2743              		.loc 1 337 0
 2744 0312 7B68     		ldr	r3, [r7, #4]
 2745 0314 03F10502 		add	r2, r3, #5
 2746 0318 7B68     		ldr	r3, [r7, #4]
 2747 031a 03F10103 		add	r3, r3, #1
 2748 031e 1B78     		ldrb	r3, [r3, #0]	@ zero_extendqisi2
 2749 0320 1946     		mov	r1, r3
 2750 0322 40F20003 		movw	r3, #:lower16:rsbox
 2751 0326 C0F20003 		movt	r3, #:upper16:rsbox
 2752 032a 595C     		ldrb	r1, [r3, r1]	@ zero_extendqisi2
 2753 032c 97F90F30 		ldrsb	r3, [r7, #15]
 2754 0330 4FEA0313 		lsl	r3, r3, #4
 2755 0334 03F10503 		add	r3, r3, #5
 2756 0338 3868     		ldr	r0, [r7, #0]
 2757 033a C318     		adds	r3, r0, r3
 2758 033c 1B78     		ldrb	r3, [r3, #0]	@ zero_extendqisi2
 2759 033e 4B40     		eors	r3, r3, r1
 2760 0340 DBB2     		uxtb	r3, r3
 2761 0342 1370     		strb	r3, [r2, #0]
 338:../libraries/CC3000_Host_Driver/security.c ****   state[ 1]  = buf1;
 2762              		.loc 1 338 0
 2763 0344 7B68     		ldr	r3, [r7, #4]
 2764 0346 03F10103 		add	r3, r3, #1
 2765 034a BA7B     		ldrb	r2, [r7, #14]
 2766 034c 1A70     		strb	r2, [r3, #0]
 339:../libraries/CC3000_Host_Driver/security.c ****   // row 2
 340:../libraries/CC3000_Host_Driver/security.c ****   buf1 =       rsbox[state[ 2]] ^ expandedKey[(round*16) + 10];
 2767              		.loc 1 340 0
 2768 034e 7B68     		ldr	r3, [r7, #4]
 2769 0350 03F10203 		add	r3, r3, #2
 2770 0354 1B78     		ldrb	r3, [r3, #0]	@ zero_extendqisi2
 2771 0356 1A46     		mov	r2, r3
 2772 0358 40F20003 		movw	r3, #:lower16:rsbox
 2773 035c C0F20003 		movt	r3, #:upper16:rsbox
 2774 0360 9A5C     		ldrb	r2, [r3, r2]	@ zero_extendqisi2
 2775 0362 97F90F30 		ldrsb	r3, [r7, #15]
 2776 0366 4FEA0313 		lsl	r3, r3, #4
 2777 036a 03F10A03 		add	r3, r3, #10
 2778 036e 3968     		ldr	r1, [r7, #0]
 2779 0370 CB18     		adds	r3, r1, r3
 2780 0372 1B78     		ldrb	r3, [r3, #0]	@ zero_extendqisi2
 2781 0374 5340     		eors	r3, r3, r2
 2782 0376 BB73     		strb	r3, [r7, #14]
 341:../libraries/CC3000_Host_Driver/security.c ****   buf2 =       rsbox[state[ 6]] ^ expandedKey[(round*16) + 14];
 2783              		.loc 1 341 0
 2784 0378 7B68     		ldr	r3, [r7, #4]
 2785 037a 03F10603 		add	r3, r3, #6
 2786 037e 1B78     		ldrb	r3, [r3, #0]	@ zero_extendqisi2
 2787 0380 1A46     		mov	r2, r3
 2788 0382 40F20003 		movw	r3, #:lower16:rsbox
 2789 0386 C0F20003 		movt	r3, #:upper16:rsbox
 2790 038a 9A5C     		ldrb	r2, [r3, r2]	@ zero_extendqisi2
 2791 038c 97F90F30 		ldrsb	r3, [r7, #15]
 2792 0390 4FEA0313 		lsl	r3, r3, #4
 2793 0394 03F10E03 		add	r3, r3, #14
 2794 0398 3968     		ldr	r1, [r7, #0]
 2795 039a CB18     		adds	r3, r1, r3
 2796 039c 1B78     		ldrb	r3, [r3, #0]	@ zero_extendqisi2
 2797 039e 5340     		eors	r3, r3, r2
 2798 03a0 7B73     		strb	r3, [r7, #13]
 342:../libraries/CC3000_Host_Driver/security.c ****   state[ 2]  = rsbox[state[10]] ^ expandedKey[(round*16) +  2];
 2799              		.loc 1 342 0
 2800 03a2 7B68     		ldr	r3, [r7, #4]
 2801 03a4 03F10202 		add	r2, r3, #2
 2802 03a8 7B68     		ldr	r3, [r7, #4]
 2803 03aa 03F10A03 		add	r3, r3, #10
 2804 03ae 1B78     		ldrb	r3, [r3, #0]	@ zero_extendqisi2
 2805 03b0 1946     		mov	r1, r3
 2806 03b2 40F20003 		movw	r3, #:lower16:rsbox
 2807 03b6 C0F20003 		movt	r3, #:upper16:rsbox
 2808 03ba 595C     		ldrb	r1, [r3, r1]	@ zero_extendqisi2
 2809 03bc 97F90F30 		ldrsb	r3, [r7, #15]
 2810 03c0 4FEA0313 		lsl	r3, r3, #4
 2811 03c4 03F10203 		add	r3, r3, #2
 2812 03c8 3868     		ldr	r0, [r7, #0]
 2813 03ca C318     		adds	r3, r0, r3
 2814 03cc 1B78     		ldrb	r3, [r3, #0]	@ zero_extendqisi2
 2815 03ce 4B40     		eors	r3, r3, r1
 2816 03d0 DBB2     		uxtb	r3, r3
 2817 03d2 1370     		strb	r3, [r2, #0]
 343:../libraries/CC3000_Host_Driver/security.c ****   state[ 6]  = rsbox[state[14]] ^ expandedKey[(round*16) +  6];
 2818              		.loc 1 343 0
 2819 03d4 7B68     		ldr	r3, [r7, #4]
 2820 03d6 03F10602 		add	r2, r3, #6
 2821 03da 7B68     		ldr	r3, [r7, #4]
 2822 03dc 03F10E03 		add	r3, r3, #14
 2823 03e0 1B78     		ldrb	r3, [r3, #0]	@ zero_extendqisi2
 2824 03e2 1946     		mov	r1, r3
 2825 03e4 40F20003 		movw	r3, #:lower16:rsbox
 2826 03e8 C0F20003 		movt	r3, #:upper16:rsbox
 2827 03ec 595C     		ldrb	r1, [r3, r1]	@ zero_extendqisi2
 2828 03ee 97F90F30 		ldrsb	r3, [r7, #15]
 2829 03f2 4FEA0313 		lsl	r3, r3, #4
 2830 03f6 03F10603 		add	r3, r3, #6
 2831 03fa 3868     		ldr	r0, [r7, #0]
 2832 03fc C318     		adds	r3, r0, r3
 2833 03fe 1B78     		ldrb	r3, [r3, #0]	@ zero_extendqisi2
 2834 0400 4B40     		eors	r3, r3, r1
 2835 0402 DBB2     		uxtb	r3, r3
 2836 0404 1370     		strb	r3, [r2, #0]
 344:../libraries/CC3000_Host_Driver/security.c ****   state[10]  = buf1;
 2837              		.loc 1 344 0
 2838 0406 7B68     		ldr	r3, [r7, #4]
 2839 0408 03F10A03 		add	r3, r3, #10
 2840 040c BA7B     		ldrb	r2, [r7, #14]
 2841 040e 1A70     		strb	r2, [r3, #0]
 345:../libraries/CC3000_Host_Driver/security.c ****   state[14]  = buf2;
 2842              		.loc 1 345 0
 2843 0410 7B68     		ldr	r3, [r7, #4]
 2844 0412 03F10E03 		add	r3, r3, #14
 2845 0416 7A7B     		ldrb	r2, [r7, #13]
 2846 0418 1A70     		strb	r2, [r3, #0]
 346:../libraries/CC3000_Host_Driver/security.c ****   // row 3
 347:../libraries/CC3000_Host_Driver/security.c ****   buf1 =       rsbox[state[ 3]] ^ expandedKey[(round*16) + 15];
 2847              		.loc 1 347 0
 2848 041a 7B68     		ldr	r3, [r7, #4]
 2849 041c 03F10303 		add	r3, r3, #3
 2850 0420 1B78     		ldrb	r3, [r3, #0]	@ zero_extendqisi2
 2851 0422 1A46     		mov	r2, r3
 2852 0424 40F20003 		movw	r3, #:lower16:rsbox
 2853 0428 C0F20003 		movt	r3, #:upper16:rsbox
 2854 042c 9A5C     		ldrb	r2, [r3, r2]	@ zero_extendqisi2
 2855 042e 97F90F30 		ldrsb	r3, [r7, #15]
 2856 0432 4FEA0313 		lsl	r3, r3, #4
 2857 0436 03F10F03 		add	r3, r3, #15
 2858 043a 3968     		ldr	r1, [r7, #0]
 2859 043c CB18     		adds	r3, r1, r3
 2860 043e 1B78     		ldrb	r3, [r3, #0]	@ zero_extendqisi2
 2861 0440 5340     		eors	r3, r3, r2
 2862 0442 BB73     		strb	r3, [r7, #14]
 348:../libraries/CC3000_Host_Driver/security.c ****   state[ 3]  = rsbox[state[ 7]] ^ expandedKey[(round*16) +  3];
 2863              		.loc 1 348 0
 2864 0444 7B68     		ldr	r3, [r7, #4]
 2865 0446 03F10302 		add	r2, r3, #3
 2866 044a 7B68     		ldr	r3, [r7, #4]
 2867 044c 03F10703 		add	r3, r3, #7
 2868 0450 1B78     		ldrb	r3, [r3, #0]	@ zero_extendqisi2
 2869 0452 1946     		mov	r1, r3
 2870 0454 40F20003 		movw	r3, #:lower16:rsbox
 2871 0458 C0F20003 		movt	r3, #:upper16:rsbox
 2872 045c 595C     		ldrb	r1, [r3, r1]	@ zero_extendqisi2
 2873 045e 97F90F30 		ldrsb	r3, [r7, #15]
 2874 0462 4FEA0313 		lsl	r3, r3, #4
 2875 0466 03F10303 		add	r3, r3, #3
 2876 046a 3868     		ldr	r0, [r7, #0]
 2877 046c C318     		adds	r3, r0, r3
 2878 046e 1B78     		ldrb	r3, [r3, #0]	@ zero_extendqisi2
 2879 0470 4B40     		eors	r3, r3, r1
 2880 0472 DBB2     		uxtb	r3, r3
 2881 0474 1370     		strb	r3, [r2, #0]
 349:../libraries/CC3000_Host_Driver/security.c ****   state[ 7]  = rsbox[state[11]] ^ expandedKey[(round*16) +  7];
 2882              		.loc 1 349 0
 2883 0476 7B68     		ldr	r3, [r7, #4]
 2884 0478 03F10702 		add	r2, r3, #7
 2885 047c 7B68     		ldr	r3, [r7, #4]
 2886 047e 03F10B03 		add	r3, r3, #11
 2887 0482 1B78     		ldrb	r3, [r3, #0]	@ zero_extendqisi2
 2888 0484 1946     		mov	r1, r3
 2889 0486 40F20003 		movw	r3, #:lower16:rsbox
 2890 048a C0F20003 		movt	r3, #:upper16:rsbox
 2891 048e 595C     		ldrb	r1, [r3, r1]	@ zero_extendqisi2
 2892 0490 97F90F30 		ldrsb	r3, [r7, #15]
 2893 0494 4FEA0313 		lsl	r3, r3, #4
 2894 0498 03F10703 		add	r3, r3, #7
 2895 049c 3868     		ldr	r0, [r7, #0]
 2896 049e C318     		adds	r3, r0, r3
 2897 04a0 1B78     		ldrb	r3, [r3, #0]	@ zero_extendqisi2
 2898 04a2 4B40     		eors	r3, r3, r1
 2899 04a4 DBB2     		uxtb	r3, r3
 2900 04a6 1370     		strb	r3, [r2, #0]
 350:../libraries/CC3000_Host_Driver/security.c ****   state[11]  = rsbox[state[15]] ^ expandedKey[(round*16) + 11];
 2901              		.loc 1 350 0
 2902 04a8 7B68     		ldr	r3, [r7, #4]
 2903 04aa 03F10B02 		add	r2, r3, #11
 2904 04ae 7B68     		ldr	r3, [r7, #4]
 2905 04b0 03F10F03 		add	r3, r3, #15
 2906 04b4 1B78     		ldrb	r3, [r3, #0]	@ zero_extendqisi2
 2907 04b6 1946     		mov	r1, r3
 2908 04b8 40F20003 		movw	r3, #:lower16:rsbox
 2909 04bc C0F20003 		movt	r3, #:upper16:rsbox
 2910 04c0 595C     		ldrb	r1, [r3, r1]	@ zero_extendqisi2
 2911 04c2 97F90F30 		ldrsb	r3, [r7, #15]
 2912 04c6 4FEA0313 		lsl	r3, r3, #4
 2913 04ca 03F10B03 		add	r3, r3, #11
 2914 04ce 3868     		ldr	r0, [r7, #0]
 2915 04d0 C318     		adds	r3, r0, r3
 2916 04d2 1B78     		ldrb	r3, [r3, #0]	@ zero_extendqisi2
 2917 04d4 4B40     		eors	r3, r3, r1
 2918 04d6 DBB2     		uxtb	r3, r3
 2919 04d8 1370     		strb	r3, [r2, #0]
 351:../libraries/CC3000_Host_Driver/security.c ****   state[15]  = buf1;
 2920              		.loc 1 351 0
 2921 04da 7B68     		ldr	r3, [r7, #4]
 2922 04dc 03F10F03 		add	r3, r3, #15
 2923 04e0 BA7B     		ldrb	r2, [r7, #14]
 2924 04e2 1A70     		strb	r2, [r3, #0]
 352:../libraries/CC3000_Host_Driver/security.c **** 	
 353:../libraries/CC3000_Host_Driver/security.c ****   for (round = 8; round >= 0; round--){
 2925              		.loc 1 353 0
 2926 04e4 4FF00803 		mov	r3, #8
 2927 04e8 FB73     		strb	r3, [r7, #15]
 2928 04ea 00F004BD 		b	.L13
 2929              	.L14:
 354:../libraries/CC3000_Host_Driver/security.c ****     // barreto
 355:../libraries/CC3000_Host_Driver/security.c ****     //col1
 356:../libraries/CC3000_Host_Driver/security.c ****     buf1 = galois_mul2(galois_mul2(state[0]^state[2]));
 2930              		.loc 1 356 0 discriminator 2
 2931 04ee 7B68     		ldr	r3, [r7, #4]
 2932 04f0 1A78     		ldrb	r2, [r3, #0]	@ zero_extendqisi2
 2933 04f2 7B68     		ldr	r3, [r7, #4]
 2934 04f4 03F10203 		add	r3, r3, #2
 2935 04f8 1B78     		ldrb	r3, [r3, #0]	@ zero_extendqisi2
 2936 04fa 5340     		eors	r3, r3, r2
 2937 04fc DBB2     		uxtb	r3, r3
 2938 04fe 1846     		mov	r0, r3
 2939 0500 FFF7FEFF 		bl	galois_mul2
 2940 0504 0346     		mov	r3, r0
 2941 0506 1846     		mov	r0, r3
 2942 0508 FFF7FEFF 		bl	galois_mul2
 2943 050c 0346     		mov	r3, r0
 2944 050e BB73     		strb	r3, [r7, #14]
 357:../libraries/CC3000_Host_Driver/security.c ****     buf2 = galois_mul2(galois_mul2(state[1]^state[3]));
 2945              		.loc 1 357 0 discriminator 2
 2946 0510 7B68     		ldr	r3, [r7, #4]
 2947 0512 03F10103 		add	r3, r3, #1
 2948 0516 1A78     		ldrb	r2, [r3, #0]	@ zero_extendqisi2
 2949 0518 7B68     		ldr	r3, [r7, #4]
 2950 051a 03F10303 		add	r3, r3, #3
 2951 051e 1B78     		ldrb	r3, [r3, #0]	@ zero_extendqisi2
 2952 0520 5340     		eors	r3, r3, r2
 2953 0522 DBB2     		uxtb	r3, r3
 2954 0524 1846     		mov	r0, r3
 2955 0526 FFF7FEFF 		bl	galois_mul2
 2956 052a 0346     		mov	r3, r0
 2957 052c 1846     		mov	r0, r3
 2958 052e FFF7FEFF 		bl	galois_mul2
 2959 0532 0346     		mov	r3, r0
 2960 0534 7B73     		strb	r3, [r7, #13]
 358:../libraries/CC3000_Host_Driver/security.c ****     state[0] ^= buf1;     state[1] ^= buf2;    state[2] ^= buf1;    state[3] ^= buf2;
 2961              		.loc 1 358 0 discriminator 2
 2962 0536 7B68     		ldr	r3, [r7, #4]
 2963 0538 1A78     		ldrb	r2, [r3, #0]	@ zero_extendqisi2
 2964 053a BB7B     		ldrb	r3, [r7, #14]
 2965 053c 5340     		eors	r3, r3, r2
 2966 053e DAB2     		uxtb	r2, r3
 2967 0540 7B68     		ldr	r3, [r7, #4]
 2968 0542 1A70     		strb	r2, [r3, #0]
 2969 0544 7B68     		ldr	r3, [r7, #4]
 2970 0546 03F10103 		add	r3, r3, #1
 2971 054a 7A68     		ldr	r2, [r7, #4]
 2972 054c 02F10102 		add	r2, r2, #1
 2973 0550 1178     		ldrb	r1, [r2, #0]	@ zero_extendqisi2
 2974 0552 7A7B     		ldrb	r2, [r7, #13]
 2975 0554 4A40     		eors	r2, r2, r1
 2976 0556 D2B2     		uxtb	r2, r2
 2977 0558 1A70     		strb	r2, [r3, #0]
 2978 055a 7B68     		ldr	r3, [r7, #4]
 2979 055c 03F10203 		add	r3, r3, #2
 2980 0560 7A68     		ldr	r2, [r7, #4]
 2981 0562 02F10202 		add	r2, r2, #2
 2982 0566 1178     		ldrb	r1, [r2, #0]	@ zero_extendqisi2
 2983 0568 BA7B     		ldrb	r2, [r7, #14]
 2984 056a 4A40     		eors	r2, r2, r1
 2985 056c D2B2     		uxtb	r2, r2
 2986 056e 1A70     		strb	r2, [r3, #0]
 2987 0570 7B68     		ldr	r3, [r7, #4]
 2988 0572 03F10303 		add	r3, r3, #3
 2989 0576 7A68     		ldr	r2, [r7, #4]
 2990 0578 02F10302 		add	r2, r2, #3
 2991 057c 1178     		ldrb	r1, [r2, #0]	@ zero_extendqisi2
 2992 057e 7A7B     		ldrb	r2, [r7, #13]
 2993 0580 4A40     		eors	r2, r2, r1
 2994 0582 D2B2     		uxtb	r2, r2
 2995 0584 1A70     		strb	r2, [r3, #0]
 359:../libraries/CC3000_Host_Driver/security.c ****     //col2
 360:../libraries/CC3000_Host_Driver/security.c ****     buf1 = galois_mul2(galois_mul2(state[4]^state[6]));
 2996              		.loc 1 360 0 discriminator 2
 2997 0586 7B68     		ldr	r3, [r7, #4]
 2998 0588 03F10403 		add	r3, r3, #4
 2999 058c 1A78     		ldrb	r2, [r3, #0]	@ zero_extendqisi2
 3000 058e 7B68     		ldr	r3, [r7, #4]
 3001 0590 03F10603 		add	r3, r3, #6
 3002 0594 1B78     		ldrb	r3, [r3, #0]	@ zero_extendqisi2
 3003 0596 5340     		eors	r3, r3, r2
 3004 0598 DBB2     		uxtb	r3, r3
 3005 059a 1846     		mov	r0, r3
 3006 059c FFF7FEFF 		bl	galois_mul2
 3007 05a0 0346     		mov	r3, r0
 3008 05a2 1846     		mov	r0, r3
 3009 05a4 FFF7FEFF 		bl	galois_mul2
 3010 05a8 0346     		mov	r3, r0
 3011 05aa BB73     		strb	r3, [r7, #14]
 361:../libraries/CC3000_Host_Driver/security.c ****     buf2 = galois_mul2(galois_mul2(state[5]^state[7]));
 3012              		.loc 1 361 0 discriminator 2
 3013 05ac 7B68     		ldr	r3, [r7, #4]
 3014 05ae 03F10503 		add	r3, r3, #5
 3015 05b2 1A78     		ldrb	r2, [r3, #0]	@ zero_extendqisi2
 3016 05b4 7B68     		ldr	r3, [r7, #4]
 3017 05b6 03F10703 		add	r3, r3, #7
 3018 05ba 1B78     		ldrb	r3, [r3, #0]	@ zero_extendqisi2
 3019 05bc 5340     		eors	r3, r3, r2
 3020 05be DBB2     		uxtb	r3, r3
 3021 05c0 1846     		mov	r0, r3
 3022 05c2 FFF7FEFF 		bl	galois_mul2
 3023 05c6 0346     		mov	r3, r0
 3024 05c8 1846     		mov	r0, r3
 3025 05ca FFF7FEFF 		bl	galois_mul2
 3026 05ce 0346     		mov	r3, r0
 3027 05d0 7B73     		strb	r3, [r7, #13]
 362:../libraries/CC3000_Host_Driver/security.c ****     state[4] ^= buf1;    state[5] ^= buf2;    state[6] ^= buf1;    state[7] ^= buf2;
 3028              		.loc 1 362 0 discriminator 2
 3029 05d2 7B68     		ldr	r3, [r7, #4]
 3030 05d4 03F10403 		add	r3, r3, #4
 3031 05d8 7A68     		ldr	r2, [r7, #4]
 3032 05da 02F10402 		add	r2, r2, #4
 3033 05de 1178     		ldrb	r1, [r2, #0]	@ zero_extendqisi2
 3034 05e0 BA7B     		ldrb	r2, [r7, #14]
 3035 05e2 4A40     		eors	r2, r2, r1
 3036 05e4 D2B2     		uxtb	r2, r2
 3037 05e6 1A70     		strb	r2, [r3, #0]
 3038 05e8 7B68     		ldr	r3, [r7, #4]
 3039 05ea 03F10503 		add	r3, r3, #5
 3040 05ee 7A68     		ldr	r2, [r7, #4]
 3041 05f0 02F10502 		add	r2, r2, #5
 3042 05f4 1178     		ldrb	r1, [r2, #0]	@ zero_extendqisi2
 3043 05f6 7A7B     		ldrb	r2, [r7, #13]
 3044 05f8 4A40     		eors	r2, r2, r1
 3045 05fa D2B2     		uxtb	r2, r2
 3046 05fc 1A70     		strb	r2, [r3, #0]
 3047 05fe 7B68     		ldr	r3, [r7, #4]
 3048 0600 03F10603 		add	r3, r3, #6
 3049 0604 7A68     		ldr	r2, [r7, #4]
 3050 0606 02F10602 		add	r2, r2, #6
 3051 060a 1178     		ldrb	r1, [r2, #0]	@ zero_extendqisi2
 3052 060c BA7B     		ldrb	r2, [r7, #14]
 3053 060e 4A40     		eors	r2, r2, r1
 3054 0610 D2B2     		uxtb	r2, r2
 3055 0612 1A70     		strb	r2, [r3, #0]
 3056 0614 7B68     		ldr	r3, [r7, #4]
 3057 0616 03F10703 		add	r3, r3, #7
 3058 061a 7A68     		ldr	r2, [r7, #4]
 3059 061c 02F10702 		add	r2, r2, #7
 3060 0620 1178     		ldrb	r1, [r2, #0]	@ zero_extendqisi2
 3061 0622 7A7B     		ldrb	r2, [r7, #13]
 3062 0624 4A40     		eors	r2, r2, r1
 3063 0626 D2B2     		uxtb	r2, r2
 3064 0628 1A70     		strb	r2, [r3, #0]
 363:../libraries/CC3000_Host_Driver/security.c ****     //col3
 364:../libraries/CC3000_Host_Driver/security.c ****     buf1 = galois_mul2(galois_mul2(state[8]^state[10]));
 3065              		.loc 1 364 0 discriminator 2
 3066 062a 7B68     		ldr	r3, [r7, #4]
 3067 062c 03F10803 		add	r3, r3, #8
 3068 0630 1A78     		ldrb	r2, [r3, #0]	@ zero_extendqisi2
 3069 0632 7B68     		ldr	r3, [r7, #4]
 3070 0634 03F10A03 		add	r3, r3, #10
 3071 0638 1B78     		ldrb	r3, [r3, #0]	@ zero_extendqisi2
 3072 063a 5340     		eors	r3, r3, r2
 3073 063c DBB2     		uxtb	r3, r3
 3074 063e 1846     		mov	r0, r3
 3075 0640 FFF7FEFF 		bl	galois_mul2
 3076 0644 0346     		mov	r3, r0
 3077 0646 1846     		mov	r0, r3
 3078 0648 FFF7FEFF 		bl	galois_mul2
 3079 064c 0346     		mov	r3, r0
 3080 064e BB73     		strb	r3, [r7, #14]
 365:../libraries/CC3000_Host_Driver/security.c ****     buf2 = galois_mul2(galois_mul2(state[9]^state[11]));
 3081              		.loc 1 365 0 discriminator 2
 3082 0650 7B68     		ldr	r3, [r7, #4]
 3083 0652 03F10903 		add	r3, r3, #9
 3084 0656 1A78     		ldrb	r2, [r3, #0]	@ zero_extendqisi2
 3085 0658 7B68     		ldr	r3, [r7, #4]
 3086 065a 03F10B03 		add	r3, r3, #11
 3087 065e 1B78     		ldrb	r3, [r3, #0]	@ zero_extendqisi2
 3088 0660 5340     		eors	r3, r3, r2
 3089 0662 DBB2     		uxtb	r3, r3
 3090 0664 1846     		mov	r0, r3
 3091 0666 FFF7FEFF 		bl	galois_mul2
 3092 066a 0346     		mov	r3, r0
 3093 066c 1846     		mov	r0, r3
 3094 066e FFF7FEFF 		bl	galois_mul2
 3095 0672 0346     		mov	r3, r0
 3096 0674 7B73     		strb	r3, [r7, #13]
 366:../libraries/CC3000_Host_Driver/security.c ****     state[8] ^= buf1;    state[9] ^= buf2;    state[10] ^= buf1;    state[11] ^= buf2;
 3097              		.loc 1 366 0 discriminator 2
 3098 0676 7B68     		ldr	r3, [r7, #4]
 3099 0678 03F10803 		add	r3, r3, #8
 3100 067c 7A68     		ldr	r2, [r7, #4]
 3101 067e 02F10802 		add	r2, r2, #8
 3102 0682 1178     		ldrb	r1, [r2, #0]	@ zero_extendqisi2
 3103 0684 BA7B     		ldrb	r2, [r7, #14]
 3104 0686 4A40     		eors	r2, r2, r1
 3105 0688 D2B2     		uxtb	r2, r2
 3106 068a 1A70     		strb	r2, [r3, #0]
 3107 068c 7B68     		ldr	r3, [r7, #4]
 3108 068e 03F10903 		add	r3, r3, #9
 3109 0692 7A68     		ldr	r2, [r7, #4]
 3110 0694 02F10902 		add	r2, r2, #9
 3111 0698 1178     		ldrb	r1, [r2, #0]	@ zero_extendqisi2
 3112 069a 7A7B     		ldrb	r2, [r7, #13]
 3113 069c 4A40     		eors	r2, r2, r1
 3114 069e D2B2     		uxtb	r2, r2
 3115 06a0 1A70     		strb	r2, [r3, #0]
 3116 06a2 7B68     		ldr	r3, [r7, #4]
 3117 06a4 03F10A03 		add	r3, r3, #10
 3118 06a8 7A68     		ldr	r2, [r7, #4]
 3119 06aa 02F10A02 		add	r2, r2, #10
 3120 06ae 1178     		ldrb	r1, [r2, #0]	@ zero_extendqisi2
 3121 06b0 BA7B     		ldrb	r2, [r7, #14]
 3122 06b2 4A40     		eors	r2, r2, r1
 3123 06b4 D2B2     		uxtb	r2, r2
 3124 06b6 1A70     		strb	r2, [r3, #0]
 3125 06b8 7B68     		ldr	r3, [r7, #4]
 3126 06ba 03F10B03 		add	r3, r3, #11
 3127 06be 7A68     		ldr	r2, [r7, #4]
 3128 06c0 02F10B02 		add	r2, r2, #11
 3129 06c4 1178     		ldrb	r1, [r2, #0]	@ zero_extendqisi2
 3130 06c6 7A7B     		ldrb	r2, [r7, #13]
 3131 06c8 4A40     		eors	r2, r2, r1
 3132 06ca D2B2     		uxtb	r2, r2
 3133 06cc 1A70     		strb	r2, [r3, #0]
 367:../libraries/CC3000_Host_Driver/security.c ****     //col4
 368:../libraries/CC3000_Host_Driver/security.c ****     buf1 = galois_mul2(galois_mul2(state[12]^state[14]));
 3134              		.loc 1 368 0 discriminator 2
 3135 06ce 7B68     		ldr	r3, [r7, #4]
 3136 06d0 03F10C03 		add	r3, r3, #12
 3137 06d4 1A78     		ldrb	r2, [r3, #0]	@ zero_extendqisi2
 3138 06d6 7B68     		ldr	r3, [r7, #4]
 3139 06d8 03F10E03 		add	r3, r3, #14
 3140 06dc 1B78     		ldrb	r3, [r3, #0]	@ zero_extendqisi2
 3141 06de 5340     		eors	r3, r3, r2
 3142 06e0 DBB2     		uxtb	r3, r3
 3143 06e2 1846     		mov	r0, r3
 3144 06e4 FFF7FEFF 		bl	galois_mul2
 3145 06e8 0346     		mov	r3, r0
 3146 06ea 1846     		mov	r0, r3
 3147 06ec FFF7FEFF 		bl	galois_mul2
 3148 06f0 0346     		mov	r3, r0
 3149 06f2 BB73     		strb	r3, [r7, #14]
 369:../libraries/CC3000_Host_Driver/security.c ****     buf2 = galois_mul2(galois_mul2(state[13]^state[15]));
 3150              		.loc 1 369 0 discriminator 2
 3151 06f4 7B68     		ldr	r3, [r7, #4]
 3152 06f6 03F10D03 		add	r3, r3, #13
 3153 06fa 1A78     		ldrb	r2, [r3, #0]	@ zero_extendqisi2
 3154 06fc 7B68     		ldr	r3, [r7, #4]
 3155 06fe 03F10F03 		add	r3, r3, #15
 3156 0702 1B78     		ldrb	r3, [r3, #0]	@ zero_extendqisi2
 3157 0704 5340     		eors	r3, r3, r2
 3158 0706 DBB2     		uxtb	r3, r3
 3159 0708 1846     		mov	r0, r3
 3160 070a FFF7FEFF 		bl	galois_mul2
 3161 070e 0346     		mov	r3, r0
 3162 0710 1846     		mov	r0, r3
 3163 0712 FFF7FEFF 		bl	galois_mul2
 3164 0716 0346     		mov	r3, r0
 3165 0718 7B73     		strb	r3, [r7, #13]
 370:../libraries/CC3000_Host_Driver/security.c ****     state[12] ^= buf1;    state[13] ^= buf2;    state[14] ^= buf1;    state[15] ^= buf2;
 3166              		.loc 1 370 0 discriminator 2
 3167 071a 7B68     		ldr	r3, [r7, #4]
 3168 071c 03F10C03 		add	r3, r3, #12
 3169 0720 7A68     		ldr	r2, [r7, #4]
 3170 0722 02F10C02 		add	r2, r2, #12
 3171 0726 1178     		ldrb	r1, [r2, #0]	@ zero_extendqisi2
 3172 0728 BA7B     		ldrb	r2, [r7, #14]
 3173 072a 4A40     		eors	r2, r2, r1
 3174 072c D2B2     		uxtb	r2, r2
 3175 072e 1A70     		strb	r2, [r3, #0]
 3176 0730 7B68     		ldr	r3, [r7, #4]
 3177 0732 03F10D03 		add	r3, r3, #13
 3178 0736 7A68     		ldr	r2, [r7, #4]
 3179 0738 02F10D02 		add	r2, r2, #13
 3180 073c 1178     		ldrb	r1, [r2, #0]	@ zero_extendqisi2
 3181 073e 7A7B     		ldrb	r2, [r7, #13]
 3182 0740 4A40     		eors	r2, r2, r1
 3183 0742 D2B2     		uxtb	r2, r2
 3184 0744 1A70     		strb	r2, [r3, #0]
 3185 0746 7B68     		ldr	r3, [r7, #4]
 3186 0748 03F10E03 		add	r3, r3, #14
 3187 074c 7A68     		ldr	r2, [r7, #4]
 3188 074e 02F10E02 		add	r2, r2, #14
 3189 0752 1178     		ldrb	r1, [r2, #0]	@ zero_extendqisi2
 3190 0754 BA7B     		ldrb	r2, [r7, #14]
 3191 0756 4A40     		eors	r2, r2, r1
 3192 0758 D2B2     		uxtb	r2, r2
 3193 075a 1A70     		strb	r2, [r3, #0]
 3194 075c 7B68     		ldr	r3, [r7, #4]
 3195 075e 03F10F03 		add	r3, r3, #15
 3196 0762 7A68     		ldr	r2, [r7, #4]
 3197 0764 02F10F02 		add	r2, r2, #15
 3198 0768 1178     		ldrb	r1, [r2, #0]	@ zero_extendqisi2
 3199 076a 7A7B     		ldrb	r2, [r7, #13]
 3200 076c 4A40     		eors	r2, r2, r1
 3201 076e D2B2     		uxtb	r2, r2
 3202 0770 1A70     		strb	r2, [r3, #0]
 371:../libraries/CC3000_Host_Driver/security.c ****     // mixcolums //////////
 372:../libraries/CC3000_Host_Driver/security.c ****     // col1
 373:../libraries/CC3000_Host_Driver/security.c ****     buf1 = state[0] ^ state[1] ^ state[2] ^ state[3];
 3203              		.loc 1 373 0 discriminator 2
 3204 0772 7B68     		ldr	r3, [r7, #4]
 3205 0774 1A78     		ldrb	r2, [r3, #0]	@ zero_extendqisi2
 3206 0776 7B68     		ldr	r3, [r7, #4]
 3207 0778 03F10103 		add	r3, r3, #1
 3208 077c 1B78     		ldrb	r3, [r3, #0]	@ zero_extendqisi2
 3209 077e 5340     		eors	r3, r3, r2
 3210 0780 DAB2     		uxtb	r2, r3
 3211 0782 7B68     		ldr	r3, [r7, #4]
 3212 0784 03F10203 		add	r3, r3, #2
 3213 0788 1B78     		ldrb	r3, [r3, #0]	@ zero_extendqisi2
 3214 078a 5340     		eors	r3, r3, r2
 3215 078c DAB2     		uxtb	r2, r3
 3216 078e 7B68     		ldr	r3, [r7, #4]
 3217 0790 03F10303 		add	r3, r3, #3
 3218 0794 1B78     		ldrb	r3, [r3, #0]	@ zero_extendqisi2
 3219 0796 5340     		eors	r3, r3, r2
 3220 0798 BB73     		strb	r3, [r7, #14]
 374:../libraries/CC3000_Host_Driver/security.c ****     buf2 = state[0];
 3221              		.loc 1 374 0 discriminator 2
 3222 079a 7B68     		ldr	r3, [r7, #4]
 3223 079c 1B78     		ldrb	r3, [r3, #0]
 3224 079e 7B73     		strb	r3, [r7, #13]
 375:../libraries/CC3000_Host_Driver/security.c ****     buf3 = state[0]^state[1]; buf3=galois_mul2(buf3); state[0] = state[0] ^ buf3 ^ buf1;
 3225              		.loc 1 375 0 discriminator 2
 3226 07a0 7B68     		ldr	r3, [r7, #4]
 3227 07a2 1A78     		ldrb	r2, [r3, #0]	@ zero_extendqisi2
 3228 07a4 7B68     		ldr	r3, [r7, #4]
 3229 07a6 03F10103 		add	r3, r3, #1
 3230 07aa 1B78     		ldrb	r3, [r3, #0]	@ zero_extendqisi2
 3231 07ac 5340     		eors	r3, r3, r2
 3232 07ae 3B73     		strb	r3, [r7, #12]
 3233 07b0 3B7B     		ldrb	r3, [r7, #12]	@ zero_extendqisi2
 3234 07b2 1846     		mov	r0, r3
 3235 07b4 FFF7FEFF 		bl	galois_mul2
 3236 07b8 0346     		mov	r3, r0
 3237 07ba 3B73     		strb	r3, [r7, #12]
 3238 07bc 7B68     		ldr	r3, [r7, #4]
 3239 07be 1A78     		ldrb	r2, [r3, #0]	@ zero_extendqisi2
 3240 07c0 3B7B     		ldrb	r3, [r7, #12]
 3241 07c2 5340     		eors	r3, r3, r2
 3242 07c4 DAB2     		uxtb	r2, r3
 3243 07c6 BB7B     		ldrb	r3, [r7, #14]
 3244 07c8 5340     		eors	r3, r3, r2
 3245 07ca DAB2     		uxtb	r2, r3
 3246 07cc 7B68     		ldr	r3, [r7, #4]
 3247 07ce 1A70     		strb	r2, [r3, #0]
 376:../libraries/CC3000_Host_Driver/security.c ****     buf3 = state[1]^state[2]; buf3=galois_mul2(buf3); state[1] = state[1] ^ buf3 ^ buf1;
 3248              		.loc 1 376 0 discriminator 2
 3249 07d0 7B68     		ldr	r3, [r7, #4]
 3250 07d2 03F10103 		add	r3, r3, #1
 3251 07d6 1A78     		ldrb	r2, [r3, #0]	@ zero_extendqisi2
 3252 07d8 7B68     		ldr	r3, [r7, #4]
 3253 07da 03F10203 		add	r3, r3, #2
 3254 07de 1B78     		ldrb	r3, [r3, #0]	@ zero_extendqisi2
 3255 07e0 5340     		eors	r3, r3, r2
 3256 07e2 3B73     		strb	r3, [r7, #12]
 3257 07e4 3B7B     		ldrb	r3, [r7, #12]	@ zero_extendqisi2
 3258 07e6 1846     		mov	r0, r3
 3259 07e8 FFF7FEFF 		bl	galois_mul2
 3260 07ec 0346     		mov	r3, r0
 3261 07ee 3B73     		strb	r3, [r7, #12]
 3262 07f0 7B68     		ldr	r3, [r7, #4]
 3263 07f2 03F10103 		add	r3, r3, #1
 3264 07f6 7A68     		ldr	r2, [r7, #4]
 3265 07f8 02F10102 		add	r2, r2, #1
 3266 07fc 1178     		ldrb	r1, [r2, #0]	@ zero_extendqisi2
 3267 07fe 3A7B     		ldrb	r2, [r7, #12]
 3268 0800 4A40     		eors	r2, r2, r1
 3269 0802 D1B2     		uxtb	r1, r2
 3270 0804 BA7B     		ldrb	r2, [r7, #14]
 3271 0806 4A40     		eors	r2, r2, r1
 3272 0808 D2B2     		uxtb	r2, r2
 3273 080a 1A70     		strb	r2, [r3, #0]
 377:../libraries/CC3000_Host_Driver/security.c ****     buf3 = state[2]^state[3]; buf3=galois_mul2(buf3); state[2] = state[2] ^ buf3 ^ buf1;
 3274              		.loc 1 377 0 discriminator 2
 3275 080c 7B68     		ldr	r3, [r7, #4]
 3276 080e 03F10203 		add	r3, r3, #2
 3277 0812 1A78     		ldrb	r2, [r3, #0]	@ zero_extendqisi2
 3278 0814 7B68     		ldr	r3, [r7, #4]
 3279 0816 03F10303 		add	r3, r3, #3
 3280 081a 1B78     		ldrb	r3, [r3, #0]	@ zero_extendqisi2
 3281 081c 5340     		eors	r3, r3, r2
 3282 081e 3B73     		strb	r3, [r7, #12]
 3283 0820 3B7B     		ldrb	r3, [r7, #12]	@ zero_extendqisi2
 3284 0822 1846     		mov	r0, r3
 3285 0824 FFF7FEFF 		bl	galois_mul2
 3286 0828 0346     		mov	r3, r0
 3287 082a 3B73     		strb	r3, [r7, #12]
 3288 082c 7B68     		ldr	r3, [r7, #4]
 3289 082e 03F10203 		add	r3, r3, #2
 3290 0832 7A68     		ldr	r2, [r7, #4]
 3291 0834 02F10202 		add	r2, r2, #2
 3292 0838 1178     		ldrb	r1, [r2, #0]	@ zero_extendqisi2
 3293 083a 3A7B     		ldrb	r2, [r7, #12]
 3294 083c 4A40     		eors	r2, r2, r1
 3295 083e D1B2     		uxtb	r1, r2
 3296 0840 BA7B     		ldrb	r2, [r7, #14]
 3297 0842 4A40     		eors	r2, r2, r1
 3298 0844 D2B2     		uxtb	r2, r2
 3299 0846 1A70     		strb	r2, [r3, #0]
 378:../libraries/CC3000_Host_Driver/security.c ****     buf3 = state[3]^buf2;     buf3=galois_mul2(buf3); state[3] = state[3] ^ buf3 ^ buf1;
 3300              		.loc 1 378 0 discriminator 2
 3301 0848 7B68     		ldr	r3, [r7, #4]
 3302 084a 03F10303 		add	r3, r3, #3
 3303 084e 1A78     		ldrb	r2, [r3, #0]	@ zero_extendqisi2
 3304 0850 7B7B     		ldrb	r3, [r7, #13]
 3305 0852 5340     		eors	r3, r3, r2
 3306 0854 3B73     		strb	r3, [r7, #12]
 3307 0856 3B7B     		ldrb	r3, [r7, #12]	@ zero_extendqisi2
 3308 0858 1846     		mov	r0, r3
 3309 085a FFF7FEFF 		bl	galois_mul2
 3310 085e 0346     		mov	r3, r0
 3311 0860 3B73     		strb	r3, [r7, #12]
 3312 0862 7B68     		ldr	r3, [r7, #4]
 3313 0864 03F10303 		add	r3, r3, #3
 3314 0868 7A68     		ldr	r2, [r7, #4]
 3315 086a 02F10302 		add	r2, r2, #3
 3316 086e 1178     		ldrb	r1, [r2, #0]	@ zero_extendqisi2
 3317 0870 3A7B     		ldrb	r2, [r7, #12]
 3318 0872 4A40     		eors	r2, r2, r1
 3319 0874 D1B2     		uxtb	r1, r2
 3320 0876 BA7B     		ldrb	r2, [r7, #14]
 3321 0878 4A40     		eors	r2, r2, r1
 3322 087a D2B2     		uxtb	r2, r2
 3323 087c 1A70     		strb	r2, [r3, #0]
 379:../libraries/CC3000_Host_Driver/security.c ****     // col2
 380:../libraries/CC3000_Host_Driver/security.c ****     buf1 = state[4] ^ state[5] ^ state[6] ^ state[7];
 3324              		.loc 1 380 0 discriminator 2
 3325 087e 7B68     		ldr	r3, [r7, #4]
 3326 0880 03F10403 		add	r3, r3, #4
 3327 0884 1A78     		ldrb	r2, [r3, #0]	@ zero_extendqisi2
 3328 0886 7B68     		ldr	r3, [r7, #4]
 3329 0888 03F10503 		add	r3, r3, #5
 3330 088c 1B78     		ldrb	r3, [r3, #0]	@ zero_extendqisi2
 3331 088e 5340     		eors	r3, r3, r2
 3332 0890 DAB2     		uxtb	r2, r3
 3333 0892 7B68     		ldr	r3, [r7, #4]
 3334 0894 03F10603 		add	r3, r3, #6
 3335 0898 1B78     		ldrb	r3, [r3, #0]	@ zero_extendqisi2
 3336 089a 5340     		eors	r3, r3, r2
 3337 089c DAB2     		uxtb	r2, r3
 3338 089e 7B68     		ldr	r3, [r7, #4]
 3339 08a0 03F10703 		add	r3, r3, #7
 3340 08a4 1B78     		ldrb	r3, [r3, #0]	@ zero_extendqisi2
 3341 08a6 5340     		eors	r3, r3, r2
 3342 08a8 BB73     		strb	r3, [r7, #14]
 381:../libraries/CC3000_Host_Driver/security.c ****     buf2 = state[4];
 3343              		.loc 1 381 0 discriminator 2
 3344 08aa 7B68     		ldr	r3, [r7, #4]
 3345 08ac 1B79     		ldrb	r3, [r3, #4]
 3346 08ae 7B73     		strb	r3, [r7, #13]
 382:../libraries/CC3000_Host_Driver/security.c ****     buf3 = state[4]^state[5]; buf3=galois_mul2(buf3); state[4] = state[4] ^ buf3 ^ buf1;
 3347              		.loc 1 382 0 discriminator 2
 3348 08b0 7B68     		ldr	r3, [r7, #4]
 3349 08b2 03F10403 		add	r3, r3, #4
 3350 08b6 1A78     		ldrb	r2, [r3, #0]	@ zero_extendqisi2
 3351 08b8 7B68     		ldr	r3, [r7, #4]
 3352 08ba 03F10503 		add	r3, r3, #5
 3353 08be 1B78     		ldrb	r3, [r3, #0]	@ zero_extendqisi2
 3354 08c0 5340     		eors	r3, r3, r2
 3355 08c2 3B73     		strb	r3, [r7, #12]
 3356 08c4 3B7B     		ldrb	r3, [r7, #12]	@ zero_extendqisi2
 3357 08c6 1846     		mov	r0, r3
 3358 08c8 FFF7FEFF 		bl	galois_mul2
 3359 08cc 0346     		mov	r3, r0
 3360 08ce 3B73     		strb	r3, [r7, #12]
 3361 08d0 7B68     		ldr	r3, [r7, #4]
 3362 08d2 03F10403 		add	r3, r3, #4
 3363 08d6 7A68     		ldr	r2, [r7, #4]
 3364 08d8 02F10402 		add	r2, r2, #4
 3365 08dc 1178     		ldrb	r1, [r2, #0]	@ zero_extendqisi2
 3366 08de 3A7B     		ldrb	r2, [r7, #12]
 3367 08e0 4A40     		eors	r2, r2, r1
 3368 08e2 D1B2     		uxtb	r1, r2
 3369 08e4 BA7B     		ldrb	r2, [r7, #14]
 3370 08e6 4A40     		eors	r2, r2, r1
 3371 08e8 D2B2     		uxtb	r2, r2
 3372 08ea 1A70     		strb	r2, [r3, #0]
 383:../libraries/CC3000_Host_Driver/security.c ****     buf3 = state[5]^state[6]; buf3=galois_mul2(buf3); state[5] = state[5] ^ buf3 ^ buf1;
 3373              		.loc 1 383 0 discriminator 2
 3374 08ec 7B68     		ldr	r3, [r7, #4]
 3375 08ee 03F10503 		add	r3, r3, #5
 3376 08f2 1A78     		ldrb	r2, [r3, #0]	@ zero_extendqisi2
 3377 08f4 7B68     		ldr	r3, [r7, #4]
 3378 08f6 03F10603 		add	r3, r3, #6
 3379 08fa 1B78     		ldrb	r3, [r3, #0]	@ zero_extendqisi2
 3380 08fc 5340     		eors	r3, r3, r2
 3381 08fe 3B73     		strb	r3, [r7, #12]
 3382 0900 3B7B     		ldrb	r3, [r7, #12]	@ zero_extendqisi2
 3383 0902 1846     		mov	r0, r3
 3384 0904 FFF7FEFF 		bl	galois_mul2
 3385 0908 0346     		mov	r3, r0
 3386 090a 3B73     		strb	r3, [r7, #12]
 3387 090c 7B68     		ldr	r3, [r7, #4]
 3388 090e 03F10503 		add	r3, r3, #5
 3389 0912 7A68     		ldr	r2, [r7, #4]
 3390 0914 02F10502 		add	r2, r2, #5
 3391 0918 1178     		ldrb	r1, [r2, #0]	@ zero_extendqisi2
 3392 091a 3A7B     		ldrb	r2, [r7, #12]
 3393 091c 4A40     		eors	r2, r2, r1
 3394 091e D1B2     		uxtb	r1, r2
 3395 0920 BA7B     		ldrb	r2, [r7, #14]
 3396 0922 4A40     		eors	r2, r2, r1
 3397 0924 D2B2     		uxtb	r2, r2
 3398 0926 1A70     		strb	r2, [r3, #0]
 384:../libraries/CC3000_Host_Driver/security.c ****     buf3 = state[6]^state[7]; buf3=galois_mul2(buf3); state[6] = state[6] ^ buf3 ^ buf1;
 3399              		.loc 1 384 0 discriminator 2
 3400 0928 7B68     		ldr	r3, [r7, #4]
 3401 092a 03F10603 		add	r3, r3, #6
 3402 092e 1A78     		ldrb	r2, [r3, #0]	@ zero_extendqisi2
 3403 0930 7B68     		ldr	r3, [r7, #4]
 3404 0932 03F10703 		add	r3, r3, #7
 3405 0936 1B78     		ldrb	r3, [r3, #0]	@ zero_extendqisi2
 3406 0938 5340     		eors	r3, r3, r2
 3407 093a 3B73     		strb	r3, [r7, #12]
 3408 093c 3B7B     		ldrb	r3, [r7, #12]	@ zero_extendqisi2
 3409 093e 1846     		mov	r0, r3
 3410 0940 FFF7FEFF 		bl	galois_mul2
 3411 0944 0346     		mov	r3, r0
 3412 0946 3B73     		strb	r3, [r7, #12]
 3413 0948 7B68     		ldr	r3, [r7, #4]
 3414 094a 03F10603 		add	r3, r3, #6
 3415 094e 7A68     		ldr	r2, [r7, #4]
 3416 0950 02F10602 		add	r2, r2, #6
 3417 0954 1178     		ldrb	r1, [r2, #0]	@ zero_extendqisi2
 3418 0956 3A7B     		ldrb	r2, [r7, #12]
 3419 0958 4A40     		eors	r2, r2, r1
 3420 095a D1B2     		uxtb	r1, r2
 3421 095c BA7B     		ldrb	r2, [r7, #14]
 3422 095e 4A40     		eors	r2, r2, r1
 3423 0960 D2B2     		uxtb	r2, r2
 3424 0962 1A70     		strb	r2, [r3, #0]
 385:../libraries/CC3000_Host_Driver/security.c ****     buf3 = state[7]^buf2;     buf3=galois_mul2(buf3); state[7] = state[7] ^ buf3 ^ buf1;
 3425              		.loc 1 385 0 discriminator 2
 3426 0964 7B68     		ldr	r3, [r7, #4]
 3427 0966 03F10703 		add	r3, r3, #7
 3428 096a 1A78     		ldrb	r2, [r3, #0]	@ zero_extendqisi2
 3429 096c 7B7B     		ldrb	r3, [r7, #13]
 3430 096e 5340     		eors	r3, r3, r2
 3431 0970 3B73     		strb	r3, [r7, #12]
 3432 0972 3B7B     		ldrb	r3, [r7, #12]	@ zero_extendqisi2
 3433 0974 1846     		mov	r0, r3
 3434 0976 FFF7FEFF 		bl	galois_mul2
 3435 097a 0346     		mov	r3, r0
 3436 097c 3B73     		strb	r3, [r7, #12]
 3437 097e 7B68     		ldr	r3, [r7, #4]
 3438 0980 03F10703 		add	r3, r3, #7
 3439 0984 7A68     		ldr	r2, [r7, #4]
 3440 0986 02F10702 		add	r2, r2, #7
 3441 098a 1178     		ldrb	r1, [r2, #0]	@ zero_extendqisi2
 3442 098c 3A7B     		ldrb	r2, [r7, #12]
 3443 098e 4A40     		eors	r2, r2, r1
 3444 0990 D1B2     		uxtb	r1, r2
 3445 0992 BA7B     		ldrb	r2, [r7, #14]
 3446 0994 4A40     		eors	r2, r2, r1
 3447 0996 D2B2     		uxtb	r2, r2
 3448 0998 1A70     		strb	r2, [r3, #0]
 386:../libraries/CC3000_Host_Driver/security.c ****     // col3
 387:../libraries/CC3000_Host_Driver/security.c ****     buf1 = state[8] ^ state[9] ^ state[10] ^ state[11];
 3449              		.loc 1 387 0 discriminator 2
 3450 099a 7B68     		ldr	r3, [r7, #4]
 3451 099c 03F10803 		add	r3, r3, #8
 3452 09a0 1A78     		ldrb	r2, [r3, #0]	@ zero_extendqisi2
 3453 09a2 7B68     		ldr	r3, [r7, #4]
 3454 09a4 03F10903 		add	r3, r3, #9
 3455 09a8 1B78     		ldrb	r3, [r3, #0]	@ zero_extendqisi2
 3456 09aa 5340     		eors	r3, r3, r2
 3457 09ac DAB2     		uxtb	r2, r3
 3458 09ae 7B68     		ldr	r3, [r7, #4]
 3459 09b0 03F10A03 		add	r3, r3, #10
 3460 09b4 1B78     		ldrb	r3, [r3, #0]	@ zero_extendqisi2
 3461 09b6 5340     		eors	r3, r3, r2
 3462 09b8 DAB2     		uxtb	r2, r3
 3463 09ba 7B68     		ldr	r3, [r7, #4]
 3464 09bc 03F10B03 		add	r3, r3, #11
 3465 09c0 1B78     		ldrb	r3, [r3, #0]	@ zero_extendqisi2
 3466 09c2 5340     		eors	r3, r3, r2
 3467 09c4 BB73     		strb	r3, [r7, #14]
 388:../libraries/CC3000_Host_Driver/security.c ****     buf2 = state[8];
 3468              		.loc 1 388 0 discriminator 2
 3469 09c6 7B68     		ldr	r3, [r7, #4]
 3470 09c8 1B7A     		ldrb	r3, [r3, #8]
 3471 09ca 7B73     		strb	r3, [r7, #13]
 389:../libraries/CC3000_Host_Driver/security.c ****     buf3 = state[8]^state[9];   buf3=galois_mul2(buf3); state[8] = state[8] ^ buf3 ^ buf1;
 3472              		.loc 1 389 0 discriminator 2
 3473 09cc 7B68     		ldr	r3, [r7, #4]
 3474 09ce 03F10803 		add	r3, r3, #8
 3475 09d2 1A78     		ldrb	r2, [r3, #0]	@ zero_extendqisi2
 3476 09d4 7B68     		ldr	r3, [r7, #4]
 3477 09d6 03F10903 		add	r3, r3, #9
 3478 09da 1B78     		ldrb	r3, [r3, #0]	@ zero_extendqisi2
 3479 09dc 5340     		eors	r3, r3, r2
 3480 09de 3B73     		strb	r3, [r7, #12]
 3481 09e0 3B7B     		ldrb	r3, [r7, #12]	@ zero_extendqisi2
 3482 09e2 1846     		mov	r0, r3
 3483 09e4 FFF7FEFF 		bl	galois_mul2
 3484 09e8 0346     		mov	r3, r0
 3485 09ea 3B73     		strb	r3, [r7, #12]
 3486 09ec 7B68     		ldr	r3, [r7, #4]
 3487 09ee 03F10803 		add	r3, r3, #8
 3488 09f2 7A68     		ldr	r2, [r7, #4]
 3489 09f4 02F10802 		add	r2, r2, #8
 3490 09f8 1178     		ldrb	r1, [r2, #0]	@ zero_extendqisi2
 3491 09fa 3A7B     		ldrb	r2, [r7, #12]
 3492 09fc 4A40     		eors	r2, r2, r1
 3493 09fe D1B2     		uxtb	r1, r2
 3494 0a00 BA7B     		ldrb	r2, [r7, #14]
 3495 0a02 4A40     		eors	r2, r2, r1
 3496 0a04 D2B2     		uxtb	r2, r2
 3497 0a06 1A70     		strb	r2, [r3, #0]
 390:../libraries/CC3000_Host_Driver/security.c ****     buf3 = state[9]^state[10];  buf3=galois_mul2(buf3); state[9] = state[9] ^ buf3 ^ buf1;
 3498              		.loc 1 390 0 discriminator 2
 3499 0a08 7B68     		ldr	r3, [r7, #4]
 3500 0a0a 03F10903 		add	r3, r3, #9
 3501 0a0e 1A78     		ldrb	r2, [r3, #0]	@ zero_extendqisi2
 3502 0a10 7B68     		ldr	r3, [r7, #4]
 3503 0a12 03F10A03 		add	r3, r3, #10
 3504 0a16 1B78     		ldrb	r3, [r3, #0]	@ zero_extendqisi2
 3505 0a18 5340     		eors	r3, r3, r2
 3506 0a1a 3B73     		strb	r3, [r7, #12]
 3507 0a1c 3B7B     		ldrb	r3, [r7, #12]	@ zero_extendqisi2
 3508 0a1e 1846     		mov	r0, r3
 3509 0a20 FFF7FEFF 		bl	galois_mul2
 3510 0a24 0346     		mov	r3, r0
 3511 0a26 3B73     		strb	r3, [r7, #12]
 3512 0a28 7B68     		ldr	r3, [r7, #4]
 3513 0a2a 03F10903 		add	r3, r3, #9
 3514 0a2e 7A68     		ldr	r2, [r7, #4]
 3515 0a30 02F10902 		add	r2, r2, #9
 3516 0a34 1178     		ldrb	r1, [r2, #0]	@ zero_extendqisi2
 3517 0a36 3A7B     		ldrb	r2, [r7, #12]
 3518 0a38 4A40     		eors	r2, r2, r1
 3519 0a3a D1B2     		uxtb	r1, r2
 3520 0a3c BA7B     		ldrb	r2, [r7, #14]
 3521 0a3e 4A40     		eors	r2, r2, r1
 3522 0a40 D2B2     		uxtb	r2, r2
 3523 0a42 1A70     		strb	r2, [r3, #0]
 391:../libraries/CC3000_Host_Driver/security.c ****     buf3 = state[10]^state[11]; buf3=galois_mul2(buf3); state[10] = state[10] ^ buf3 ^ buf1;
 3524              		.loc 1 391 0 discriminator 2
 3525 0a44 7B68     		ldr	r3, [r7, #4]
 3526 0a46 03F10A03 		add	r3, r3, #10
 3527 0a4a 1A78     		ldrb	r2, [r3, #0]	@ zero_extendqisi2
 3528 0a4c 7B68     		ldr	r3, [r7, #4]
 3529 0a4e 03F10B03 		add	r3, r3, #11
 3530 0a52 1B78     		ldrb	r3, [r3, #0]	@ zero_extendqisi2
 3531 0a54 5340     		eors	r3, r3, r2
 3532 0a56 3B73     		strb	r3, [r7, #12]
 3533 0a58 3B7B     		ldrb	r3, [r7, #12]	@ zero_extendqisi2
 3534 0a5a 1846     		mov	r0, r3
 3535 0a5c FFF7FEFF 		bl	galois_mul2
 3536 0a60 0346     		mov	r3, r0
 3537 0a62 3B73     		strb	r3, [r7, #12]
 3538 0a64 7B68     		ldr	r3, [r7, #4]
 3539 0a66 03F10A03 		add	r3, r3, #10
 3540 0a6a 7A68     		ldr	r2, [r7, #4]
 3541 0a6c 02F10A02 		add	r2, r2, #10
 3542 0a70 1178     		ldrb	r1, [r2, #0]	@ zero_extendqisi2
 3543 0a72 3A7B     		ldrb	r2, [r7, #12]
 3544 0a74 4A40     		eors	r2, r2, r1
 3545 0a76 D1B2     		uxtb	r1, r2
 3546 0a78 BA7B     		ldrb	r2, [r7, #14]
 3547 0a7a 4A40     		eors	r2, r2, r1
 3548 0a7c D2B2     		uxtb	r2, r2
 3549 0a7e 1A70     		strb	r2, [r3, #0]
 392:../libraries/CC3000_Host_Driver/security.c ****     buf3 = state[11]^buf2;      buf3=galois_mul2(buf3); state[11] = state[11] ^ buf3 ^ buf1;
 3550              		.loc 1 392 0 discriminator 2
 3551 0a80 7B68     		ldr	r3, [r7, #4]
 3552 0a82 03F10B03 		add	r3, r3, #11
 3553 0a86 1A78     		ldrb	r2, [r3, #0]	@ zero_extendqisi2
 3554 0a88 7B7B     		ldrb	r3, [r7, #13]
 3555 0a8a 5340     		eors	r3, r3, r2
 3556 0a8c 3B73     		strb	r3, [r7, #12]
 3557 0a8e 3B7B     		ldrb	r3, [r7, #12]	@ zero_extendqisi2
 3558 0a90 1846     		mov	r0, r3
 3559 0a92 FFF7FEFF 		bl	galois_mul2
 3560 0a96 0346     		mov	r3, r0
 3561 0a98 3B73     		strb	r3, [r7, #12]
 3562 0a9a 7B68     		ldr	r3, [r7, #4]
 3563 0a9c 03F10B03 		add	r3, r3, #11
 3564 0aa0 7A68     		ldr	r2, [r7, #4]
 3565 0aa2 02F10B02 		add	r2, r2, #11
 3566 0aa6 1178     		ldrb	r1, [r2, #0]	@ zero_extendqisi2
 3567 0aa8 3A7B     		ldrb	r2, [r7, #12]
 3568 0aaa 4A40     		eors	r2, r2, r1
 3569 0aac D1B2     		uxtb	r1, r2
 3570 0aae BA7B     		ldrb	r2, [r7, #14]
 3571 0ab0 4A40     		eors	r2, r2, r1
 3572 0ab2 D2B2     		uxtb	r2, r2
 3573 0ab4 1A70     		strb	r2, [r3, #0]
 393:../libraries/CC3000_Host_Driver/security.c ****     // col4
 394:../libraries/CC3000_Host_Driver/security.c ****     buf1 = state[12] ^ state[13] ^ state[14] ^ state[15];
 3574              		.loc 1 394 0 discriminator 2
 3575 0ab6 7B68     		ldr	r3, [r7, #4]
 3576 0ab8 03F10C03 		add	r3, r3, #12
 3577 0abc 1A78     		ldrb	r2, [r3, #0]	@ zero_extendqisi2
 3578 0abe 7B68     		ldr	r3, [r7, #4]
 3579 0ac0 03F10D03 		add	r3, r3, #13
 3580 0ac4 1B78     		ldrb	r3, [r3, #0]	@ zero_extendqisi2
 3581 0ac6 5340     		eors	r3, r3, r2
 3582 0ac8 DAB2     		uxtb	r2, r3
 3583 0aca 7B68     		ldr	r3, [r7, #4]
 3584 0acc 03F10E03 		add	r3, r3, #14
 3585 0ad0 1B78     		ldrb	r3, [r3, #0]	@ zero_extendqisi2
 3586 0ad2 5340     		eors	r3, r3, r2
 3587 0ad4 DAB2     		uxtb	r2, r3
 3588 0ad6 7B68     		ldr	r3, [r7, #4]
 3589 0ad8 03F10F03 		add	r3, r3, #15
 3590 0adc 1B78     		ldrb	r3, [r3, #0]	@ zero_extendqisi2
 3591 0ade 5340     		eors	r3, r3, r2
 3592 0ae0 BB73     		strb	r3, [r7, #14]
 395:../libraries/CC3000_Host_Driver/security.c ****     buf2 = state[12];
 3593              		.loc 1 395 0 discriminator 2
 3594 0ae2 7B68     		ldr	r3, [r7, #4]
 3595 0ae4 1B7B     		ldrb	r3, [r3, #12]
 3596 0ae6 7B73     		strb	r3, [r7, #13]
 396:../libraries/CC3000_Host_Driver/security.c ****     buf3 = state[12]^state[13]; buf3=galois_mul2(buf3); state[12] = state[12] ^ buf3 ^ buf1;
 3597              		.loc 1 396 0 discriminator 2
 3598 0ae8 7B68     		ldr	r3, [r7, #4]
 3599 0aea 03F10C03 		add	r3, r3, #12
 3600 0aee 1A78     		ldrb	r2, [r3, #0]	@ zero_extendqisi2
 3601 0af0 7B68     		ldr	r3, [r7, #4]
 3602 0af2 03F10D03 		add	r3, r3, #13
 3603 0af6 1B78     		ldrb	r3, [r3, #0]	@ zero_extendqisi2
 3604 0af8 5340     		eors	r3, r3, r2
 3605 0afa 3B73     		strb	r3, [r7, #12]
 3606 0afc 3B7B     		ldrb	r3, [r7, #12]	@ zero_extendqisi2
 3607 0afe 1846     		mov	r0, r3
 3608 0b00 FFF7FEFF 		bl	galois_mul2
 3609 0b04 0346     		mov	r3, r0
 3610 0b06 3B73     		strb	r3, [r7, #12]
 3611 0b08 7B68     		ldr	r3, [r7, #4]
 3612 0b0a 03F10C03 		add	r3, r3, #12
 3613 0b0e 7A68     		ldr	r2, [r7, #4]
 3614 0b10 02F10C02 		add	r2, r2, #12
 3615 0b14 1178     		ldrb	r1, [r2, #0]	@ zero_extendqisi2
 3616 0b16 3A7B     		ldrb	r2, [r7, #12]
 3617 0b18 4A40     		eors	r2, r2, r1
 3618 0b1a D1B2     		uxtb	r1, r2
 3619 0b1c BA7B     		ldrb	r2, [r7, #14]
 3620 0b1e 4A40     		eors	r2, r2, r1
 3621 0b20 D2B2     		uxtb	r2, r2
 3622 0b22 1A70     		strb	r2, [r3, #0]
 397:../libraries/CC3000_Host_Driver/security.c ****     buf3 = state[13]^state[14]; buf3=galois_mul2(buf3); state[13] = state[13] ^ buf3 ^ buf1;
 3623              		.loc 1 397 0 discriminator 2
 3624 0b24 7B68     		ldr	r3, [r7, #4]
 3625 0b26 03F10D03 		add	r3, r3, #13
 3626 0b2a 1A78     		ldrb	r2, [r3, #0]	@ zero_extendqisi2
 3627 0b2c 7B68     		ldr	r3, [r7, #4]
 3628 0b2e 03F10E03 		add	r3, r3, #14
 3629 0b32 1B78     		ldrb	r3, [r3, #0]	@ zero_extendqisi2
 3630 0b34 5340     		eors	r3, r3, r2
 3631 0b36 3B73     		strb	r3, [r7, #12]
 3632 0b38 3B7B     		ldrb	r3, [r7, #12]	@ zero_extendqisi2
 3633 0b3a 1846     		mov	r0, r3
 3634 0b3c FFF7FEFF 		bl	galois_mul2
 3635 0b40 0346     		mov	r3, r0
 3636 0b42 3B73     		strb	r3, [r7, #12]
 3637 0b44 7B68     		ldr	r3, [r7, #4]
 3638 0b46 03F10D03 		add	r3, r3, #13
 3639 0b4a 7A68     		ldr	r2, [r7, #4]
 3640 0b4c 02F10D02 		add	r2, r2, #13
 3641 0b50 1178     		ldrb	r1, [r2, #0]	@ zero_extendqisi2
 3642 0b52 3A7B     		ldrb	r2, [r7, #12]
 3643 0b54 4A40     		eors	r2, r2, r1
 3644 0b56 D1B2     		uxtb	r1, r2
 3645 0b58 BA7B     		ldrb	r2, [r7, #14]
 3646 0b5a 4A40     		eors	r2, r2, r1
 3647 0b5c D2B2     		uxtb	r2, r2
 3648 0b5e 1A70     		strb	r2, [r3, #0]
 398:../libraries/CC3000_Host_Driver/security.c ****     buf3 = state[14]^state[15]; buf3=galois_mul2(buf3); state[14] = state[14] ^ buf3 ^ buf1;
 3649              		.loc 1 398 0 discriminator 2
 3650 0b60 7B68     		ldr	r3, [r7, #4]
 3651 0b62 03F10E03 		add	r3, r3, #14
 3652 0b66 1A78     		ldrb	r2, [r3, #0]	@ zero_extendqisi2
 3653 0b68 7B68     		ldr	r3, [r7, #4]
 3654 0b6a 03F10F03 		add	r3, r3, #15
 3655 0b6e 1B78     		ldrb	r3, [r3, #0]	@ zero_extendqisi2
 3656 0b70 5340     		eors	r3, r3, r2
 3657 0b72 3B73     		strb	r3, [r7, #12]
 3658 0b74 3B7B     		ldrb	r3, [r7, #12]	@ zero_extendqisi2
 3659 0b76 1846     		mov	r0, r3
 3660 0b78 FFF7FEFF 		bl	galois_mul2
 3661 0b7c 0346     		mov	r3, r0
 3662 0b7e 3B73     		strb	r3, [r7, #12]
 3663 0b80 7B68     		ldr	r3, [r7, #4]
 3664 0b82 03F10E03 		add	r3, r3, #14
 3665 0b86 7A68     		ldr	r2, [r7, #4]
 3666 0b88 02F10E02 		add	r2, r2, #14
 3667 0b8c 1178     		ldrb	r1, [r2, #0]	@ zero_extendqisi2
 3668 0b8e 3A7B     		ldrb	r2, [r7, #12]
 3669 0b90 4A40     		eors	r2, r2, r1
 3670 0b92 D1B2     		uxtb	r1, r2
 3671 0b94 BA7B     		ldrb	r2, [r7, #14]
 3672 0b96 4A40     		eors	r2, r2, r1
 3673 0b98 D2B2     		uxtb	r2, r2
 3674 0b9a 1A70     		strb	r2, [r3, #0]
 399:../libraries/CC3000_Host_Driver/security.c ****     buf3 = state[15]^buf2;      buf3=galois_mul2(buf3); state[15] = state[15] ^ buf3 ^ buf1;    
 3675              		.loc 1 399 0 discriminator 2
 3676 0b9c 7B68     		ldr	r3, [r7, #4]
 3677 0b9e 03F10F03 		add	r3, r3, #15
 3678 0ba2 1A78     		ldrb	r2, [r3, #0]	@ zero_extendqisi2
 3679 0ba4 7B7B     		ldrb	r3, [r7, #13]
 3680 0ba6 5340     		eors	r3, r3, r2
 3681 0ba8 3B73     		strb	r3, [r7, #12]
 3682 0baa 3B7B     		ldrb	r3, [r7, #12]	@ zero_extendqisi2
 3683 0bac 1846     		mov	r0, r3
 3684 0bae FFF7FEFF 		bl	galois_mul2
 3685 0bb2 0346     		mov	r3, r0
 3686 0bb4 3B73     		strb	r3, [r7, #12]
 3687 0bb6 7B68     		ldr	r3, [r7, #4]
 3688 0bb8 03F10F03 		add	r3, r3, #15
 3689 0bbc 7A68     		ldr	r2, [r7, #4]
 3690 0bbe 02F10F02 		add	r2, r2, #15
 3691 0bc2 1178     		ldrb	r1, [r2, #0]	@ zero_extendqisi2
 3692 0bc4 3A7B     		ldrb	r2, [r7, #12]
 3693 0bc6 4A40     		eors	r2, r2, r1
 3694 0bc8 D1B2     		uxtb	r1, r2
 3695 0bca BA7B     		ldrb	r2, [r7, #14]
 3696 0bcc 4A40     		eors	r2, r2, r1
 3697 0bce D2B2     		uxtb	r2, r2
 3698 0bd0 1A70     		strb	r2, [r3, #0]
 400:../libraries/CC3000_Host_Driver/security.c **** 		
 401:../libraries/CC3000_Host_Driver/security.c ****     // addroundkey, rsbox and shiftrows
 402:../libraries/CC3000_Host_Driver/security.c ****     // row 0
 403:../libraries/CC3000_Host_Driver/security.c ****     state[ 0]  = rsbox[state[ 0]] ^ expandedKey[(round*16)     ];
 3699              		.loc 1 403 0 discriminator 2
 3700 0bd2 7B68     		ldr	r3, [r7, #4]
 3701 0bd4 1B78     		ldrb	r3, [r3, #0]	@ zero_extendqisi2
 3702 0bd6 1A46     		mov	r2, r3
 3703 0bd8 40F20003 		movw	r3, #:lower16:rsbox
 3704 0bdc C0F20003 		movt	r3, #:upper16:rsbox
 3705 0be0 9A5C     		ldrb	r2, [r3, r2]	@ zero_extendqisi2
 3706 0be2 97F90F30 		ldrsb	r3, [r7, #15]
 3707 0be6 4FEA0313 		lsl	r3, r3, #4
 3708 0bea 3968     		ldr	r1, [r7, #0]
 3709 0bec CB18     		adds	r3, r1, r3
 3710 0bee 1B78     		ldrb	r3, [r3, #0]	@ zero_extendqisi2
 3711 0bf0 5340     		eors	r3, r3, r2
 3712 0bf2 DAB2     		uxtb	r2, r3
 3713 0bf4 7B68     		ldr	r3, [r7, #4]
 3714 0bf6 1A70     		strb	r2, [r3, #0]
 404:../libraries/CC3000_Host_Driver/security.c ****     state[ 4]  = rsbox[state[ 4]] ^ expandedKey[(round*16) +  4];
 3715              		.loc 1 404 0 discriminator 2
 3716 0bf8 7B68     		ldr	r3, [r7, #4]
 3717 0bfa 03F10402 		add	r2, r3, #4
 3718 0bfe 7B68     		ldr	r3, [r7, #4]
 3719 0c00 03F10403 		add	r3, r3, #4
 3720 0c04 1B78     		ldrb	r3, [r3, #0]	@ zero_extendqisi2
 3721 0c06 1946     		mov	r1, r3
 3722 0c08 40F20003 		movw	r3, #:lower16:rsbox
 3723 0c0c C0F20003 		movt	r3, #:upper16:rsbox
 3724 0c10 595C     		ldrb	r1, [r3, r1]	@ zero_extendqisi2
 3725 0c12 97F90F30 		ldrsb	r3, [r7, #15]
 3726 0c16 4FEA0313 		lsl	r3, r3, #4
 3727 0c1a 03F10403 		add	r3, r3, #4
 3728 0c1e 3868     		ldr	r0, [r7, #0]
 3729 0c20 C318     		adds	r3, r0, r3
 3730 0c22 1B78     		ldrb	r3, [r3, #0]	@ zero_extendqisi2
 3731 0c24 4B40     		eors	r3, r3, r1
 3732 0c26 DBB2     		uxtb	r3, r3
 3733 0c28 1370     		strb	r3, [r2, #0]
 405:../libraries/CC3000_Host_Driver/security.c ****     state[ 8]  = rsbox[state[ 8]] ^ expandedKey[(round*16) +  8];
 3734              		.loc 1 405 0 discriminator 2
 3735 0c2a 7B68     		ldr	r3, [r7, #4]
 3736 0c2c 03F10802 		add	r2, r3, #8
 3737 0c30 7B68     		ldr	r3, [r7, #4]
 3738 0c32 03F10803 		add	r3, r3, #8
 3739 0c36 1B78     		ldrb	r3, [r3, #0]	@ zero_extendqisi2
 3740 0c38 1946     		mov	r1, r3
 3741 0c3a 40F20003 		movw	r3, #:lower16:rsbox
 3742 0c3e C0F20003 		movt	r3, #:upper16:rsbox
 3743 0c42 595C     		ldrb	r1, [r3, r1]	@ zero_extendqisi2
 3744 0c44 97F90F30 		ldrsb	r3, [r7, #15]
 3745 0c48 4FEA0313 		lsl	r3, r3, #4
 3746 0c4c 03F10803 		add	r3, r3, #8
 3747 0c50 3868     		ldr	r0, [r7, #0]
 3748 0c52 C318     		adds	r3, r0, r3
 3749 0c54 1B78     		ldrb	r3, [r3, #0]	@ zero_extendqisi2
 3750 0c56 4B40     		eors	r3, r3, r1
 3751 0c58 DBB2     		uxtb	r3, r3
 3752 0c5a 1370     		strb	r3, [r2, #0]
 406:../libraries/CC3000_Host_Driver/security.c ****     state[12]  = rsbox[state[12]] ^ expandedKey[(round*16) + 12];
 3753              		.loc 1 406 0 discriminator 2
 3754 0c5c 7B68     		ldr	r3, [r7, #4]
 3755 0c5e 03F10C02 		add	r2, r3, #12
 3756 0c62 7B68     		ldr	r3, [r7, #4]
 3757 0c64 03F10C03 		add	r3, r3, #12
 3758 0c68 1B78     		ldrb	r3, [r3, #0]	@ zero_extendqisi2
 3759 0c6a 1946     		mov	r1, r3
 3760 0c6c 40F20003 		movw	r3, #:lower16:rsbox
 3761 0c70 C0F20003 		movt	r3, #:upper16:rsbox
 3762 0c74 595C     		ldrb	r1, [r3, r1]	@ zero_extendqisi2
 3763 0c76 97F90F30 		ldrsb	r3, [r7, #15]
 3764 0c7a 4FEA0313 		lsl	r3, r3, #4
 3765 0c7e 03F10C03 		add	r3, r3, #12
 3766 0c82 3868     		ldr	r0, [r7, #0]
 3767 0c84 C318     		adds	r3, r0, r3
 3768 0c86 1B78     		ldrb	r3, [r3, #0]	@ zero_extendqisi2
 3769 0c88 4B40     		eors	r3, r3, r1
 3770 0c8a DBB2     		uxtb	r3, r3
 3771 0c8c 1370     		strb	r3, [r2, #0]
 407:../libraries/CC3000_Host_Driver/security.c ****     // row 1
 408:../libraries/CC3000_Host_Driver/security.c ****     buf1 =       rsbox[state[13]] ^ expandedKey[(round*16) +  1];
 3772              		.loc 1 408 0 discriminator 2
 3773 0c8e 7B68     		ldr	r3, [r7, #4]
 3774 0c90 03F10D03 		add	r3, r3, #13
 3775 0c94 1B78     		ldrb	r3, [r3, #0]	@ zero_extendqisi2
 3776 0c96 1A46     		mov	r2, r3
 3777 0c98 40F20003 		movw	r3, #:lower16:rsbox
 3778 0c9c C0F20003 		movt	r3, #:upper16:rsbox
 3779 0ca0 9A5C     		ldrb	r2, [r3, r2]	@ zero_extendqisi2
 3780 0ca2 97F90F30 		ldrsb	r3, [r7, #15]
 3781 0ca6 4FEA0313 		lsl	r3, r3, #4
 3782 0caa 03F10103 		add	r3, r3, #1
 3783 0cae 3968     		ldr	r1, [r7, #0]
 3784 0cb0 CB18     		adds	r3, r1, r3
 3785 0cb2 1B78     		ldrb	r3, [r3, #0]	@ zero_extendqisi2
 3786 0cb4 5340     		eors	r3, r3, r2
 3787 0cb6 BB73     		strb	r3, [r7, #14]
 409:../libraries/CC3000_Host_Driver/security.c ****     state[13]  = rsbox[state[ 9]] ^ expandedKey[(round*16) + 13];
 3788              		.loc 1 409 0 discriminator 2
 3789 0cb8 7B68     		ldr	r3, [r7, #4]
 3790 0cba 03F10D02 		add	r2, r3, #13
 3791 0cbe 7B68     		ldr	r3, [r7, #4]
 3792 0cc0 03F10903 		add	r3, r3, #9
 3793 0cc4 1B78     		ldrb	r3, [r3, #0]	@ zero_extendqisi2
 3794 0cc6 1946     		mov	r1, r3
 3795 0cc8 40F20003 		movw	r3, #:lower16:rsbox
 3796 0ccc C0F20003 		movt	r3, #:upper16:rsbox
 3797 0cd0 595C     		ldrb	r1, [r3, r1]	@ zero_extendqisi2
 3798 0cd2 97F90F30 		ldrsb	r3, [r7, #15]
 3799 0cd6 4FEA0313 		lsl	r3, r3, #4
 3800 0cda 03F10D03 		add	r3, r3, #13
 3801 0cde 3868     		ldr	r0, [r7, #0]
 3802 0ce0 C318     		adds	r3, r0, r3
 3803 0ce2 1B78     		ldrb	r3, [r3, #0]	@ zero_extendqisi2
 3804 0ce4 4B40     		eors	r3, r3, r1
 3805 0ce6 DBB2     		uxtb	r3, r3
 3806 0ce8 1370     		strb	r3, [r2, #0]
 410:../libraries/CC3000_Host_Driver/security.c ****     state[ 9]  = rsbox[state[ 5]] ^ expandedKey[(round*16) +  9];
 3807              		.loc 1 410 0 discriminator 2
 3808 0cea 7B68     		ldr	r3, [r7, #4]
 3809 0cec 03F10902 		add	r2, r3, #9
 3810 0cf0 7B68     		ldr	r3, [r7, #4]
 3811 0cf2 03F10503 		add	r3, r3, #5
 3812 0cf6 1B78     		ldrb	r3, [r3, #0]	@ zero_extendqisi2
 3813 0cf8 1946     		mov	r1, r3
 3814 0cfa 40F20003 		movw	r3, #:lower16:rsbox
 3815 0cfe C0F20003 		movt	r3, #:upper16:rsbox
 3816 0d02 595C     		ldrb	r1, [r3, r1]	@ zero_extendqisi2
 3817 0d04 97F90F30 		ldrsb	r3, [r7, #15]
 3818 0d08 4FEA0313 		lsl	r3, r3, #4
 3819 0d0c 03F10903 		add	r3, r3, #9
 3820 0d10 3868     		ldr	r0, [r7, #0]
 3821 0d12 C318     		adds	r3, r0, r3
 3822 0d14 1B78     		ldrb	r3, [r3, #0]	@ zero_extendqisi2
 3823 0d16 4B40     		eors	r3, r3, r1
 3824 0d18 DBB2     		uxtb	r3, r3
 3825 0d1a 1370     		strb	r3, [r2, #0]
 411:../libraries/CC3000_Host_Driver/security.c ****     state[ 5]  = rsbox[state[ 1]] ^ expandedKey[(round*16) +  5];
 3826              		.loc 1 411 0 discriminator 2
 3827 0d1c 7B68     		ldr	r3, [r7, #4]
 3828 0d1e 03F10502 		add	r2, r3, #5
 3829 0d22 7B68     		ldr	r3, [r7, #4]
 3830 0d24 03F10103 		add	r3, r3, #1
 3831 0d28 1B78     		ldrb	r3, [r3, #0]	@ zero_extendqisi2
 3832 0d2a 1946     		mov	r1, r3
 3833 0d2c 40F20003 		movw	r3, #:lower16:rsbox
 3834 0d30 C0F20003 		movt	r3, #:upper16:rsbox
 3835 0d34 595C     		ldrb	r1, [r3, r1]	@ zero_extendqisi2
 3836 0d36 97F90F30 		ldrsb	r3, [r7, #15]
 3837 0d3a 4FEA0313 		lsl	r3, r3, #4
 3838 0d3e 03F10503 		add	r3, r3, #5
 3839 0d42 3868     		ldr	r0, [r7, #0]
 3840 0d44 C318     		adds	r3, r0, r3
 3841 0d46 1B78     		ldrb	r3, [r3, #0]	@ zero_extendqisi2
 3842 0d48 4B40     		eors	r3, r3, r1
 3843 0d4a DBB2     		uxtb	r3, r3
 3844 0d4c 1370     		strb	r3, [r2, #0]
 412:../libraries/CC3000_Host_Driver/security.c ****     state[ 1]  = buf1;
 3845              		.loc 1 412 0 discriminator 2
 3846 0d4e 7B68     		ldr	r3, [r7, #4]
 3847 0d50 03F10103 		add	r3, r3, #1
 3848 0d54 BA7B     		ldrb	r2, [r7, #14]
 3849 0d56 1A70     		strb	r2, [r3, #0]
 413:../libraries/CC3000_Host_Driver/security.c ****     // row 2
 414:../libraries/CC3000_Host_Driver/security.c ****     buf1 =       rsbox[state[ 2]] ^ expandedKey[(round*16) + 10];
 3850              		.loc 1 414 0 discriminator 2
 3851 0d58 7B68     		ldr	r3, [r7, #4]
 3852 0d5a 03F10203 		add	r3, r3, #2
 3853 0d5e 1B78     		ldrb	r3, [r3, #0]	@ zero_extendqisi2
 3854 0d60 1A46     		mov	r2, r3
 3855 0d62 40F20003 		movw	r3, #:lower16:rsbox
 3856 0d66 C0F20003 		movt	r3, #:upper16:rsbox
 3857 0d6a 9A5C     		ldrb	r2, [r3, r2]	@ zero_extendqisi2
 3858 0d6c 97F90F30 		ldrsb	r3, [r7, #15]
 3859 0d70 4FEA0313 		lsl	r3, r3, #4
 3860 0d74 03F10A03 		add	r3, r3, #10
 3861 0d78 3968     		ldr	r1, [r7, #0]
 3862 0d7a CB18     		adds	r3, r1, r3
 3863 0d7c 1B78     		ldrb	r3, [r3, #0]	@ zero_extendqisi2
 3864 0d7e 5340     		eors	r3, r3, r2
 3865 0d80 BB73     		strb	r3, [r7, #14]
 415:../libraries/CC3000_Host_Driver/security.c ****     buf2 =       rsbox[state[ 6]] ^ expandedKey[(round*16) + 14];
 3866              		.loc 1 415 0 discriminator 2
 3867 0d82 7B68     		ldr	r3, [r7, #4]
 3868 0d84 03F10603 		add	r3, r3, #6
 3869 0d88 1B78     		ldrb	r3, [r3, #0]	@ zero_extendqisi2
 3870 0d8a 1A46     		mov	r2, r3
 3871 0d8c 40F20003 		movw	r3, #:lower16:rsbox
 3872 0d90 C0F20003 		movt	r3, #:upper16:rsbox
 3873 0d94 9A5C     		ldrb	r2, [r3, r2]	@ zero_extendqisi2
 3874 0d96 97F90F30 		ldrsb	r3, [r7, #15]
 3875 0d9a 4FEA0313 		lsl	r3, r3, #4
 3876 0d9e 03F10E03 		add	r3, r3, #14
 3877 0da2 3968     		ldr	r1, [r7, #0]
 3878 0da4 CB18     		adds	r3, r1, r3
 3879 0da6 1B78     		ldrb	r3, [r3, #0]	@ zero_extendqisi2
 3880 0da8 5340     		eors	r3, r3, r2
 3881 0daa 7B73     		strb	r3, [r7, #13]
 416:../libraries/CC3000_Host_Driver/security.c ****     state[ 2]  = rsbox[state[10]] ^ expandedKey[(round*16) +  2];
 3882              		.loc 1 416 0 discriminator 2
 3883 0dac 7B68     		ldr	r3, [r7, #4]
 3884 0dae 03F10202 		add	r2, r3, #2
 3885 0db2 7B68     		ldr	r3, [r7, #4]
 3886 0db4 03F10A03 		add	r3, r3, #10
 3887 0db8 1B78     		ldrb	r3, [r3, #0]	@ zero_extendqisi2
 3888 0dba 1946     		mov	r1, r3
 3889 0dbc 40F20003 		movw	r3, #:lower16:rsbox
 3890 0dc0 C0F20003 		movt	r3, #:upper16:rsbox
 3891 0dc4 595C     		ldrb	r1, [r3, r1]	@ zero_extendqisi2
 3892 0dc6 97F90F30 		ldrsb	r3, [r7, #15]
 3893 0dca 4FEA0313 		lsl	r3, r3, #4
 3894 0dce 03F10203 		add	r3, r3, #2
 3895 0dd2 3868     		ldr	r0, [r7, #0]
 3896 0dd4 C318     		adds	r3, r0, r3
 3897 0dd6 1B78     		ldrb	r3, [r3, #0]	@ zero_extendqisi2
 3898 0dd8 4B40     		eors	r3, r3, r1
 3899 0dda DBB2     		uxtb	r3, r3
 3900 0ddc 1370     		strb	r3, [r2, #0]
 417:../libraries/CC3000_Host_Driver/security.c ****     state[ 6]  = rsbox[state[14]] ^ expandedKey[(round*16) +  6];
 3901              		.loc 1 417 0 discriminator 2
 3902 0dde 7B68     		ldr	r3, [r7, #4]
 3903 0de0 03F10602 		add	r2, r3, #6
 3904 0de4 7B68     		ldr	r3, [r7, #4]
 3905 0de6 03F10E03 		add	r3, r3, #14
 3906 0dea 1B78     		ldrb	r3, [r3, #0]	@ zero_extendqisi2
 3907 0dec 1946     		mov	r1, r3
 3908 0dee 40F20003 		movw	r3, #:lower16:rsbox
 3909 0df2 C0F20003 		movt	r3, #:upper16:rsbox
 3910 0df6 595C     		ldrb	r1, [r3, r1]	@ zero_extendqisi2
 3911 0df8 97F90F30 		ldrsb	r3, [r7, #15]
 3912 0dfc 4FEA0313 		lsl	r3, r3, #4
 3913 0e00 03F10603 		add	r3, r3, #6
 3914 0e04 3868     		ldr	r0, [r7, #0]
 3915 0e06 C318     		adds	r3, r0, r3
 3916 0e08 1B78     		ldrb	r3, [r3, #0]	@ zero_extendqisi2
 3917 0e0a 4B40     		eors	r3, r3, r1
 3918 0e0c DBB2     		uxtb	r3, r3
 3919 0e0e 1370     		strb	r3, [r2, #0]
 418:../libraries/CC3000_Host_Driver/security.c ****     state[10]  = buf1;
 3920              		.loc 1 418 0 discriminator 2
 3921 0e10 7B68     		ldr	r3, [r7, #4]
 3922 0e12 03F10A03 		add	r3, r3, #10
 3923 0e16 BA7B     		ldrb	r2, [r7, #14]
 3924 0e18 1A70     		strb	r2, [r3, #0]
 419:../libraries/CC3000_Host_Driver/security.c ****     state[14]  = buf2;
 3925              		.loc 1 419 0 discriminator 2
 3926 0e1a 7B68     		ldr	r3, [r7, #4]
 3927 0e1c 03F10E03 		add	r3, r3, #14
 3928 0e20 7A7B     		ldrb	r2, [r7, #13]
 3929 0e22 1A70     		strb	r2, [r3, #0]
 420:../libraries/CC3000_Host_Driver/security.c ****     // row 3
 421:../libraries/CC3000_Host_Driver/security.c ****     buf1 =       rsbox[state[ 3]] ^ expandedKey[(round*16) + 15];
 3930              		.loc 1 421 0 discriminator 2
 3931 0e24 7B68     		ldr	r3, [r7, #4]
 3932 0e26 03F10303 		add	r3, r3, #3
 3933 0e2a 1B78     		ldrb	r3, [r3, #0]	@ zero_extendqisi2
 3934 0e2c 1A46     		mov	r2, r3
 3935 0e2e 40F20003 		movw	r3, #:lower16:rsbox
 3936 0e32 C0F20003 		movt	r3, #:upper16:rsbox
 3937 0e36 9A5C     		ldrb	r2, [r3, r2]	@ zero_extendqisi2
 3938 0e38 97F90F30 		ldrsb	r3, [r7, #15]
 3939 0e3c 4FEA0313 		lsl	r3, r3, #4
 3940 0e40 03F10F03 		add	r3, r3, #15
 3941 0e44 3968     		ldr	r1, [r7, #0]
 3942 0e46 CB18     		adds	r3, r1, r3
 3943 0e48 1B78     		ldrb	r3, [r3, #0]	@ zero_extendqisi2
 3944 0e4a 5340     		eors	r3, r3, r2
 3945 0e4c BB73     		strb	r3, [r7, #14]
 422:../libraries/CC3000_Host_Driver/security.c ****     state[ 3]  = rsbox[state[ 7]] ^ expandedKey[(round*16) +  3];
 3946              		.loc 1 422 0 discriminator 2
 3947 0e4e 7B68     		ldr	r3, [r7, #4]
 3948 0e50 03F10302 		add	r2, r3, #3
 3949 0e54 7B68     		ldr	r3, [r7, #4]
 3950 0e56 03F10703 		add	r3, r3, #7
 3951 0e5a 1B78     		ldrb	r3, [r3, #0]	@ zero_extendqisi2
 3952 0e5c 1946     		mov	r1, r3
 3953 0e5e 40F20003 		movw	r3, #:lower16:rsbox
 3954 0e62 C0F20003 		movt	r3, #:upper16:rsbox
 3955 0e66 595C     		ldrb	r1, [r3, r1]	@ zero_extendqisi2
 3956 0e68 97F90F30 		ldrsb	r3, [r7, #15]
 3957 0e6c 4FEA0313 		lsl	r3, r3, #4
 3958 0e70 03F10303 		add	r3, r3, #3
 3959 0e74 3868     		ldr	r0, [r7, #0]
 3960 0e76 C318     		adds	r3, r0, r3
 3961 0e78 1B78     		ldrb	r3, [r3, #0]	@ zero_extendqisi2
 3962 0e7a 4B40     		eors	r3, r3, r1
 3963 0e7c DBB2     		uxtb	r3, r3
 3964 0e7e 1370     		strb	r3, [r2, #0]
 423:../libraries/CC3000_Host_Driver/security.c ****     state[ 7]  = rsbox[state[11]] ^ expandedKey[(round*16) +  7];
 3965              		.loc 1 423 0 discriminator 2
 3966 0e80 7B68     		ldr	r3, [r7, #4]
 3967 0e82 03F10702 		add	r2, r3, #7
 3968 0e86 7B68     		ldr	r3, [r7, #4]
 3969 0e88 03F10B03 		add	r3, r3, #11
 3970 0e8c 1B78     		ldrb	r3, [r3, #0]	@ zero_extendqisi2
 3971 0e8e 1946     		mov	r1, r3
 3972 0e90 40F20003 		movw	r3, #:lower16:rsbox
 3973 0e94 C0F20003 		movt	r3, #:upper16:rsbox
 3974 0e98 595C     		ldrb	r1, [r3, r1]	@ zero_extendqisi2
 3975 0e9a 97F90F30 		ldrsb	r3, [r7, #15]
 3976 0e9e 4FEA0313 		lsl	r3, r3, #4
 3977 0ea2 03F10703 		add	r3, r3, #7
 3978 0ea6 3868     		ldr	r0, [r7, #0]
 3979 0ea8 C318     		adds	r3, r0, r3
 3980 0eaa 1B78     		ldrb	r3, [r3, #0]	@ zero_extendqisi2
 3981 0eac 4B40     		eors	r3, r3, r1
 3982 0eae DBB2     		uxtb	r3, r3
 3983 0eb0 1370     		strb	r3, [r2, #0]
 424:../libraries/CC3000_Host_Driver/security.c ****     state[11]  = rsbox[state[15]] ^ expandedKey[(round*16) + 11];
 3984              		.loc 1 424 0 discriminator 2
 3985 0eb2 7B68     		ldr	r3, [r7, #4]
 3986 0eb4 03F10B02 		add	r2, r3, #11
 3987 0eb8 7B68     		ldr	r3, [r7, #4]
 3988 0eba 03F10F03 		add	r3, r3, #15
 3989 0ebe 1B78     		ldrb	r3, [r3, #0]	@ zero_extendqisi2
 3990 0ec0 1946     		mov	r1, r3
 3991 0ec2 40F20003 		movw	r3, #:lower16:rsbox
 3992 0ec6 C0F20003 		movt	r3, #:upper16:rsbox
 3993 0eca 595C     		ldrb	r1, [r3, r1]	@ zero_extendqisi2
 3994 0ecc 97F90F30 		ldrsb	r3, [r7, #15]
 3995 0ed0 4FEA0313 		lsl	r3, r3, #4
 3996 0ed4 03F10B03 		add	r3, r3, #11
 3997 0ed8 3868     		ldr	r0, [r7, #0]
 3998 0eda C318     		adds	r3, r0, r3
 3999 0edc 1B78     		ldrb	r3, [r3, #0]	@ zero_extendqisi2
 4000 0ede 4B40     		eors	r3, r3, r1
 4001 0ee0 DBB2     		uxtb	r3, r3
 4002 0ee2 1370     		strb	r3, [r2, #0]
 425:../libraries/CC3000_Host_Driver/security.c ****     state[15]  = buf1;
 4003              		.loc 1 425 0 discriminator 2
 4004 0ee4 7B68     		ldr	r3, [r7, #4]
 4005 0ee6 03F10F03 		add	r3, r3, #15
 4006 0eea BA7B     		ldrb	r2, [r7, #14]
 4007 0eec 1A70     		strb	r2, [r3, #0]
 353:../libraries/CC3000_Host_Driver/security.c ****   for (round = 8; round >= 0; round--){
 4008              		.loc 1 353 0 discriminator 2
 4009 0eee FB7B     		ldrb	r3, [r7, #15]
 4010 0ef0 03F1FF33 		add	r3, r3, #-1
 4011 0ef4 FB73     		strb	r3, [r7, #15]
 4012              	.L13:
 353:../libraries/CC3000_Host_Driver/security.c ****   for (round = 8; round >= 0; round--){
 4013              		.loc 1 353 0 is_stmt 0 discriminator 1
 4014 0ef6 97F90F30 		ldrsb	r3, [r7, #15]
 4015 0efa 002B     		cmp	r3, #0
 4016 0efc BFF6F7AA 		bge	.L14
 426:../libraries/CC3000_Host_Driver/security.c ****   }
 427:../libraries/CC3000_Host_Driver/security.c **** 	
 428:../libraries/CC3000_Host_Driver/security.c **** } 
 4017              		.loc 1 428 0 is_stmt 1
 4018 0f00 07F11007 		add	r7, r7, #16
 4019 0f04 BD46     		mov	sp, r7
 4020 0f06 80BD     		pop	{r7, pc}
 4021              		.cfi_endproc
 4022              	.LFE3:
 4024              		.section	.text.aes_encrypt,"ax",%progbits
 4025              		.align	2
 4026              		.global	aes_encrypt
 4027              		.thumb
 4028              		.thumb_func
 4030              	aes_encrypt:
 4031              	.LFB4:
 429:../libraries/CC3000_Host_Driver/security.c **** 
 430:../libraries/CC3000_Host_Driver/security.c **** //*****************************************************************************
 431:../libraries/CC3000_Host_Driver/security.c **** //
 432:../libraries/CC3000_Host_Driver/security.c **** //!  aes_encrypt
 433:../libraries/CC3000_Host_Driver/security.c **** //!
 434:../libraries/CC3000_Host_Driver/security.c **** //!  @param[in]  key   AES128 key of size 16 bytes
 435:../libraries/CC3000_Host_Driver/security.c **** //!  @param[in\out] state   16 bytes of plain text and cipher text
 436:../libraries/CC3000_Host_Driver/security.c **** //!
 437:../libraries/CC3000_Host_Driver/security.c **** //!  @return  none
 438:../libraries/CC3000_Host_Driver/security.c **** //!
 439:../libraries/CC3000_Host_Driver/security.c **** //!  @brief   AES128 encryption:
 440:../libraries/CC3000_Host_Driver/security.c **** //!           Given AES128 key and  16 bytes plain text, cipher text of 16 bytes
 441:../libraries/CC3000_Host_Driver/security.c **** //!           is computed. The AES implementation is in mode ECB (Electronic 
 442:../libraries/CC3000_Host_Driver/security.c **** //!           Code Book). 
 443:../libraries/CC3000_Host_Driver/security.c **** //!	 
 444:../libraries/CC3000_Host_Driver/security.c **** //!
 445:../libraries/CC3000_Host_Driver/security.c **** //*****************************************************************************
 446:../libraries/CC3000_Host_Driver/security.c **** 
 447:../libraries/CC3000_Host_Driver/security.c **** void aes_encrypt(unsigned char *state,
 448:../libraries/CC3000_Host_Driver/security.c ****                  unsigned char *key)
 449:../libraries/CC3000_Host_Driver/security.c **** {
 4032              		.loc 1 449 0
 4033              		.cfi_startproc
 4034              		@ args = 0, pretend = 0, frame = 8
 4035              		@ frame_needed = 1, uses_anonymous_args = 0
 4036 0000 80B5     		push	{r7, lr}
 4037              	.LCFI12:
 4038              		.cfi_def_cfa_offset 8
 4039              		.cfi_offset 7, -8
 4040              		.cfi_offset 14, -4
 4041 0002 82B0     		sub	sp, sp, #8
 4042              	.LCFI13:
 4043              		.cfi_def_cfa_offset 16
 4044 0004 00AF     		add	r7, sp, #0
 4045              	.LCFI14:
 4046              		.cfi_def_cfa_register 7
 4047 0006 7860     		str	r0, [r7, #4]
 4048 0008 3960     		str	r1, [r7, #0]
 450:../libraries/CC3000_Host_Driver/security.c **** 	// expand the key into 176 bytes
 451:../libraries/CC3000_Host_Driver/security.c **** 	expandKey(expandedKey, key);       
 4049              		.loc 1 451 0
 4050 000a 40F20000 		movw	r0, #:lower16:expandedKey
 4051 000e C0F20000 		movt	r0, #:upper16:expandedKey
 4052 0012 3968     		ldr	r1, [r7, #0]
 4053 0014 FFF7FEFF 		bl	expandKey
 452:../libraries/CC3000_Host_Driver/security.c **** 	aes_encr(state, expandedKey);
 4054              		.loc 1 452 0
 4055 0018 7868     		ldr	r0, [r7, #4]
 4056 001a 40F20001 		movw	r1, #:lower16:expandedKey
 4057 001e C0F20001 		movt	r1, #:upper16:expandedKey
 4058 0022 FFF7FEFF 		bl	aes_encr
 453:../libraries/CC3000_Host_Driver/security.c **** }
 4059              		.loc 1 453 0
 4060 0026 07F10807 		add	r7, r7, #8
 4061 002a BD46     		mov	sp, r7
 4062 002c 80BD     		pop	{r7, pc}
 4063              		.cfi_endproc
 4064              	.LFE4:
 4066 002e 00BF     		.section	.text.aes_decrypt,"ax",%progbits
 4067              		.align	2
 4068              		.global	aes_decrypt
 4069              		.thumb
 4070              		.thumb_func
 4072              	aes_decrypt:
 4073              	.LFB5:
 454:../libraries/CC3000_Host_Driver/security.c **** 
 455:../libraries/CC3000_Host_Driver/security.c **** //*****************************************************************************
 456:../libraries/CC3000_Host_Driver/security.c **** //
 457:../libraries/CC3000_Host_Driver/security.c **** //!  aes_decrypt
 458:../libraries/CC3000_Host_Driver/security.c **** //!
 459:../libraries/CC3000_Host_Driver/security.c **** //!  @param[in]  key   AES128 key of size 16 bytes
 460:../libraries/CC3000_Host_Driver/security.c **** //!  @param[in\out] state   16 bytes of cipher text and plain text
 461:../libraries/CC3000_Host_Driver/security.c **** //!
 462:../libraries/CC3000_Host_Driver/security.c **** //!  @return  none
 463:../libraries/CC3000_Host_Driver/security.c **** //!
 464:../libraries/CC3000_Host_Driver/security.c **** //!  @brief   AES128 decryption:
 465:../libraries/CC3000_Host_Driver/security.c **** //!           Given AES128 key and  16 bytes cipher text, plain text of 16 bytes
 466:../libraries/CC3000_Host_Driver/security.c **** //!           is computed The AES implementation is in mode ECB 
 467:../libraries/CC3000_Host_Driver/security.c **** //!           (Electronic Code Book).
 468:../libraries/CC3000_Host_Driver/security.c **** //!	 
 469:../libraries/CC3000_Host_Driver/security.c **** //!
 470:../libraries/CC3000_Host_Driver/security.c **** //*****************************************************************************
 471:../libraries/CC3000_Host_Driver/security.c **** 
 472:../libraries/CC3000_Host_Driver/security.c **** void aes_decrypt(unsigned char *state,
 473:../libraries/CC3000_Host_Driver/security.c ****                  unsigned char *key)
 474:../libraries/CC3000_Host_Driver/security.c **** {
 4074              		.loc 1 474 0
 4075              		.cfi_startproc
 4076              		@ args = 0, pretend = 0, frame = 8
 4077              		@ frame_needed = 1, uses_anonymous_args = 0
 4078 0000 80B5     		push	{r7, lr}
 4079              	.LCFI15:
 4080              		.cfi_def_cfa_offset 8
 4081              		.cfi_offset 7, -8
 4082              		.cfi_offset 14, -4
 4083 0002 82B0     		sub	sp, sp, #8
 4084              	.LCFI16:
 4085              		.cfi_def_cfa_offset 16
 4086 0004 00AF     		add	r7, sp, #0
 4087              	.LCFI17:
 4088              		.cfi_def_cfa_register 7
 4089 0006 7860     		str	r0, [r7, #4]
 4090 0008 3960     		str	r1, [r7, #0]
 475:../libraries/CC3000_Host_Driver/security.c ****     expandKey(expandedKey, key);       // expand the key into 176 bytes
 4091              		.loc 1 475 0
 4092 000a 40F20000 		movw	r0, #:lower16:expandedKey
 4093 000e C0F20000 		movt	r0, #:upper16:expandedKey
 4094 0012 3968     		ldr	r1, [r7, #0]
 4095 0014 FFF7FEFF 		bl	expandKey
 476:../libraries/CC3000_Host_Driver/security.c ****     aes_decr(state, expandedKey);
 4096              		.loc 1 476 0
 4097 0018 7868     		ldr	r0, [r7, #4]
 4098 001a 40F20001 		movw	r1, #:lower16:expandedKey
 4099 001e C0F20001 		movt	r1, #:upper16:expandedKey
 4100 0022 FFF7FEFF 		bl	aes_decr
 477:../libraries/CC3000_Host_Driver/security.c **** }
 4101              		.loc 1 477 0
 4102 0026 07F10807 		add	r7, r7, #8
 4103 002a BD46     		mov	sp, r7
 4104 002c 80BD     		pop	{r7, pc}
 4105              		.cfi_endproc
 4106              	.LFE5:
 4108 002e 00BF     		.section	.text.aes_read_key,"ax",%progbits
 4109              		.align	2
 4110              		.global	aes_read_key
 4111              		.thumb
 4112              		.thumb_func
 4114              	aes_read_key:
 4115              	.LFB6:
 478:../libraries/CC3000_Host_Driver/security.c **** 
 479:../libraries/CC3000_Host_Driver/security.c **** //*****************************************************************************
 480:../libraries/CC3000_Host_Driver/security.c **** //
 481:../libraries/CC3000_Host_Driver/security.c **** //!  aes_read_key
 482:../libraries/CC3000_Host_Driver/security.c **** //!
 483:../libraries/CC3000_Host_Driver/security.c **** //!  @param[out]  key   AES128 key of size 16 bytes
 484:../libraries/CC3000_Host_Driver/security.c **** //!
 485:../libraries/CC3000_Host_Driver/security.c **** //!  @return  on success 0, error otherwise.
 486:../libraries/CC3000_Host_Driver/security.c **** //!
 487:../libraries/CC3000_Host_Driver/security.c **** //!  @brief   Reads AES128 key from EEPROM
 488:../libraries/CC3000_Host_Driver/security.c **** //!           Reads the AES128 key from fileID #12 in EEPROM
 489:../libraries/CC3000_Host_Driver/security.c **** //!           returns an error if the key does not exist. 
 490:../libraries/CC3000_Host_Driver/security.c **** //!	 
 491:../libraries/CC3000_Host_Driver/security.c **** //!
 492:../libraries/CC3000_Host_Driver/security.c **** //*****************************************************************************
 493:../libraries/CC3000_Host_Driver/security.c **** 
 494:../libraries/CC3000_Host_Driver/security.c **** signed long aes_read_key(unsigned char *key)
 495:../libraries/CC3000_Host_Driver/security.c **** {
 4116              		.loc 1 495 0
 4117              		.cfi_startproc
 4118              		@ args = 0, pretend = 0, frame = 16
 4119              		@ frame_needed = 1, uses_anonymous_args = 0
 4120 0000 80B5     		push	{r7, lr}
 4121              	.LCFI18:
 4122              		.cfi_def_cfa_offset 8
 4123              		.cfi_offset 7, -8
 4124              		.cfi_offset 14, -4
 4125 0002 84B0     		sub	sp, sp, #16
 4126              	.LCFI19:
 4127              		.cfi_def_cfa_offset 24
 4128 0004 00AF     		add	r7, sp, #0
 4129              	.LCFI20:
 4130              		.cfi_def_cfa_register 7
 4131 0006 7860     		str	r0, [r7, #4]
 496:../libraries/CC3000_Host_Driver/security.c **** 	signed long	returnValue;
 497:../libraries/CC3000_Host_Driver/security.c **** 	
 498:../libraries/CC3000_Host_Driver/security.c **** 	returnValue = nvmem_read(NVMEM_AES128_KEY_FILEID, AES128_KEY_SIZE, 0, key);
 4132              		.loc 1 498 0
 4133 0008 4FF00C00 		mov	r0, #12
 4134 000c 4FF01001 		mov	r1, #16
 4135 0010 4FF00002 		mov	r2, #0
 4136 0014 7B68     		ldr	r3, [r7, #4]
 4137 0016 FFF7FEFF 		bl	nvmem_read
 4138 001a F860     		str	r0, [r7, #12]
 499:../libraries/CC3000_Host_Driver/security.c **** 
 500:../libraries/CC3000_Host_Driver/security.c **** 	return returnValue;
 4139              		.loc 1 500 0
 4140 001c FB68     		ldr	r3, [r7, #12]
 501:../libraries/CC3000_Host_Driver/security.c **** }
 4141              		.loc 1 501 0
 4142 001e 1846     		mov	r0, r3
 4143 0020 07F11007 		add	r7, r7, #16
 4144 0024 BD46     		mov	sp, r7
 4145 0026 80BD     		pop	{r7, pc}
 4146              		.cfi_endproc
 4147              	.LFE6:
 4149              		.section	.text.aes_write_key,"ax",%progbits
 4150              		.align	2
 4151              		.global	aes_write_key
 4152              		.thumb
 4153              		.thumb_func
 4155              	aes_write_key:
 4156              	.LFB7:
 502:../libraries/CC3000_Host_Driver/security.c **** 
 503:../libraries/CC3000_Host_Driver/security.c **** //*****************************************************************************
 504:../libraries/CC3000_Host_Driver/security.c **** //
 505:../libraries/CC3000_Host_Driver/security.c **** //!  aes_write_key
 506:../libraries/CC3000_Host_Driver/security.c **** //!
 507:../libraries/CC3000_Host_Driver/security.c **** //!  @param[out]  key   AES128 key of size 16 bytes
 508:../libraries/CC3000_Host_Driver/security.c **** //!
 509:../libraries/CC3000_Host_Driver/security.c **** //!  @return  on success 0, error otherwise.
 510:../libraries/CC3000_Host_Driver/security.c **** //!
 511:../libraries/CC3000_Host_Driver/security.c **** //!  @brief   writes AES128 key from EEPROM
 512:../libraries/CC3000_Host_Driver/security.c **** //!           Writes the AES128 key to fileID #12 in EEPROM
 513:../libraries/CC3000_Host_Driver/security.c **** //!	 
 514:../libraries/CC3000_Host_Driver/security.c **** //!
 515:../libraries/CC3000_Host_Driver/security.c **** //*****************************************************************************
 516:../libraries/CC3000_Host_Driver/security.c **** 
 517:../libraries/CC3000_Host_Driver/security.c **** signed long aes_write_key(unsigned char *key)
 518:../libraries/CC3000_Host_Driver/security.c **** {
 4157              		.loc 1 518 0
 4158              		.cfi_startproc
 4159              		@ args = 0, pretend = 0, frame = 16
 4160              		@ frame_needed = 1, uses_anonymous_args = 0
 4161 0000 80B5     		push	{r7, lr}
 4162              	.LCFI21:
 4163              		.cfi_def_cfa_offset 8
 4164              		.cfi_offset 7, -8
 4165              		.cfi_offset 14, -4
 4166 0002 84B0     		sub	sp, sp, #16
 4167              	.LCFI22:
 4168              		.cfi_def_cfa_offset 24
 4169 0004 00AF     		add	r7, sp, #0
 4170              	.LCFI23:
 4171              		.cfi_def_cfa_register 7
 4172 0006 7860     		str	r0, [r7, #4]
 519:../libraries/CC3000_Host_Driver/security.c **** 	signed long	returnValue;
 520:../libraries/CC3000_Host_Driver/security.c **** 
 521:../libraries/CC3000_Host_Driver/security.c **** 	returnValue = nvmem_write(NVMEM_AES128_KEY_FILEID, AES128_KEY_SIZE, 0, key);
 4173              		.loc 1 521 0
 4174 0008 4FF00C00 		mov	r0, #12
 4175 000c 4FF01001 		mov	r1, #16
 4176 0010 4FF00002 		mov	r2, #0
 4177 0014 7B68     		ldr	r3, [r7, #4]
 4178 0016 FFF7FEFF 		bl	nvmem_write
 4179 001a F860     		str	r0, [r7, #12]
 522:../libraries/CC3000_Host_Driver/security.c **** 
 523:../libraries/CC3000_Host_Driver/security.c **** 	return returnValue;
 4180              		.loc 1 523 0
 4181 001c FB68     		ldr	r3, [r7, #12]
 524:../libraries/CC3000_Host_Driver/security.c **** }
 4182              		.loc 1 524 0
 4183 001e 1846     		mov	r0, r3
 4184 0020 07F11007 		add	r7, r7, #16
 4185 0024 BD46     		mov	sp, r7
 4186 0026 80BD     		pop	{r7, pc}
 4187              		.cfi_endproc
 4188              	.LFE7:
 4190              		.text
 4191              	.Letext0: