   1              		.syntax unified
   2              		.cpu cortex-m3
   3              		.fpu softvfp
   4              		.eabi_attribute 20, 1
   5              		.eabi_attribute 21, 1
   6              		.eabi_attribute 23, 3
   7              		.eabi_attribute 24, 1
   8              		.eabi_attribute 25, 1
   9              		.eabi_attribute 26, 1
  10              		.eabi_attribute 30, 4
  11              		.eabi_attribute 34, 1
  12              		.eabi_attribute 18, 4
  13              		.thumb
  14              		.file	"misc.c"
  15              		.text
  16              	.Ltext0:
  17              		.cfi_sections	.debug_frame
  18              		.section	.text.NVIC_PriorityGroupConfig,"ax",%progbits
  19              		.align	1
  20              		.global	NVIC_PriorityGroupConfig
  21              		.thumb
  22              		.thumb_func
  24              	NVIC_PriorityGroupConfig:
  25              	.LFB56:
  26              		.file 1 "../libraries/STM32F10x_StdPeriph_Driver/src/misc.c"
   1:../libraries/STM32F10x_StdPeriph_Driver/src/misc.c **** /**
   2:../libraries/STM32F10x_StdPeriph_Driver/src/misc.c ****   ******************************************************************************
   3:../libraries/STM32F10x_StdPeriph_Driver/src/misc.c ****   * @file    misc.c
   4:../libraries/STM32F10x_StdPeriph_Driver/src/misc.c ****   * @author  MCD Application Team
   5:../libraries/STM32F10x_StdPeriph_Driver/src/misc.c ****   * @version V3.6.1
   6:../libraries/STM32F10x_StdPeriph_Driver/src/misc.c ****   * @date    05-March-2012
   7:../libraries/STM32F10x_StdPeriph_Driver/src/misc.c ****   * @brief   This file provides all the miscellaneous firmware functions (add-on
   8:../libraries/STM32F10x_StdPeriph_Driver/src/misc.c ****   *          to CMSIS functions).
   9:../libraries/STM32F10x_StdPeriph_Driver/src/misc.c ****   ******************************************************************************
  10:../libraries/STM32F10x_StdPeriph_Driver/src/misc.c ****   * @attention
  11:../libraries/STM32F10x_StdPeriph_Driver/src/misc.c ****   *
  12:../libraries/STM32F10x_StdPeriph_Driver/src/misc.c ****   * <h2><center>&copy; COPYRIGHT 2012 STMicroelectronics</center></h2>
  13:../libraries/STM32F10x_StdPeriph_Driver/src/misc.c ****   *
  14:../libraries/STM32F10x_StdPeriph_Driver/src/misc.c ****   * Licensed under MCD-ST Liberty SW License Agreement V2, (the "License");
  15:../libraries/STM32F10x_StdPeriph_Driver/src/misc.c ****   * You may not use this file except in compliance with the License.
  16:../libraries/STM32F10x_StdPeriph_Driver/src/misc.c ****   * You may obtain a copy of the License at:
  17:../libraries/STM32F10x_StdPeriph_Driver/src/misc.c ****   *
  18:../libraries/STM32F10x_StdPeriph_Driver/src/misc.c ****   *        http://www.st.com/software_license_agreement_liberty_v2
  19:../libraries/STM32F10x_StdPeriph_Driver/src/misc.c ****   *
  20:../libraries/STM32F10x_StdPeriph_Driver/src/misc.c ****   * Unless required by applicable law or agreed to in writing, software 
  21:../libraries/STM32F10x_StdPeriph_Driver/src/misc.c ****   * distributed under the License is distributed on an "AS IS" BASIS, 
  22:../libraries/STM32F10x_StdPeriph_Driver/src/misc.c ****   * WITHOUT WARRANTIES OR CONDITIONS OF ANY KIND, either express or implied.
  23:../libraries/STM32F10x_StdPeriph_Driver/src/misc.c ****   * See the License for the specific language governing permissions and
  24:../libraries/STM32F10x_StdPeriph_Driver/src/misc.c ****   * limitations under the License.
  25:../libraries/STM32F10x_StdPeriph_Driver/src/misc.c ****   *
  26:../libraries/STM32F10x_StdPeriph_Driver/src/misc.c ****   ******************************************************************************
  27:../libraries/STM32F10x_StdPeriph_Driver/src/misc.c ****   */
  28:../libraries/STM32F10x_StdPeriph_Driver/src/misc.c **** 
  29:../libraries/STM32F10x_StdPeriph_Driver/src/misc.c **** /* Includes ------------------------------------------------------------------*/
  30:../libraries/STM32F10x_StdPeriph_Driver/src/misc.c **** #include "misc.h"
  31:../libraries/STM32F10x_StdPeriph_Driver/src/misc.c **** 
  32:../libraries/STM32F10x_StdPeriph_Driver/src/misc.c **** /** @addtogroup STM32F10x_StdPeriph_Driver
  33:../libraries/STM32F10x_StdPeriph_Driver/src/misc.c ****   * @{
  34:../libraries/STM32F10x_StdPeriph_Driver/src/misc.c ****   */
  35:../libraries/STM32F10x_StdPeriph_Driver/src/misc.c **** 
  36:../libraries/STM32F10x_StdPeriph_Driver/src/misc.c **** /** @defgroup MISC 
  37:../libraries/STM32F10x_StdPeriph_Driver/src/misc.c ****   * @brief MISC driver modules
  38:../libraries/STM32F10x_StdPeriph_Driver/src/misc.c ****   * @{
  39:../libraries/STM32F10x_StdPeriph_Driver/src/misc.c ****   */
  40:../libraries/STM32F10x_StdPeriph_Driver/src/misc.c **** 
  41:../libraries/STM32F10x_StdPeriph_Driver/src/misc.c **** /** @defgroup MISC_Private_TypesDefinitions
  42:../libraries/STM32F10x_StdPeriph_Driver/src/misc.c ****   * @{
  43:../libraries/STM32F10x_StdPeriph_Driver/src/misc.c ****   */
  44:../libraries/STM32F10x_StdPeriph_Driver/src/misc.c **** 
  45:../libraries/STM32F10x_StdPeriph_Driver/src/misc.c **** /**
  46:../libraries/STM32F10x_StdPeriph_Driver/src/misc.c ****   * @}
  47:../libraries/STM32F10x_StdPeriph_Driver/src/misc.c ****   */ 
  48:../libraries/STM32F10x_StdPeriph_Driver/src/misc.c **** 
  49:../libraries/STM32F10x_StdPeriph_Driver/src/misc.c **** /** @defgroup MISC_Private_Defines
  50:../libraries/STM32F10x_StdPeriph_Driver/src/misc.c ****   * @{
  51:../libraries/STM32F10x_StdPeriph_Driver/src/misc.c ****   */
  52:../libraries/STM32F10x_StdPeriph_Driver/src/misc.c **** 
  53:../libraries/STM32F10x_StdPeriph_Driver/src/misc.c **** #define AIRCR_VECTKEY_MASK    ((uint32_t)0x05FA0000)
  54:../libraries/STM32F10x_StdPeriph_Driver/src/misc.c **** /**
  55:../libraries/STM32F10x_StdPeriph_Driver/src/misc.c ****   * @}
  56:../libraries/STM32F10x_StdPeriph_Driver/src/misc.c ****   */
  57:../libraries/STM32F10x_StdPeriph_Driver/src/misc.c **** 
  58:../libraries/STM32F10x_StdPeriph_Driver/src/misc.c **** /** @defgroup MISC_Private_Macros
  59:../libraries/STM32F10x_StdPeriph_Driver/src/misc.c ****   * @{
  60:../libraries/STM32F10x_StdPeriph_Driver/src/misc.c ****   */
  61:../libraries/STM32F10x_StdPeriph_Driver/src/misc.c **** 
  62:../libraries/STM32F10x_StdPeriph_Driver/src/misc.c **** /**
  63:../libraries/STM32F10x_StdPeriph_Driver/src/misc.c ****   * @}
  64:../libraries/STM32F10x_StdPeriph_Driver/src/misc.c ****   */
  65:../libraries/STM32F10x_StdPeriph_Driver/src/misc.c **** 
  66:../libraries/STM32F10x_StdPeriph_Driver/src/misc.c **** /** @defgroup MISC_Private_Variables
  67:../libraries/STM32F10x_StdPeriph_Driver/src/misc.c ****   * @{
  68:../libraries/STM32F10x_StdPeriph_Driver/src/misc.c ****   */
  69:../libraries/STM32F10x_StdPeriph_Driver/src/misc.c **** 
  70:../libraries/STM32F10x_StdPeriph_Driver/src/misc.c **** /**
  71:../libraries/STM32F10x_StdPeriph_Driver/src/misc.c ****   * @}
  72:../libraries/STM32F10x_StdPeriph_Driver/src/misc.c ****   */
  73:../libraries/STM32F10x_StdPeriph_Driver/src/misc.c **** 
  74:../libraries/STM32F10x_StdPeriph_Driver/src/misc.c **** /** @defgroup MISC_Private_FunctionPrototypes
  75:../libraries/STM32F10x_StdPeriph_Driver/src/misc.c ****   * @{
  76:../libraries/STM32F10x_StdPeriph_Driver/src/misc.c ****   */
  77:../libraries/STM32F10x_StdPeriph_Driver/src/misc.c **** 
  78:../libraries/STM32F10x_StdPeriph_Driver/src/misc.c **** /**
  79:../libraries/STM32F10x_StdPeriph_Driver/src/misc.c ****   * @}
  80:../libraries/STM32F10x_StdPeriph_Driver/src/misc.c ****   */
  81:../libraries/STM32F10x_StdPeriph_Driver/src/misc.c **** 
  82:../libraries/STM32F10x_StdPeriph_Driver/src/misc.c **** /** @defgroup MISC_Private_Functions
  83:../libraries/STM32F10x_StdPeriph_Driver/src/misc.c ****   * @{
  84:../libraries/STM32F10x_StdPeriph_Driver/src/misc.c ****   */
  85:../libraries/STM32F10x_StdPeriph_Driver/src/misc.c **** 
  86:../libraries/STM32F10x_StdPeriph_Driver/src/misc.c **** /**
  87:../libraries/STM32F10x_StdPeriph_Driver/src/misc.c ****   * @brief  Configures the priority grouping: pre-emption priority and subpriority.
  88:../libraries/STM32F10x_StdPeriph_Driver/src/misc.c ****   * @param  NVIC_PriorityGroup: specifies the priority grouping bits length. 
  89:../libraries/STM32F10x_StdPeriph_Driver/src/misc.c ****   *   This parameter can be one of the following values:
  90:../libraries/STM32F10x_StdPeriph_Driver/src/misc.c ****   *     @arg NVIC_PriorityGroup_0: 0 bits for pre-emption priority
  91:../libraries/STM32F10x_StdPeriph_Driver/src/misc.c ****   *                                4 bits for subpriority
  92:../libraries/STM32F10x_StdPeriph_Driver/src/misc.c ****   *     @arg NVIC_PriorityGroup_1: 1 bits for pre-emption priority
  93:../libraries/STM32F10x_StdPeriph_Driver/src/misc.c ****   *                                3 bits for subpriority
  94:../libraries/STM32F10x_StdPeriph_Driver/src/misc.c ****   *     @arg NVIC_PriorityGroup_2: 2 bits for pre-emption priority
  95:../libraries/STM32F10x_StdPeriph_Driver/src/misc.c ****   *                                2 bits for subpriority
  96:../libraries/STM32F10x_StdPeriph_Driver/src/misc.c ****   *     @arg NVIC_PriorityGroup_3: 3 bits for pre-emption priority
  97:../libraries/STM32F10x_StdPeriph_Driver/src/misc.c ****   *                                1 bits for subpriority
  98:../libraries/STM32F10x_StdPeriph_Driver/src/misc.c ****   *     @arg NVIC_PriorityGroup_4: 4 bits for pre-emption priority
  99:../libraries/STM32F10x_StdPeriph_Driver/src/misc.c ****   *                                0 bits for subpriority
 100:../libraries/STM32F10x_StdPeriph_Driver/src/misc.c ****   * @retval None
 101:../libraries/STM32F10x_StdPeriph_Driver/src/misc.c ****   */
 102:../libraries/STM32F10x_StdPeriph_Driver/src/misc.c **** void NVIC_PriorityGroupConfig(uint32_t NVIC_PriorityGroup)
 103:../libraries/STM32F10x_StdPeriph_Driver/src/misc.c **** {
  27              		.loc 1 103 0
  28              		.cfi_startproc
  29              		@ args = 0, pretend = 0, frame = 0
  30              		@ frame_needed = 0, uses_anonymous_args = 0
  31              		@ link register save eliminated.
  32              	.LVL0:
 104:../libraries/STM32F10x_StdPeriph_Driver/src/misc.c ****   /* Check the parameters */
 105:../libraries/STM32F10x_StdPeriph_Driver/src/misc.c ****   assert_param(IS_NVIC_PRIORITY_GROUP(NVIC_PriorityGroup));
 106:../libraries/STM32F10x_StdPeriph_Driver/src/misc.c ****   
 107:../libraries/STM32F10x_StdPeriph_Driver/src/misc.c ****   /* Set the PRIGROUP[10:8] bits according to NVIC_PriorityGroup value */
 108:../libraries/STM32F10x_StdPeriph_Driver/src/misc.c ****   SCB->AIRCR = AIRCR_VECTKEY_MASK | NVIC_PriorityGroup;
  33              		.loc 1 108 0
  34 0000 40F0BF60 		orr	r0, r0, #100139008
  35              	.LVL1:
  36 0004 024B     		ldr	r3, .L2
  37 0006 40F40031 		orr	r1, r0, #131072
  38 000a D960     		str	r1, [r3, #12]
  39 000c 7047     		bx	lr
  40              	.L3:
  41 000e 00BF     		.align	2
  42              	.L2:
  43 0010 00ED00E0 		.word	-536810240
  44              		.cfi_endproc
  45              	.LFE56:
  47              		.section	.text.NVIC_Init,"ax",%progbits
  48              		.align	1
  49              		.global	NVIC_Init
  50              		.thumb
  51              		.thumb_func
  53              	NVIC_Init:
  54              	.LFB57:
 109:../libraries/STM32F10x_StdPeriph_Driver/src/misc.c **** }
 110:../libraries/STM32F10x_StdPeriph_Driver/src/misc.c **** 
 111:../libraries/STM32F10x_StdPeriph_Driver/src/misc.c **** /**
 112:../libraries/STM32F10x_StdPeriph_Driver/src/misc.c ****   * @brief  Initializes the NVIC peripheral according to the specified
 113:../libraries/STM32F10x_StdPeriph_Driver/src/misc.c ****   *         parameters in the NVIC_InitStruct.
 114:../libraries/STM32F10x_StdPeriph_Driver/src/misc.c ****   * @param  NVIC_InitStruct: pointer to a NVIC_InitTypeDef structure that contains
 115:../libraries/STM32F10x_StdPeriph_Driver/src/misc.c ****   *         the configuration information for the specified NVIC peripheral.
 116:../libraries/STM32F10x_StdPeriph_Driver/src/misc.c ****   * @retval None
 117:../libraries/STM32F10x_StdPeriph_Driver/src/misc.c ****   */
 118:../libraries/STM32F10x_StdPeriph_Driver/src/misc.c **** void NVIC_Init(NVIC_InitTypeDef* NVIC_InitStruct)
 119:../libraries/STM32F10x_StdPeriph_Driver/src/misc.c **** {
  55              		.loc 1 119 0
  56              		.cfi_startproc
  57              		@ args = 0, pretend = 0, frame = 0
  58              		@ frame_needed = 0, uses_anonymous_args = 0
  59              	.LVL2:
 120:../libraries/STM32F10x_StdPeriph_Driver/src/misc.c ****   uint32_t tmppriority = 0x00, tmppre = 0x00, tmpsub = 0x0F;
 121:../libraries/STM32F10x_StdPeriph_Driver/src/misc.c ****   
 122:../libraries/STM32F10x_StdPeriph_Driver/src/misc.c ****   /* Check the parameters */
 123:../libraries/STM32F10x_StdPeriph_Driver/src/misc.c ****   assert_param(IS_FUNCTIONAL_STATE(NVIC_InitStruct->NVIC_IRQChannelCmd));
 124:../libraries/STM32F10x_StdPeriph_Driver/src/misc.c ****   assert_param(IS_NVIC_PREEMPTION_PRIORITY(NVIC_InitStruct->NVIC_IRQChannelPreemptionPriority));  
 125:../libraries/STM32F10x_StdPeriph_Driver/src/misc.c ****   assert_param(IS_NVIC_SUB_PRIORITY(NVIC_InitStruct->NVIC_IRQChannelSubPriority));
 126:../libraries/STM32F10x_StdPeriph_Driver/src/misc.c ****     
 127:../libraries/STM32F10x_StdPeriph_Driver/src/misc.c ****   if (NVIC_InitStruct->NVIC_IRQChannelCmd != DISABLE)
  60              		.loc 1 127 0
  61 0000 C378     		ldrb	r3, [r0, #3]	@ zero_extendqisi2
 119:../libraries/STM32F10x_StdPeriph_Driver/src/misc.c **** {
  62              		.loc 1 119 0
  63 0002 10B5     		push	{r4, lr}
  64              	.LCFI0:
  65              		.cfi_def_cfa_offset 8
  66              		.cfi_offset 4, -8
  67              		.cfi_offset 14, -4
  68              		.loc 1 127 0
  69 0004 03B3     		cbz	r3, .L5
 128:../libraries/STM32F10x_StdPeriph_Driver/src/misc.c ****   {
 129:../libraries/STM32F10x_StdPeriph_Driver/src/misc.c ****     /* Compute the Corresponding IRQ Priority --------------------------------*/    
 130:../libraries/STM32F10x_StdPeriph_Driver/src/misc.c ****     tmppriority = (0x700 - ((SCB->AIRCR) & (uint32_t)0x700))>> 0x08;
  70              		.loc 1 130 0
  71 0006 164C     		ldr	r4, .L9
  72 0008 E168     		ldr	r1, [r4, #12]
  73 000a CB43     		mvns	r3, r1
  74 000c C3F30224 		ubfx	r4, r3, #8, #3
  75              	.LVL3:
 131:../libraries/STM32F10x_StdPeriph_Driver/src/misc.c ****     tmppre = (0x4 - tmppriority);
 132:../libraries/STM32F10x_StdPeriph_Driver/src/misc.c ****     tmpsub = tmpsub >> tmppriority;
 133:../libraries/STM32F10x_StdPeriph_Driver/src/misc.c **** 
 134:../libraries/STM32F10x_StdPeriph_Driver/src/misc.c ****     tmppriority = (uint32_t)NVIC_InitStruct->NVIC_IRQChannelPreemptionPriority << tmppre;
  76              		.loc 1 134 0
  77 0010 4178     		ldrb	r1, [r0, #1]	@ zero_extendqisi2
 131:../libraries/STM32F10x_StdPeriph_Driver/src/misc.c ****     tmppre = (0x4 - tmppriority);
  78              		.loc 1 131 0
  79 0012 C4F10402 		rsb	r2, r4, #4
  80              	.LVL4:
  81              		.loc 1 134 0
  82 0016 01FA02F1 		lsl	r1, r1, r2
  83              	.LVL5:
 132:../libraries/STM32F10x_StdPeriph_Driver/src/misc.c ****     tmpsub = tmpsub >> tmppriority;
  84              		.loc 1 132 0
  85 001a 0F22     		movs	r2, #15
  86              	.LVL6:
  87 001c 22FA04F2 		lsr	r2, r2, r4
  88              	.LVL7:
 135:../libraries/STM32F10x_StdPeriph_Driver/src/misc.c ****     tmppriority |=  NVIC_InitStruct->NVIC_IRQChannelSubPriority & tmpsub;
  89              		.loc 1 135 0
  90 0020 8478     		ldrb	r4, [r0, #2]	@ zero_extendqisi2
  91              	.LVL8:
 136:../libraries/STM32F10x_StdPeriph_Driver/src/misc.c ****     tmppriority = tmppriority << 0x04;
 137:../libraries/STM32F10x_StdPeriph_Driver/src/misc.c ****         
 138:../libraries/STM32F10x_StdPeriph_Driver/src/misc.c ****     NVIC->IP[NVIC_InitStruct->NVIC_IRQChannel] = tmppriority;
  92              		.loc 1 138 0
  93 0022 0378     		ldrb	r3, [r0, #0]	@ zero_extendqisi2
  94              	.LVL9:
 135:../libraries/STM32F10x_StdPeriph_Driver/src/misc.c ****     tmppriority |=  NVIC_InitStruct->NVIC_IRQChannelSubPriority & tmpsub;
  95              		.loc 1 135 0
  96 0024 2240     		ands	r2, r2, r4
  97              	.LVL10:
  98 0026 0A43     		orrs	r2, r2, r1
  99              	.LVL11:
 136:../libraries/STM32F10x_StdPeriph_Driver/src/misc.c ****     tmppriority = tmppriority << 0x04;
 100              		.loc 1 136 0
 101 0028 1101     		lsls	r1, r2, #4
 102              	.LVL12:
 103              		.loc 1 138 0
 104 002a 03F16043 		add	r3, r3, #-536870912
 105 002e CAB2     		uxtb	r2, r1
 106 0030 03F56141 		add	r1, r3, #57600
 107              	.LVL13:
 108 0034 81F80023 		strb	r2, [r1, #768]
 139:../libraries/STM32F10x_StdPeriph_Driver/src/misc.c ****     
 140:../libraries/STM32F10x_StdPeriph_Driver/src/misc.c ****     /* Enable the Selected IRQ Channels --------------------------------------*/
 141:../libraries/STM32F10x_StdPeriph_Driver/src/misc.c ****     NVIC->ISER[NVIC_InitStruct->NVIC_IRQChannel >> 0x05] =
 109              		.loc 1 141 0
 110 0038 0078     		ldrb	r0, [r0, #0]	@ zero_extendqisi2
 111              	.LVL14:
 142:../libraries/STM32F10x_StdPeriph_Driver/src/misc.c ****       (uint32_t)0x01 << (NVIC_InitStruct->NVIC_IRQChannel & (uint8_t)0x1F);
 112              		.loc 1 142 0
 113 003a 0122     		movs	r2, #1
 114 003c 00F01F03 		and	r3, r0, #31
 141:../libraries/STM32F10x_StdPeriph_Driver/src/misc.c ****     NVIC->ISER[NVIC_InitStruct->NVIC_IRQChannel >> 0x05] =
 115              		.loc 1 141 0
 116 0040 4109     		lsrs	r1, r0, #5
 117              		.loc 1 142 0
 118 0042 02FA03F0 		lsl	r0, r2, r3
 119 0046 07E0     		b	.L7
 120              	.LVL15:
 121              	.L5:
 143:../libraries/STM32F10x_StdPeriph_Driver/src/misc.c ****   }
 144:../libraries/STM32F10x_StdPeriph_Driver/src/misc.c ****   else
 145:../libraries/STM32F10x_StdPeriph_Driver/src/misc.c ****   {
 146:../libraries/STM32F10x_StdPeriph_Driver/src/misc.c ****     /* Disable the Selected IRQ Channels -------------------------------------*/
 147:../libraries/STM32F10x_StdPeriph_Driver/src/misc.c ****     NVIC->ICER[NVIC_InitStruct->NVIC_IRQChannel >> 0x05] =
 122              		.loc 1 147 0
 123 0048 0078     		ldrb	r0, [r0, #0]	@ zero_extendqisi2
 124              	.LVL16:
 148:../libraries/STM32F10x_StdPeriph_Driver/src/misc.c ****       (uint32_t)0x01 << (NVIC_InitStruct->NVIC_IRQChannel & (uint8_t)0x1F);
 125              		.loc 1 148 0
 126 004a 0122     		movs	r2, #1
 127 004c 00F01F03 		and	r3, r0, #31
 147:../libraries/STM32F10x_StdPeriph_Driver/src/misc.c ****     NVIC->ICER[NVIC_InitStruct->NVIC_IRQChannel >> 0x05] =
 128              		.loc 1 147 0
 129 0050 4109     		lsrs	r1, r0, #5
 130              		.loc 1 148 0
 131 0052 02FA03F0 		lsl	r0, r2, r3
 147:../libraries/STM32F10x_StdPeriph_Driver/src/misc.c ****     NVIC->ICER[NVIC_InitStruct->NVIC_IRQChannel >> 0x05] =
 132              		.loc 1 147 0
 133 0056 2031     		adds	r1, r1, #32
 134              	.LVL17:
 135              	.L7:
 136 0058 024B     		ldr	r3, .L9+4
 137 005a 43F82100 		str	r0, [r3, r1, lsl #2]
 138 005e 10BD     		pop	{r4, pc}
 139              	.L10:
 140              		.align	2
 141              	.L9:
 142 0060 00ED00E0 		.word	-536810240
 143 0064 00E100E0 		.word	-536813312
 144              		.cfi_endproc
 145              	.LFE57:
 147              		.section	.text.NVIC_SetVectorTable,"ax",%progbits
 148              		.align	1
 149              		.global	NVIC_SetVectorTable
 150              		.thumb
 151              		.thumb_func
 153              	NVIC_SetVectorTable:
 154              	.LFB58:
 149:../libraries/STM32F10x_StdPeriph_Driver/src/misc.c ****   }
 150:../libraries/STM32F10x_StdPeriph_Driver/src/misc.c **** }
 151:../libraries/STM32F10x_StdPeriph_Driver/src/misc.c **** 
 152:../libraries/STM32F10x_StdPeriph_Driver/src/misc.c **** /**
 153:../libraries/STM32F10x_StdPeriph_Driver/src/misc.c ****   * @brief  Sets the vector table location and Offset.
 154:../libraries/STM32F10x_StdPeriph_Driver/src/misc.c ****   * @param  NVIC_VectTab: specifies if the vector table is in RAM or FLASH memory.
 155:../libraries/STM32F10x_StdPeriph_Driver/src/misc.c ****   *   This parameter can be one of the following values:
 156:../libraries/STM32F10x_StdPeriph_Driver/src/misc.c ****   *     @arg NVIC_VectTab_RAM
 157:../libraries/STM32F10x_StdPeriph_Driver/src/misc.c ****   *     @arg NVIC_VectTab_FLASH
 158:../libraries/STM32F10x_StdPeriph_Driver/src/misc.c ****   * @param  Offset: Vector Table base offset field. This value must be a multiple 
 159:../libraries/STM32F10x_StdPeriph_Driver/src/misc.c ****   *         of 0x200.
 160:../libraries/STM32F10x_StdPeriph_Driver/src/misc.c ****   * @retval None
 161:../libraries/STM32F10x_StdPeriph_Driver/src/misc.c ****   */
 162:../libraries/STM32F10x_StdPeriph_Driver/src/misc.c **** void NVIC_SetVectorTable(uint32_t NVIC_VectTab, uint32_t Offset)
 163:../libraries/STM32F10x_StdPeriph_Driver/src/misc.c **** { 
 155              		.loc 1 163 0
 156              		.cfi_startproc
 157              		@ args = 0, pretend = 0, frame = 0
 158              		@ frame_needed = 0, uses_anonymous_args = 0
 159              		@ link register save eliminated.
 160              	.LVL18:
 164:../libraries/STM32F10x_StdPeriph_Driver/src/misc.c ****   /* Check the parameters */
 165:../libraries/STM32F10x_StdPeriph_Driver/src/misc.c ****   assert_param(IS_NVIC_VECTTAB(NVIC_VectTab));
 166:../libraries/STM32F10x_StdPeriph_Driver/src/misc.c ****   assert_param(IS_NVIC_OFFSET(Offset));  
 167:../libraries/STM32F10x_StdPeriph_Driver/src/misc.c ****    
 168:../libraries/STM32F10x_StdPeriph_Driver/src/misc.c ****   SCB->VTOR = NVIC_VectTab | (Offset & (uint32_t)0x1FFFFF80);
 161              		.loc 1 168 0
 162 0000 21F06041 		bic	r1, r1, #-536870912
 163              	.LVL19:
 164 0004 21F07F02 		bic	r2, r1, #127
 165 0008 014B     		ldr	r3, .L12
 166 000a 1043     		orrs	r0, r0, r2
 167              	.LVL20:
 168 000c 9860     		str	r0, [r3, #8]
 169 000e 7047     		bx	lr
 170              	.L13:
 171              		.align	2
 172              	.L12:
 173 0010 00ED00E0 		.word	-536810240
 174              		.cfi_endproc
 175              	.LFE58:
 177              		.section	.text.NVIC_SystemLPConfig,"ax",%progbits
 178              		.align	1
 179              		.global	NVIC_SystemLPConfig
 180              		.thumb
 181              		.thumb_func
 183              	NVIC_SystemLPConfig:
 184              	.LFB59:
 169:../libraries/STM32F10x_StdPeriph_Driver/src/misc.c **** }
 170:../libraries/STM32F10x_StdPeriph_Driver/src/misc.c **** 
 171:../libraries/STM32F10x_StdPeriph_Driver/src/misc.c **** /**
 172:../libraries/STM32F10x_StdPeriph_Driver/src/misc.c ****   * @brief  Selects the condition for the system to enter low power mode.
 173:../libraries/STM32F10x_StdPeriph_Driver/src/misc.c ****   * @param  LowPowerMode: Specifies the new mode for the system to enter low power mode.
 174:../libraries/STM32F10x_StdPeriph_Driver/src/misc.c ****   *   This parameter can be one of the following values:
 175:../libraries/STM32F10x_StdPeriph_Driver/src/misc.c ****   *     @arg NVIC_LP_SEVONPEND
 176:../libraries/STM32F10x_StdPeriph_Driver/src/misc.c ****   *     @arg NVIC_LP_SLEEPDEEP
 177:../libraries/STM32F10x_StdPeriph_Driver/src/misc.c ****   *     @arg NVIC_LP_SLEEPONEXIT
 178:../libraries/STM32F10x_StdPeriph_Driver/src/misc.c ****   * @param  NewState: new state of LP condition. This parameter can be: ENABLE or DISABLE.
 179:../libraries/STM32F10x_StdPeriph_Driver/src/misc.c ****   * @retval None
 180:../libraries/STM32F10x_StdPeriph_Driver/src/misc.c ****   */
 181:../libraries/STM32F10x_StdPeriph_Driver/src/misc.c **** void NVIC_SystemLPConfig(uint8_t LowPowerMode, FunctionalState NewState)
 182:../libraries/STM32F10x_StdPeriph_Driver/src/misc.c **** {
 185              		.loc 1 182 0
 186              		.cfi_startproc
 187              		@ args = 0, pretend = 0, frame = 0
 188              		@ frame_needed = 0, uses_anonymous_args = 0
 189              		@ link register save eliminated.
 190              	.LVL21:
 191 0000 044B     		ldr	r3, .L18
 183:../libraries/STM32F10x_StdPeriph_Driver/src/misc.c ****   /* Check the parameters */
 184:../libraries/STM32F10x_StdPeriph_Driver/src/misc.c ****   assert_param(IS_NVIC_LP(LowPowerMode));
 185:../libraries/STM32F10x_StdPeriph_Driver/src/misc.c ****   assert_param(IS_FUNCTIONAL_STATE(NewState));  
 186:../libraries/STM32F10x_StdPeriph_Driver/src/misc.c ****   
 187:../libraries/STM32F10x_StdPeriph_Driver/src/misc.c ****   if (NewState != DISABLE)
 188:../libraries/STM32F10x_StdPeriph_Driver/src/misc.c ****   {
 189:../libraries/STM32F10x_StdPeriph_Driver/src/misc.c ****     SCB->SCR |= LowPowerMode;
 192              		.loc 1 189 0
 193 0002 1A69     		ldr	r2, [r3, #16]
 187:../libraries/STM32F10x_StdPeriph_Driver/src/misc.c ****   if (NewState != DISABLE)
 194              		.loc 1 187 0
 195 0004 09B1     		cbz	r1, .L15
 196              		.loc 1 189 0
 197 0006 1043     		orrs	r0, r0, r2
 198              	.LVL22:
 199 0008 01E0     		b	.L17
 200              	.LVL23:
 201              	.L15:
 190:../libraries/STM32F10x_StdPeriph_Driver/src/misc.c ****   }
 191:../libraries/STM32F10x_StdPeriph_Driver/src/misc.c ****   else
 192:../libraries/STM32F10x_StdPeriph_Driver/src/misc.c ****   {
 193:../libraries/STM32F10x_StdPeriph_Driver/src/misc.c ****     SCB->SCR &= (uint32_t)(~(uint32_t)LowPowerMode);
 202              		.loc 1 193 0
 203 000a 22EA0000 		bic	r0, r2, r0
 204              	.LVL24:
 205              	.L17:
 206 000e 1861     		str	r0, [r3, #16]
 207 0010 7047     		bx	lr
 208              	.L19:
 209 0012 00BF     		.align	2
 210              	.L18:
 211 0014 00ED00E0 		.word	-536810240
 212              		.cfi_endproc
 213              	.LFE59:
 215              		.section	.text.SysTick_CLKSourceConfig,"ax",%progbits
 216              		.align	1
 217              		.global	SysTick_CLKSourceConfig
 218              		.thumb
 219              		.thumb_func
 221              	SysTick_CLKSourceConfig:
 222              	.LFB60:
 194:../libraries/STM32F10x_StdPeriph_Driver/src/misc.c ****   }
 195:../libraries/STM32F10x_StdPeriph_Driver/src/misc.c **** }
 196:../libraries/STM32F10x_StdPeriph_Driver/src/misc.c **** 
 197:../libraries/STM32F10x_StdPeriph_Driver/src/misc.c **** /**
 198:../libraries/STM32F10x_StdPeriph_Driver/src/misc.c ****   * @brief  Configures the SysTick clock source.
 199:../libraries/STM32F10x_StdPeriph_Driver/src/misc.c ****   * @param  SysTick_CLKSource: specifies the SysTick clock source.
 200:../libraries/STM32F10x_StdPeriph_Driver/src/misc.c ****   *   This parameter can be one of the following values:
 201:../libraries/STM32F10x_StdPeriph_Driver/src/misc.c ****   *     @arg SysTick_CLKSource_HCLK_Div8: AHB clock divided by 8 selected as SysTick clock source.
 202:../libraries/STM32F10x_StdPeriph_Driver/src/misc.c ****   *     @arg SysTick_CLKSource_HCLK: AHB clock selected as SysTick clock source.
 203:../libraries/STM32F10x_StdPeriph_Driver/src/misc.c ****   * @retval None
 204:../libraries/STM32F10x_StdPeriph_Driver/src/misc.c ****   */
 205:../libraries/STM32F10x_StdPeriph_Driver/src/misc.c **** void SysTick_CLKSourceConfig(uint32_t SysTick_CLKSource)
 206:../libraries/STM32F10x_StdPeriph_Driver/src/misc.c **** {
 223              		.loc 1 206 0
 224              		.cfi_startproc
 225              		@ args = 0, pretend = 0, frame = 0
 226              		@ frame_needed = 0, uses_anonymous_args = 0
 227              		@ link register save eliminated.
 228              	.LVL25:
 229 0000 044B     		ldr	r3, .L24
 207:../libraries/STM32F10x_StdPeriph_Driver/src/misc.c ****   /* Check the parameters */
 208:../libraries/STM32F10x_StdPeriph_Driver/src/misc.c ****   assert_param(IS_SYSTICK_CLK_SOURCE(SysTick_CLKSource));
 209:../libraries/STM32F10x_StdPeriph_Driver/src/misc.c ****   if (SysTick_CLKSource == SysTick_CLKSource_HCLK)
 230              		.loc 1 209 0
 231 0002 0428     		cmp	r0, #4
 210:../libraries/STM32F10x_StdPeriph_Driver/src/misc.c ****   {
 211:../libraries/STM32F10x_StdPeriph_Driver/src/misc.c ****     SysTick->CTRL |= SysTick_CLKSource_HCLK;
 232              		.loc 1 211 0
 233 0004 1A68     		ldr	r2, [r3, #0]
 234 0006 0CBF     		ite	eq
 235 0008 42F00402 		orreq	r2, r2, #4
 212:../libraries/STM32F10x_StdPeriph_Driver/src/misc.c ****   }
 213:../libraries/STM32F10x_StdPeriph_Driver/src/misc.c ****   else
 214:../libraries/STM32F10x_StdPeriph_Driver/src/misc.c ****   {
 215:../libraries/STM32F10x_StdPeriph_Driver/src/misc.c ****     SysTick->CTRL &= SysTick_CLKSource_HCLK_Div8;
 236              		.loc 1 215 0
 237 000c 22F00402 		bicne	r2, r2, #4
 238 0010 1A60     		str	r2, [r3, #0]
 239 0012 7047     		bx	lr
 240              	.L25:
 241              		.align	2
 242              	.L24:
 243 0014 10E000E0 		.word	-536813552
 244              		.cfi_endproc
 245              	.LFE60:
 247              		.text
 248              	.Letext0:
 249              		.file 2 "/usr/local/gcc-arm-none-eabi-4_7-2013q1/bin/../lib/gcc/arm-none-eabi/4.7.3/../../../../ar
 250              		.file 3 "/Users/zac/code/spark/usb-dfu/libraries/CMSIS/Include/core_cm3.h"
 251              		.file 4 "/Users/zac/code/spark/usb-dfu/libraries/CMSIS/Device/ST/STM32F10x/Include/stm32f10x.h"
 252              		.file 5 "/Users/zac/code/spark/usb-dfu/libraries/STM32F10x_StdPeriph_Driver/inc/misc.h"