   1              		.syntax unified
   2              		.cpu cortex-m3
   3              		.fpu softvfp
   4              		.eabi_attribute 20, 1
   5              		.eabi_attribute 21, 1
   6              		.eabi_attribute 23, 3
   7              		.eabi_attribute 24, 1
   8              		.eabi_attribute 25, 1
   9              		.eabi_attribute 26, 1
  10              		.eabi_attribute 30, 4
  11              		.eabi_attribute 34, 1
  12              		.eabi_attribute 18, 4
  13              		.thumb
  14              		.file	"stm32f10x_flash.c"
  15              		.text
  16              	.Ltext0:
  17              		.cfi_sections	.debug_frame
  18              		.section	.text.FLASH_SetLatency,"ax",%progbits
  19              		.align	1
  20              		.global	FLASH_SetLatency
  21              		.thumb
  22              		.thumb_func
  24              	FLASH_SetLatency:
  25              	.LFB56:
  26              		.file 1 "../libraries/STM32F10x_StdPeriph_Driver/src/stm32f10x_flash.c"
   1:../libraries/STM32F10x_StdPeriph_Driver/src/stm32f10x_flash.c **** /**
   2:../libraries/STM32F10x_StdPeriph_Driver/src/stm32f10x_flash.c ****   ******************************************************************************
   3:../libraries/STM32F10x_StdPeriph_Driver/src/stm32f10x_flash.c ****   * @file    stm32f10x_flash.c
   4:../libraries/STM32F10x_StdPeriph_Driver/src/stm32f10x_flash.c ****   * @author  MCD Application Team
   5:../libraries/STM32F10x_StdPeriph_Driver/src/stm32f10x_flash.c ****   * @version V3.6.1
   6:../libraries/STM32F10x_StdPeriph_Driver/src/stm32f10x_flash.c ****   * @date    05-March-2012
   7:../libraries/STM32F10x_StdPeriph_Driver/src/stm32f10x_flash.c ****   * @brief   This file provides all the FLASH firmware functions.
   8:../libraries/STM32F10x_StdPeriph_Driver/src/stm32f10x_flash.c ****   ******************************************************************************
   9:../libraries/STM32F10x_StdPeriph_Driver/src/stm32f10x_flash.c ****   * @attention
  10:../libraries/STM32F10x_StdPeriph_Driver/src/stm32f10x_flash.c ****   *
  11:../libraries/STM32F10x_StdPeriph_Driver/src/stm32f10x_flash.c ****   * <h2><center>&copy; COPYRIGHT 2012 STMicroelectronics</center></h2>
  12:../libraries/STM32F10x_StdPeriph_Driver/src/stm32f10x_flash.c ****   *
  13:../libraries/STM32F10x_StdPeriph_Driver/src/stm32f10x_flash.c ****   * Licensed under MCD-ST Liberty SW License Agreement V2, (the "License");
  14:../libraries/STM32F10x_StdPeriph_Driver/src/stm32f10x_flash.c ****   * You may not use this file except in compliance with the License.
  15:../libraries/STM32F10x_StdPeriph_Driver/src/stm32f10x_flash.c ****   * You may obtain a copy of the License at:
  16:../libraries/STM32F10x_StdPeriph_Driver/src/stm32f10x_flash.c ****   *
  17:../libraries/STM32F10x_StdPeriph_Driver/src/stm32f10x_flash.c ****   *        http://www.st.com/software_license_agreement_liberty_v2
  18:../libraries/STM32F10x_StdPeriph_Driver/src/stm32f10x_flash.c ****   *
  19:../libraries/STM32F10x_StdPeriph_Driver/src/stm32f10x_flash.c ****   * Unless required by applicable law or agreed to in writing, software 
  20:../libraries/STM32F10x_StdPeriph_Driver/src/stm32f10x_flash.c ****   * distributed under the License is distributed on an "AS IS" BASIS, 
  21:../libraries/STM32F10x_StdPeriph_Driver/src/stm32f10x_flash.c ****   * WITHOUT WARRANTIES OR CONDITIONS OF ANY KIND, either express or implied.
  22:../libraries/STM32F10x_StdPeriph_Driver/src/stm32f10x_flash.c ****   * See the License for the specific language governing permissions and
  23:../libraries/STM32F10x_StdPeriph_Driver/src/stm32f10x_flash.c ****   * limitations under the License.
  24:../libraries/STM32F10x_StdPeriph_Driver/src/stm32f10x_flash.c ****   *
  25:../libraries/STM32F10x_StdPeriph_Driver/src/stm32f10x_flash.c ****   ******************************************************************************
  26:../libraries/STM32F10x_StdPeriph_Driver/src/stm32f10x_flash.c ****   */
  27:../libraries/STM32F10x_StdPeriph_Driver/src/stm32f10x_flash.c **** 
  28:../libraries/STM32F10x_StdPeriph_Driver/src/stm32f10x_flash.c **** /* Includes ------------------------------------------------------------------*/
  29:../libraries/STM32F10x_StdPeriph_Driver/src/stm32f10x_flash.c **** #include "stm32f10x_flash.h"
  30:../libraries/STM32F10x_StdPeriph_Driver/src/stm32f10x_flash.c **** 
  31:../libraries/STM32F10x_StdPeriph_Driver/src/stm32f10x_flash.c **** /** @addtogroup STM32F10x_StdPeriph_Driver
  32:../libraries/STM32F10x_StdPeriph_Driver/src/stm32f10x_flash.c ****   * @{
  33:../libraries/STM32F10x_StdPeriph_Driver/src/stm32f10x_flash.c ****   */
  34:../libraries/STM32F10x_StdPeriph_Driver/src/stm32f10x_flash.c **** 
  35:../libraries/STM32F10x_StdPeriph_Driver/src/stm32f10x_flash.c **** /** @defgroup FLASH 
  36:../libraries/STM32F10x_StdPeriph_Driver/src/stm32f10x_flash.c ****   * @brief FLASH driver modules
  37:../libraries/STM32F10x_StdPeriph_Driver/src/stm32f10x_flash.c ****   * @{
  38:../libraries/STM32F10x_StdPeriph_Driver/src/stm32f10x_flash.c ****   */ 
  39:../libraries/STM32F10x_StdPeriph_Driver/src/stm32f10x_flash.c **** 
  40:../libraries/STM32F10x_StdPeriph_Driver/src/stm32f10x_flash.c **** /** @defgroup FLASH_Private_TypesDefinitions
  41:../libraries/STM32F10x_StdPeriph_Driver/src/stm32f10x_flash.c ****   * @{
  42:../libraries/STM32F10x_StdPeriph_Driver/src/stm32f10x_flash.c ****   */
  43:../libraries/STM32F10x_StdPeriph_Driver/src/stm32f10x_flash.c **** 
  44:../libraries/STM32F10x_StdPeriph_Driver/src/stm32f10x_flash.c **** /**
  45:../libraries/STM32F10x_StdPeriph_Driver/src/stm32f10x_flash.c ****   * @}
  46:../libraries/STM32F10x_StdPeriph_Driver/src/stm32f10x_flash.c ****   */ 
  47:../libraries/STM32F10x_StdPeriph_Driver/src/stm32f10x_flash.c **** 
  48:../libraries/STM32F10x_StdPeriph_Driver/src/stm32f10x_flash.c **** /** @defgroup FLASH_Private_Defines
  49:../libraries/STM32F10x_StdPeriph_Driver/src/stm32f10x_flash.c ****   * @{
  50:../libraries/STM32F10x_StdPeriph_Driver/src/stm32f10x_flash.c ****   */ 
  51:../libraries/STM32F10x_StdPeriph_Driver/src/stm32f10x_flash.c **** 
  52:../libraries/STM32F10x_StdPeriph_Driver/src/stm32f10x_flash.c **** /* Flash Access Control Register bits */
  53:../libraries/STM32F10x_StdPeriph_Driver/src/stm32f10x_flash.c **** #define ACR_LATENCY_Mask         ((uint32_t)0x00000038)
  54:../libraries/STM32F10x_StdPeriph_Driver/src/stm32f10x_flash.c **** #define ACR_HLFCYA_Mask          ((uint32_t)0xFFFFFFF7)
  55:../libraries/STM32F10x_StdPeriph_Driver/src/stm32f10x_flash.c **** #define ACR_PRFTBE_Mask          ((uint32_t)0xFFFFFFEF)
  56:../libraries/STM32F10x_StdPeriph_Driver/src/stm32f10x_flash.c **** 
  57:../libraries/STM32F10x_StdPeriph_Driver/src/stm32f10x_flash.c **** /* Flash Access Control Register bits */
  58:../libraries/STM32F10x_StdPeriph_Driver/src/stm32f10x_flash.c **** #define ACR_PRFTBS_Mask          ((uint32_t)0x00000020) 
  59:../libraries/STM32F10x_StdPeriph_Driver/src/stm32f10x_flash.c **** 
  60:../libraries/STM32F10x_StdPeriph_Driver/src/stm32f10x_flash.c **** /* Flash Control Register bits */
  61:../libraries/STM32F10x_StdPeriph_Driver/src/stm32f10x_flash.c **** #define CR_PG_Set                ((uint32_t)0x00000001)
  62:../libraries/STM32F10x_StdPeriph_Driver/src/stm32f10x_flash.c **** #define CR_PG_Reset              ((uint32_t)0x00001FFE) 
  63:../libraries/STM32F10x_StdPeriph_Driver/src/stm32f10x_flash.c **** #define CR_PER_Set               ((uint32_t)0x00000002)
  64:../libraries/STM32F10x_StdPeriph_Driver/src/stm32f10x_flash.c **** #define CR_PER_Reset             ((uint32_t)0x00001FFD)
  65:../libraries/STM32F10x_StdPeriph_Driver/src/stm32f10x_flash.c **** #define CR_MER_Set               ((uint32_t)0x00000004)
  66:../libraries/STM32F10x_StdPeriph_Driver/src/stm32f10x_flash.c **** #define CR_MER_Reset             ((uint32_t)0x00001FFB)
  67:../libraries/STM32F10x_StdPeriph_Driver/src/stm32f10x_flash.c **** #define CR_OPTPG_Set             ((uint32_t)0x00000010)
  68:../libraries/STM32F10x_StdPeriph_Driver/src/stm32f10x_flash.c **** #define CR_OPTPG_Reset           ((uint32_t)0x00001FEF)
  69:../libraries/STM32F10x_StdPeriph_Driver/src/stm32f10x_flash.c **** #define CR_OPTER_Set             ((uint32_t)0x00000020)
  70:../libraries/STM32F10x_StdPeriph_Driver/src/stm32f10x_flash.c **** #define CR_OPTER_Reset           ((uint32_t)0x00001FDF)
  71:../libraries/STM32F10x_StdPeriph_Driver/src/stm32f10x_flash.c **** #define CR_STRT_Set              ((uint32_t)0x00000040)
  72:../libraries/STM32F10x_StdPeriph_Driver/src/stm32f10x_flash.c **** #define CR_LOCK_Set              ((uint32_t)0x00000080)
  73:../libraries/STM32F10x_StdPeriph_Driver/src/stm32f10x_flash.c **** 
  74:../libraries/STM32F10x_StdPeriph_Driver/src/stm32f10x_flash.c **** /* FLASH Mask */
  75:../libraries/STM32F10x_StdPeriph_Driver/src/stm32f10x_flash.c **** #define RDPRT_Mask               ((uint32_t)0x00000002)
  76:../libraries/STM32F10x_StdPeriph_Driver/src/stm32f10x_flash.c **** #define WRP0_Mask                ((uint32_t)0x000000FF)
  77:../libraries/STM32F10x_StdPeriph_Driver/src/stm32f10x_flash.c **** #define WRP1_Mask                ((uint32_t)0x0000FF00)
  78:../libraries/STM32F10x_StdPeriph_Driver/src/stm32f10x_flash.c **** #define WRP2_Mask                ((uint32_t)0x00FF0000)
  79:../libraries/STM32F10x_StdPeriph_Driver/src/stm32f10x_flash.c **** #define WRP3_Mask                ((uint32_t)0xFF000000)
  80:../libraries/STM32F10x_StdPeriph_Driver/src/stm32f10x_flash.c **** #define OB_USER_BFB2             ((uint16_t)0x0008)
  81:../libraries/STM32F10x_StdPeriph_Driver/src/stm32f10x_flash.c **** 
  82:../libraries/STM32F10x_StdPeriph_Driver/src/stm32f10x_flash.c **** /* FLASH BANK address */
  83:../libraries/STM32F10x_StdPeriph_Driver/src/stm32f10x_flash.c **** #define FLASH_BANK1_END_ADDRESS   ((uint32_t)0x807FFFF)
  84:../libraries/STM32F10x_StdPeriph_Driver/src/stm32f10x_flash.c **** 
  85:../libraries/STM32F10x_StdPeriph_Driver/src/stm32f10x_flash.c **** /* Delay definition */   
  86:../libraries/STM32F10x_StdPeriph_Driver/src/stm32f10x_flash.c **** #define EraseTimeout          ((uint32_t)0x000B0000)
  87:../libraries/STM32F10x_StdPeriph_Driver/src/stm32f10x_flash.c **** #define ProgramTimeout        ((uint32_t)0x00002000)
  88:../libraries/STM32F10x_StdPeriph_Driver/src/stm32f10x_flash.c **** /**
  89:../libraries/STM32F10x_StdPeriph_Driver/src/stm32f10x_flash.c ****   * @}
  90:../libraries/STM32F10x_StdPeriph_Driver/src/stm32f10x_flash.c ****   */ 
  91:../libraries/STM32F10x_StdPeriph_Driver/src/stm32f10x_flash.c **** 
  92:../libraries/STM32F10x_StdPeriph_Driver/src/stm32f10x_flash.c **** /** @defgroup FLASH_Private_Macros
  93:../libraries/STM32F10x_StdPeriph_Driver/src/stm32f10x_flash.c ****   * @{
  94:../libraries/STM32F10x_StdPeriph_Driver/src/stm32f10x_flash.c ****   */
  95:../libraries/STM32F10x_StdPeriph_Driver/src/stm32f10x_flash.c **** 
  96:../libraries/STM32F10x_StdPeriph_Driver/src/stm32f10x_flash.c **** /**
  97:../libraries/STM32F10x_StdPeriph_Driver/src/stm32f10x_flash.c ****   * @}
  98:../libraries/STM32F10x_StdPeriph_Driver/src/stm32f10x_flash.c ****   */ 
  99:../libraries/STM32F10x_StdPeriph_Driver/src/stm32f10x_flash.c **** 
 100:../libraries/STM32F10x_StdPeriph_Driver/src/stm32f10x_flash.c **** /** @defgroup FLASH_Private_Variables
 101:../libraries/STM32F10x_StdPeriph_Driver/src/stm32f10x_flash.c ****   * @{
 102:../libraries/STM32F10x_StdPeriph_Driver/src/stm32f10x_flash.c ****   */
 103:../libraries/STM32F10x_StdPeriph_Driver/src/stm32f10x_flash.c **** 
 104:../libraries/STM32F10x_StdPeriph_Driver/src/stm32f10x_flash.c **** /**
 105:../libraries/STM32F10x_StdPeriph_Driver/src/stm32f10x_flash.c ****   * @}
 106:../libraries/STM32F10x_StdPeriph_Driver/src/stm32f10x_flash.c ****   */ 
 107:../libraries/STM32F10x_StdPeriph_Driver/src/stm32f10x_flash.c **** 
 108:../libraries/STM32F10x_StdPeriph_Driver/src/stm32f10x_flash.c **** /** @defgroup FLASH_Private_FunctionPrototypes
 109:../libraries/STM32F10x_StdPeriph_Driver/src/stm32f10x_flash.c ****   * @{
 110:../libraries/STM32F10x_StdPeriph_Driver/src/stm32f10x_flash.c ****   */
 111:../libraries/STM32F10x_StdPeriph_Driver/src/stm32f10x_flash.c ****   
 112:../libraries/STM32F10x_StdPeriph_Driver/src/stm32f10x_flash.c **** /**
 113:../libraries/STM32F10x_StdPeriph_Driver/src/stm32f10x_flash.c ****   * @}
 114:../libraries/STM32F10x_StdPeriph_Driver/src/stm32f10x_flash.c ****   */
 115:../libraries/STM32F10x_StdPeriph_Driver/src/stm32f10x_flash.c **** 
 116:../libraries/STM32F10x_StdPeriph_Driver/src/stm32f10x_flash.c **** /** @defgroup FLASH_Private_Functions
 117:../libraries/STM32F10x_StdPeriph_Driver/src/stm32f10x_flash.c ****   * @{
 118:../libraries/STM32F10x_StdPeriph_Driver/src/stm32f10x_flash.c ****   */
 119:../libraries/STM32F10x_StdPeriph_Driver/src/stm32f10x_flash.c **** 
 120:../libraries/STM32F10x_StdPeriph_Driver/src/stm32f10x_flash.c **** /**
 121:../libraries/STM32F10x_StdPeriph_Driver/src/stm32f10x_flash.c **** @code  
 122:../libraries/STM32F10x_StdPeriph_Driver/src/stm32f10x_flash.c ****  
 123:../libraries/STM32F10x_StdPeriph_Driver/src/stm32f10x_flash.c ****  This driver provides functions to configure and program the Flash memory of all STM32F10x devices,
 124:../libraries/STM32F10x_StdPeriph_Driver/src/stm32f10x_flash.c ****  including the latest STM32F10x_XL density devices. 
 125:../libraries/STM32F10x_StdPeriph_Driver/src/stm32f10x_flash.c **** 
 126:../libraries/STM32F10x_StdPeriph_Driver/src/stm32f10x_flash.c ****  STM32F10x_XL devices feature up to 1 Mbyte with dual bank architecture for read-while-write (RWW) 
 127:../libraries/STM32F10x_StdPeriph_Driver/src/stm32f10x_flash.c ****     - bank1: fixed size of 512 Kbytes (256 pages of 2Kbytes each)
 128:../libraries/STM32F10x_StdPeriph_Driver/src/stm32f10x_flash.c ****     - bank2: up to 512 Kbytes (up to 256 pages of 2Kbytes each)
 129:../libraries/STM32F10x_StdPeriph_Driver/src/stm32f10x_flash.c ****  While other STM32F10x devices features only one bank with memory up to 512 Kbytes.
 130:../libraries/STM32F10x_StdPeriph_Driver/src/stm32f10x_flash.c **** 
 131:../libraries/STM32F10x_StdPeriph_Driver/src/stm32f10x_flash.c ****  In version V3.3.0, some functions were updated and new ones were added to support
 132:../libraries/STM32F10x_StdPeriph_Driver/src/stm32f10x_flash.c ****  STM32F10x_XL devices. Thus some functions manages all devices, while other are 
 133:../libraries/STM32F10x_StdPeriph_Driver/src/stm32f10x_flash.c ****  dedicated for XL devices only.
 134:../libraries/STM32F10x_StdPeriph_Driver/src/stm32f10x_flash.c ****  
 135:../libraries/STM32F10x_StdPeriph_Driver/src/stm32f10x_flash.c ****  The table below presents the list of available functions depending on the used STM32F10x devices. 
 136:../libraries/STM32F10x_StdPeriph_Driver/src/stm32f10x_flash.c ****       
 137:../libraries/STM32F10x_StdPeriph_Driver/src/stm32f10x_flash.c ****    ***************************************************
 138:../libraries/STM32F10x_StdPeriph_Driver/src/stm32f10x_flash.c ****    * Legacy functions used for all STM32F10x devices *
 139:../libraries/STM32F10x_StdPeriph_Driver/src/stm32f10x_flash.c ****    ***************************************************
 140:../libraries/STM32F10x_StdPeriph_Driver/src/stm32f10x_flash.c ****    +-----------------------------------------------------------------------------------------------
 141:../libraries/STM32F10x_StdPeriph_Driver/src/stm32f10x_flash.c ****    |       Functions prototypes         |STM32F10x_XL|Other STM32F10x|    Comments                 
 142:../libraries/STM32F10x_StdPeriph_Driver/src/stm32f10x_flash.c ****    |                                    |   devices  |  devices      |                             
 143:../libraries/STM32F10x_StdPeriph_Driver/src/stm32f10x_flash.c ****    |-----------------------------------------------------------------------------------------------
 144:../libraries/STM32F10x_StdPeriph_Driver/src/stm32f10x_flash.c ****    |FLASH_SetLatency                    |    Yes     |      Yes      | No change                   
 145:../libraries/STM32F10x_StdPeriph_Driver/src/stm32f10x_flash.c ****    |-----------------------------------------------------------------------------------------------
 146:../libraries/STM32F10x_StdPeriph_Driver/src/stm32f10x_flash.c ****    |FLASH_HalfCycleAccessCmd            |    Yes     |      Yes      | No change                   
 147:../libraries/STM32F10x_StdPeriph_Driver/src/stm32f10x_flash.c ****    |-----------------------------------------------------------------------------------------------
 148:../libraries/STM32F10x_StdPeriph_Driver/src/stm32f10x_flash.c ****    |FLASH_PrefetchBufferCmd             |    Yes     |      Yes      | No change                   
 149:../libraries/STM32F10x_StdPeriph_Driver/src/stm32f10x_flash.c ****    |-----------------------------------------------------------------------------------------------
 150:../libraries/STM32F10x_StdPeriph_Driver/src/stm32f10x_flash.c ****    |FLASH_Unlock                        |    Yes     |      Yes      | - For STM32F10X_XL devices: 
 151:../libraries/STM32F10x_StdPeriph_Driver/src/stm32f10x_flash.c ****    |                                    |            |               | - For other devices: unlock 
 152:../libraries/STM32F10x_StdPeriph_Driver/src/stm32f10x_flash.c ****    |                                    |            |               |   to FLASH_UnlockBank1 funct
 153:../libraries/STM32F10x_StdPeriph_Driver/src/stm32f10x_flash.c ****    |-----------------------------------------------------------------------------------------------
 154:../libraries/STM32F10x_StdPeriph_Driver/src/stm32f10x_flash.c ****    |FLASH_Lock                          |    Yes     |      Yes      | - For STM32F10X_XL devices: 
 155:../libraries/STM32F10x_StdPeriph_Driver/src/stm32f10x_flash.c ****    |                                    |            |               | - For other devices: lock Ba
 156:../libraries/STM32F10x_StdPeriph_Driver/src/stm32f10x_flash.c ****    |                                    |            |               |   to FLASH_LockBank1 functio
 157:../libraries/STM32F10x_StdPeriph_Driver/src/stm32f10x_flash.c ****    |-----------------------------------------------------------------------------------------------
 158:../libraries/STM32F10x_StdPeriph_Driver/src/stm32f10x_flash.c ****    |FLASH_ErasePage                     |    Yes     |      Yes      | - For STM32F10x_XL devices: 
 159:../libraries/STM32F10x_StdPeriph_Driver/src/stm32f10x_flash.c ****    |                                    |            |               | - For other devices: erase a
 160:../libraries/STM32F10x_StdPeriph_Driver/src/stm32f10x_flash.c ****    |-----------------------------------------------------------------------------------------------
 161:../libraries/STM32F10x_StdPeriph_Driver/src/stm32f10x_flash.c ****    |FLASH_EraseAllPages                 |    Yes     |      Yes      | - For STM32F10x_XL devices: 
 162:../libraries/STM32F10x_StdPeriph_Driver/src/stm32f10x_flash.c ****    |                                    |            |               | - For other devices: erase a
 163:../libraries/STM32F10x_StdPeriph_Driver/src/stm32f10x_flash.c ****    |-----------------------------------------------------------------------------------------------
 164:../libraries/STM32F10x_StdPeriph_Driver/src/stm32f10x_flash.c ****    |FLASH_EraseOptionBytes              |    Yes     |      Yes      | No change                   
 165:../libraries/STM32F10x_StdPeriph_Driver/src/stm32f10x_flash.c ****    |-----------------------------------------------------------------------------------------------
 166:../libraries/STM32F10x_StdPeriph_Driver/src/stm32f10x_flash.c ****    |FLASH_ProgramWord                   |    Yes     |      Yes      | Updated to program up to 1MB
 167:../libraries/STM32F10x_StdPeriph_Driver/src/stm32f10x_flash.c ****    |-----------------------------------------------------------------------------------------------
 168:../libraries/STM32F10x_StdPeriph_Driver/src/stm32f10x_flash.c ****    |FLASH_ProgramHalfWord               |    Yes     |      Yes      | Updated to program up to 1MB
 169:../libraries/STM32F10x_StdPeriph_Driver/src/stm32f10x_flash.c ****    |-----------------------------------------------------------------------------------------------
 170:../libraries/STM32F10x_StdPeriph_Driver/src/stm32f10x_flash.c ****    |FLASH_ProgramOptionByteData         |    Yes     |      Yes      | No change                   
 171:../libraries/STM32F10x_StdPeriph_Driver/src/stm32f10x_flash.c ****    |-----------------------------------------------------------------------------------------------
 172:../libraries/STM32F10x_StdPeriph_Driver/src/stm32f10x_flash.c ****    |FLASH_EnableWriteProtection         |    Yes     |      Yes      | No change                   
 173:../libraries/STM32F10x_StdPeriph_Driver/src/stm32f10x_flash.c ****    |-----------------------------------------------------------------------------------------------
 174:../libraries/STM32F10x_StdPeriph_Driver/src/stm32f10x_flash.c ****    |FLASH_ReadOutProtection             |    Yes     |      Yes      | No change                   
 175:../libraries/STM32F10x_StdPeriph_Driver/src/stm32f10x_flash.c ****    |-----------------------------------------------------------------------------------------------
 176:../libraries/STM32F10x_StdPeriph_Driver/src/stm32f10x_flash.c ****    |FLASH_UserOptionByteConfig          |    Yes     |      Yes      | No change                   
 177:../libraries/STM32F10x_StdPeriph_Driver/src/stm32f10x_flash.c ****    |-----------------------------------------------------------------------------------------------
 178:../libraries/STM32F10x_StdPeriph_Driver/src/stm32f10x_flash.c ****    |FLASH_GetUserOptionByte             |    Yes     |      Yes      | No change                   
 179:../libraries/STM32F10x_StdPeriph_Driver/src/stm32f10x_flash.c ****    |-----------------------------------------------------------------------------------------------
 180:../libraries/STM32F10x_StdPeriph_Driver/src/stm32f10x_flash.c ****    |FLASH_GetWriteProtectionOptionByte  |    Yes     |      Yes      | No change                   
 181:../libraries/STM32F10x_StdPeriph_Driver/src/stm32f10x_flash.c ****    |-----------------------------------------------------------------------------------------------
 182:../libraries/STM32F10x_StdPeriph_Driver/src/stm32f10x_flash.c ****    |FLASH_GetReadOutProtectionStatus    |    Yes     |      Yes      | No change                   
 183:../libraries/STM32F10x_StdPeriph_Driver/src/stm32f10x_flash.c ****    |-----------------------------------------------------------------------------------------------
 184:../libraries/STM32F10x_StdPeriph_Driver/src/stm32f10x_flash.c ****    |FLASH_GetPrefetchBufferStatus       |    Yes     |      Yes      | No change                   
 185:../libraries/STM32F10x_StdPeriph_Driver/src/stm32f10x_flash.c ****    |-----------------------------------------------------------------------------------------------
 186:../libraries/STM32F10x_StdPeriph_Driver/src/stm32f10x_flash.c ****    |FLASH_ITConfig                      |    Yes     |      Yes      | - For STM32F10x_XL devices: 
 187:../libraries/STM32F10x_StdPeriph_Driver/src/stm32f10x_flash.c ****    |                                    |            |               | - For other devices: enable 
 188:../libraries/STM32F10x_StdPeriph_Driver/src/stm32f10x_flash.c ****    |-----------------------------------------------------------------------------------------------
 189:../libraries/STM32F10x_StdPeriph_Driver/src/stm32f10x_flash.c ****    |FLASH_GetFlagStatus                 |    Yes     |      Yes      | - For STM32F10x_XL devices: 
 190:../libraries/STM32F10x_StdPeriph_Driver/src/stm32f10x_flash.c ****    |                                    |            |               | - For other devices: return 
 191:../libraries/STM32F10x_StdPeriph_Driver/src/stm32f10x_flash.c ****    |-----------------------------------------------------------------------------------------------
 192:../libraries/STM32F10x_StdPeriph_Driver/src/stm32f10x_flash.c ****    |FLASH_ClearFlag                     |    Yes     |      Yes      | - For STM32F10x_XL devices: 
 193:../libraries/STM32F10x_StdPeriph_Driver/src/stm32f10x_flash.c ****    |                                    |            |               | - For other devices: clear B
 194:../libraries/STM32F10x_StdPeriph_Driver/src/stm32f10x_flash.c ****    |-----------------------------------------------------------------------------------------------
 195:../libraries/STM32F10x_StdPeriph_Driver/src/stm32f10x_flash.c ****    |FLASH_GetStatus                     |    Yes     |      Yes      | - Return the status of Bank1
 196:../libraries/STM32F10x_StdPeriph_Driver/src/stm32f10x_flash.c ****    |                                    |            |               |   equivalent to FLASH_GetBan
 197:../libraries/STM32F10x_StdPeriph_Driver/src/stm32f10x_flash.c ****    |-----------------------------------------------------------------------------------------------
 198:../libraries/STM32F10x_StdPeriph_Driver/src/stm32f10x_flash.c ****    |FLASH_WaitForLastOperation          |    Yes     |      Yes      | - Wait for Bank1 last operat
 199:../libraries/STM32F10x_StdPeriph_Driver/src/stm32f10x_flash.c ****    |                                    |            |               |   equivalent to: FLASH_WaitF
 200:../libraries/STM32F10x_StdPeriph_Driver/src/stm32f10x_flash.c ****    +-----------------------------------------------------------------------------------------------
 201:../libraries/STM32F10x_StdPeriph_Driver/src/stm32f10x_flash.c **** 
 202:../libraries/STM32F10x_StdPeriph_Driver/src/stm32f10x_flash.c ****    ************************************************************************************************
 203:../libraries/STM32F10x_StdPeriph_Driver/src/stm32f10x_flash.c ****    * New functions used for all STM32F10x devices to manage Bank1:                                 
 204:../libraries/STM32F10x_StdPeriph_Driver/src/stm32f10x_flash.c ****    *   - These functions are mainly useful for STM32F10x_XL density devices, to have separate contr
 205:../libraries/STM32F10x_StdPeriph_Driver/src/stm32f10x_flash.c ****    *   - For other devices, these functions are optional (covered by functions listed above)       
 206:../libraries/STM32F10x_StdPeriph_Driver/src/stm32f10x_flash.c ****    ************************************************************************************************
 207:../libraries/STM32F10x_StdPeriph_Driver/src/stm32f10x_flash.c ****    +-----------------------------------------------------------------------------------------------
 208:../libraries/STM32F10x_StdPeriph_Driver/src/stm32f10x_flash.c ****    |       Functions prototypes         |STM32F10x_XL|Other STM32F10x|    Comments                 
 209:../libraries/STM32F10x_StdPeriph_Driver/src/stm32f10x_flash.c ****    |                                    |   devices  |  devices      |                             
 210:../libraries/STM32F10x_StdPeriph_Driver/src/stm32f10x_flash.c ****    |-----------------------------------------------------------------------------------------------
 211:../libraries/STM32F10x_StdPeriph_Driver/src/stm32f10x_flash.c ****    | FLASH_UnlockBank1                  |    Yes     |      Yes      | - Unlock Bank1              
 212:../libraries/STM32F10x_StdPeriph_Driver/src/stm32f10x_flash.c ****    |-----------------------------------------------------------------------------------------------
 213:../libraries/STM32F10x_StdPeriph_Driver/src/stm32f10x_flash.c ****    |FLASH_LockBank1                     |    Yes     |      Yes      | - Lock Bank1                
 214:../libraries/STM32F10x_StdPeriph_Driver/src/stm32f10x_flash.c ****    |-----------------------------------------------------------------------------------------------
 215:../libraries/STM32F10x_StdPeriph_Driver/src/stm32f10x_flash.c ****    | FLASH_EraseAllBank1Pages           |    Yes     |      Yes      | - Erase all pages in Bank1  
 216:../libraries/STM32F10x_StdPeriph_Driver/src/stm32f10x_flash.c ****    |-----------------------------------------------------------------------------------------------
 217:../libraries/STM32F10x_StdPeriph_Driver/src/stm32f10x_flash.c ****    | FLASH_GetBank1Status               |    Yes     |      Yes      | - Return the status of Bank1
 218:../libraries/STM32F10x_StdPeriph_Driver/src/stm32f10x_flash.c ****    |-----------------------------------------------------------------------------------------------
 219:../libraries/STM32F10x_StdPeriph_Driver/src/stm32f10x_flash.c ****    | FLASH_WaitForLastBank1Operation    |    Yes     |      Yes      | - Wait for Bank1 last operat
 220:../libraries/STM32F10x_StdPeriph_Driver/src/stm32f10x_flash.c ****    +-----------------------------------------------------------------------------------------------
 221:../libraries/STM32F10x_StdPeriph_Driver/src/stm32f10x_flash.c **** 
 222:../libraries/STM32F10x_StdPeriph_Driver/src/stm32f10x_flash.c ****    *****************************************************************************
 223:../libraries/STM32F10x_StdPeriph_Driver/src/stm32f10x_flash.c ****    * New Functions used only with STM32F10x_XL density devices to manage Bank2 *
 224:../libraries/STM32F10x_StdPeriph_Driver/src/stm32f10x_flash.c ****    *****************************************************************************
 225:../libraries/STM32F10x_StdPeriph_Driver/src/stm32f10x_flash.c ****    +-----------------------------------------------------------------------------------------------
 226:../libraries/STM32F10x_StdPeriph_Driver/src/stm32f10x_flash.c ****    |       Functions prototypes         |STM32F10x_XL|Other STM32F10x|    Comments                 
 227:../libraries/STM32F10x_StdPeriph_Driver/src/stm32f10x_flash.c ****    |                                    |   devices  |  devices      |                             
 228:../libraries/STM32F10x_StdPeriph_Driver/src/stm32f10x_flash.c ****    |-----------------------------------------------------------------------------------------------
 229:../libraries/STM32F10x_StdPeriph_Driver/src/stm32f10x_flash.c ****    | FLASH_UnlockBank2                  |    Yes     |      No       | - Unlock Bank2              
 230:../libraries/STM32F10x_StdPeriph_Driver/src/stm32f10x_flash.c ****    |-----------------------------------------------------------------------------------------------
 231:../libraries/STM32F10x_StdPeriph_Driver/src/stm32f10x_flash.c ****    |FLASH_LockBank2                     |    Yes     |      No       | - Lock Bank2                
 232:../libraries/STM32F10x_StdPeriph_Driver/src/stm32f10x_flash.c ****    |-----------------------------------------------------------------------------------------------
 233:../libraries/STM32F10x_StdPeriph_Driver/src/stm32f10x_flash.c ****    | FLASH_EraseAllBank2Pages           |    Yes     |      No       | - Erase all pages in Bank2  
 234:../libraries/STM32F10x_StdPeriph_Driver/src/stm32f10x_flash.c ****    |-----------------------------------------------------------------------------------------------
 235:../libraries/STM32F10x_StdPeriph_Driver/src/stm32f10x_flash.c ****    | FLASH_GetBank2Status               |    Yes     |      No       | - Return the status of Bank2
 236:../libraries/STM32F10x_StdPeriph_Driver/src/stm32f10x_flash.c ****    |-----------------------------------------------------------------------------------------------
 237:../libraries/STM32F10x_StdPeriph_Driver/src/stm32f10x_flash.c ****    | FLASH_WaitForLastBank2Operation    |    Yes     |      No       | - Wait for Bank2 last operat
 238:../libraries/STM32F10x_StdPeriph_Driver/src/stm32f10x_flash.c ****    |-----------------------------------------------------------------------------------------------
 239:../libraries/STM32F10x_StdPeriph_Driver/src/stm32f10x_flash.c ****    | FLASH_BootConfig                   |    Yes     |      No       | - Configure to boot from Ban
 240:../libraries/STM32F10x_StdPeriph_Driver/src/stm32f10x_flash.c ****    +-----------------------------------------------------------------------------------------------
 241:../libraries/STM32F10x_StdPeriph_Driver/src/stm32f10x_flash.c **** @endcode
 242:../libraries/STM32F10x_StdPeriph_Driver/src/stm32f10x_flash.c **** */
 243:../libraries/STM32F10x_StdPeriph_Driver/src/stm32f10x_flash.c **** 
 244:../libraries/STM32F10x_StdPeriph_Driver/src/stm32f10x_flash.c **** 
 245:../libraries/STM32F10x_StdPeriph_Driver/src/stm32f10x_flash.c **** /**
 246:../libraries/STM32F10x_StdPeriph_Driver/src/stm32f10x_flash.c ****   * @brief  Sets the code latency value.
 247:../libraries/STM32F10x_StdPeriph_Driver/src/stm32f10x_flash.c ****   * @note   This function can be used for all STM32F10x devices.
 248:../libraries/STM32F10x_StdPeriph_Driver/src/stm32f10x_flash.c ****   * @param  FLASH_Latency: specifies the FLASH Latency value.
 249:../libraries/STM32F10x_StdPeriph_Driver/src/stm32f10x_flash.c ****   *   This parameter can be one of the following values:
 250:../libraries/STM32F10x_StdPeriph_Driver/src/stm32f10x_flash.c ****   *     @arg FLASH_Latency_0: FLASH Zero Latency cycle
 251:../libraries/STM32F10x_StdPeriph_Driver/src/stm32f10x_flash.c ****   *     @arg FLASH_Latency_1: FLASH One Latency cycle
 252:../libraries/STM32F10x_StdPeriph_Driver/src/stm32f10x_flash.c ****   *     @arg FLASH_Latency_2: FLASH Two Latency cycles
 253:../libraries/STM32F10x_StdPeriph_Driver/src/stm32f10x_flash.c ****   * @retval None
 254:../libraries/STM32F10x_StdPeriph_Driver/src/stm32f10x_flash.c ****   */
 255:../libraries/STM32F10x_StdPeriph_Driver/src/stm32f10x_flash.c **** void FLASH_SetLatency(uint32_t FLASH_Latency)
 256:../libraries/STM32F10x_StdPeriph_Driver/src/stm32f10x_flash.c **** {
  27              		.loc 1 256 0
  28              		.cfi_startproc
  29              		@ args = 0, pretend = 0, frame = 0
  30              		@ frame_needed = 0, uses_anonymous_args = 0
  31              		@ link register save eliminated.
  32              	.LVL0:
 257:../libraries/STM32F10x_StdPeriph_Driver/src/stm32f10x_flash.c ****   uint32_t tmpreg = 0;
 258:../libraries/STM32F10x_StdPeriph_Driver/src/stm32f10x_flash.c ****   
 259:../libraries/STM32F10x_StdPeriph_Driver/src/stm32f10x_flash.c ****   /* Check the parameters */
 260:../libraries/STM32F10x_StdPeriph_Driver/src/stm32f10x_flash.c ****   assert_param(IS_FLASH_LATENCY(FLASH_Latency));
 261:../libraries/STM32F10x_StdPeriph_Driver/src/stm32f10x_flash.c ****   
 262:../libraries/STM32F10x_StdPeriph_Driver/src/stm32f10x_flash.c ****   /* Read the ACR register */
 263:../libraries/STM32F10x_StdPeriph_Driver/src/stm32f10x_flash.c ****   tmpreg = FLASH->ACR;  
  33              		.loc 1 263 0
  34 0000 034B     		ldr	r3, .L2
  35 0002 1A68     		ldr	r2, [r3, #0]
  36              	.LVL1:
 264:../libraries/STM32F10x_StdPeriph_Driver/src/stm32f10x_flash.c ****   
 265:../libraries/STM32F10x_StdPeriph_Driver/src/stm32f10x_flash.c ****   /* Sets the Latency value */
 266:../libraries/STM32F10x_StdPeriph_Driver/src/stm32f10x_flash.c ****   tmpreg &= ACR_LATENCY_Mask;
  37              		.loc 1 266 0
  38 0004 02F03801 		and	r1, r2, #56
  39              	.LVL2:
 267:../libraries/STM32F10x_StdPeriph_Driver/src/stm32f10x_flash.c ****   tmpreg |= FLASH_Latency;
  40              		.loc 1 267 0
  41 0008 0843     		orrs	r0, r0, r1
  42              	.LVL3:
 268:../libraries/STM32F10x_StdPeriph_Driver/src/stm32f10x_flash.c ****   
 269:../libraries/STM32F10x_StdPeriph_Driver/src/stm32f10x_flash.c ****   /* Write the ACR register */
 270:../libraries/STM32F10x_StdPeriph_Driver/src/stm32f10x_flash.c ****   FLASH->ACR = tmpreg;
  43              		.loc 1 270 0
  44 000a 1860     		str	r0, [r3, #0]
  45 000c 7047     		bx	lr
  46              	.L3:
  47 000e 00BF     		.align	2
  48              	.L2:
  49 0010 00200240 		.word	1073881088
  50              		.cfi_endproc
  51              	.LFE56:
  53              		.section	.text.FLASH_HalfCycleAccessCmd,"ax",%progbits
  54              		.align	1
  55              		.global	FLASH_HalfCycleAccessCmd
  56              		.thumb
  57              		.thumb_func
  59              	FLASH_HalfCycleAccessCmd:
  60              	.LFB57:
 271:../libraries/STM32F10x_StdPeriph_Driver/src/stm32f10x_flash.c **** }
 272:../libraries/STM32F10x_StdPeriph_Driver/src/stm32f10x_flash.c **** 
 273:../libraries/STM32F10x_StdPeriph_Driver/src/stm32f10x_flash.c **** /**
 274:../libraries/STM32F10x_StdPeriph_Driver/src/stm32f10x_flash.c ****   * @brief  Enables or disables the Half cycle flash access.
 275:../libraries/STM32F10x_StdPeriph_Driver/src/stm32f10x_flash.c ****   * @note   This function can be used for all STM32F10x devices.
 276:../libraries/STM32F10x_StdPeriph_Driver/src/stm32f10x_flash.c ****   * @param  FLASH_HalfCycleAccess: specifies the FLASH Half cycle Access mode.
 277:../libraries/STM32F10x_StdPeriph_Driver/src/stm32f10x_flash.c ****   *   This parameter can be one of the following values:
 278:../libraries/STM32F10x_StdPeriph_Driver/src/stm32f10x_flash.c ****   *     @arg FLASH_HalfCycleAccess_Enable: FLASH Half Cycle Enable
 279:../libraries/STM32F10x_StdPeriph_Driver/src/stm32f10x_flash.c ****   *     @arg FLASH_HalfCycleAccess_Disable: FLASH Half Cycle Disable
 280:../libraries/STM32F10x_StdPeriph_Driver/src/stm32f10x_flash.c ****   * @retval None
 281:../libraries/STM32F10x_StdPeriph_Driver/src/stm32f10x_flash.c ****   */
 282:../libraries/STM32F10x_StdPeriph_Driver/src/stm32f10x_flash.c **** void FLASH_HalfCycleAccessCmd(uint32_t FLASH_HalfCycleAccess)
 283:../libraries/STM32F10x_StdPeriph_Driver/src/stm32f10x_flash.c **** {
  61              		.loc 1 283 0
  62              		.cfi_startproc
  63              		@ args = 0, pretend = 0, frame = 0
  64              		@ frame_needed = 0, uses_anonymous_args = 0
  65              		@ link register save eliminated.
  66              	.LVL4:
 284:../libraries/STM32F10x_StdPeriph_Driver/src/stm32f10x_flash.c ****   /* Check the parameters */
 285:../libraries/STM32F10x_StdPeriph_Driver/src/stm32f10x_flash.c ****   assert_param(IS_FLASH_HALFCYCLEACCESS_STATE(FLASH_HalfCycleAccess));
 286:../libraries/STM32F10x_StdPeriph_Driver/src/stm32f10x_flash.c ****   
 287:../libraries/STM32F10x_StdPeriph_Driver/src/stm32f10x_flash.c ****   /* Enable or disable the Half cycle access */
 288:../libraries/STM32F10x_StdPeriph_Driver/src/stm32f10x_flash.c ****   FLASH->ACR &= ACR_HLFCYA_Mask;
  67              		.loc 1 288 0
  68 0000 044B     		ldr	r3, .L5
  69 0002 1A68     		ldr	r2, [r3, #0]
  70 0004 22F00801 		bic	r1, r2, #8
  71 0008 1960     		str	r1, [r3, #0]
 289:../libraries/STM32F10x_StdPeriph_Driver/src/stm32f10x_flash.c ****   FLASH->ACR |= FLASH_HalfCycleAccess;
  72              		.loc 1 289 0
  73 000a 1A68     		ldr	r2, [r3, #0]
  74 000c 1043     		orrs	r0, r0, r2
  75              	.LVL5:
  76 000e 1860     		str	r0, [r3, #0]
  77 0010 7047     		bx	lr
  78              	.L6:
  79 0012 00BF     		.align	2
  80              	.L5:
  81 0014 00200240 		.word	1073881088
  82              		.cfi_endproc
  83              	.LFE57:
  85              		.section	.text.FLASH_PrefetchBufferCmd,"ax",%progbits
  86              		.align	1
  87              		.global	FLASH_PrefetchBufferCmd
  88              		.thumb
  89              		.thumb_func
  91              	FLASH_PrefetchBufferCmd:
  92              	.LFB58:
 290:../libraries/STM32F10x_StdPeriph_Driver/src/stm32f10x_flash.c **** }
 291:../libraries/STM32F10x_StdPeriph_Driver/src/stm32f10x_flash.c **** 
 292:../libraries/STM32F10x_StdPeriph_Driver/src/stm32f10x_flash.c **** /**
 293:../libraries/STM32F10x_StdPeriph_Driver/src/stm32f10x_flash.c ****   * @brief  Enables or disables the Prefetch Buffer.
 294:../libraries/STM32F10x_StdPeriph_Driver/src/stm32f10x_flash.c ****   * @note   This function can be used for all STM32F10x devices.
 295:../libraries/STM32F10x_StdPeriph_Driver/src/stm32f10x_flash.c ****   * @param  FLASH_PrefetchBuffer: specifies the Prefetch buffer status.
 296:../libraries/STM32F10x_StdPeriph_Driver/src/stm32f10x_flash.c ****   *   This parameter can be one of the following values:
 297:../libraries/STM32F10x_StdPeriph_Driver/src/stm32f10x_flash.c ****   *     @arg FLASH_PrefetchBuffer_Enable: FLASH Prefetch Buffer Enable
 298:../libraries/STM32F10x_StdPeriph_Driver/src/stm32f10x_flash.c ****   *     @arg FLASH_PrefetchBuffer_Disable: FLASH Prefetch Buffer Disable
 299:../libraries/STM32F10x_StdPeriph_Driver/src/stm32f10x_flash.c ****   * @retval None
 300:../libraries/STM32F10x_StdPeriph_Driver/src/stm32f10x_flash.c ****   */
 301:../libraries/STM32F10x_StdPeriph_Driver/src/stm32f10x_flash.c **** void FLASH_PrefetchBufferCmd(uint32_t FLASH_PrefetchBuffer)
 302:../libraries/STM32F10x_StdPeriph_Driver/src/stm32f10x_flash.c **** {
  93              		.loc 1 302 0
  94              		.cfi_startproc
  95              		@ args = 0, pretend = 0, frame = 0
  96              		@ frame_needed = 0, uses_anonymous_args = 0
  97              		@ link register save eliminated.
  98              	.LVL6:
 303:../libraries/STM32F10x_StdPeriph_Driver/src/stm32f10x_flash.c ****   /* Check the parameters */
 304:../libraries/STM32F10x_StdPeriph_Driver/src/stm32f10x_flash.c ****   assert_param(IS_FLASH_PREFETCHBUFFER_STATE(FLASH_PrefetchBuffer));
 305:../libraries/STM32F10x_StdPeriph_Driver/src/stm32f10x_flash.c ****   
 306:../libraries/STM32F10x_StdPeriph_Driver/src/stm32f10x_flash.c ****   /* Enable or disable the Prefetch Buffer */
 307:../libraries/STM32F10x_StdPeriph_Driver/src/stm32f10x_flash.c ****   FLASH->ACR &= ACR_PRFTBE_Mask;
  99              		.loc 1 307 0
 100 0000 044B     		ldr	r3, .L8
 101 0002 1A68     		ldr	r2, [r3, #0]
 102 0004 22F01001 		bic	r1, r2, #16
 103 0008 1960     		str	r1, [r3, #0]
 308:../libraries/STM32F10x_StdPeriph_Driver/src/stm32f10x_flash.c ****   FLASH->ACR |= FLASH_PrefetchBuffer;
 104              		.loc 1 308 0
 105 000a 1A68     		ldr	r2, [r3, #0]
 106 000c 1043     		orrs	r0, r0, r2
 107              	.LVL7:
 108 000e 1860     		str	r0, [r3, #0]
 109 0010 7047     		bx	lr
 110              	.L9:
 111 0012 00BF     		.align	2
 112              	.L8:
 113 0014 00200240 		.word	1073881088
 114              		.cfi_endproc
 115              	.LFE58:
 117              		.section	.text.FLASH_Unlock,"ax",%progbits
 118              		.align	1
 119              		.global	FLASH_Unlock
 120              		.thumb
 121              		.thumb_func
 123              	FLASH_Unlock:
 124              	.LFB59:
 309:../libraries/STM32F10x_StdPeriph_Driver/src/stm32f10x_flash.c **** }
 310:../libraries/STM32F10x_StdPeriph_Driver/src/stm32f10x_flash.c **** 
 311:../libraries/STM32F10x_StdPeriph_Driver/src/stm32f10x_flash.c **** /**
 312:../libraries/STM32F10x_StdPeriph_Driver/src/stm32f10x_flash.c ****   * @brief  Unlocks the FLASH Program Erase Controller.
 313:../libraries/STM32F10x_StdPeriph_Driver/src/stm32f10x_flash.c ****   * @note   This function can be used for all STM32F10x devices.
 314:../libraries/STM32F10x_StdPeriph_Driver/src/stm32f10x_flash.c ****   *         - For STM32F10X_XL devices this function unlocks Bank1 and Bank2.
 315:../libraries/STM32F10x_StdPeriph_Driver/src/stm32f10x_flash.c ****   *         - For all other devices it unlocks Bank1 and it is equivalent 
 316:../libraries/STM32F10x_StdPeriph_Driver/src/stm32f10x_flash.c ****   *           to FLASH_UnlockBank1 function.. 
 317:../libraries/STM32F10x_StdPeriph_Driver/src/stm32f10x_flash.c ****   * @param  None
 318:../libraries/STM32F10x_StdPeriph_Driver/src/stm32f10x_flash.c ****   * @retval None
 319:../libraries/STM32F10x_StdPeriph_Driver/src/stm32f10x_flash.c ****   */
 320:../libraries/STM32F10x_StdPeriph_Driver/src/stm32f10x_flash.c **** void FLASH_Unlock(void)
 321:../libraries/STM32F10x_StdPeriph_Driver/src/stm32f10x_flash.c **** {
 125              		.loc 1 321 0
 126              		.cfi_startproc
 127              		@ args = 0, pretend = 0, frame = 0
 128              		@ frame_needed = 0, uses_anonymous_args = 0
 129              		@ link register save eliminated.
 322:../libraries/STM32F10x_StdPeriph_Driver/src/stm32f10x_flash.c ****   /* Authorize the FPEC of Bank1 Access */
 323:../libraries/STM32F10x_StdPeriph_Driver/src/stm32f10x_flash.c ****   FLASH->KEYR = FLASH_KEY1;
 130              		.loc 1 323 0
 131 0000 034A     		ldr	r2, .L11
 132 0002 044B     		ldr	r3, .L11+4
 324:../libraries/STM32F10x_StdPeriph_Driver/src/stm32f10x_flash.c ****   FLASH->KEYR = FLASH_KEY2;
 133              		.loc 1 324 0
 134 0004 02F18830 		add	r0, r2, #-2004318072
 323:../libraries/STM32F10x_StdPeriph_Driver/src/stm32f10x_flash.c ****   FLASH->KEYR = FLASH_KEY1;
 135              		.loc 1 323 0
 136 0008 5A60     		str	r2, [r3, #4]
 137              		.loc 1 324 0
 138 000a 5860     		str	r0, [r3, #4]
 139 000c 7047     		bx	lr
 140              	.L12:
 141 000e 00BF     		.align	2
 142              	.L11:
 143 0010 23016745 		.word	1164378403
 144 0014 00200240 		.word	1073881088
 145              		.cfi_endproc
 146              	.LFE59:
 148              		.section	.text.FLASH_UnlockBank1,"ax",%progbits
 149              		.align	1
 150              		.global	FLASH_UnlockBank1
 151              		.thumb
 152              		.thumb_func
 154              	FLASH_UnlockBank1:
 155              	.LFB60:
 325:../libraries/STM32F10x_StdPeriph_Driver/src/stm32f10x_flash.c **** 
 326:../libraries/STM32F10x_StdPeriph_Driver/src/stm32f10x_flash.c **** #ifdef STM32F10X_XL
 327:../libraries/STM32F10x_StdPeriph_Driver/src/stm32f10x_flash.c ****   /* Authorize the FPEC of Bank2 Access */
 328:../libraries/STM32F10x_StdPeriph_Driver/src/stm32f10x_flash.c ****   FLASH->KEYR2 = FLASH_KEY1;
 329:../libraries/STM32F10x_StdPeriph_Driver/src/stm32f10x_flash.c ****   FLASH->KEYR2 = FLASH_KEY2;
 330:../libraries/STM32F10x_StdPeriph_Driver/src/stm32f10x_flash.c **** #endif /* STM32F10X_XL */
 331:../libraries/STM32F10x_StdPeriph_Driver/src/stm32f10x_flash.c **** }
 332:../libraries/STM32F10x_StdPeriph_Driver/src/stm32f10x_flash.c **** /**
 333:../libraries/STM32F10x_StdPeriph_Driver/src/stm32f10x_flash.c ****   * @brief  Unlocks the FLASH Bank1 Program Erase Controller.
 334:../libraries/STM32F10x_StdPeriph_Driver/src/stm32f10x_flash.c ****   * @note   This function can be used for all STM32F10x devices.
 335:../libraries/STM32F10x_StdPeriph_Driver/src/stm32f10x_flash.c ****   *         - For STM32F10X_XL devices this function unlocks Bank1.
 336:../libraries/STM32F10x_StdPeriph_Driver/src/stm32f10x_flash.c ****   *         - For all other devices it unlocks Bank1 and it is 
 337:../libraries/STM32F10x_StdPeriph_Driver/src/stm32f10x_flash.c ****   *           equivalent to FLASH_Unlock function.
 338:../libraries/STM32F10x_StdPeriph_Driver/src/stm32f10x_flash.c ****   * @param  None
 339:../libraries/STM32F10x_StdPeriph_Driver/src/stm32f10x_flash.c ****   * @retval None
 340:../libraries/STM32F10x_StdPeriph_Driver/src/stm32f10x_flash.c ****   */
 341:../libraries/STM32F10x_StdPeriph_Driver/src/stm32f10x_flash.c **** void FLASH_UnlockBank1(void)
 342:../libraries/STM32F10x_StdPeriph_Driver/src/stm32f10x_flash.c **** {
 156              		.loc 1 342 0
 157              		.cfi_startproc
 158              		@ args = 0, pretend = 0, frame = 0
 159              		@ frame_needed = 0, uses_anonymous_args = 0
 160              		@ link register save eliminated.
 343:../libraries/STM32F10x_StdPeriph_Driver/src/stm32f10x_flash.c ****   /* Authorize the FPEC of Bank1 Access */
 344:../libraries/STM32F10x_StdPeriph_Driver/src/stm32f10x_flash.c ****   FLASH->KEYR = FLASH_KEY1;
 161              		.loc 1 344 0
 162 0000 034A     		ldr	r2, .L14
 163 0002 044B     		ldr	r3, .L14+4
 345:../libraries/STM32F10x_StdPeriph_Driver/src/stm32f10x_flash.c ****   FLASH->KEYR = FLASH_KEY2;
 164              		.loc 1 345 0
 165 0004 02F18830 		add	r0, r2, #-2004318072
 344:../libraries/STM32F10x_StdPeriph_Driver/src/stm32f10x_flash.c ****   FLASH->KEYR = FLASH_KEY1;
 166              		.loc 1 344 0
 167 0008 5A60     		str	r2, [r3, #4]
 168              		.loc 1 345 0
 169 000a 5860     		str	r0, [r3, #4]
 170 000c 7047     		bx	lr
 171              	.L15:
 172 000e 00BF     		.align	2
 173              	.L14:
 174 0010 23016745 		.word	1164378403
 175 0014 00200240 		.word	1073881088
 176              		.cfi_endproc
 177              	.LFE60:
 179              		.section	.text.FLASH_Lock,"ax",%progbits
 180              		.align	1
 181              		.global	FLASH_Lock
 182              		.thumb
 183              		.thumb_func
 185              	FLASH_Lock:
 186              	.LFB61:
 346:../libraries/STM32F10x_StdPeriph_Driver/src/stm32f10x_flash.c **** }
 347:../libraries/STM32F10x_StdPeriph_Driver/src/stm32f10x_flash.c **** 
 348:../libraries/STM32F10x_StdPeriph_Driver/src/stm32f10x_flash.c **** #ifdef STM32F10X_XL
 349:../libraries/STM32F10x_StdPeriph_Driver/src/stm32f10x_flash.c **** /**
 350:../libraries/STM32F10x_StdPeriph_Driver/src/stm32f10x_flash.c ****   * @brief  Unlocks the FLASH Bank2 Program Erase Controller.
 351:../libraries/STM32F10x_StdPeriph_Driver/src/stm32f10x_flash.c ****   * @note   This function can be used only for STM32F10X_XL density devices.
 352:../libraries/STM32F10x_StdPeriph_Driver/src/stm32f10x_flash.c ****   * @param  None
 353:../libraries/STM32F10x_StdPeriph_Driver/src/stm32f10x_flash.c ****   * @retval None
 354:../libraries/STM32F10x_StdPeriph_Driver/src/stm32f10x_flash.c ****   */
 355:../libraries/STM32F10x_StdPeriph_Driver/src/stm32f10x_flash.c **** void FLASH_UnlockBank2(void)
 356:../libraries/STM32F10x_StdPeriph_Driver/src/stm32f10x_flash.c **** {
 357:../libraries/STM32F10x_StdPeriph_Driver/src/stm32f10x_flash.c ****   /* Authorize the FPEC of Bank2 Access */
 358:../libraries/STM32F10x_StdPeriph_Driver/src/stm32f10x_flash.c ****   FLASH->KEYR2 = FLASH_KEY1;
 359:../libraries/STM32F10x_StdPeriph_Driver/src/stm32f10x_flash.c ****   FLASH->KEYR2 = FLASH_KEY2;
 360:../libraries/STM32F10x_StdPeriph_Driver/src/stm32f10x_flash.c **** 
 361:../libraries/STM32F10x_StdPeriph_Driver/src/stm32f10x_flash.c **** }
 362:../libraries/STM32F10x_StdPeriph_Driver/src/stm32f10x_flash.c **** #endif /* STM32F10X_XL */
 363:../libraries/STM32F10x_StdPeriph_Driver/src/stm32f10x_flash.c **** 
 364:../libraries/STM32F10x_StdPeriph_Driver/src/stm32f10x_flash.c **** /**
 365:../libraries/STM32F10x_StdPeriph_Driver/src/stm32f10x_flash.c ****   * @brief  Locks the FLASH Program Erase Controller.
 366:../libraries/STM32F10x_StdPeriph_Driver/src/stm32f10x_flash.c ****   * @note   This function can be used for all STM32F10x devices.
 367:../libraries/STM32F10x_StdPeriph_Driver/src/stm32f10x_flash.c ****   *         - For STM32F10X_XL devices this function Locks Bank1 and Bank2.
 368:../libraries/STM32F10x_StdPeriph_Driver/src/stm32f10x_flash.c ****   *         - For all other devices it Locks Bank1 and it is equivalent 
 369:../libraries/STM32F10x_StdPeriph_Driver/src/stm32f10x_flash.c ****   *           to FLASH_LockBank1 function.
 370:../libraries/STM32F10x_StdPeriph_Driver/src/stm32f10x_flash.c ****   * @param  None
 371:../libraries/STM32F10x_StdPeriph_Driver/src/stm32f10x_flash.c ****   * @retval None
 372:../libraries/STM32F10x_StdPeriph_Driver/src/stm32f10x_flash.c ****   */
 373:../libraries/STM32F10x_StdPeriph_Driver/src/stm32f10x_flash.c **** void FLASH_Lock(void)
 374:../libraries/STM32F10x_StdPeriph_Driver/src/stm32f10x_flash.c **** {
 187              		.loc 1 374 0
 188              		.cfi_startproc
 189              		@ args = 0, pretend = 0, frame = 0
 190              		@ frame_needed = 0, uses_anonymous_args = 0
 191              		@ link register save eliminated.
 375:../libraries/STM32F10x_StdPeriph_Driver/src/stm32f10x_flash.c ****   /* Set the Lock Bit to lock the FPEC and the CR of  Bank1 */
 376:../libraries/STM32F10x_StdPeriph_Driver/src/stm32f10x_flash.c ****   FLASH->CR |= CR_LOCK_Set;
 192              		.loc 1 376 0
 193 0000 024B     		ldr	r3, .L17
 194 0002 1A69     		ldr	r2, [r3, #16]
 195 0004 42F08000 		orr	r0, r2, #128
 196 0008 1861     		str	r0, [r3, #16]
 197 000a 7047     		bx	lr
 198              	.L18:
 199              		.align	2
 200              	.L17:
 201 000c 00200240 		.word	1073881088
 202              		.cfi_endproc
 203              	.LFE61:
 205              		.section	.text.FLASH_LockBank1,"ax",%progbits
 206              		.align	1
 207              		.global	FLASH_LockBank1
 208              		.thumb
 209              		.thumb_func
 211              	FLASH_LockBank1:
 212              	.LFB62:
 377:../libraries/STM32F10x_StdPeriph_Driver/src/stm32f10x_flash.c **** 
 378:../libraries/STM32F10x_StdPeriph_Driver/src/stm32f10x_flash.c **** #ifdef STM32F10X_XL
 379:../libraries/STM32F10x_StdPeriph_Driver/src/stm32f10x_flash.c ****   /* Set the Lock Bit to lock the FPEC and the CR of  Bank2 */
 380:../libraries/STM32F10x_StdPeriph_Driver/src/stm32f10x_flash.c ****   FLASH->CR2 |= CR_LOCK_Set;
 381:../libraries/STM32F10x_StdPeriph_Driver/src/stm32f10x_flash.c **** #endif /* STM32F10X_XL */
 382:../libraries/STM32F10x_StdPeriph_Driver/src/stm32f10x_flash.c **** }
 383:../libraries/STM32F10x_StdPeriph_Driver/src/stm32f10x_flash.c **** 
 384:../libraries/STM32F10x_StdPeriph_Driver/src/stm32f10x_flash.c **** /**
 385:../libraries/STM32F10x_StdPeriph_Driver/src/stm32f10x_flash.c ****   * @brief  Locks the FLASH Bank1 Program Erase Controller.
 386:../libraries/STM32F10x_StdPeriph_Driver/src/stm32f10x_flash.c ****   * @note   this function can be used for all STM32F10x devices.
 387:../libraries/STM32F10x_StdPeriph_Driver/src/stm32f10x_flash.c ****   *         - For STM32F10X_XL devices this function Locks Bank1.
 388:../libraries/STM32F10x_StdPeriph_Driver/src/stm32f10x_flash.c ****   *         - For all other devices it Locks Bank1 and it is equivalent 
 389:../libraries/STM32F10x_StdPeriph_Driver/src/stm32f10x_flash.c ****   *           to FLASH_Lock function.
 390:../libraries/STM32F10x_StdPeriph_Driver/src/stm32f10x_flash.c ****   * @param  None
 391:../libraries/STM32F10x_StdPeriph_Driver/src/stm32f10x_flash.c ****   * @retval None
 392:../libraries/STM32F10x_StdPeriph_Driver/src/stm32f10x_flash.c ****   */
 393:../libraries/STM32F10x_StdPeriph_Driver/src/stm32f10x_flash.c **** void FLASH_LockBank1(void)
 394:../libraries/STM32F10x_StdPeriph_Driver/src/stm32f10x_flash.c **** {
 213              		.loc 1 394 0
 214              		.cfi_startproc
 215              		@ args = 0, pretend = 0, frame = 0
 216              		@ frame_needed = 0, uses_anonymous_args = 0
 217              		@ link register save eliminated.
 395:../libraries/STM32F10x_StdPeriph_Driver/src/stm32f10x_flash.c ****   /* Set the Lock Bit to lock the FPEC and the CR of  Bank1 */
 396:../libraries/STM32F10x_StdPeriph_Driver/src/stm32f10x_flash.c ****   FLASH->CR |= CR_LOCK_Set;
 218              		.loc 1 396 0
 219 0000 024B     		ldr	r3, .L20
 220 0002 1A69     		ldr	r2, [r3, #16]
 221 0004 42F08000 		orr	r0, r2, #128
 222 0008 1861     		str	r0, [r3, #16]
 223 000a 7047     		bx	lr
 224              	.L21:
 225              		.align	2
 226              	.L20:
 227 000c 00200240 		.word	1073881088
 228              		.cfi_endproc
 229              	.LFE62:
 231              		.section	.text.FLASH_GetUserOptionByte,"ax",%progbits
 232              		.align	1
 233              		.global	FLASH_GetUserOptionByte
 234              		.thumb
 235              		.thumb_func
 237              	FLASH_GetUserOptionByte:
 238              	.LFB73:
 397:../libraries/STM32F10x_StdPeriph_Driver/src/stm32f10x_flash.c **** }
 398:../libraries/STM32F10x_StdPeriph_Driver/src/stm32f10x_flash.c **** 
 399:../libraries/STM32F10x_StdPeriph_Driver/src/stm32f10x_flash.c **** #ifdef STM32F10X_XL
 400:../libraries/STM32F10x_StdPeriph_Driver/src/stm32f10x_flash.c **** /**
 401:../libraries/STM32F10x_StdPeriph_Driver/src/stm32f10x_flash.c ****   * @brief  Locks the FLASH Bank2 Program Erase Controller.
 402:../libraries/STM32F10x_StdPeriph_Driver/src/stm32f10x_flash.c ****   * @note   This function can be used only for STM32F10X_XL density devices.
 403:../libraries/STM32F10x_StdPeriph_Driver/src/stm32f10x_flash.c ****   * @param  None
 404:../libraries/STM32F10x_StdPeriph_Driver/src/stm32f10x_flash.c ****   * @retval None
 405:../libraries/STM32F10x_StdPeriph_Driver/src/stm32f10x_flash.c ****   */
 406:../libraries/STM32F10x_StdPeriph_Driver/src/stm32f10x_flash.c **** void FLASH_LockBank2(void)
 407:../libraries/STM32F10x_StdPeriph_Driver/src/stm32f10x_flash.c **** {
 408:../libraries/STM32F10x_StdPeriph_Driver/src/stm32f10x_flash.c ****   /* Set the Lock Bit to lock the FPEC and the CR of  Bank2 */
 409:../libraries/STM32F10x_StdPeriph_Driver/src/stm32f10x_flash.c ****   FLASH->CR2 |= CR_LOCK_Set;
 410:../libraries/STM32F10x_StdPeriph_Driver/src/stm32f10x_flash.c **** }
 411:../libraries/STM32F10x_StdPeriph_Driver/src/stm32f10x_flash.c **** #endif /* STM32F10X_XL */
 412:../libraries/STM32F10x_StdPeriph_Driver/src/stm32f10x_flash.c **** 
 413:../libraries/STM32F10x_StdPeriph_Driver/src/stm32f10x_flash.c **** /**
 414:../libraries/STM32F10x_StdPeriph_Driver/src/stm32f10x_flash.c ****   * @brief  Erases a specified FLASH page.
 415:../libraries/STM32F10x_StdPeriph_Driver/src/stm32f10x_flash.c ****   * @note   This function can be used for all STM32F10x devices.
 416:../libraries/STM32F10x_StdPeriph_Driver/src/stm32f10x_flash.c ****   * @param  Page_Address: The page address to be erased.
 417:../libraries/STM32F10x_StdPeriph_Driver/src/stm32f10x_flash.c ****   * @retval FLASH Status: The returned value can be: FLASH_BUSY, FLASH_ERROR_PG,
 418:../libraries/STM32F10x_StdPeriph_Driver/src/stm32f10x_flash.c ****   *         FLASH_ERROR_WRP, FLASH_COMPLETE or FLASH_TIMEOUT.
 419:../libraries/STM32F10x_StdPeriph_Driver/src/stm32f10x_flash.c ****   */
 420:../libraries/STM32F10x_StdPeriph_Driver/src/stm32f10x_flash.c **** FLASH_Status FLASH_ErasePage(uint32_t Page_Address)
 421:../libraries/STM32F10x_StdPeriph_Driver/src/stm32f10x_flash.c **** {
 422:../libraries/STM32F10x_StdPeriph_Driver/src/stm32f10x_flash.c ****   FLASH_Status status = FLASH_COMPLETE;
 423:../libraries/STM32F10x_StdPeriph_Driver/src/stm32f10x_flash.c ****   /* Check the parameters */
 424:../libraries/STM32F10x_StdPeriph_Driver/src/stm32f10x_flash.c ****   assert_param(IS_FLASH_ADDRESS(Page_Address));
 425:../libraries/STM32F10x_StdPeriph_Driver/src/stm32f10x_flash.c **** 
 426:../libraries/STM32F10x_StdPeriph_Driver/src/stm32f10x_flash.c **** #ifdef STM32F10X_XL
 427:../libraries/STM32F10x_StdPeriph_Driver/src/stm32f10x_flash.c ****   if(Page_Address < FLASH_BANK1_END_ADDRESS)  
 428:../libraries/STM32F10x_StdPeriph_Driver/src/stm32f10x_flash.c ****   {
 429:../libraries/STM32F10x_StdPeriph_Driver/src/stm32f10x_flash.c ****     /* Wait for last operation to be completed */
 430:../libraries/STM32F10x_StdPeriph_Driver/src/stm32f10x_flash.c ****     status = FLASH_WaitForLastBank1Operation(EraseTimeout);
 431:../libraries/STM32F10x_StdPeriph_Driver/src/stm32f10x_flash.c ****     if(status == FLASH_COMPLETE)
 432:../libraries/STM32F10x_StdPeriph_Driver/src/stm32f10x_flash.c ****     { 
 433:../libraries/STM32F10x_StdPeriph_Driver/src/stm32f10x_flash.c ****       /* if the previous operation is completed, proceed to erase the page */
 434:../libraries/STM32F10x_StdPeriph_Driver/src/stm32f10x_flash.c ****       FLASH->CR|= CR_PER_Set;
 435:../libraries/STM32F10x_StdPeriph_Driver/src/stm32f10x_flash.c ****       FLASH->AR = Page_Address; 
 436:../libraries/STM32F10x_StdPeriph_Driver/src/stm32f10x_flash.c ****       FLASH->CR|= CR_STRT_Set;
 437:../libraries/STM32F10x_StdPeriph_Driver/src/stm32f10x_flash.c ****     
 438:../libraries/STM32F10x_StdPeriph_Driver/src/stm32f10x_flash.c ****       /* Wait for last operation to be completed */
 439:../libraries/STM32F10x_StdPeriph_Driver/src/stm32f10x_flash.c ****       status = FLASH_WaitForLastBank1Operation(EraseTimeout);
 440:../libraries/STM32F10x_StdPeriph_Driver/src/stm32f10x_flash.c **** 
 441:../libraries/STM32F10x_StdPeriph_Driver/src/stm32f10x_flash.c ****       /* Disable the PER Bit */
 442:../libraries/STM32F10x_StdPeriph_Driver/src/stm32f10x_flash.c ****       FLASH->CR &= CR_PER_Reset;
 443:../libraries/STM32F10x_StdPeriph_Driver/src/stm32f10x_flash.c ****     }
 444:../libraries/STM32F10x_StdPeriph_Driver/src/stm32f10x_flash.c ****   }
 445:../libraries/STM32F10x_StdPeriph_Driver/src/stm32f10x_flash.c ****   else
 446:../libraries/STM32F10x_StdPeriph_Driver/src/stm32f10x_flash.c ****   {
 447:../libraries/STM32F10x_StdPeriph_Driver/src/stm32f10x_flash.c ****     /* Wait for last operation to be completed */
 448:../libraries/STM32F10x_StdPeriph_Driver/src/stm32f10x_flash.c ****     status = FLASH_WaitForLastBank2Operation(EraseTimeout);
 449:../libraries/STM32F10x_StdPeriph_Driver/src/stm32f10x_flash.c ****     if(status == FLASH_COMPLETE)
 450:../libraries/STM32F10x_StdPeriph_Driver/src/stm32f10x_flash.c ****     { 
 451:../libraries/STM32F10x_StdPeriph_Driver/src/stm32f10x_flash.c ****       /* if the previous operation is completed, proceed to erase the page */
 452:../libraries/STM32F10x_StdPeriph_Driver/src/stm32f10x_flash.c ****       FLASH->CR2|= CR_PER_Set;
 453:../libraries/STM32F10x_StdPeriph_Driver/src/stm32f10x_flash.c ****       FLASH->AR2 = Page_Address; 
 454:../libraries/STM32F10x_StdPeriph_Driver/src/stm32f10x_flash.c ****       FLASH->CR2|= CR_STRT_Set;
 455:../libraries/STM32F10x_StdPeriph_Driver/src/stm32f10x_flash.c ****     
 456:../libraries/STM32F10x_StdPeriph_Driver/src/stm32f10x_flash.c ****       /* Wait for last operation to be completed */
 457:../libraries/STM32F10x_StdPeriph_Driver/src/stm32f10x_flash.c ****       status = FLASH_WaitForLastBank2Operation(EraseTimeout);
 458:../libraries/STM32F10x_StdPeriph_Driver/src/stm32f10x_flash.c ****       
 459:../libraries/STM32F10x_StdPeriph_Driver/src/stm32f10x_flash.c ****       /* Disable the PER Bit */
 460:../libraries/STM32F10x_StdPeriph_Driver/src/stm32f10x_flash.c ****       FLASH->CR2 &= CR_PER_Reset;
 461:../libraries/STM32F10x_StdPeriph_Driver/src/stm32f10x_flash.c ****     }
 462:../libraries/STM32F10x_StdPeriph_Driver/src/stm32f10x_flash.c ****   }
 463:../libraries/STM32F10x_StdPeriph_Driver/src/stm32f10x_flash.c **** #else
 464:../libraries/STM32F10x_StdPeriph_Driver/src/stm32f10x_flash.c ****   /* Wait for last operation to be completed */
 465:../libraries/STM32F10x_StdPeriph_Driver/src/stm32f10x_flash.c ****   status = FLASH_WaitForLastOperation(EraseTimeout);
 466:../libraries/STM32F10x_StdPeriph_Driver/src/stm32f10x_flash.c ****   
 467:../libraries/STM32F10x_StdPeriph_Driver/src/stm32f10x_flash.c ****   if(status == FLASH_COMPLETE)
 468:../libraries/STM32F10x_StdPeriph_Driver/src/stm32f10x_flash.c ****   { 
 469:../libraries/STM32F10x_StdPeriph_Driver/src/stm32f10x_flash.c ****     /* if the previous operation is completed, proceed to erase the page */
 470:../libraries/STM32F10x_StdPeriph_Driver/src/stm32f10x_flash.c ****     FLASH->CR|= CR_PER_Set;
 471:../libraries/STM32F10x_StdPeriph_Driver/src/stm32f10x_flash.c ****     FLASH->AR = Page_Address; 
 472:../libraries/STM32F10x_StdPeriph_Driver/src/stm32f10x_flash.c ****     FLASH->CR|= CR_STRT_Set;
 473:../libraries/STM32F10x_StdPeriph_Driver/src/stm32f10x_flash.c ****     
 474:../libraries/STM32F10x_StdPeriph_Driver/src/stm32f10x_flash.c ****     /* Wait for last operation to be completed */
 475:../libraries/STM32F10x_StdPeriph_Driver/src/stm32f10x_flash.c ****     status = FLASH_WaitForLastOperation(EraseTimeout);
 476:../libraries/STM32F10x_StdPeriph_Driver/src/stm32f10x_flash.c ****     
 477:../libraries/STM32F10x_StdPeriph_Driver/src/stm32f10x_flash.c ****     /* Disable the PER Bit */
 478:../libraries/STM32F10x_StdPeriph_Driver/src/stm32f10x_flash.c ****     FLASH->CR &= CR_PER_Reset;
 479:../libraries/STM32F10x_StdPeriph_Driver/src/stm32f10x_flash.c ****   }
 480:../libraries/STM32F10x_StdPeriph_Driver/src/stm32f10x_flash.c **** #endif /* STM32F10X_XL */
 481:../libraries/STM32F10x_StdPeriph_Driver/src/stm32f10x_flash.c **** 
 482:../libraries/STM32F10x_StdPeriph_Driver/src/stm32f10x_flash.c ****   /* Return the Erase Status */
 483:../libraries/STM32F10x_StdPeriph_Driver/src/stm32f10x_flash.c ****   return status;
 484:../libraries/STM32F10x_StdPeriph_Driver/src/stm32f10x_flash.c **** }
 485:../libraries/STM32F10x_StdPeriph_Driver/src/stm32f10x_flash.c **** 
 486:../libraries/STM32F10x_StdPeriph_Driver/src/stm32f10x_flash.c **** /**
 487:../libraries/STM32F10x_StdPeriph_Driver/src/stm32f10x_flash.c ****   * @brief  Erases all FLASH pages.
 488:../libraries/STM32F10x_StdPeriph_Driver/src/stm32f10x_flash.c ****   * @note   This function can be used for all STM32F10x devices.
 489:../libraries/STM32F10x_StdPeriph_Driver/src/stm32f10x_flash.c ****   * @param  None
 490:../libraries/STM32F10x_StdPeriph_Driver/src/stm32f10x_flash.c ****   * @retval FLASH Status: The returned value can be: FLASH_ERROR_PG,
 491:../libraries/STM32F10x_StdPeriph_Driver/src/stm32f10x_flash.c ****   *         FLASH_ERROR_WRP, FLASH_COMPLETE or FLASH_TIMEOUT.
 492:../libraries/STM32F10x_StdPeriph_Driver/src/stm32f10x_flash.c ****   */
 493:../libraries/STM32F10x_StdPeriph_Driver/src/stm32f10x_flash.c **** FLASH_Status FLASH_EraseAllPages(void)
 494:../libraries/STM32F10x_StdPeriph_Driver/src/stm32f10x_flash.c **** {
 495:../libraries/STM32F10x_StdPeriph_Driver/src/stm32f10x_flash.c ****   FLASH_Status status = FLASH_COMPLETE;
 496:../libraries/STM32F10x_StdPeriph_Driver/src/stm32f10x_flash.c **** 
 497:../libraries/STM32F10x_StdPeriph_Driver/src/stm32f10x_flash.c **** #ifdef STM32F10X_XL
 498:../libraries/STM32F10x_StdPeriph_Driver/src/stm32f10x_flash.c ****   /* Wait for last operation to be completed */
 499:../libraries/STM32F10x_StdPeriph_Driver/src/stm32f10x_flash.c ****   status = FLASH_WaitForLastBank1Operation(EraseTimeout);
 500:../libraries/STM32F10x_StdPeriph_Driver/src/stm32f10x_flash.c ****   
 501:../libraries/STM32F10x_StdPeriph_Driver/src/stm32f10x_flash.c ****   if(status == FLASH_COMPLETE)
 502:../libraries/STM32F10x_StdPeriph_Driver/src/stm32f10x_flash.c ****   {
 503:../libraries/STM32F10x_StdPeriph_Driver/src/stm32f10x_flash.c ****     /* if the previous operation is completed, proceed to erase all pages */
 504:../libraries/STM32F10x_StdPeriph_Driver/src/stm32f10x_flash.c ****      FLASH->CR |= CR_MER_Set;
 505:../libraries/STM32F10x_StdPeriph_Driver/src/stm32f10x_flash.c ****      FLASH->CR |= CR_STRT_Set;
 506:../libraries/STM32F10x_StdPeriph_Driver/src/stm32f10x_flash.c ****     
 507:../libraries/STM32F10x_StdPeriph_Driver/src/stm32f10x_flash.c ****     /* Wait for last operation to be completed */
 508:../libraries/STM32F10x_StdPeriph_Driver/src/stm32f10x_flash.c ****     status = FLASH_WaitForLastBank1Operation(EraseTimeout);
 509:../libraries/STM32F10x_StdPeriph_Driver/src/stm32f10x_flash.c ****     
 510:../libraries/STM32F10x_StdPeriph_Driver/src/stm32f10x_flash.c ****     /* Disable the MER Bit */
 511:../libraries/STM32F10x_StdPeriph_Driver/src/stm32f10x_flash.c ****     FLASH->CR &= CR_MER_Reset;
 512:../libraries/STM32F10x_StdPeriph_Driver/src/stm32f10x_flash.c ****   }    
 513:../libraries/STM32F10x_StdPeriph_Driver/src/stm32f10x_flash.c ****   if(status == FLASH_COMPLETE)
 514:../libraries/STM32F10x_StdPeriph_Driver/src/stm32f10x_flash.c ****   {
 515:../libraries/STM32F10x_StdPeriph_Driver/src/stm32f10x_flash.c ****     /* if the previous operation is completed, proceed to erase all pages */
 516:../libraries/STM32F10x_StdPeriph_Driver/src/stm32f10x_flash.c ****      FLASH->CR2 |= CR_MER_Set;
 517:../libraries/STM32F10x_StdPeriph_Driver/src/stm32f10x_flash.c ****      FLASH->CR2 |= CR_STRT_Set;
 518:../libraries/STM32F10x_StdPeriph_Driver/src/stm32f10x_flash.c ****     
 519:../libraries/STM32F10x_StdPeriph_Driver/src/stm32f10x_flash.c ****     /* Wait for last operation to be completed */
 520:../libraries/STM32F10x_StdPeriph_Driver/src/stm32f10x_flash.c ****     status = FLASH_WaitForLastBank2Operation(EraseTimeout);
 521:../libraries/STM32F10x_StdPeriph_Driver/src/stm32f10x_flash.c ****     
 522:../libraries/STM32F10x_StdPeriph_Driver/src/stm32f10x_flash.c ****     /* Disable the MER Bit */
 523:../libraries/STM32F10x_StdPeriph_Driver/src/stm32f10x_flash.c ****     FLASH->CR2 &= CR_MER_Reset;
 524:../libraries/STM32F10x_StdPeriph_Driver/src/stm32f10x_flash.c ****   }
 525:../libraries/STM32F10x_StdPeriph_Driver/src/stm32f10x_flash.c **** #else
 526:../libraries/STM32F10x_StdPeriph_Driver/src/stm32f10x_flash.c ****   /* Wait for last operation to be completed */
 527:../libraries/STM32F10x_StdPeriph_Driver/src/stm32f10x_flash.c ****   status = FLASH_WaitForLastOperation(EraseTimeout);
 528:../libraries/STM32F10x_StdPeriph_Driver/src/stm32f10x_flash.c ****   if(status == FLASH_COMPLETE)
 529:../libraries/STM32F10x_StdPeriph_Driver/src/stm32f10x_flash.c ****   {
 530:../libraries/STM32F10x_StdPeriph_Driver/src/stm32f10x_flash.c ****     /* if the previous operation is completed, proceed to erase all pages */
 531:../libraries/STM32F10x_StdPeriph_Driver/src/stm32f10x_flash.c ****      FLASH->CR |= CR_MER_Set;
 532:../libraries/STM32F10x_StdPeriph_Driver/src/stm32f10x_flash.c ****      FLASH->CR |= CR_STRT_Set;
 533:../libraries/STM32F10x_StdPeriph_Driver/src/stm32f10x_flash.c ****     
 534:../libraries/STM32F10x_StdPeriph_Driver/src/stm32f10x_flash.c ****     /* Wait for last operation to be completed */
 535:../libraries/STM32F10x_StdPeriph_Driver/src/stm32f10x_flash.c ****     status = FLASH_WaitForLastOperation(EraseTimeout);
 536:../libraries/STM32F10x_StdPeriph_Driver/src/stm32f10x_flash.c **** 
 537:../libraries/STM32F10x_StdPeriph_Driver/src/stm32f10x_flash.c ****     /* Disable the MER Bit */
 538:../libraries/STM32F10x_StdPeriph_Driver/src/stm32f10x_flash.c ****     FLASH->CR &= CR_MER_Reset;
 539:../libraries/STM32F10x_StdPeriph_Driver/src/stm32f10x_flash.c ****   }
 540:../libraries/STM32F10x_StdPeriph_Driver/src/stm32f10x_flash.c **** #endif /* STM32F10X_XL */
 541:../libraries/STM32F10x_StdPeriph_Driver/src/stm32f10x_flash.c **** 
 542:../libraries/STM32F10x_StdPeriph_Driver/src/stm32f10x_flash.c ****   /* Return the Erase Status */
 543:../libraries/STM32F10x_StdPeriph_Driver/src/stm32f10x_flash.c ****   return status;
 544:../libraries/STM32F10x_StdPeriph_Driver/src/stm32f10x_flash.c **** }
 545:../libraries/STM32F10x_StdPeriph_Driver/src/stm32f10x_flash.c **** 
 546:../libraries/STM32F10x_StdPeriph_Driver/src/stm32f10x_flash.c **** /**
 547:../libraries/STM32F10x_StdPeriph_Driver/src/stm32f10x_flash.c ****   * @brief  Erases all Bank1 FLASH pages.
 548:../libraries/STM32F10x_StdPeriph_Driver/src/stm32f10x_flash.c ****   * @note   This function can be used for all STM32F10x devices.
 549:../libraries/STM32F10x_StdPeriph_Driver/src/stm32f10x_flash.c ****   *         - For STM32F10X_XL devices this function erases all Bank1 pages.
 550:../libraries/STM32F10x_StdPeriph_Driver/src/stm32f10x_flash.c ****   *         - For all other devices it erases all Bank1 pages and it is equivalent 
 551:../libraries/STM32F10x_StdPeriph_Driver/src/stm32f10x_flash.c ****   *           to FLASH_EraseAllPages function.
 552:../libraries/STM32F10x_StdPeriph_Driver/src/stm32f10x_flash.c ****   * @param  None
 553:../libraries/STM32F10x_StdPeriph_Driver/src/stm32f10x_flash.c ****   * @retval FLASH Status: The returned value can be: FLASH_ERROR_PG,
 554:../libraries/STM32F10x_StdPeriph_Driver/src/stm32f10x_flash.c ****   *         FLASH_ERROR_WRP, FLASH_COMPLETE or FLASH_TIMEOUT.
 555:../libraries/STM32F10x_StdPeriph_Driver/src/stm32f10x_flash.c ****   */
 556:../libraries/STM32F10x_StdPeriph_Driver/src/stm32f10x_flash.c **** FLASH_Status FLASH_EraseAllBank1Pages(void)
 557:../libraries/STM32F10x_StdPeriph_Driver/src/stm32f10x_flash.c **** {
 558:../libraries/STM32F10x_StdPeriph_Driver/src/stm32f10x_flash.c ****   FLASH_Status status = FLASH_COMPLETE;
 559:../libraries/STM32F10x_StdPeriph_Driver/src/stm32f10x_flash.c ****   /* Wait for last operation to be completed */
 560:../libraries/STM32F10x_StdPeriph_Driver/src/stm32f10x_flash.c ****   status = FLASH_WaitForLastBank1Operation(EraseTimeout);
 561:../libraries/STM32F10x_StdPeriph_Driver/src/stm32f10x_flash.c ****   
 562:../libraries/STM32F10x_StdPeriph_Driver/src/stm32f10x_flash.c ****   if(status == FLASH_COMPLETE)
 563:../libraries/STM32F10x_StdPeriph_Driver/src/stm32f10x_flash.c ****   {
 564:../libraries/STM32F10x_StdPeriph_Driver/src/stm32f10x_flash.c ****     /* if the previous operation is completed, proceed to erase all pages */
 565:../libraries/STM32F10x_StdPeriph_Driver/src/stm32f10x_flash.c ****      FLASH->CR |= CR_MER_Set;
 566:../libraries/STM32F10x_StdPeriph_Driver/src/stm32f10x_flash.c ****      FLASH->CR |= CR_STRT_Set;
 567:../libraries/STM32F10x_StdPeriph_Driver/src/stm32f10x_flash.c ****     
 568:../libraries/STM32F10x_StdPeriph_Driver/src/stm32f10x_flash.c ****     /* Wait for last operation to be completed */
 569:../libraries/STM32F10x_StdPeriph_Driver/src/stm32f10x_flash.c ****     status = FLASH_WaitForLastBank1Operation(EraseTimeout);
 570:../libraries/STM32F10x_StdPeriph_Driver/src/stm32f10x_flash.c ****     
 571:../libraries/STM32F10x_StdPeriph_Driver/src/stm32f10x_flash.c ****     /* Disable the MER Bit */
 572:../libraries/STM32F10x_StdPeriph_Driver/src/stm32f10x_flash.c ****     FLASH->CR &= CR_MER_Reset;
 573:../libraries/STM32F10x_StdPeriph_Driver/src/stm32f10x_flash.c ****   }    
 574:../libraries/STM32F10x_StdPeriph_Driver/src/stm32f10x_flash.c ****   /* Return the Erase Status */
 575:../libraries/STM32F10x_StdPeriph_Driver/src/stm32f10x_flash.c ****   return status;
 576:../libraries/STM32F10x_StdPeriph_Driver/src/stm32f10x_flash.c **** }
 577:../libraries/STM32F10x_StdPeriph_Driver/src/stm32f10x_flash.c **** 
 578:../libraries/STM32F10x_StdPeriph_Driver/src/stm32f10x_flash.c **** #ifdef STM32F10X_XL
 579:../libraries/STM32F10x_StdPeriph_Driver/src/stm32f10x_flash.c **** /**
 580:../libraries/STM32F10x_StdPeriph_Driver/src/stm32f10x_flash.c ****   * @brief  Erases all Bank2 FLASH pages.
 581:../libraries/STM32F10x_StdPeriph_Driver/src/stm32f10x_flash.c ****   * @note   This function can be used only for STM32F10x_XL density devices.
 582:../libraries/STM32F10x_StdPeriph_Driver/src/stm32f10x_flash.c ****   * @param  None
 583:../libraries/STM32F10x_StdPeriph_Driver/src/stm32f10x_flash.c ****   * @retval FLASH Status: The returned value can be: FLASH_ERROR_PG,
 584:../libraries/STM32F10x_StdPeriph_Driver/src/stm32f10x_flash.c ****   *         FLASH_ERROR_WRP, FLASH_COMPLETE or FLASH_TIMEOUT.
 585:../libraries/STM32F10x_StdPeriph_Driver/src/stm32f10x_flash.c ****   */
 586:../libraries/STM32F10x_StdPeriph_Driver/src/stm32f10x_flash.c **** FLASH_Status FLASH_EraseAllBank2Pages(void)
 587:../libraries/STM32F10x_StdPeriph_Driver/src/stm32f10x_flash.c **** {
 588:../libraries/STM32F10x_StdPeriph_Driver/src/stm32f10x_flash.c ****   FLASH_Status status = FLASH_COMPLETE;
 589:../libraries/STM32F10x_StdPeriph_Driver/src/stm32f10x_flash.c ****   /* Wait for last operation to be completed */
 590:../libraries/STM32F10x_StdPeriph_Driver/src/stm32f10x_flash.c ****   status = FLASH_WaitForLastBank2Operation(EraseTimeout);
 591:../libraries/STM32F10x_StdPeriph_Driver/src/stm32f10x_flash.c ****   
 592:../libraries/STM32F10x_StdPeriph_Driver/src/stm32f10x_flash.c ****   if(status == FLASH_COMPLETE)
 593:../libraries/STM32F10x_StdPeriph_Driver/src/stm32f10x_flash.c ****   {
 594:../libraries/STM32F10x_StdPeriph_Driver/src/stm32f10x_flash.c ****     /* if the previous operation is completed, proceed to erase all pages */
 595:../libraries/STM32F10x_StdPeriph_Driver/src/stm32f10x_flash.c ****      FLASH->CR2 |= CR_MER_Set;
 596:../libraries/STM32F10x_StdPeriph_Driver/src/stm32f10x_flash.c ****      FLASH->CR2 |= CR_STRT_Set;
 597:../libraries/STM32F10x_StdPeriph_Driver/src/stm32f10x_flash.c ****     
 598:../libraries/STM32F10x_StdPeriph_Driver/src/stm32f10x_flash.c ****     /* Wait for last operation to be completed */
 599:../libraries/STM32F10x_StdPeriph_Driver/src/stm32f10x_flash.c ****     status = FLASH_WaitForLastBank2Operation(EraseTimeout);
 600:../libraries/STM32F10x_StdPeriph_Driver/src/stm32f10x_flash.c **** 
 601:../libraries/STM32F10x_StdPeriph_Driver/src/stm32f10x_flash.c ****     /* Disable the MER Bit */
 602:../libraries/STM32F10x_StdPeriph_Driver/src/stm32f10x_flash.c ****     FLASH->CR2 &= CR_MER_Reset;
 603:../libraries/STM32F10x_StdPeriph_Driver/src/stm32f10x_flash.c ****   }    
 604:../libraries/STM32F10x_StdPeriph_Driver/src/stm32f10x_flash.c ****   /* Return the Erase Status */
 605:../libraries/STM32F10x_StdPeriph_Driver/src/stm32f10x_flash.c ****   return status;
 606:../libraries/STM32F10x_StdPeriph_Driver/src/stm32f10x_flash.c **** }
 607:../libraries/STM32F10x_StdPeriph_Driver/src/stm32f10x_flash.c **** #endif /* STM32F10X_XL */
 608:../libraries/STM32F10x_StdPeriph_Driver/src/stm32f10x_flash.c **** 
 609:../libraries/STM32F10x_StdPeriph_Driver/src/stm32f10x_flash.c **** /**
 610:../libraries/STM32F10x_StdPeriph_Driver/src/stm32f10x_flash.c ****   * @brief  Erases the FLASH option bytes.
 611:../libraries/STM32F10x_StdPeriph_Driver/src/stm32f10x_flash.c ****   * @note   This functions erases all option bytes except the Read protection (RDP). 
 612:../libraries/STM32F10x_StdPeriph_Driver/src/stm32f10x_flash.c ****   * @note   This function can be used for all STM32F10x devices.
 613:../libraries/STM32F10x_StdPeriph_Driver/src/stm32f10x_flash.c ****   * @param  None
 614:../libraries/STM32F10x_StdPeriph_Driver/src/stm32f10x_flash.c ****   * @retval FLASH Status: The returned value can be: FLASH_ERROR_PG,
 615:../libraries/STM32F10x_StdPeriph_Driver/src/stm32f10x_flash.c ****   *         FLASH_ERROR_WRP, FLASH_COMPLETE or FLASH_TIMEOUT.
 616:../libraries/STM32F10x_StdPeriph_Driver/src/stm32f10x_flash.c ****   */
 617:../libraries/STM32F10x_StdPeriph_Driver/src/stm32f10x_flash.c **** FLASH_Status FLASH_EraseOptionBytes(void)
 618:../libraries/STM32F10x_StdPeriph_Driver/src/stm32f10x_flash.c **** {
 619:../libraries/STM32F10x_StdPeriph_Driver/src/stm32f10x_flash.c ****   uint16_t rdptmp = RDP_Key;
 620:../libraries/STM32F10x_StdPeriph_Driver/src/stm32f10x_flash.c **** 
 621:../libraries/STM32F10x_StdPeriph_Driver/src/stm32f10x_flash.c ****   FLASH_Status status = FLASH_COMPLETE;
 622:../libraries/STM32F10x_StdPeriph_Driver/src/stm32f10x_flash.c **** 
 623:../libraries/STM32F10x_StdPeriph_Driver/src/stm32f10x_flash.c ****   /* Get the actual read protection Option Byte value */ 
 624:../libraries/STM32F10x_StdPeriph_Driver/src/stm32f10x_flash.c ****   if(FLASH_GetReadOutProtectionStatus() != RESET)
 625:../libraries/STM32F10x_StdPeriph_Driver/src/stm32f10x_flash.c ****   {
 626:../libraries/STM32F10x_StdPeriph_Driver/src/stm32f10x_flash.c ****     rdptmp = 0x00;  
 627:../libraries/STM32F10x_StdPeriph_Driver/src/stm32f10x_flash.c ****   }
 628:../libraries/STM32F10x_StdPeriph_Driver/src/stm32f10x_flash.c **** 
 629:../libraries/STM32F10x_StdPeriph_Driver/src/stm32f10x_flash.c ****   /* Wait for last operation to be completed */
 630:../libraries/STM32F10x_StdPeriph_Driver/src/stm32f10x_flash.c ****   status = FLASH_WaitForLastOperation(EraseTimeout);
 631:../libraries/STM32F10x_StdPeriph_Driver/src/stm32f10x_flash.c ****   if(status == FLASH_COMPLETE)
 632:../libraries/STM32F10x_StdPeriph_Driver/src/stm32f10x_flash.c ****   {
 633:../libraries/STM32F10x_StdPeriph_Driver/src/stm32f10x_flash.c ****     /* Authorize the small information block programming */
 634:../libraries/STM32F10x_StdPeriph_Driver/src/stm32f10x_flash.c ****     FLASH->OPTKEYR = FLASH_KEY1;
 635:../libraries/STM32F10x_StdPeriph_Driver/src/stm32f10x_flash.c ****     FLASH->OPTKEYR = FLASH_KEY2;
 636:../libraries/STM32F10x_StdPeriph_Driver/src/stm32f10x_flash.c ****     
 637:../libraries/STM32F10x_StdPeriph_Driver/src/stm32f10x_flash.c ****     /* if the previous operation is completed, proceed to erase the option bytes */
 638:../libraries/STM32F10x_StdPeriph_Driver/src/stm32f10x_flash.c ****     FLASH->CR |= CR_OPTER_Set;
 639:../libraries/STM32F10x_StdPeriph_Driver/src/stm32f10x_flash.c ****     FLASH->CR |= CR_STRT_Set;
 640:../libraries/STM32F10x_StdPeriph_Driver/src/stm32f10x_flash.c ****     /* Wait for last operation to be completed */
 641:../libraries/STM32F10x_StdPeriph_Driver/src/stm32f10x_flash.c ****     status = FLASH_WaitForLastOperation(EraseTimeout);
 642:../libraries/STM32F10x_StdPeriph_Driver/src/stm32f10x_flash.c ****     
 643:../libraries/STM32F10x_StdPeriph_Driver/src/stm32f10x_flash.c ****     if(status == FLASH_COMPLETE)
 644:../libraries/STM32F10x_StdPeriph_Driver/src/stm32f10x_flash.c ****     {
 645:../libraries/STM32F10x_StdPeriph_Driver/src/stm32f10x_flash.c ****       /* if the erase operation is completed, disable the OPTER Bit */
 646:../libraries/STM32F10x_StdPeriph_Driver/src/stm32f10x_flash.c ****       FLASH->CR &= CR_OPTER_Reset;
 647:../libraries/STM32F10x_StdPeriph_Driver/src/stm32f10x_flash.c ****        
 648:../libraries/STM32F10x_StdPeriph_Driver/src/stm32f10x_flash.c ****       /* Enable the Option Bytes Programming operation */
 649:../libraries/STM32F10x_StdPeriph_Driver/src/stm32f10x_flash.c ****       FLASH->CR |= CR_OPTPG_Set;
 650:../libraries/STM32F10x_StdPeriph_Driver/src/stm32f10x_flash.c ****       /* Restore the last read protection Option Byte value */
 651:../libraries/STM32F10x_StdPeriph_Driver/src/stm32f10x_flash.c ****       OB->RDP = (uint16_t)rdptmp; 
 652:../libraries/STM32F10x_StdPeriph_Driver/src/stm32f10x_flash.c ****       /* Wait for last operation to be completed */
 653:../libraries/STM32F10x_StdPeriph_Driver/src/stm32f10x_flash.c ****       status = FLASH_WaitForLastOperation(ProgramTimeout);
 654:../libraries/STM32F10x_StdPeriph_Driver/src/stm32f10x_flash.c ****  
 655:../libraries/STM32F10x_StdPeriph_Driver/src/stm32f10x_flash.c ****       if(status != FLASH_TIMEOUT)
 656:../libraries/STM32F10x_StdPeriph_Driver/src/stm32f10x_flash.c ****       {
 657:../libraries/STM32F10x_StdPeriph_Driver/src/stm32f10x_flash.c ****         /* if the program operation is completed, disable the OPTPG Bit */
 658:../libraries/STM32F10x_StdPeriph_Driver/src/stm32f10x_flash.c ****         FLASH->CR &= CR_OPTPG_Reset;
 659:../libraries/STM32F10x_StdPeriph_Driver/src/stm32f10x_flash.c ****       }
 660:../libraries/STM32F10x_StdPeriph_Driver/src/stm32f10x_flash.c ****     }
 661:../libraries/STM32F10x_StdPeriph_Driver/src/stm32f10x_flash.c ****     else
 662:../libraries/STM32F10x_StdPeriph_Driver/src/stm32f10x_flash.c ****     {
 663:../libraries/STM32F10x_StdPeriph_Driver/src/stm32f10x_flash.c ****       if (status != FLASH_TIMEOUT)
 664:../libraries/STM32F10x_StdPeriph_Driver/src/stm32f10x_flash.c ****       {
 665:../libraries/STM32F10x_StdPeriph_Driver/src/stm32f10x_flash.c ****         /* Disable the OPTPG Bit */
 666:../libraries/STM32F10x_StdPeriph_Driver/src/stm32f10x_flash.c ****         FLASH->CR &= CR_OPTPG_Reset;
 667:../libraries/STM32F10x_StdPeriph_Driver/src/stm32f10x_flash.c ****       }
 668:../libraries/STM32F10x_StdPeriph_Driver/src/stm32f10x_flash.c ****     }  
 669:../libraries/STM32F10x_StdPeriph_Driver/src/stm32f10x_flash.c ****   }
 670:../libraries/STM32F10x_StdPeriph_Driver/src/stm32f10x_flash.c ****   /* Return the erase status */
 671:../libraries/STM32F10x_StdPeriph_Driver/src/stm32f10x_flash.c ****   return status;
 672:../libraries/STM32F10x_StdPeriph_Driver/src/stm32f10x_flash.c **** }
 673:../libraries/STM32F10x_StdPeriph_Driver/src/stm32f10x_flash.c **** 
 674:../libraries/STM32F10x_StdPeriph_Driver/src/stm32f10x_flash.c **** /**
 675:../libraries/STM32F10x_StdPeriph_Driver/src/stm32f10x_flash.c ****   * @brief  Programs a word at a specified address.
 676:../libraries/STM32F10x_StdPeriph_Driver/src/stm32f10x_flash.c ****   * @note   This function can be used for all STM32F10x devices.
 677:../libraries/STM32F10x_StdPeriph_Driver/src/stm32f10x_flash.c ****   * @param  Address: specifies the address to be programmed.
 678:../libraries/STM32F10x_StdPeriph_Driver/src/stm32f10x_flash.c ****   * @param  Data: specifies the data to be programmed.
 679:../libraries/STM32F10x_StdPeriph_Driver/src/stm32f10x_flash.c ****   * @retval FLASH Status: The returned value can be: FLASH_ERROR_PG,
 680:../libraries/STM32F10x_StdPeriph_Driver/src/stm32f10x_flash.c ****   *         FLASH_ERROR_WRP, FLASH_COMPLETE or FLASH_TIMEOUT. 
 681:../libraries/STM32F10x_StdPeriph_Driver/src/stm32f10x_flash.c ****   */
 682:../libraries/STM32F10x_StdPeriph_Driver/src/stm32f10x_flash.c **** FLASH_Status FLASH_ProgramWord(uint32_t Address, uint32_t Data)
 683:../libraries/STM32F10x_StdPeriph_Driver/src/stm32f10x_flash.c **** {
 684:../libraries/STM32F10x_StdPeriph_Driver/src/stm32f10x_flash.c ****   FLASH_Status status = FLASH_COMPLETE;
 685:../libraries/STM32F10x_StdPeriph_Driver/src/stm32f10x_flash.c ****   __IO uint32_t tmp = 0;
 686:../libraries/STM32F10x_StdPeriph_Driver/src/stm32f10x_flash.c **** 
 687:../libraries/STM32F10x_StdPeriph_Driver/src/stm32f10x_flash.c ****   /* Check the parameters */
 688:../libraries/STM32F10x_StdPeriph_Driver/src/stm32f10x_flash.c ****   assert_param(IS_FLASH_ADDRESS(Address));
 689:../libraries/STM32F10x_StdPeriph_Driver/src/stm32f10x_flash.c **** 
 690:../libraries/STM32F10x_StdPeriph_Driver/src/stm32f10x_flash.c **** #ifdef STM32F10X_XL
 691:../libraries/STM32F10x_StdPeriph_Driver/src/stm32f10x_flash.c ****   if(Address < FLASH_BANK1_END_ADDRESS - 2)
 692:../libraries/STM32F10x_StdPeriph_Driver/src/stm32f10x_flash.c ****   { 
 693:../libraries/STM32F10x_StdPeriph_Driver/src/stm32f10x_flash.c ****     /* Wait for last operation to be completed */
 694:../libraries/STM32F10x_StdPeriph_Driver/src/stm32f10x_flash.c ****     status = FLASH_WaitForLastBank1Operation(ProgramTimeout); 
 695:../libraries/STM32F10x_StdPeriph_Driver/src/stm32f10x_flash.c ****     if(status == FLASH_COMPLETE)
 696:../libraries/STM32F10x_StdPeriph_Driver/src/stm32f10x_flash.c ****     {
 697:../libraries/STM32F10x_StdPeriph_Driver/src/stm32f10x_flash.c ****       /* if the previous operation is completed, proceed to program the new first 
 698:../libraries/STM32F10x_StdPeriph_Driver/src/stm32f10x_flash.c ****         half word */
 699:../libraries/STM32F10x_StdPeriph_Driver/src/stm32f10x_flash.c ****       FLASH->CR |= CR_PG_Set;
 700:../libraries/STM32F10x_StdPeriph_Driver/src/stm32f10x_flash.c ****   
 701:../libraries/STM32F10x_StdPeriph_Driver/src/stm32f10x_flash.c ****       *(__IO uint16_t*)Address = (uint16_t)Data;
 702:../libraries/STM32F10x_StdPeriph_Driver/src/stm32f10x_flash.c ****       /* Wait for last operation to be completed */
 703:../libraries/STM32F10x_StdPeriph_Driver/src/stm32f10x_flash.c ****       status = FLASH_WaitForLastOperation(ProgramTimeout);
 704:../libraries/STM32F10x_StdPeriph_Driver/src/stm32f10x_flash.c ****  
 705:../libraries/STM32F10x_StdPeriph_Driver/src/stm32f10x_flash.c ****       if(status == FLASH_COMPLETE)
 706:../libraries/STM32F10x_StdPeriph_Driver/src/stm32f10x_flash.c ****       {
 707:../libraries/STM32F10x_StdPeriph_Driver/src/stm32f10x_flash.c ****         /* if the previous operation is completed, proceed to program the new second 
 708:../libraries/STM32F10x_StdPeriph_Driver/src/stm32f10x_flash.c ****         half word */
 709:../libraries/STM32F10x_StdPeriph_Driver/src/stm32f10x_flash.c ****         tmp = Address + 2;
 710:../libraries/STM32F10x_StdPeriph_Driver/src/stm32f10x_flash.c **** 
 711:../libraries/STM32F10x_StdPeriph_Driver/src/stm32f10x_flash.c ****         *(__IO uint16_t*) tmp = Data >> 16;
 712:../libraries/STM32F10x_StdPeriph_Driver/src/stm32f10x_flash.c ****     
 713:../libraries/STM32F10x_StdPeriph_Driver/src/stm32f10x_flash.c ****         /* Wait for last operation to be completed */
 714:../libraries/STM32F10x_StdPeriph_Driver/src/stm32f10x_flash.c ****         status = FLASH_WaitForLastOperation(ProgramTimeout);
 715:../libraries/STM32F10x_StdPeriph_Driver/src/stm32f10x_flash.c ****         
 716:../libraries/STM32F10x_StdPeriph_Driver/src/stm32f10x_flash.c ****         /* Disable the PG Bit */
 717:../libraries/STM32F10x_StdPeriph_Driver/src/stm32f10x_flash.c ****         FLASH->CR &= CR_PG_Reset;
 718:../libraries/STM32F10x_StdPeriph_Driver/src/stm32f10x_flash.c ****       }
 719:../libraries/STM32F10x_StdPeriph_Driver/src/stm32f10x_flash.c ****       else
 720:../libraries/STM32F10x_StdPeriph_Driver/src/stm32f10x_flash.c ****       {
 721:../libraries/STM32F10x_StdPeriph_Driver/src/stm32f10x_flash.c ****         /* Disable the PG Bit */
 722:../libraries/STM32F10x_StdPeriph_Driver/src/stm32f10x_flash.c ****         FLASH->CR &= CR_PG_Reset;
 723:../libraries/STM32F10x_StdPeriph_Driver/src/stm32f10x_flash.c ****        }
 724:../libraries/STM32F10x_StdPeriph_Driver/src/stm32f10x_flash.c ****     }
 725:../libraries/STM32F10x_StdPeriph_Driver/src/stm32f10x_flash.c ****   }
 726:../libraries/STM32F10x_StdPeriph_Driver/src/stm32f10x_flash.c ****   else if(Address == (FLASH_BANK1_END_ADDRESS - 1))
 727:../libraries/STM32F10x_StdPeriph_Driver/src/stm32f10x_flash.c ****   {
 728:../libraries/STM32F10x_StdPeriph_Driver/src/stm32f10x_flash.c ****     /* Wait for last operation to be completed */
 729:../libraries/STM32F10x_StdPeriph_Driver/src/stm32f10x_flash.c ****     status = FLASH_WaitForLastBank1Operation(ProgramTimeout);
 730:../libraries/STM32F10x_StdPeriph_Driver/src/stm32f10x_flash.c **** 
 731:../libraries/STM32F10x_StdPeriph_Driver/src/stm32f10x_flash.c ****     if(status == FLASH_COMPLETE)
 732:../libraries/STM32F10x_StdPeriph_Driver/src/stm32f10x_flash.c ****     {
 733:../libraries/STM32F10x_StdPeriph_Driver/src/stm32f10x_flash.c ****       /* if the previous operation is completed, proceed to program the new first 
 734:../libraries/STM32F10x_StdPeriph_Driver/src/stm32f10x_flash.c ****         half word */
 735:../libraries/STM32F10x_StdPeriph_Driver/src/stm32f10x_flash.c ****       FLASH->CR |= CR_PG_Set;
 736:../libraries/STM32F10x_StdPeriph_Driver/src/stm32f10x_flash.c ****   
 737:../libraries/STM32F10x_StdPeriph_Driver/src/stm32f10x_flash.c ****       *(__IO uint16_t*)Address = (uint16_t)Data;
 738:../libraries/STM32F10x_StdPeriph_Driver/src/stm32f10x_flash.c **** 
 739:../libraries/STM32F10x_StdPeriph_Driver/src/stm32f10x_flash.c ****       /* Wait for last operation to be completed */
 740:../libraries/STM32F10x_StdPeriph_Driver/src/stm32f10x_flash.c ****       status = FLASH_WaitForLastBank1Operation(ProgramTimeout);
 741:../libraries/STM32F10x_StdPeriph_Driver/src/stm32f10x_flash.c ****       
 742:../libraries/STM32F10x_StdPeriph_Driver/src/stm32f10x_flash.c **** 	  /* Disable the PG Bit */
 743:../libraries/STM32F10x_StdPeriph_Driver/src/stm32f10x_flash.c ****       FLASH->CR &= CR_PG_Reset;
 744:../libraries/STM32F10x_StdPeriph_Driver/src/stm32f10x_flash.c ****     }
 745:../libraries/STM32F10x_StdPeriph_Driver/src/stm32f10x_flash.c ****     else
 746:../libraries/STM32F10x_StdPeriph_Driver/src/stm32f10x_flash.c ****     {
 747:../libraries/STM32F10x_StdPeriph_Driver/src/stm32f10x_flash.c ****       /* Disable the PG Bit */
 748:../libraries/STM32F10x_StdPeriph_Driver/src/stm32f10x_flash.c ****       FLASH->CR &= CR_PG_Reset;
 749:../libraries/STM32F10x_StdPeriph_Driver/src/stm32f10x_flash.c ****     }
 750:../libraries/STM32F10x_StdPeriph_Driver/src/stm32f10x_flash.c **** 
 751:../libraries/STM32F10x_StdPeriph_Driver/src/stm32f10x_flash.c ****     /* Wait for last operation to be completed */
 752:../libraries/STM32F10x_StdPeriph_Driver/src/stm32f10x_flash.c ****     status = FLASH_WaitForLastBank2Operation(ProgramTimeout);
 753:../libraries/STM32F10x_StdPeriph_Driver/src/stm32f10x_flash.c **** 
 754:../libraries/STM32F10x_StdPeriph_Driver/src/stm32f10x_flash.c ****     if(status == FLASH_COMPLETE)
 755:../libraries/STM32F10x_StdPeriph_Driver/src/stm32f10x_flash.c ****     {
 756:../libraries/STM32F10x_StdPeriph_Driver/src/stm32f10x_flash.c ****       /* if the previous operation is completed, proceed to program the new second 
 757:../libraries/STM32F10x_StdPeriph_Driver/src/stm32f10x_flash.c ****       half word */
 758:../libraries/STM32F10x_StdPeriph_Driver/src/stm32f10x_flash.c ****       FLASH->CR2 |= CR_PG_Set;
 759:../libraries/STM32F10x_StdPeriph_Driver/src/stm32f10x_flash.c ****       tmp = Address + 2;
 760:../libraries/STM32F10x_StdPeriph_Driver/src/stm32f10x_flash.c **** 
 761:../libraries/STM32F10x_StdPeriph_Driver/src/stm32f10x_flash.c ****       *(__IO uint16_t*) tmp = Data >> 16;
 762:../libraries/STM32F10x_StdPeriph_Driver/src/stm32f10x_flash.c ****     
 763:../libraries/STM32F10x_StdPeriph_Driver/src/stm32f10x_flash.c ****       /* Wait for last operation to be completed */
 764:../libraries/STM32F10x_StdPeriph_Driver/src/stm32f10x_flash.c ****       status = FLASH_WaitForLastBank2Operation(ProgramTimeout);
 765:../libraries/STM32F10x_StdPeriph_Driver/src/stm32f10x_flash.c ****         
 766:../libraries/STM32F10x_StdPeriph_Driver/src/stm32f10x_flash.c ****       /* Disable the PG Bit */
 767:../libraries/STM32F10x_StdPeriph_Driver/src/stm32f10x_flash.c ****       FLASH->CR2 &= CR_PG_Reset;
 768:../libraries/STM32F10x_StdPeriph_Driver/src/stm32f10x_flash.c ****     }
 769:../libraries/STM32F10x_StdPeriph_Driver/src/stm32f10x_flash.c ****     else
 770:../libraries/STM32F10x_StdPeriph_Driver/src/stm32f10x_flash.c ****     {
 771:../libraries/STM32F10x_StdPeriph_Driver/src/stm32f10x_flash.c ****       /* Disable the PG Bit */
 772:../libraries/STM32F10x_StdPeriph_Driver/src/stm32f10x_flash.c ****       FLASH->CR2 &= CR_PG_Reset;
 773:../libraries/STM32F10x_StdPeriph_Driver/src/stm32f10x_flash.c ****     }
 774:../libraries/STM32F10x_StdPeriph_Driver/src/stm32f10x_flash.c ****   }
 775:../libraries/STM32F10x_StdPeriph_Driver/src/stm32f10x_flash.c ****   else
 776:../libraries/STM32F10x_StdPeriph_Driver/src/stm32f10x_flash.c ****   {
 777:../libraries/STM32F10x_StdPeriph_Driver/src/stm32f10x_flash.c ****     /* Wait for last operation to be completed */
 778:../libraries/STM32F10x_StdPeriph_Driver/src/stm32f10x_flash.c ****     status = FLASH_WaitForLastBank2Operation(ProgramTimeout);
 779:../libraries/STM32F10x_StdPeriph_Driver/src/stm32f10x_flash.c **** 
 780:../libraries/STM32F10x_StdPeriph_Driver/src/stm32f10x_flash.c ****     if(status == FLASH_COMPLETE)
 781:../libraries/STM32F10x_StdPeriph_Driver/src/stm32f10x_flash.c ****     {
 782:../libraries/STM32F10x_StdPeriph_Driver/src/stm32f10x_flash.c ****       /* if the previous operation is completed, proceed to program the new first 
 783:../libraries/STM32F10x_StdPeriph_Driver/src/stm32f10x_flash.c ****         half word */
 784:../libraries/STM32F10x_StdPeriph_Driver/src/stm32f10x_flash.c ****       FLASH->CR2 |= CR_PG_Set;
 785:../libraries/STM32F10x_StdPeriph_Driver/src/stm32f10x_flash.c ****   
 786:../libraries/STM32F10x_StdPeriph_Driver/src/stm32f10x_flash.c ****       *(__IO uint16_t*)Address = (uint16_t)Data;
 787:../libraries/STM32F10x_StdPeriph_Driver/src/stm32f10x_flash.c ****       /* Wait for last operation to be completed */
 788:../libraries/STM32F10x_StdPeriph_Driver/src/stm32f10x_flash.c ****       status = FLASH_WaitForLastBank2Operation(ProgramTimeout);
 789:../libraries/STM32F10x_StdPeriph_Driver/src/stm32f10x_flash.c ****  
 790:../libraries/STM32F10x_StdPeriph_Driver/src/stm32f10x_flash.c ****       if(status == FLASH_COMPLETE)
 791:../libraries/STM32F10x_StdPeriph_Driver/src/stm32f10x_flash.c ****       {
 792:../libraries/STM32F10x_StdPeriph_Driver/src/stm32f10x_flash.c ****         /* if the previous operation is completed, proceed to program the new second 
 793:../libraries/STM32F10x_StdPeriph_Driver/src/stm32f10x_flash.c ****         half word */
 794:../libraries/STM32F10x_StdPeriph_Driver/src/stm32f10x_flash.c ****         tmp = Address + 2;
 795:../libraries/STM32F10x_StdPeriph_Driver/src/stm32f10x_flash.c **** 
 796:../libraries/STM32F10x_StdPeriph_Driver/src/stm32f10x_flash.c ****         *(__IO uint16_t*) tmp = Data >> 16;
 797:../libraries/STM32F10x_StdPeriph_Driver/src/stm32f10x_flash.c ****     
 798:../libraries/STM32F10x_StdPeriph_Driver/src/stm32f10x_flash.c ****         /* Wait for last operation to be completed */
 799:../libraries/STM32F10x_StdPeriph_Driver/src/stm32f10x_flash.c ****         status = FLASH_WaitForLastBank2Operation(ProgramTimeout);
 800:../libraries/STM32F10x_StdPeriph_Driver/src/stm32f10x_flash.c ****         
 801:../libraries/STM32F10x_StdPeriph_Driver/src/stm32f10x_flash.c ****         /* Disable the PG Bit */
 802:../libraries/STM32F10x_StdPeriph_Driver/src/stm32f10x_flash.c ****         FLASH->CR2 &= CR_PG_Reset;
 803:../libraries/STM32F10x_StdPeriph_Driver/src/stm32f10x_flash.c ****       }
 804:../libraries/STM32F10x_StdPeriph_Driver/src/stm32f10x_flash.c ****       else
 805:../libraries/STM32F10x_StdPeriph_Driver/src/stm32f10x_flash.c ****       {
 806:../libraries/STM32F10x_StdPeriph_Driver/src/stm32f10x_flash.c ****         /* Disable the PG Bit */
 807:../libraries/STM32F10x_StdPeriph_Driver/src/stm32f10x_flash.c ****         FLASH->CR2 &= CR_PG_Reset;
 808:../libraries/STM32F10x_StdPeriph_Driver/src/stm32f10x_flash.c ****       }
 809:../libraries/STM32F10x_StdPeriph_Driver/src/stm32f10x_flash.c ****     }
 810:../libraries/STM32F10x_StdPeriph_Driver/src/stm32f10x_flash.c ****   }
 811:../libraries/STM32F10x_StdPeriph_Driver/src/stm32f10x_flash.c **** #else
 812:../libraries/STM32F10x_StdPeriph_Driver/src/stm32f10x_flash.c ****   /* Wait for last operation to be completed */
 813:../libraries/STM32F10x_StdPeriph_Driver/src/stm32f10x_flash.c ****   status = FLASH_WaitForLastOperation(ProgramTimeout);
 814:../libraries/STM32F10x_StdPeriph_Driver/src/stm32f10x_flash.c ****   
 815:../libraries/STM32F10x_StdPeriph_Driver/src/stm32f10x_flash.c ****   if(status == FLASH_COMPLETE)
 816:../libraries/STM32F10x_StdPeriph_Driver/src/stm32f10x_flash.c ****   {
 817:../libraries/STM32F10x_StdPeriph_Driver/src/stm32f10x_flash.c ****     /* if the previous operation is completed, proceed to program the new first 
 818:../libraries/STM32F10x_StdPeriph_Driver/src/stm32f10x_flash.c ****     half word */
 819:../libraries/STM32F10x_StdPeriph_Driver/src/stm32f10x_flash.c ****     FLASH->CR |= CR_PG_Set;
 820:../libraries/STM32F10x_StdPeriph_Driver/src/stm32f10x_flash.c ****   
 821:../libraries/STM32F10x_StdPeriph_Driver/src/stm32f10x_flash.c ****     *(__IO uint16_t*)Address = (uint16_t)Data;
 822:../libraries/STM32F10x_StdPeriph_Driver/src/stm32f10x_flash.c ****     /* Wait for last operation to be completed */
 823:../libraries/STM32F10x_StdPeriph_Driver/src/stm32f10x_flash.c ****     status = FLASH_WaitForLastOperation(ProgramTimeout);
 824:../libraries/STM32F10x_StdPeriph_Driver/src/stm32f10x_flash.c ****  
 825:../libraries/STM32F10x_StdPeriph_Driver/src/stm32f10x_flash.c ****     if(status == FLASH_COMPLETE)
 826:../libraries/STM32F10x_StdPeriph_Driver/src/stm32f10x_flash.c ****     {
 827:../libraries/STM32F10x_StdPeriph_Driver/src/stm32f10x_flash.c ****       /* if the previous operation is completed, proceed to program the new second 
 828:../libraries/STM32F10x_StdPeriph_Driver/src/stm32f10x_flash.c ****       half word */
 829:../libraries/STM32F10x_StdPeriph_Driver/src/stm32f10x_flash.c ****       tmp = Address + 2;
 830:../libraries/STM32F10x_StdPeriph_Driver/src/stm32f10x_flash.c **** 
 831:../libraries/STM32F10x_StdPeriph_Driver/src/stm32f10x_flash.c ****       *(__IO uint16_t*) tmp = Data >> 16;
 832:../libraries/STM32F10x_StdPeriph_Driver/src/stm32f10x_flash.c ****     
 833:../libraries/STM32F10x_StdPeriph_Driver/src/stm32f10x_flash.c ****       /* Wait for last operation to be completed */
 834:../libraries/STM32F10x_StdPeriph_Driver/src/stm32f10x_flash.c ****       status = FLASH_WaitForLastOperation(ProgramTimeout);
 835:../libraries/STM32F10x_StdPeriph_Driver/src/stm32f10x_flash.c ****         
 836:../libraries/STM32F10x_StdPeriph_Driver/src/stm32f10x_flash.c ****       /* Disable the PG Bit */
 837:../libraries/STM32F10x_StdPeriph_Driver/src/stm32f10x_flash.c ****       FLASH->CR &= CR_PG_Reset;
 838:../libraries/STM32F10x_StdPeriph_Driver/src/stm32f10x_flash.c ****     }
 839:../libraries/STM32F10x_StdPeriph_Driver/src/stm32f10x_flash.c ****     else
 840:../libraries/STM32F10x_StdPeriph_Driver/src/stm32f10x_flash.c ****     {
 841:../libraries/STM32F10x_StdPeriph_Driver/src/stm32f10x_flash.c ****       /* Disable the PG Bit */
 842:../libraries/STM32F10x_StdPeriph_Driver/src/stm32f10x_flash.c ****       FLASH->CR &= CR_PG_Reset;
 843:../libraries/STM32F10x_StdPeriph_Driver/src/stm32f10x_flash.c ****     }
 844:../libraries/STM32F10x_StdPeriph_Driver/src/stm32f10x_flash.c ****   }         
 845:../libraries/STM32F10x_StdPeriph_Driver/src/stm32f10x_flash.c **** #endif /* STM32F10X_XL */
 846:../libraries/STM32F10x_StdPeriph_Driver/src/stm32f10x_flash.c ****    
 847:../libraries/STM32F10x_StdPeriph_Driver/src/stm32f10x_flash.c ****   /* Return the Program Status */
 848:../libraries/STM32F10x_StdPeriph_Driver/src/stm32f10x_flash.c ****   return status;
 849:../libraries/STM32F10x_StdPeriph_Driver/src/stm32f10x_flash.c **** }
 850:../libraries/STM32F10x_StdPeriph_Driver/src/stm32f10x_flash.c **** 
 851:../libraries/STM32F10x_StdPeriph_Driver/src/stm32f10x_flash.c **** /**
 852:../libraries/STM32F10x_StdPeriph_Driver/src/stm32f10x_flash.c ****   * @brief  Programs a half word at a specified address.
 853:../libraries/STM32F10x_StdPeriph_Driver/src/stm32f10x_flash.c ****   * @note   This function can be used for all STM32F10x devices.
 854:../libraries/STM32F10x_StdPeriph_Driver/src/stm32f10x_flash.c ****   * @param  Address: specifies the address to be programmed.
 855:../libraries/STM32F10x_StdPeriph_Driver/src/stm32f10x_flash.c ****   * @param  Data: specifies the data to be programmed.
 856:../libraries/STM32F10x_StdPeriph_Driver/src/stm32f10x_flash.c ****   * @retval FLASH Status: The returned value can be: FLASH_ERROR_PG,
 857:../libraries/STM32F10x_StdPeriph_Driver/src/stm32f10x_flash.c ****   *         FLASH_ERROR_WRP, FLASH_COMPLETE or FLASH_TIMEOUT. 
 858:../libraries/STM32F10x_StdPeriph_Driver/src/stm32f10x_flash.c ****   */
 859:../libraries/STM32F10x_StdPeriph_Driver/src/stm32f10x_flash.c **** FLASH_Status FLASH_ProgramHalfWord(uint32_t Address, uint16_t Data)
 860:../libraries/STM32F10x_StdPeriph_Driver/src/stm32f10x_flash.c **** {
 861:../libraries/STM32F10x_StdPeriph_Driver/src/stm32f10x_flash.c ****   FLASH_Status status = FLASH_COMPLETE;
 862:../libraries/STM32F10x_StdPeriph_Driver/src/stm32f10x_flash.c ****   /* Check the parameters */
 863:../libraries/STM32F10x_StdPeriph_Driver/src/stm32f10x_flash.c ****   assert_param(IS_FLASH_ADDRESS(Address));
 864:../libraries/STM32F10x_StdPeriph_Driver/src/stm32f10x_flash.c **** 
 865:../libraries/STM32F10x_StdPeriph_Driver/src/stm32f10x_flash.c **** #ifdef STM32F10X_XL
 866:../libraries/STM32F10x_StdPeriph_Driver/src/stm32f10x_flash.c ****   /* Wait for last operation to be completed */
 867:../libraries/STM32F10x_StdPeriph_Driver/src/stm32f10x_flash.c ****   status = FLASH_WaitForLastOperation(ProgramTimeout);
 868:../libraries/STM32F10x_StdPeriph_Driver/src/stm32f10x_flash.c ****   
 869:../libraries/STM32F10x_StdPeriph_Driver/src/stm32f10x_flash.c ****   if(Address < FLASH_BANK1_END_ADDRESS)
 870:../libraries/STM32F10x_StdPeriph_Driver/src/stm32f10x_flash.c ****   {
 871:../libraries/STM32F10x_StdPeriph_Driver/src/stm32f10x_flash.c ****     if(status == FLASH_COMPLETE)
 872:../libraries/STM32F10x_StdPeriph_Driver/src/stm32f10x_flash.c ****     {
 873:../libraries/STM32F10x_StdPeriph_Driver/src/stm32f10x_flash.c ****       /* if the previous operation is completed, proceed to program the new data */
 874:../libraries/STM32F10x_StdPeriph_Driver/src/stm32f10x_flash.c ****       FLASH->CR |= CR_PG_Set;
 875:../libraries/STM32F10x_StdPeriph_Driver/src/stm32f10x_flash.c ****   
 876:../libraries/STM32F10x_StdPeriph_Driver/src/stm32f10x_flash.c ****       *(__IO uint16_t*)Address = Data;
 877:../libraries/STM32F10x_StdPeriph_Driver/src/stm32f10x_flash.c ****       /* Wait for last operation to be completed */
 878:../libraries/STM32F10x_StdPeriph_Driver/src/stm32f10x_flash.c ****       status = FLASH_WaitForLastBank1Operation(ProgramTimeout);
 879:../libraries/STM32F10x_StdPeriph_Driver/src/stm32f10x_flash.c **** 
 880:../libraries/STM32F10x_StdPeriph_Driver/src/stm32f10x_flash.c ****       /* Disable the PG Bit */
 881:../libraries/STM32F10x_StdPeriph_Driver/src/stm32f10x_flash.c ****       FLASH->CR &= CR_PG_Reset;
 882:../libraries/STM32F10x_StdPeriph_Driver/src/stm32f10x_flash.c ****     }
 883:../libraries/STM32F10x_StdPeriph_Driver/src/stm32f10x_flash.c ****   }
 884:../libraries/STM32F10x_StdPeriph_Driver/src/stm32f10x_flash.c ****   else
 885:../libraries/STM32F10x_StdPeriph_Driver/src/stm32f10x_flash.c ****   {
 886:../libraries/STM32F10x_StdPeriph_Driver/src/stm32f10x_flash.c ****     if(status == FLASH_COMPLETE)
 887:../libraries/STM32F10x_StdPeriph_Driver/src/stm32f10x_flash.c ****     {
 888:../libraries/STM32F10x_StdPeriph_Driver/src/stm32f10x_flash.c ****       /* if the previous operation is completed, proceed to program the new data */
 889:../libraries/STM32F10x_StdPeriph_Driver/src/stm32f10x_flash.c ****       FLASH->CR2 |= CR_PG_Set;
 890:../libraries/STM32F10x_StdPeriph_Driver/src/stm32f10x_flash.c ****   
 891:../libraries/STM32F10x_StdPeriph_Driver/src/stm32f10x_flash.c ****       *(__IO uint16_t*)Address = Data;
 892:../libraries/STM32F10x_StdPeriph_Driver/src/stm32f10x_flash.c ****       /* Wait for last operation to be completed */
 893:../libraries/STM32F10x_StdPeriph_Driver/src/stm32f10x_flash.c ****       status = FLASH_WaitForLastBank2Operation(ProgramTimeout);
 894:../libraries/STM32F10x_StdPeriph_Driver/src/stm32f10x_flash.c **** 
 895:../libraries/STM32F10x_StdPeriph_Driver/src/stm32f10x_flash.c ****       /* Disable the PG Bit */
 896:../libraries/STM32F10x_StdPeriph_Driver/src/stm32f10x_flash.c ****       FLASH->CR2 &= CR_PG_Reset;
 897:../libraries/STM32F10x_StdPeriph_Driver/src/stm32f10x_flash.c ****     }
 898:../libraries/STM32F10x_StdPeriph_Driver/src/stm32f10x_flash.c ****   }
 899:../libraries/STM32F10x_StdPeriph_Driver/src/stm32f10x_flash.c **** #else
 900:../libraries/STM32F10x_StdPeriph_Driver/src/stm32f10x_flash.c ****   /* Wait for last operation to be completed */
 901:../libraries/STM32F10x_StdPeriph_Driver/src/stm32f10x_flash.c ****   status = FLASH_WaitForLastOperation(ProgramTimeout);
 902:../libraries/STM32F10x_StdPeriph_Driver/src/stm32f10x_flash.c ****   
 903:../libraries/STM32F10x_StdPeriph_Driver/src/stm32f10x_flash.c ****   if(status == FLASH_COMPLETE)
 904:../libraries/STM32F10x_StdPeriph_Driver/src/stm32f10x_flash.c ****   {
 905:../libraries/STM32F10x_StdPeriph_Driver/src/stm32f10x_flash.c ****     /* if the previous operation is completed, proceed to program the new data */
 906:../libraries/STM32F10x_StdPeriph_Driver/src/stm32f10x_flash.c ****     FLASH->CR |= CR_PG_Set;
 907:../libraries/STM32F10x_StdPeriph_Driver/src/stm32f10x_flash.c ****   
 908:../libraries/STM32F10x_StdPeriph_Driver/src/stm32f10x_flash.c ****     *(__IO uint16_t*)Address = Data;
 909:../libraries/STM32F10x_StdPeriph_Driver/src/stm32f10x_flash.c ****     /* Wait for last operation to be completed */
 910:../libraries/STM32F10x_StdPeriph_Driver/src/stm32f10x_flash.c ****     status = FLASH_WaitForLastOperation(ProgramTimeout);
 911:../libraries/STM32F10x_StdPeriph_Driver/src/stm32f10x_flash.c ****     
 912:../libraries/STM32F10x_StdPeriph_Driver/src/stm32f10x_flash.c ****     /* Disable the PG Bit */
 913:../libraries/STM32F10x_StdPeriph_Driver/src/stm32f10x_flash.c ****     FLASH->CR &= CR_PG_Reset;
 914:../libraries/STM32F10x_StdPeriph_Driver/src/stm32f10x_flash.c ****   } 
 915:../libraries/STM32F10x_StdPeriph_Driver/src/stm32f10x_flash.c **** #endif  /* STM32F10X_XL */
 916:../libraries/STM32F10x_StdPeriph_Driver/src/stm32f10x_flash.c ****   
 917:../libraries/STM32F10x_StdPeriph_Driver/src/stm32f10x_flash.c ****   /* Return the Program Status */
 918:../libraries/STM32F10x_StdPeriph_Driver/src/stm32f10x_flash.c ****   return status;
 919:../libraries/STM32F10x_StdPeriph_Driver/src/stm32f10x_flash.c **** }
 920:../libraries/STM32F10x_StdPeriph_Driver/src/stm32f10x_flash.c **** 
 921:../libraries/STM32F10x_StdPeriph_Driver/src/stm32f10x_flash.c **** /**
 922:../libraries/STM32F10x_StdPeriph_Driver/src/stm32f10x_flash.c ****   * @brief  Programs a half word at a specified Option Byte Data address.
 923:../libraries/STM32F10x_StdPeriph_Driver/src/stm32f10x_flash.c ****   * @note   This function can be used for all STM32F10x devices.
 924:../libraries/STM32F10x_StdPeriph_Driver/src/stm32f10x_flash.c ****   * @param  Address: specifies the address to be programmed.
 925:../libraries/STM32F10x_StdPeriph_Driver/src/stm32f10x_flash.c ****   *   This parameter can be 0x1FFFF804 or 0x1FFFF806. 
 926:../libraries/STM32F10x_StdPeriph_Driver/src/stm32f10x_flash.c ****   * @param  Data: specifies the data to be programmed.
 927:../libraries/STM32F10x_StdPeriph_Driver/src/stm32f10x_flash.c ****   * @retval FLASH Status: The returned value can be: FLASH_ERROR_PG,
 928:../libraries/STM32F10x_StdPeriph_Driver/src/stm32f10x_flash.c ****   *         FLASH_ERROR_WRP, FLASH_COMPLETE or FLASH_TIMEOUT. 
 929:../libraries/STM32F10x_StdPeriph_Driver/src/stm32f10x_flash.c ****   */
 930:../libraries/STM32F10x_StdPeriph_Driver/src/stm32f10x_flash.c **** FLASH_Status FLASH_ProgramOptionByteData(uint32_t Address, uint8_t Data)
 931:../libraries/STM32F10x_StdPeriph_Driver/src/stm32f10x_flash.c **** {
 932:../libraries/STM32F10x_StdPeriph_Driver/src/stm32f10x_flash.c ****   FLASH_Status status = FLASH_COMPLETE;
 933:../libraries/STM32F10x_StdPeriph_Driver/src/stm32f10x_flash.c ****   /* Check the parameters */
 934:../libraries/STM32F10x_StdPeriph_Driver/src/stm32f10x_flash.c ****   assert_param(IS_OB_DATA_ADDRESS(Address));
 935:../libraries/STM32F10x_StdPeriph_Driver/src/stm32f10x_flash.c ****   status = FLASH_WaitForLastOperation(ProgramTimeout);
 936:../libraries/STM32F10x_StdPeriph_Driver/src/stm32f10x_flash.c **** 
 937:../libraries/STM32F10x_StdPeriph_Driver/src/stm32f10x_flash.c ****   if(status == FLASH_COMPLETE)
 938:../libraries/STM32F10x_StdPeriph_Driver/src/stm32f10x_flash.c ****   {
 939:../libraries/STM32F10x_StdPeriph_Driver/src/stm32f10x_flash.c ****     /* Authorize the small information block programming */
 940:../libraries/STM32F10x_StdPeriph_Driver/src/stm32f10x_flash.c ****     FLASH->OPTKEYR = FLASH_KEY1;
 941:../libraries/STM32F10x_StdPeriph_Driver/src/stm32f10x_flash.c ****     FLASH->OPTKEYR = FLASH_KEY2;
 942:../libraries/STM32F10x_StdPeriph_Driver/src/stm32f10x_flash.c ****     /* Enables the Option Bytes Programming operation */
 943:../libraries/STM32F10x_StdPeriph_Driver/src/stm32f10x_flash.c ****     FLASH->CR |= CR_OPTPG_Set; 
 944:../libraries/STM32F10x_StdPeriph_Driver/src/stm32f10x_flash.c ****     *(__IO uint16_t*)Address = Data;
 945:../libraries/STM32F10x_StdPeriph_Driver/src/stm32f10x_flash.c ****     
 946:../libraries/STM32F10x_StdPeriph_Driver/src/stm32f10x_flash.c ****     /* Wait for last operation to be completed */
 947:../libraries/STM32F10x_StdPeriph_Driver/src/stm32f10x_flash.c ****     status = FLASH_WaitForLastOperation(ProgramTimeout);
 948:../libraries/STM32F10x_StdPeriph_Driver/src/stm32f10x_flash.c ****     if(status != FLASH_TIMEOUT)
 949:../libraries/STM32F10x_StdPeriph_Driver/src/stm32f10x_flash.c ****     {
 950:../libraries/STM32F10x_StdPeriph_Driver/src/stm32f10x_flash.c ****       /* if the program operation is completed, disable the OPTPG Bit */
 951:../libraries/STM32F10x_StdPeriph_Driver/src/stm32f10x_flash.c ****       FLASH->CR &= CR_OPTPG_Reset;
 952:../libraries/STM32F10x_StdPeriph_Driver/src/stm32f10x_flash.c ****     }
 953:../libraries/STM32F10x_StdPeriph_Driver/src/stm32f10x_flash.c ****   }
 954:../libraries/STM32F10x_StdPeriph_Driver/src/stm32f10x_flash.c ****   /* Return the Option Byte Data Program Status */
 955:../libraries/STM32F10x_StdPeriph_Driver/src/stm32f10x_flash.c ****   return status;
 956:../libraries/STM32F10x_StdPeriph_Driver/src/stm32f10x_flash.c **** }
 957:../libraries/STM32F10x_StdPeriph_Driver/src/stm32f10x_flash.c **** 
 958:../libraries/STM32F10x_StdPeriph_Driver/src/stm32f10x_flash.c **** /**
 959:../libraries/STM32F10x_StdPeriph_Driver/src/stm32f10x_flash.c ****   * @brief  Write protects the desired pages
 960:../libraries/STM32F10x_StdPeriph_Driver/src/stm32f10x_flash.c ****   * @note   This function can be used for all STM32F10x devices.
 961:../libraries/STM32F10x_StdPeriph_Driver/src/stm32f10x_flash.c ****   * @param  FLASH_Pages: specifies the address of the pages to be write protected.
 962:../libraries/STM32F10x_StdPeriph_Driver/src/stm32f10x_flash.c ****   *   This parameter can be:
 963:../libraries/STM32F10x_StdPeriph_Driver/src/stm32f10x_flash.c ****   *     @arg For @b STM32_Low-density_devices: value between FLASH_WRProt_Pages0to3 and FLASH_WRPro
 964:../libraries/STM32F10x_StdPeriph_Driver/src/stm32f10x_flash.c ****   *     @arg For @b STM32_Medium-density_devices: value between FLASH_WRProt_Pages0to3
 965:../libraries/STM32F10x_StdPeriph_Driver/src/stm32f10x_flash.c ****   *       and FLASH_WRProt_Pages124to127
 966:../libraries/STM32F10x_StdPeriph_Driver/src/stm32f10x_flash.c ****   *     @arg For @b STM32_High-density_devices: value between FLASH_WRProt_Pages0to1 and
 967:../libraries/STM32F10x_StdPeriph_Driver/src/stm32f10x_flash.c ****   *       FLASH_WRProt_Pages60to61 or FLASH_WRProt_Pages62to255
 968:../libraries/STM32F10x_StdPeriph_Driver/src/stm32f10x_flash.c ****   *     @arg For @b STM32_Connectivity_line_devices: value between FLASH_WRProt_Pages0to1 and
 969:../libraries/STM32F10x_StdPeriph_Driver/src/stm32f10x_flash.c ****   *       FLASH_WRProt_Pages60to61 or FLASH_WRProt_Pages62to127    
 970:../libraries/STM32F10x_StdPeriph_Driver/src/stm32f10x_flash.c ****   *     @arg For @b STM32_XL-density_devices: value between FLASH_WRProt_Pages0to1 and
 971:../libraries/STM32F10x_StdPeriph_Driver/src/stm32f10x_flash.c ****   *       FLASH_WRProt_Pages60to61 or FLASH_WRProt_Pages62to511
 972:../libraries/STM32F10x_StdPeriph_Driver/src/stm32f10x_flash.c ****   *     @arg FLASH_WRProt_AllPages
 973:../libraries/STM32F10x_StdPeriph_Driver/src/stm32f10x_flash.c ****   * @retval FLASH Status: The returned value can be: FLASH_ERROR_PG,
 974:../libraries/STM32F10x_StdPeriph_Driver/src/stm32f10x_flash.c ****   *         FLASH_ERROR_WRP, FLASH_COMPLETE or FLASH_TIMEOUT.
 975:../libraries/STM32F10x_StdPeriph_Driver/src/stm32f10x_flash.c ****   */
 976:../libraries/STM32F10x_StdPeriph_Driver/src/stm32f10x_flash.c **** FLASH_Status FLASH_EnableWriteProtection(uint32_t FLASH_Pages)
 977:../libraries/STM32F10x_StdPeriph_Driver/src/stm32f10x_flash.c **** {
 978:../libraries/STM32F10x_StdPeriph_Driver/src/stm32f10x_flash.c ****   uint16_t WRP0_Data = 0xFFFF, WRP1_Data = 0xFFFF, WRP2_Data = 0xFFFF, WRP3_Data = 0xFFFF;
 979:../libraries/STM32F10x_StdPeriph_Driver/src/stm32f10x_flash.c ****   
 980:../libraries/STM32F10x_StdPeriph_Driver/src/stm32f10x_flash.c ****   FLASH_Status status = FLASH_COMPLETE;
 981:../libraries/STM32F10x_StdPeriph_Driver/src/stm32f10x_flash.c ****   
 982:../libraries/STM32F10x_StdPeriph_Driver/src/stm32f10x_flash.c ****   /* Check the parameters */
 983:../libraries/STM32F10x_StdPeriph_Driver/src/stm32f10x_flash.c ****   assert_param(IS_FLASH_WRPROT_PAGE(FLASH_Pages));
 984:../libraries/STM32F10x_StdPeriph_Driver/src/stm32f10x_flash.c ****   
 985:../libraries/STM32F10x_StdPeriph_Driver/src/stm32f10x_flash.c ****   FLASH_Pages = (uint32_t)(~FLASH_Pages);
 986:../libraries/STM32F10x_StdPeriph_Driver/src/stm32f10x_flash.c ****   WRP0_Data = (uint16_t)(FLASH_Pages & WRP0_Mask);
 987:../libraries/STM32F10x_StdPeriph_Driver/src/stm32f10x_flash.c ****   WRP1_Data = (uint16_t)((FLASH_Pages & WRP1_Mask) >> 8);
 988:../libraries/STM32F10x_StdPeriph_Driver/src/stm32f10x_flash.c ****   WRP2_Data = (uint16_t)((FLASH_Pages & WRP2_Mask) >> 16);
 989:../libraries/STM32F10x_StdPeriph_Driver/src/stm32f10x_flash.c ****   WRP3_Data = (uint16_t)((FLASH_Pages & WRP3_Mask) >> 24);
 990:../libraries/STM32F10x_StdPeriph_Driver/src/stm32f10x_flash.c ****   
 991:../libraries/STM32F10x_StdPeriph_Driver/src/stm32f10x_flash.c ****   /* Wait for last operation to be completed */
 992:../libraries/STM32F10x_StdPeriph_Driver/src/stm32f10x_flash.c ****   status = FLASH_WaitForLastOperation(ProgramTimeout);
 993:../libraries/STM32F10x_StdPeriph_Driver/src/stm32f10x_flash.c ****   
 994:../libraries/STM32F10x_StdPeriph_Driver/src/stm32f10x_flash.c ****   if(status == FLASH_COMPLETE)
 995:../libraries/STM32F10x_StdPeriph_Driver/src/stm32f10x_flash.c ****   {
 996:../libraries/STM32F10x_StdPeriph_Driver/src/stm32f10x_flash.c ****     /* Authorizes the small information block programming */
 997:../libraries/STM32F10x_StdPeriph_Driver/src/stm32f10x_flash.c ****     FLASH->OPTKEYR = FLASH_KEY1;
 998:../libraries/STM32F10x_StdPeriph_Driver/src/stm32f10x_flash.c ****     FLASH->OPTKEYR = FLASH_KEY2;
 999:../libraries/STM32F10x_StdPeriph_Driver/src/stm32f10x_flash.c ****     FLASH->CR |= CR_OPTPG_Set;
1000:../libraries/STM32F10x_StdPeriph_Driver/src/stm32f10x_flash.c ****     if(WRP0_Data != 0xFF)
1001:../libraries/STM32F10x_StdPeriph_Driver/src/stm32f10x_flash.c ****     {
1002:../libraries/STM32F10x_StdPeriph_Driver/src/stm32f10x_flash.c ****       OB->WRP0 = WRP0_Data;
1003:../libraries/STM32F10x_StdPeriph_Driver/src/stm32f10x_flash.c ****       
1004:../libraries/STM32F10x_StdPeriph_Driver/src/stm32f10x_flash.c ****       /* Wait for last operation to be completed */
1005:../libraries/STM32F10x_StdPeriph_Driver/src/stm32f10x_flash.c ****       status = FLASH_WaitForLastOperation(ProgramTimeout);
1006:../libraries/STM32F10x_StdPeriph_Driver/src/stm32f10x_flash.c ****     }
1007:../libraries/STM32F10x_StdPeriph_Driver/src/stm32f10x_flash.c ****     if((status == FLASH_COMPLETE) && (WRP1_Data != 0xFF))
1008:../libraries/STM32F10x_StdPeriph_Driver/src/stm32f10x_flash.c ****     {
1009:../libraries/STM32F10x_StdPeriph_Driver/src/stm32f10x_flash.c ****       OB->WRP1 = WRP1_Data;
1010:../libraries/STM32F10x_StdPeriph_Driver/src/stm32f10x_flash.c ****       
1011:../libraries/STM32F10x_StdPeriph_Driver/src/stm32f10x_flash.c ****       /* Wait for last operation to be completed */
1012:../libraries/STM32F10x_StdPeriph_Driver/src/stm32f10x_flash.c ****       status = FLASH_WaitForLastOperation(ProgramTimeout);
1013:../libraries/STM32F10x_StdPeriph_Driver/src/stm32f10x_flash.c ****     }
1014:../libraries/STM32F10x_StdPeriph_Driver/src/stm32f10x_flash.c ****     if((status == FLASH_COMPLETE) && (WRP2_Data != 0xFF))
1015:../libraries/STM32F10x_StdPeriph_Driver/src/stm32f10x_flash.c ****     {
1016:../libraries/STM32F10x_StdPeriph_Driver/src/stm32f10x_flash.c ****       OB->WRP2 = WRP2_Data;
1017:../libraries/STM32F10x_StdPeriph_Driver/src/stm32f10x_flash.c ****       
1018:../libraries/STM32F10x_StdPeriph_Driver/src/stm32f10x_flash.c ****       /* Wait for last operation to be completed */
1019:../libraries/STM32F10x_StdPeriph_Driver/src/stm32f10x_flash.c ****       status = FLASH_WaitForLastOperation(ProgramTimeout);
1020:../libraries/STM32F10x_StdPeriph_Driver/src/stm32f10x_flash.c ****     }
1021:../libraries/STM32F10x_StdPeriph_Driver/src/stm32f10x_flash.c ****     
1022:../libraries/STM32F10x_StdPeriph_Driver/src/stm32f10x_flash.c ****     if((status == FLASH_COMPLETE)&& (WRP3_Data != 0xFF))
1023:../libraries/STM32F10x_StdPeriph_Driver/src/stm32f10x_flash.c ****     {
1024:../libraries/STM32F10x_StdPeriph_Driver/src/stm32f10x_flash.c ****       OB->WRP3 = WRP3_Data;
1025:../libraries/STM32F10x_StdPeriph_Driver/src/stm32f10x_flash.c ****      
1026:../libraries/STM32F10x_StdPeriph_Driver/src/stm32f10x_flash.c ****       /* Wait for last operation to be completed */
1027:../libraries/STM32F10x_StdPeriph_Driver/src/stm32f10x_flash.c ****       status = FLASH_WaitForLastOperation(ProgramTimeout);
1028:../libraries/STM32F10x_StdPeriph_Driver/src/stm32f10x_flash.c ****     }
1029:../libraries/STM32F10x_StdPeriph_Driver/src/stm32f10x_flash.c ****           
1030:../libraries/STM32F10x_StdPeriph_Driver/src/stm32f10x_flash.c ****     if(status != FLASH_TIMEOUT)
1031:../libraries/STM32F10x_StdPeriph_Driver/src/stm32f10x_flash.c ****     {
1032:../libraries/STM32F10x_StdPeriph_Driver/src/stm32f10x_flash.c ****       /* if the program operation is completed, disable the OPTPG Bit */
1033:../libraries/STM32F10x_StdPeriph_Driver/src/stm32f10x_flash.c ****       FLASH->CR &= CR_OPTPG_Reset;
1034:../libraries/STM32F10x_StdPeriph_Driver/src/stm32f10x_flash.c ****     }
1035:../libraries/STM32F10x_StdPeriph_Driver/src/stm32f10x_flash.c ****   } 
1036:../libraries/STM32F10x_StdPeriph_Driver/src/stm32f10x_flash.c ****   /* Return the write protection operation Status */
1037:../libraries/STM32F10x_StdPeriph_Driver/src/stm32f10x_flash.c ****   return status;       
1038:../libraries/STM32F10x_StdPeriph_Driver/src/stm32f10x_flash.c **** }
1039:../libraries/STM32F10x_StdPeriph_Driver/src/stm32f10x_flash.c **** 
1040:../libraries/STM32F10x_StdPeriph_Driver/src/stm32f10x_flash.c **** /**
1041:../libraries/STM32F10x_StdPeriph_Driver/src/stm32f10x_flash.c ****   * @brief  Enables or disables the read out protection.
1042:../libraries/STM32F10x_StdPeriph_Driver/src/stm32f10x_flash.c ****   * @note   If the user has already programmed the other option bytes before calling 
1043:../libraries/STM32F10x_StdPeriph_Driver/src/stm32f10x_flash.c ****   *   this function, he must re-program them since this function erases all option bytes.
1044:../libraries/STM32F10x_StdPeriph_Driver/src/stm32f10x_flash.c ****   * @note   This function can be used for all STM32F10x devices.
1045:../libraries/STM32F10x_StdPeriph_Driver/src/stm32f10x_flash.c ****   * @param  Newstate: new state of the ReadOut Protection.
1046:../libraries/STM32F10x_StdPeriph_Driver/src/stm32f10x_flash.c ****   *   This parameter can be: ENABLE or DISABLE.
1047:../libraries/STM32F10x_StdPeriph_Driver/src/stm32f10x_flash.c ****   * @retval FLASH Status: The returned value can be: FLASH_ERROR_PG,
1048:../libraries/STM32F10x_StdPeriph_Driver/src/stm32f10x_flash.c ****   *         FLASH_ERROR_WRP, FLASH_COMPLETE or FLASH_TIMEOUT.
1049:../libraries/STM32F10x_StdPeriph_Driver/src/stm32f10x_flash.c ****   */
1050:../libraries/STM32F10x_StdPeriph_Driver/src/stm32f10x_flash.c **** FLASH_Status FLASH_ReadOutProtection(FunctionalState NewState)
1051:../libraries/STM32F10x_StdPeriph_Driver/src/stm32f10x_flash.c **** {
1052:../libraries/STM32F10x_StdPeriph_Driver/src/stm32f10x_flash.c ****   FLASH_Status status = FLASH_COMPLETE;
1053:../libraries/STM32F10x_StdPeriph_Driver/src/stm32f10x_flash.c ****   /* Check the parameters */
1054:../libraries/STM32F10x_StdPeriph_Driver/src/stm32f10x_flash.c ****   assert_param(IS_FUNCTIONAL_STATE(NewState));
1055:../libraries/STM32F10x_StdPeriph_Driver/src/stm32f10x_flash.c ****   status = FLASH_WaitForLastOperation(EraseTimeout);
1056:../libraries/STM32F10x_StdPeriph_Driver/src/stm32f10x_flash.c ****   if(status == FLASH_COMPLETE)
1057:../libraries/STM32F10x_StdPeriph_Driver/src/stm32f10x_flash.c ****   {
1058:../libraries/STM32F10x_StdPeriph_Driver/src/stm32f10x_flash.c ****     /* Authorizes the small information block programming */
1059:../libraries/STM32F10x_StdPeriph_Driver/src/stm32f10x_flash.c ****     FLASH->OPTKEYR = FLASH_KEY1;
1060:../libraries/STM32F10x_StdPeriph_Driver/src/stm32f10x_flash.c ****     FLASH->OPTKEYR = FLASH_KEY2;
1061:../libraries/STM32F10x_StdPeriph_Driver/src/stm32f10x_flash.c ****     FLASH->CR |= CR_OPTER_Set;
1062:../libraries/STM32F10x_StdPeriph_Driver/src/stm32f10x_flash.c ****     FLASH->CR |= CR_STRT_Set;
1063:../libraries/STM32F10x_StdPeriph_Driver/src/stm32f10x_flash.c ****     /* Wait for last operation to be completed */
1064:../libraries/STM32F10x_StdPeriph_Driver/src/stm32f10x_flash.c ****     status = FLASH_WaitForLastOperation(EraseTimeout);
1065:../libraries/STM32F10x_StdPeriph_Driver/src/stm32f10x_flash.c ****     if(status == FLASH_COMPLETE)
1066:../libraries/STM32F10x_StdPeriph_Driver/src/stm32f10x_flash.c ****     {
1067:../libraries/STM32F10x_StdPeriph_Driver/src/stm32f10x_flash.c ****       /* if the erase operation is completed, disable the OPTER Bit */
1068:../libraries/STM32F10x_StdPeriph_Driver/src/stm32f10x_flash.c ****       FLASH->CR &= CR_OPTER_Reset;
1069:../libraries/STM32F10x_StdPeriph_Driver/src/stm32f10x_flash.c ****       /* Enable the Option Bytes Programming operation */
1070:../libraries/STM32F10x_StdPeriph_Driver/src/stm32f10x_flash.c ****       FLASH->CR |= CR_OPTPG_Set; 
1071:../libraries/STM32F10x_StdPeriph_Driver/src/stm32f10x_flash.c ****       if(NewState != DISABLE)
1072:../libraries/STM32F10x_StdPeriph_Driver/src/stm32f10x_flash.c ****       {
1073:../libraries/STM32F10x_StdPeriph_Driver/src/stm32f10x_flash.c ****         OB->RDP = 0x00;
1074:../libraries/STM32F10x_StdPeriph_Driver/src/stm32f10x_flash.c ****       }
1075:../libraries/STM32F10x_StdPeriph_Driver/src/stm32f10x_flash.c ****       else
1076:../libraries/STM32F10x_StdPeriph_Driver/src/stm32f10x_flash.c ****       {
1077:../libraries/STM32F10x_StdPeriph_Driver/src/stm32f10x_flash.c ****         OB->RDP = RDP_Key;  
1078:../libraries/STM32F10x_StdPeriph_Driver/src/stm32f10x_flash.c ****       }
1079:../libraries/STM32F10x_StdPeriph_Driver/src/stm32f10x_flash.c ****       /* Wait for last operation to be completed */
1080:../libraries/STM32F10x_StdPeriph_Driver/src/stm32f10x_flash.c ****       status = FLASH_WaitForLastOperation(EraseTimeout); 
1081:../libraries/STM32F10x_StdPeriph_Driver/src/stm32f10x_flash.c ****     
1082:../libraries/STM32F10x_StdPeriph_Driver/src/stm32f10x_flash.c ****       if(status != FLASH_TIMEOUT)
1083:../libraries/STM32F10x_StdPeriph_Driver/src/stm32f10x_flash.c ****       {
1084:../libraries/STM32F10x_StdPeriph_Driver/src/stm32f10x_flash.c ****         /* if the program operation is completed, disable the OPTPG Bit */
1085:../libraries/STM32F10x_StdPeriph_Driver/src/stm32f10x_flash.c ****         FLASH->CR &= CR_OPTPG_Reset;
1086:../libraries/STM32F10x_StdPeriph_Driver/src/stm32f10x_flash.c ****       }
1087:../libraries/STM32F10x_StdPeriph_Driver/src/stm32f10x_flash.c ****     }
1088:../libraries/STM32F10x_StdPeriph_Driver/src/stm32f10x_flash.c ****     else 
1089:../libraries/STM32F10x_StdPeriph_Driver/src/stm32f10x_flash.c ****     {
1090:../libraries/STM32F10x_StdPeriph_Driver/src/stm32f10x_flash.c ****       if(status != FLASH_TIMEOUT)
1091:../libraries/STM32F10x_StdPeriph_Driver/src/stm32f10x_flash.c ****       {
1092:../libraries/STM32F10x_StdPeriph_Driver/src/stm32f10x_flash.c ****         /* Disable the OPTER Bit */
1093:../libraries/STM32F10x_StdPeriph_Driver/src/stm32f10x_flash.c ****         FLASH->CR &= CR_OPTER_Reset;
1094:../libraries/STM32F10x_StdPeriph_Driver/src/stm32f10x_flash.c ****       }
1095:../libraries/STM32F10x_StdPeriph_Driver/src/stm32f10x_flash.c ****     }
1096:../libraries/STM32F10x_StdPeriph_Driver/src/stm32f10x_flash.c ****   }
1097:../libraries/STM32F10x_StdPeriph_Driver/src/stm32f10x_flash.c ****   /* Return the protection operation Status */
1098:../libraries/STM32F10x_StdPeriph_Driver/src/stm32f10x_flash.c ****   return status;       
1099:../libraries/STM32F10x_StdPeriph_Driver/src/stm32f10x_flash.c **** }
1100:../libraries/STM32F10x_StdPeriph_Driver/src/stm32f10x_flash.c **** 
1101:../libraries/STM32F10x_StdPeriph_Driver/src/stm32f10x_flash.c **** /**
1102:../libraries/STM32F10x_StdPeriph_Driver/src/stm32f10x_flash.c ****   * @brief  Programs the FLASH User Option Byte: IWDG_SW / RST_STOP / RST_STDBY.
1103:../libraries/STM32F10x_StdPeriph_Driver/src/stm32f10x_flash.c ****   * @note   This function can be used for all STM32F10x devices.
1104:../libraries/STM32F10x_StdPeriph_Driver/src/stm32f10x_flash.c ****   * @param  OB_IWDG: Selects the IWDG mode
1105:../libraries/STM32F10x_StdPeriph_Driver/src/stm32f10x_flash.c ****   *   This parameter can be one of the following values:
1106:../libraries/STM32F10x_StdPeriph_Driver/src/stm32f10x_flash.c ****   *     @arg OB_IWDG_SW: Software IWDG selected
1107:../libraries/STM32F10x_StdPeriph_Driver/src/stm32f10x_flash.c ****   *     @arg OB_IWDG_HW: Hardware IWDG selected
1108:../libraries/STM32F10x_StdPeriph_Driver/src/stm32f10x_flash.c ****   * @param  OB_STOP: Reset event when entering STOP mode.
1109:../libraries/STM32F10x_StdPeriph_Driver/src/stm32f10x_flash.c ****   *   This parameter can be one of the following values:
1110:../libraries/STM32F10x_StdPeriph_Driver/src/stm32f10x_flash.c ****   *     @arg OB_STOP_NoRST: No reset generated when entering in STOP
1111:../libraries/STM32F10x_StdPeriph_Driver/src/stm32f10x_flash.c ****   *     @arg OB_STOP_RST: Reset generated when entering in STOP
1112:../libraries/STM32F10x_StdPeriph_Driver/src/stm32f10x_flash.c ****   * @param  OB_STDBY: Reset event when entering Standby mode.
1113:../libraries/STM32F10x_StdPeriph_Driver/src/stm32f10x_flash.c ****   *   This parameter can be one of the following values:
1114:../libraries/STM32F10x_StdPeriph_Driver/src/stm32f10x_flash.c ****   *     @arg OB_STDBY_NoRST: No reset generated when entering in STANDBY
1115:../libraries/STM32F10x_StdPeriph_Driver/src/stm32f10x_flash.c ****   *     @arg OB_STDBY_RST: Reset generated when entering in STANDBY
1116:../libraries/STM32F10x_StdPeriph_Driver/src/stm32f10x_flash.c ****   * @retval FLASH Status: The returned value can be: FLASH_ERROR_PG, 
1117:../libraries/STM32F10x_StdPeriph_Driver/src/stm32f10x_flash.c ****   *         FLASH_ERROR_WRP, FLASH_COMPLETE or FLASH_TIMEOUT.
1118:../libraries/STM32F10x_StdPeriph_Driver/src/stm32f10x_flash.c ****   */
1119:../libraries/STM32F10x_StdPeriph_Driver/src/stm32f10x_flash.c **** FLASH_Status FLASH_UserOptionByteConfig(uint16_t OB_IWDG, uint16_t OB_STOP, uint16_t OB_STDBY)
1120:../libraries/STM32F10x_StdPeriph_Driver/src/stm32f10x_flash.c **** {
1121:../libraries/STM32F10x_StdPeriph_Driver/src/stm32f10x_flash.c ****   FLASH_Status status = FLASH_COMPLETE; 
1122:../libraries/STM32F10x_StdPeriph_Driver/src/stm32f10x_flash.c **** 
1123:../libraries/STM32F10x_StdPeriph_Driver/src/stm32f10x_flash.c ****   /* Check the parameters */
1124:../libraries/STM32F10x_StdPeriph_Driver/src/stm32f10x_flash.c ****   assert_param(IS_OB_IWDG_SOURCE(OB_IWDG));
1125:../libraries/STM32F10x_StdPeriph_Driver/src/stm32f10x_flash.c ****   assert_param(IS_OB_STOP_SOURCE(OB_STOP));
1126:../libraries/STM32F10x_StdPeriph_Driver/src/stm32f10x_flash.c ****   assert_param(IS_OB_STDBY_SOURCE(OB_STDBY));
1127:../libraries/STM32F10x_StdPeriph_Driver/src/stm32f10x_flash.c **** 
1128:../libraries/STM32F10x_StdPeriph_Driver/src/stm32f10x_flash.c ****   /* Authorize the small information block programming */
1129:../libraries/STM32F10x_StdPeriph_Driver/src/stm32f10x_flash.c ****   FLASH->OPTKEYR = FLASH_KEY1;
1130:../libraries/STM32F10x_StdPeriph_Driver/src/stm32f10x_flash.c ****   FLASH->OPTKEYR = FLASH_KEY2;
1131:../libraries/STM32F10x_StdPeriph_Driver/src/stm32f10x_flash.c ****   
1132:../libraries/STM32F10x_StdPeriph_Driver/src/stm32f10x_flash.c ****   /* Wait for last operation to be completed */
1133:../libraries/STM32F10x_StdPeriph_Driver/src/stm32f10x_flash.c ****   status = FLASH_WaitForLastOperation(ProgramTimeout);
1134:../libraries/STM32F10x_StdPeriph_Driver/src/stm32f10x_flash.c ****   
1135:../libraries/STM32F10x_StdPeriph_Driver/src/stm32f10x_flash.c ****   if(status == FLASH_COMPLETE)
1136:../libraries/STM32F10x_StdPeriph_Driver/src/stm32f10x_flash.c ****   {  
1137:../libraries/STM32F10x_StdPeriph_Driver/src/stm32f10x_flash.c ****     /* Enable the Option Bytes Programming operation */
1138:../libraries/STM32F10x_StdPeriph_Driver/src/stm32f10x_flash.c ****     FLASH->CR |= CR_OPTPG_Set; 
1139:../libraries/STM32F10x_StdPeriph_Driver/src/stm32f10x_flash.c ****            
1140:../libraries/STM32F10x_StdPeriph_Driver/src/stm32f10x_flash.c ****     OB->USER = OB_IWDG | (uint16_t)(OB_STOP | (uint16_t)(OB_STDBY | ((uint16_t)0xF8))); 
1141:../libraries/STM32F10x_StdPeriph_Driver/src/stm32f10x_flash.c ****   
1142:../libraries/STM32F10x_StdPeriph_Driver/src/stm32f10x_flash.c ****     /* Wait for last operation to be completed */
1143:../libraries/STM32F10x_StdPeriph_Driver/src/stm32f10x_flash.c ****     status = FLASH_WaitForLastOperation(ProgramTimeout);
1144:../libraries/STM32F10x_StdPeriph_Driver/src/stm32f10x_flash.c ****     if(status != FLASH_TIMEOUT)
1145:../libraries/STM32F10x_StdPeriph_Driver/src/stm32f10x_flash.c ****     {
1146:../libraries/STM32F10x_StdPeriph_Driver/src/stm32f10x_flash.c ****       /* if the program operation is completed, disable the OPTPG Bit */
1147:../libraries/STM32F10x_StdPeriph_Driver/src/stm32f10x_flash.c ****       FLASH->CR &= CR_OPTPG_Reset;
1148:../libraries/STM32F10x_StdPeriph_Driver/src/stm32f10x_flash.c ****     }
1149:../libraries/STM32F10x_StdPeriph_Driver/src/stm32f10x_flash.c ****   }    
1150:../libraries/STM32F10x_StdPeriph_Driver/src/stm32f10x_flash.c ****   /* Return the Option Byte program Status */
1151:../libraries/STM32F10x_StdPeriph_Driver/src/stm32f10x_flash.c ****   return status;
1152:../libraries/STM32F10x_StdPeriph_Driver/src/stm32f10x_flash.c **** }
1153:../libraries/STM32F10x_StdPeriph_Driver/src/stm32f10x_flash.c **** 
1154:../libraries/STM32F10x_StdPeriph_Driver/src/stm32f10x_flash.c **** #ifdef STM32F10X_XL
1155:../libraries/STM32F10x_StdPeriph_Driver/src/stm32f10x_flash.c **** /**
1156:../libraries/STM32F10x_StdPeriph_Driver/src/stm32f10x_flash.c ****   * @brief  Configures to boot from Bank1 or Bank2.  
1157:../libraries/STM32F10x_StdPeriph_Driver/src/stm32f10x_flash.c ****   * @note   This function can be used only for STM32F10x_XL density devices.
1158:../libraries/STM32F10x_StdPeriph_Driver/src/stm32f10x_flash.c ****   * @param  FLASH_BOOT: select the FLASH Bank to boot from.
1159:../libraries/STM32F10x_StdPeriph_Driver/src/stm32f10x_flash.c ****   *   This parameter can be one of the following values:
1160:../libraries/STM32F10x_StdPeriph_Driver/src/stm32f10x_flash.c ****   *     @arg FLASH_BOOT_Bank1: At startup, if boot pins are set in boot from user Flash
1161:../libraries/STM32F10x_StdPeriph_Driver/src/stm32f10x_flash.c ****   *        position and this parameter is selected the device will boot from Bank1(Default).
1162:../libraries/STM32F10x_StdPeriph_Driver/src/stm32f10x_flash.c ****   *     @arg FLASH_BOOT_Bank2: At startup, if boot pins are set in boot from user Flash
1163:../libraries/STM32F10x_StdPeriph_Driver/src/stm32f10x_flash.c ****   *        position and this parameter is selected the device will boot from Bank2 or Bank1,
1164:../libraries/STM32F10x_StdPeriph_Driver/src/stm32f10x_flash.c ****   *        depending on the activation of the bank. The active banks are checked in
1165:../libraries/STM32F10x_StdPeriph_Driver/src/stm32f10x_flash.c ****   *        the following order: Bank2, followed by Bank1.
1166:../libraries/STM32F10x_StdPeriph_Driver/src/stm32f10x_flash.c ****   *        The active bank is recognized by the value programmed at the base address
1167:../libraries/STM32F10x_StdPeriph_Driver/src/stm32f10x_flash.c ****   *        of the respective bank (corresponding to the initial stack pointer value
1168:../libraries/STM32F10x_StdPeriph_Driver/src/stm32f10x_flash.c ****   *        in the interrupt vector table).
1169:../libraries/STM32F10x_StdPeriph_Driver/src/stm32f10x_flash.c ****   *        For more information, please refer to AN2606 from www.st.com.    
1170:../libraries/STM32F10x_StdPeriph_Driver/src/stm32f10x_flash.c ****   * @retval FLASH Status: The returned value can be: FLASH_ERROR_PG, 
1171:../libraries/STM32F10x_StdPeriph_Driver/src/stm32f10x_flash.c ****   *         FLASH_ERROR_WRP, FLASH_COMPLETE or FLASH_TIMEOUT.
1172:../libraries/STM32F10x_StdPeriph_Driver/src/stm32f10x_flash.c ****   */
1173:../libraries/STM32F10x_StdPeriph_Driver/src/stm32f10x_flash.c **** FLASH_Status FLASH_BootConfig(uint16_t FLASH_BOOT)
1174:../libraries/STM32F10x_StdPeriph_Driver/src/stm32f10x_flash.c **** { 
1175:../libraries/STM32F10x_StdPeriph_Driver/src/stm32f10x_flash.c ****   FLASH_Status status = FLASH_COMPLETE; 
1176:../libraries/STM32F10x_StdPeriph_Driver/src/stm32f10x_flash.c ****   assert_param(IS_FLASH_BOOT(FLASH_BOOT));
1177:../libraries/STM32F10x_StdPeriph_Driver/src/stm32f10x_flash.c ****   /* Authorize the small information block programming */
1178:../libraries/STM32F10x_StdPeriph_Driver/src/stm32f10x_flash.c ****   FLASH->OPTKEYR = FLASH_KEY1;
1179:../libraries/STM32F10x_StdPeriph_Driver/src/stm32f10x_flash.c ****   FLASH->OPTKEYR = FLASH_KEY2;
1180:../libraries/STM32F10x_StdPeriph_Driver/src/stm32f10x_flash.c ****   
1181:../libraries/STM32F10x_StdPeriph_Driver/src/stm32f10x_flash.c ****   /* Wait for last operation to be completed */
1182:../libraries/STM32F10x_StdPeriph_Driver/src/stm32f10x_flash.c ****   status = FLASH_WaitForLastOperation(ProgramTimeout);
1183:../libraries/STM32F10x_StdPeriph_Driver/src/stm32f10x_flash.c ****   
1184:../libraries/STM32F10x_StdPeriph_Driver/src/stm32f10x_flash.c ****   if(status == FLASH_COMPLETE)
1185:../libraries/STM32F10x_StdPeriph_Driver/src/stm32f10x_flash.c ****   {  
1186:../libraries/STM32F10x_StdPeriph_Driver/src/stm32f10x_flash.c ****     /* Enable the Option Bytes Programming operation */
1187:../libraries/STM32F10x_StdPeriph_Driver/src/stm32f10x_flash.c ****     FLASH->CR |= CR_OPTPG_Set; 
1188:../libraries/STM32F10x_StdPeriph_Driver/src/stm32f10x_flash.c **** 
1189:../libraries/STM32F10x_StdPeriph_Driver/src/stm32f10x_flash.c ****     if(FLASH_BOOT == FLASH_BOOT_Bank1)
1190:../libraries/STM32F10x_StdPeriph_Driver/src/stm32f10x_flash.c ****     {
1191:../libraries/STM32F10x_StdPeriph_Driver/src/stm32f10x_flash.c ****       OB->USER |= OB_USER_BFB2;
1192:../libraries/STM32F10x_StdPeriph_Driver/src/stm32f10x_flash.c ****     }
1193:../libraries/STM32F10x_StdPeriph_Driver/src/stm32f10x_flash.c ****     else
1194:../libraries/STM32F10x_StdPeriph_Driver/src/stm32f10x_flash.c ****     {
1195:../libraries/STM32F10x_StdPeriph_Driver/src/stm32f10x_flash.c ****       OB->USER &= (uint16_t)(~(uint16_t)(OB_USER_BFB2));
1196:../libraries/STM32F10x_StdPeriph_Driver/src/stm32f10x_flash.c ****     }
1197:../libraries/STM32F10x_StdPeriph_Driver/src/stm32f10x_flash.c ****     /* Wait for last operation to be completed */
1198:../libraries/STM32F10x_StdPeriph_Driver/src/stm32f10x_flash.c ****     status = FLASH_WaitForLastOperation(ProgramTimeout);
1199:../libraries/STM32F10x_StdPeriph_Driver/src/stm32f10x_flash.c ****     if(status != FLASH_TIMEOUT)
1200:../libraries/STM32F10x_StdPeriph_Driver/src/stm32f10x_flash.c ****     {
1201:../libraries/STM32F10x_StdPeriph_Driver/src/stm32f10x_flash.c ****       /* if the program operation is completed, disable the OPTPG Bit */
1202:../libraries/STM32F10x_StdPeriph_Driver/src/stm32f10x_flash.c ****       FLASH->CR &= CR_OPTPG_Reset;
1203:../libraries/STM32F10x_StdPeriph_Driver/src/stm32f10x_flash.c ****     }
1204:../libraries/STM32F10x_StdPeriph_Driver/src/stm32f10x_flash.c ****   }    
1205:../libraries/STM32F10x_StdPeriph_Driver/src/stm32f10x_flash.c ****   /* Return the Option Byte program Status */
1206:../libraries/STM32F10x_StdPeriph_Driver/src/stm32f10x_flash.c ****   return status;
1207:../libraries/STM32F10x_StdPeriph_Driver/src/stm32f10x_flash.c **** }
1208:../libraries/STM32F10x_StdPeriph_Driver/src/stm32f10x_flash.c **** #endif /* STM32F10X_XL */
1209:../libraries/STM32F10x_StdPeriph_Driver/src/stm32f10x_flash.c **** 
1210:../libraries/STM32F10x_StdPeriph_Driver/src/stm32f10x_flash.c **** /**
1211:../libraries/STM32F10x_StdPeriph_Driver/src/stm32f10x_flash.c ****   * @brief  Returns the FLASH User Option Bytes values.
1212:../libraries/STM32F10x_StdPeriph_Driver/src/stm32f10x_flash.c ****   * @note   This function can be used for all STM32F10x devices.
1213:../libraries/STM32F10x_StdPeriph_Driver/src/stm32f10x_flash.c ****   * @param  None
1214:../libraries/STM32F10x_StdPeriph_Driver/src/stm32f10x_flash.c ****   * @retval The FLASH User Option Bytes values:IWDG_SW(Bit0), RST_STOP(Bit1)
1215:../libraries/STM32F10x_StdPeriph_Driver/src/stm32f10x_flash.c ****   *         and RST_STDBY(Bit2).
1216:../libraries/STM32F10x_StdPeriph_Driver/src/stm32f10x_flash.c ****   */
1217:../libraries/STM32F10x_StdPeriph_Driver/src/stm32f10x_flash.c **** uint32_t FLASH_GetUserOptionByte(void)
1218:../libraries/STM32F10x_StdPeriph_Driver/src/stm32f10x_flash.c **** {
 239              		.loc 1 1218 0
 240              		.cfi_startproc
 241              		@ args = 0, pretend = 0, frame = 0
 242              		@ frame_needed = 0, uses_anonymous_args = 0
 243              		@ link register save eliminated.
1219:../libraries/STM32F10x_StdPeriph_Driver/src/stm32f10x_flash.c ****   /* Return the User Option Byte */
1220:../libraries/STM32F10x_StdPeriph_Driver/src/stm32f10x_flash.c ****   return (uint32_t)(FLASH->OBR >> 2);
 244              		.loc 1 1220 0
 245 0000 014B     		ldr	r3, .L23
 246 0002 D869     		ldr	r0, [r3, #28]
1221:../libraries/STM32F10x_StdPeriph_Driver/src/stm32f10x_flash.c **** }
 247              		.loc 1 1221 0
 248 0004 8008     		lsrs	r0, r0, #2
 249 0006 7047     		bx	lr
 250              	.L24:
 251              		.align	2
 252              	.L23:
 253 0008 00200240 		.word	1073881088
 254              		.cfi_endproc
 255              	.LFE73:
 257              		.section	.text.FLASH_GetWriteProtectionOptionByte,"ax",%progbits
 258              		.align	1
 259              		.global	FLASH_GetWriteProtectionOptionByte
 260              		.thumb
 261              		.thumb_func
 263              	FLASH_GetWriteProtectionOptionByte:
 264              	.LFB74:
1222:../libraries/STM32F10x_StdPeriph_Driver/src/stm32f10x_flash.c **** 
1223:../libraries/STM32F10x_StdPeriph_Driver/src/stm32f10x_flash.c **** /**
1224:../libraries/STM32F10x_StdPeriph_Driver/src/stm32f10x_flash.c ****   * @brief  Returns the FLASH Write Protection Option Bytes Register value.
1225:../libraries/STM32F10x_StdPeriph_Driver/src/stm32f10x_flash.c ****   * @note   This function can be used for all STM32F10x devices.
1226:../libraries/STM32F10x_StdPeriph_Driver/src/stm32f10x_flash.c ****   * @param  None
1227:../libraries/STM32F10x_StdPeriph_Driver/src/stm32f10x_flash.c ****   * @retval The FLASH Write Protection  Option Bytes Register value
1228:../libraries/STM32F10x_StdPeriph_Driver/src/stm32f10x_flash.c ****   */
1229:../libraries/STM32F10x_StdPeriph_Driver/src/stm32f10x_flash.c **** uint32_t FLASH_GetWriteProtectionOptionByte(void)
1230:../libraries/STM32F10x_StdPeriph_Driver/src/stm32f10x_flash.c **** {
 265              		.loc 1 1230 0
 266              		.cfi_startproc
 267              		@ args = 0, pretend = 0, frame = 0
 268              		@ frame_needed = 0, uses_anonymous_args = 0
 269              		@ link register save eliminated.
1231:../libraries/STM32F10x_StdPeriph_Driver/src/stm32f10x_flash.c ****   /* Return the Flash write protection Register value */
1232:../libraries/STM32F10x_StdPeriph_Driver/src/stm32f10x_flash.c ****   return (uint32_t)(FLASH->WRPR);
 270              		.loc 1 1232 0
 271 0000 014B     		ldr	r3, .L26
 272 0002 186A     		ldr	r0, [r3, #32]
1233:../libraries/STM32F10x_StdPeriph_Driver/src/stm32f10x_flash.c **** }
 273              		.loc 1 1233 0
 274 0004 7047     		bx	lr
 275              	.L27:
 276 0006 00BF     		.align	2
 277              	.L26:
 278 0008 00200240 		.word	1073881088
 279              		.cfi_endproc
 280              	.LFE74:
 282              		.section	.text.FLASH_GetReadOutProtectionStatus,"ax",%progbits
 283              		.align	1
 284              		.global	FLASH_GetReadOutProtectionStatus
 285              		.thumb
 286              		.thumb_func
 288              	FLASH_GetReadOutProtectionStatus:
 289              	.LFB75:
1234:../libraries/STM32F10x_StdPeriph_Driver/src/stm32f10x_flash.c **** 
1235:../libraries/STM32F10x_StdPeriph_Driver/src/stm32f10x_flash.c **** /**
1236:../libraries/STM32F10x_StdPeriph_Driver/src/stm32f10x_flash.c ****   * @brief  Checks whether the FLASH Read Out Protection Status is set or not.
1237:../libraries/STM32F10x_StdPeriph_Driver/src/stm32f10x_flash.c ****   * @note   This function can be used for all STM32F10x devices.
1238:../libraries/STM32F10x_StdPeriph_Driver/src/stm32f10x_flash.c ****   * @param  None
1239:../libraries/STM32F10x_StdPeriph_Driver/src/stm32f10x_flash.c ****   * @retval FLASH ReadOut Protection Status(SET or RESET)
1240:../libraries/STM32F10x_StdPeriph_Driver/src/stm32f10x_flash.c ****   */
1241:../libraries/STM32F10x_StdPeriph_Driver/src/stm32f10x_flash.c **** FlagStatus FLASH_GetReadOutProtectionStatus(void)
1242:../libraries/STM32F10x_StdPeriph_Driver/src/stm32f10x_flash.c **** {
 290              		.loc 1 1242 0
 291              		.cfi_startproc
 292              		@ args = 0, pretend = 0, frame = 0
 293              		@ frame_needed = 0, uses_anonymous_args = 0
 294              		@ link register save eliminated.
 295              	.LVL8:
1243:../libraries/STM32F10x_StdPeriph_Driver/src/stm32f10x_flash.c ****   FlagStatus readoutstatus = RESET;
1244:../libraries/STM32F10x_StdPeriph_Driver/src/stm32f10x_flash.c ****   if ((FLASH->OBR & RDPRT_Mask) != (uint32_t)RESET)
 296              		.loc 1 1244 0
 297 0000 024B     		ldr	r3, .L29
 298 0002 D869     		ldr	r0, [r3, #28]
 299              	.LVL9:
1245:../libraries/STM32F10x_StdPeriph_Driver/src/stm32f10x_flash.c ****   {
1246:../libraries/STM32F10x_StdPeriph_Driver/src/stm32f10x_flash.c ****     readoutstatus = SET;
1247:../libraries/STM32F10x_StdPeriph_Driver/src/stm32f10x_flash.c ****   }
1248:../libraries/STM32F10x_StdPeriph_Driver/src/stm32f10x_flash.c ****   else
1249:../libraries/STM32F10x_StdPeriph_Driver/src/stm32f10x_flash.c ****   {
1250:../libraries/STM32F10x_StdPeriph_Driver/src/stm32f10x_flash.c ****     readoutstatus = RESET;
1251:../libraries/STM32F10x_StdPeriph_Driver/src/stm32f10x_flash.c ****   }
1252:../libraries/STM32F10x_StdPeriph_Driver/src/stm32f10x_flash.c ****   return readoutstatus;
1253:../libraries/STM32F10x_StdPeriph_Driver/src/stm32f10x_flash.c **** }
 300              		.loc 1 1253 0
 301 0004 C0F34000 		ubfx	r0, r0, #1, #1
 302              	.LVL10:
 303 0008 7047     		bx	lr
 304              	.L30:
 305 000a 00BF     		.align	2
 306              	.L29:
 307 000c 00200240 		.word	1073881088
 308              		.cfi_endproc
 309              	.LFE75:
 311              		.section	.text.FLASH_GetPrefetchBufferStatus,"ax",%progbits
 312              		.align	1
 313              		.global	FLASH_GetPrefetchBufferStatus
 314              		.thumb
 315              		.thumb_func
 317              	FLASH_GetPrefetchBufferStatus:
 318              	.LFB76:
1254:../libraries/STM32F10x_StdPeriph_Driver/src/stm32f10x_flash.c **** 
1255:../libraries/STM32F10x_StdPeriph_Driver/src/stm32f10x_flash.c **** /**
1256:../libraries/STM32F10x_StdPeriph_Driver/src/stm32f10x_flash.c ****   * @brief  Checks whether the FLASH Prefetch Buffer status is set or not.
1257:../libraries/STM32F10x_StdPeriph_Driver/src/stm32f10x_flash.c ****   * @note   This function can be used for all STM32F10x devices.
1258:../libraries/STM32F10x_StdPeriph_Driver/src/stm32f10x_flash.c ****   * @param  None
1259:../libraries/STM32F10x_StdPeriph_Driver/src/stm32f10x_flash.c ****   * @retval FLASH Prefetch Buffer Status (SET or RESET).
1260:../libraries/STM32F10x_StdPeriph_Driver/src/stm32f10x_flash.c ****   */
1261:../libraries/STM32F10x_StdPeriph_Driver/src/stm32f10x_flash.c **** FlagStatus FLASH_GetPrefetchBufferStatus(void)
1262:../libraries/STM32F10x_StdPeriph_Driver/src/stm32f10x_flash.c **** {
 319              		.loc 1 1262 0
 320              		.cfi_startproc
 321              		@ args = 0, pretend = 0, frame = 0
 322              		@ frame_needed = 0, uses_anonymous_args = 0
 323              		@ link register save eliminated.
 324              	.LVL11:
1263:../libraries/STM32F10x_StdPeriph_Driver/src/stm32f10x_flash.c ****   FlagStatus bitstatus = RESET;
1264:../libraries/STM32F10x_StdPeriph_Driver/src/stm32f10x_flash.c ****   
1265:../libraries/STM32F10x_StdPeriph_Driver/src/stm32f10x_flash.c ****   if ((FLASH->ACR & ACR_PRFTBS_Mask) != (uint32_t)RESET)
 325              		.loc 1 1265 0
 326 0000 024B     		ldr	r3, .L32
 327 0002 1868     		ldr	r0, [r3, #0]
 328              	.LVL12:
1266:../libraries/STM32F10x_StdPeriph_Driver/src/stm32f10x_flash.c ****   {
1267:../libraries/STM32F10x_StdPeriph_Driver/src/stm32f10x_flash.c ****     bitstatus = SET;
1268:../libraries/STM32F10x_StdPeriph_Driver/src/stm32f10x_flash.c ****   }
1269:../libraries/STM32F10x_StdPeriph_Driver/src/stm32f10x_flash.c ****   else
1270:../libraries/STM32F10x_StdPeriph_Driver/src/stm32f10x_flash.c ****   {
1271:../libraries/STM32F10x_StdPeriph_Driver/src/stm32f10x_flash.c ****     bitstatus = RESET;
1272:../libraries/STM32F10x_StdPeriph_Driver/src/stm32f10x_flash.c ****   }
1273:../libraries/STM32F10x_StdPeriph_Driver/src/stm32f10x_flash.c ****   /* Return the new state of FLASH Prefetch Buffer Status (SET or RESET) */
1274:../libraries/STM32F10x_StdPeriph_Driver/src/stm32f10x_flash.c ****   return bitstatus; 
1275:../libraries/STM32F10x_StdPeriph_Driver/src/stm32f10x_flash.c **** }
 329              		.loc 1 1275 0
 330 0004 C0F34010 		ubfx	r0, r0, #5, #1
 331              	.LVL13:
 332 0008 7047     		bx	lr
 333              	.L33:
 334 000a 00BF     		.align	2
 335              	.L32:
 336 000c 00200240 		.word	1073881088
 337              		.cfi_endproc
 338              	.LFE76:
 340              		.section	.text.FLASH_ITConfig,"ax",%progbits
 341              		.align	1
 342              		.global	FLASH_ITConfig
 343              		.thumb
 344              		.thumb_func
 346              	FLASH_ITConfig:
 347              	.LFB77:
1276:../libraries/STM32F10x_StdPeriph_Driver/src/stm32f10x_flash.c **** 
1277:../libraries/STM32F10x_StdPeriph_Driver/src/stm32f10x_flash.c **** /**
1278:../libraries/STM32F10x_StdPeriph_Driver/src/stm32f10x_flash.c ****   * @brief  Enables or disables the specified FLASH interrupts.
1279:../libraries/STM32F10x_StdPeriph_Driver/src/stm32f10x_flash.c ****   * @note   This function can be used for all STM32F10x devices.
1280:../libraries/STM32F10x_StdPeriph_Driver/src/stm32f10x_flash.c ****   *         - For STM32F10X_XL devices, enables or disables the specified FLASH interrupts
1281:../libraries/STM32F10x_StdPeriph_Driver/src/stm32f10x_flash.c ****               for Bank1 and Bank2.
1282:../libraries/STM32F10x_StdPeriph_Driver/src/stm32f10x_flash.c ****   *         - For other devices it enables or disables the specified FLASH interrupts for Bank1.
1283:../libraries/STM32F10x_StdPeriph_Driver/src/stm32f10x_flash.c ****   * @param  FLASH_IT: specifies the FLASH interrupt sources to be enabled or disabled.
1284:../libraries/STM32F10x_StdPeriph_Driver/src/stm32f10x_flash.c ****   *   This parameter can be any combination of the following values:
1285:../libraries/STM32F10x_StdPeriph_Driver/src/stm32f10x_flash.c ****   *     @arg FLASH_IT_ERROR: FLASH Error Interrupt
1286:../libraries/STM32F10x_StdPeriph_Driver/src/stm32f10x_flash.c ****   *     @arg FLASH_IT_EOP: FLASH end of operation Interrupt
1287:../libraries/STM32F10x_StdPeriph_Driver/src/stm32f10x_flash.c ****   * @param  NewState: new state of the specified Flash interrupts.
1288:../libraries/STM32F10x_StdPeriph_Driver/src/stm32f10x_flash.c ****   *   This parameter can be: ENABLE or DISABLE.      
1289:../libraries/STM32F10x_StdPeriph_Driver/src/stm32f10x_flash.c ****   * @retval None 
1290:../libraries/STM32F10x_StdPeriph_Driver/src/stm32f10x_flash.c ****   */
1291:../libraries/STM32F10x_StdPeriph_Driver/src/stm32f10x_flash.c **** void FLASH_ITConfig(uint32_t FLASH_IT, FunctionalState NewState)
1292:../libraries/STM32F10x_StdPeriph_Driver/src/stm32f10x_flash.c **** {
 348              		.loc 1 1292 0
 349              		.cfi_startproc
 350              		@ args = 0, pretend = 0, frame = 0
 351              		@ frame_needed = 0, uses_anonymous_args = 0
 352              		@ link register save eliminated.
 353              	.LVL14:
 354 0000 044B     		ldr	r3, .L39
1293:../libraries/STM32F10x_StdPeriph_Driver/src/stm32f10x_flash.c **** #ifdef STM32F10X_XL
1294:../libraries/STM32F10x_StdPeriph_Driver/src/stm32f10x_flash.c ****   /* Check the parameters */
1295:../libraries/STM32F10x_StdPeriph_Driver/src/stm32f10x_flash.c ****   assert_param(IS_FLASH_IT(FLASH_IT)); 
1296:../libraries/STM32F10x_StdPeriph_Driver/src/stm32f10x_flash.c ****   assert_param(IS_FUNCTIONAL_STATE(NewState));
1297:../libraries/STM32F10x_StdPeriph_Driver/src/stm32f10x_flash.c **** 
1298:../libraries/STM32F10x_StdPeriph_Driver/src/stm32f10x_flash.c ****   if((FLASH_IT & 0x80000000) != 0x0)
1299:../libraries/STM32F10x_StdPeriph_Driver/src/stm32f10x_flash.c ****   {
1300:../libraries/STM32F10x_StdPeriph_Driver/src/stm32f10x_flash.c ****     if(NewState != DISABLE)
1301:../libraries/STM32F10x_StdPeriph_Driver/src/stm32f10x_flash.c ****     {
1302:../libraries/STM32F10x_StdPeriph_Driver/src/stm32f10x_flash.c ****       /* Enable the interrupt sources */
1303:../libraries/STM32F10x_StdPeriph_Driver/src/stm32f10x_flash.c ****       FLASH->CR2 |= (FLASH_IT & 0x7FFFFFFF);
1304:../libraries/STM32F10x_StdPeriph_Driver/src/stm32f10x_flash.c ****     }
1305:../libraries/STM32F10x_StdPeriph_Driver/src/stm32f10x_flash.c ****     else
1306:../libraries/STM32F10x_StdPeriph_Driver/src/stm32f10x_flash.c ****     {
1307:../libraries/STM32F10x_StdPeriph_Driver/src/stm32f10x_flash.c ****       /* Disable the interrupt sources */
1308:../libraries/STM32F10x_StdPeriph_Driver/src/stm32f10x_flash.c ****       FLASH->CR2 &= ~(uint32_t)(FLASH_IT & 0x7FFFFFFF);
1309:../libraries/STM32F10x_StdPeriph_Driver/src/stm32f10x_flash.c ****     }
1310:../libraries/STM32F10x_StdPeriph_Driver/src/stm32f10x_flash.c ****   }
1311:../libraries/STM32F10x_StdPeriph_Driver/src/stm32f10x_flash.c ****   else
1312:../libraries/STM32F10x_StdPeriph_Driver/src/stm32f10x_flash.c ****   {
1313:../libraries/STM32F10x_StdPeriph_Driver/src/stm32f10x_flash.c ****     if(NewState != DISABLE)
1314:../libraries/STM32F10x_StdPeriph_Driver/src/stm32f10x_flash.c ****     {
1315:../libraries/STM32F10x_StdPeriph_Driver/src/stm32f10x_flash.c ****       /* Enable the interrupt sources */
1316:../libraries/STM32F10x_StdPeriph_Driver/src/stm32f10x_flash.c ****       FLASH->CR |= FLASH_IT;
1317:../libraries/STM32F10x_StdPeriph_Driver/src/stm32f10x_flash.c ****     }
1318:../libraries/STM32F10x_StdPeriph_Driver/src/stm32f10x_flash.c ****     else
1319:../libraries/STM32F10x_StdPeriph_Driver/src/stm32f10x_flash.c ****     {
1320:../libraries/STM32F10x_StdPeriph_Driver/src/stm32f10x_flash.c ****       /* Disable the interrupt sources */
1321:../libraries/STM32F10x_StdPeriph_Driver/src/stm32f10x_flash.c ****       FLASH->CR &= ~(uint32_t)FLASH_IT;
1322:../libraries/STM32F10x_StdPeriph_Driver/src/stm32f10x_flash.c ****     }
1323:../libraries/STM32F10x_StdPeriph_Driver/src/stm32f10x_flash.c ****   }
1324:../libraries/STM32F10x_StdPeriph_Driver/src/stm32f10x_flash.c **** #else
1325:../libraries/STM32F10x_StdPeriph_Driver/src/stm32f10x_flash.c ****   /* Check the parameters */
1326:../libraries/STM32F10x_StdPeriph_Driver/src/stm32f10x_flash.c ****   assert_param(IS_FLASH_IT(FLASH_IT)); 
1327:../libraries/STM32F10x_StdPeriph_Driver/src/stm32f10x_flash.c ****   assert_param(IS_FUNCTIONAL_STATE(NewState));
1328:../libraries/STM32F10x_StdPeriph_Driver/src/stm32f10x_flash.c **** 
1329:../libraries/STM32F10x_StdPeriph_Driver/src/stm32f10x_flash.c ****   if(NewState != DISABLE)
1330:../libraries/STM32F10x_StdPeriph_Driver/src/stm32f10x_flash.c ****   {
1331:../libraries/STM32F10x_StdPeriph_Driver/src/stm32f10x_flash.c ****     /* Enable the interrupt sources */
1332:../libraries/STM32F10x_StdPeriph_Driver/src/stm32f10x_flash.c ****     FLASH->CR |= FLASH_IT;
 355              		.loc 1 1332 0
 356 0002 1A69     		ldr	r2, [r3, #16]
1329:../libraries/STM32F10x_StdPeriph_Driver/src/stm32f10x_flash.c ****   if(NewState != DISABLE)
 357              		.loc 1 1329 0
 358 0004 09B1     		cbz	r1, .L35
 359              		.loc 1 1332 0
 360 0006 1043     		orrs	r0, r0, r2
 361              	.LVL15:
 362 0008 01E0     		b	.L37
 363              	.LVL16:
 364              	.L35:
1333:../libraries/STM32F10x_StdPeriph_Driver/src/stm32f10x_flash.c ****   }
1334:../libraries/STM32F10x_StdPeriph_Driver/src/stm32f10x_flash.c ****   else
1335:../libraries/STM32F10x_StdPeriph_Driver/src/stm32f10x_flash.c ****   {
1336:../libraries/STM32F10x_StdPeriph_Driver/src/stm32f10x_flash.c ****     /* Disable the interrupt sources */
1337:../libraries/STM32F10x_StdPeriph_Driver/src/stm32f10x_flash.c ****     FLASH->CR &= ~(uint32_t)FLASH_IT;
 365              		.loc 1 1337 0
 366 000a 22EA0000 		bic	r0, r2, r0
 367              	.LVL17:
 368              	.L37:
 369 000e 1861     		str	r0, [r3, #16]
 370 0010 7047     		bx	lr
 371              	.L40:
 372 0012 00BF     		.align	2
 373              	.L39:
 374 0014 00200240 		.word	1073881088
 375              		.cfi_endproc
 376              	.LFE77:
 378              		.section	.text.FLASH_GetFlagStatus,"ax",%progbits
 379              		.align	1
 380              		.global	FLASH_GetFlagStatus
 381              		.thumb
 382              		.thumb_func
 384              	FLASH_GetFlagStatus:
 385              	.LFB78:
1338:../libraries/STM32F10x_StdPeriph_Driver/src/stm32f10x_flash.c ****   }
1339:../libraries/STM32F10x_StdPeriph_Driver/src/stm32f10x_flash.c **** #endif /* STM32F10X_XL */
1340:../libraries/STM32F10x_StdPeriph_Driver/src/stm32f10x_flash.c **** }
1341:../libraries/STM32F10x_StdPeriph_Driver/src/stm32f10x_flash.c **** 
1342:../libraries/STM32F10x_StdPeriph_Driver/src/stm32f10x_flash.c **** /**
1343:../libraries/STM32F10x_StdPeriph_Driver/src/stm32f10x_flash.c ****   * @brief  Checks whether the specified FLASH flag is set or not.
1344:../libraries/STM32F10x_StdPeriph_Driver/src/stm32f10x_flash.c ****   * @note   This function can be used for all STM32F10x devices.
1345:../libraries/STM32F10x_StdPeriph_Driver/src/stm32f10x_flash.c ****   *         - For STM32F10X_XL devices, this function checks whether the specified 
1346:../libraries/STM32F10x_StdPeriph_Driver/src/stm32f10x_flash.c ****   *           Bank1 or Bank2 flag is set or not.
1347:../libraries/STM32F10x_StdPeriph_Driver/src/stm32f10x_flash.c ****   *         - For other devices, it checks whether the specified Bank1 flag is 
1348:../libraries/STM32F10x_StdPeriph_Driver/src/stm32f10x_flash.c ****   *           set or not.
1349:../libraries/STM32F10x_StdPeriph_Driver/src/stm32f10x_flash.c ****   * @param  FLASH_FLAG: specifies the FLASH flag to check.
1350:../libraries/STM32F10x_StdPeriph_Driver/src/stm32f10x_flash.c ****   *   This parameter can be one of the following values:
1351:../libraries/STM32F10x_StdPeriph_Driver/src/stm32f10x_flash.c ****   *     @arg FLASH_FLAG_BSY: FLASH Busy flag           
1352:../libraries/STM32F10x_StdPeriph_Driver/src/stm32f10x_flash.c ****   *     @arg FLASH_FLAG_PGERR: FLASH Program error flag       
1353:../libraries/STM32F10x_StdPeriph_Driver/src/stm32f10x_flash.c ****   *     @arg FLASH_FLAG_WRPRTERR: FLASH Write protected error flag      
1354:../libraries/STM32F10x_StdPeriph_Driver/src/stm32f10x_flash.c ****   *     @arg FLASH_FLAG_EOP: FLASH End of Operation flag           
1355:../libraries/STM32F10x_StdPeriph_Driver/src/stm32f10x_flash.c ****   *     @arg FLASH_FLAG_OPTERR:  FLASH Option Byte error flag     
1356:../libraries/STM32F10x_StdPeriph_Driver/src/stm32f10x_flash.c ****   * @retval The new state of FLASH_FLAG (SET or RESET).
1357:../libraries/STM32F10x_StdPeriph_Driver/src/stm32f10x_flash.c ****   */
1358:../libraries/STM32F10x_StdPeriph_Driver/src/stm32f10x_flash.c **** FlagStatus FLASH_GetFlagStatus(uint32_t FLASH_FLAG)
1359:../libraries/STM32F10x_StdPeriph_Driver/src/stm32f10x_flash.c **** {
 386              		.loc 1 1359 0
 387              		.cfi_startproc
 388              		@ args = 0, pretend = 0, frame = 0
 389              		@ frame_needed = 0, uses_anonymous_args = 0
 390              		@ link register save eliminated.
 391              	.LVL18:
1360:../libraries/STM32F10x_StdPeriph_Driver/src/stm32f10x_flash.c ****   FlagStatus bitstatus = RESET;
1361:../libraries/STM32F10x_StdPeriph_Driver/src/stm32f10x_flash.c **** 
1362:../libraries/STM32F10x_StdPeriph_Driver/src/stm32f10x_flash.c **** #ifdef STM32F10X_XL
1363:../libraries/STM32F10x_StdPeriph_Driver/src/stm32f10x_flash.c ****   /* Check the parameters */
1364:../libraries/STM32F10x_StdPeriph_Driver/src/stm32f10x_flash.c ****   assert_param(IS_FLASH_GET_FLAG(FLASH_FLAG)) ;
1365:../libraries/STM32F10x_StdPeriph_Driver/src/stm32f10x_flash.c ****   if(FLASH_FLAG == FLASH_FLAG_OPTERR) 
1366:../libraries/STM32F10x_StdPeriph_Driver/src/stm32f10x_flash.c ****   {
1367:../libraries/STM32F10x_StdPeriph_Driver/src/stm32f10x_flash.c ****     if((FLASH->OBR & FLASH_FLAG_OPTERR) != (uint32_t)RESET)
1368:../libraries/STM32F10x_StdPeriph_Driver/src/stm32f10x_flash.c ****     {
1369:../libraries/STM32F10x_StdPeriph_Driver/src/stm32f10x_flash.c ****       bitstatus = SET;
1370:../libraries/STM32F10x_StdPeriph_Driver/src/stm32f10x_flash.c ****     }
1371:../libraries/STM32F10x_StdPeriph_Driver/src/stm32f10x_flash.c ****     else
1372:../libraries/STM32F10x_StdPeriph_Driver/src/stm32f10x_flash.c ****     {
1373:../libraries/STM32F10x_StdPeriph_Driver/src/stm32f10x_flash.c ****       bitstatus = RESET;
1374:../libraries/STM32F10x_StdPeriph_Driver/src/stm32f10x_flash.c ****     }
1375:../libraries/STM32F10x_StdPeriph_Driver/src/stm32f10x_flash.c ****   }
1376:../libraries/STM32F10x_StdPeriph_Driver/src/stm32f10x_flash.c ****   else
1377:../libraries/STM32F10x_StdPeriph_Driver/src/stm32f10x_flash.c ****   {
1378:../libraries/STM32F10x_StdPeriph_Driver/src/stm32f10x_flash.c ****     if((FLASH_FLAG & 0x80000000) != 0x0)
1379:../libraries/STM32F10x_StdPeriph_Driver/src/stm32f10x_flash.c ****     {
1380:../libraries/STM32F10x_StdPeriph_Driver/src/stm32f10x_flash.c ****       if((FLASH->SR2 & FLASH_FLAG) != (uint32_t)RESET)
1381:../libraries/STM32F10x_StdPeriph_Driver/src/stm32f10x_flash.c ****       {
1382:../libraries/STM32F10x_StdPeriph_Driver/src/stm32f10x_flash.c ****         bitstatus = SET;
1383:../libraries/STM32F10x_StdPeriph_Driver/src/stm32f10x_flash.c ****       }
1384:../libraries/STM32F10x_StdPeriph_Driver/src/stm32f10x_flash.c ****       else
1385:../libraries/STM32F10x_StdPeriph_Driver/src/stm32f10x_flash.c ****       {
1386:../libraries/STM32F10x_StdPeriph_Driver/src/stm32f10x_flash.c ****         bitstatus = RESET;
1387:../libraries/STM32F10x_StdPeriph_Driver/src/stm32f10x_flash.c ****       }
1388:../libraries/STM32F10x_StdPeriph_Driver/src/stm32f10x_flash.c ****     }
1389:../libraries/STM32F10x_StdPeriph_Driver/src/stm32f10x_flash.c ****     else
1390:../libraries/STM32F10x_StdPeriph_Driver/src/stm32f10x_flash.c ****     {
1391:../libraries/STM32F10x_StdPeriph_Driver/src/stm32f10x_flash.c ****       if((FLASH->SR & FLASH_FLAG) != (uint32_t)RESET)
1392:../libraries/STM32F10x_StdPeriph_Driver/src/stm32f10x_flash.c ****       {
1393:../libraries/STM32F10x_StdPeriph_Driver/src/stm32f10x_flash.c ****         bitstatus = SET;
1394:../libraries/STM32F10x_StdPeriph_Driver/src/stm32f10x_flash.c ****       }
1395:../libraries/STM32F10x_StdPeriph_Driver/src/stm32f10x_flash.c ****       else
1396:../libraries/STM32F10x_StdPeriph_Driver/src/stm32f10x_flash.c ****       {
1397:../libraries/STM32F10x_StdPeriph_Driver/src/stm32f10x_flash.c ****         bitstatus = RESET;
1398:../libraries/STM32F10x_StdPeriph_Driver/src/stm32f10x_flash.c ****       }
1399:../libraries/STM32F10x_StdPeriph_Driver/src/stm32f10x_flash.c ****     }
1400:../libraries/STM32F10x_StdPeriph_Driver/src/stm32f10x_flash.c ****   }
1401:../libraries/STM32F10x_StdPeriph_Driver/src/stm32f10x_flash.c **** #else
1402:../libraries/STM32F10x_StdPeriph_Driver/src/stm32f10x_flash.c ****   /* Check the parameters */
1403:../libraries/STM32F10x_StdPeriph_Driver/src/stm32f10x_flash.c ****   assert_param(IS_FLASH_GET_FLAG(FLASH_FLAG)) ;
1404:../libraries/STM32F10x_StdPeriph_Driver/src/stm32f10x_flash.c ****   if(FLASH_FLAG == FLASH_FLAG_OPTERR) 
 392              		.loc 1 1404 0
 393 0000 0128     		cmp	r0, #1
 394 0002 064B     		ldr	r3, .L44
 395 0004 03D1     		bne	.L42
1405:../libraries/STM32F10x_StdPeriph_Driver/src/stm32f10x_flash.c ****   {
1406:../libraries/STM32F10x_StdPeriph_Driver/src/stm32f10x_flash.c ****     if((FLASH->OBR & FLASH_FLAG_OPTERR) != (uint32_t)RESET)
 396              		.loc 1 1406 0
 397 0006 D869     		ldr	r0, [r3, #28]
 398              	.LVL19:
1407:../libraries/STM32F10x_StdPeriph_Driver/src/stm32f10x_flash.c ****     {
1408:../libraries/STM32F10x_StdPeriph_Driver/src/stm32f10x_flash.c ****       bitstatus = SET;
1409:../libraries/STM32F10x_StdPeriph_Driver/src/stm32f10x_flash.c ****     }
1410:../libraries/STM32F10x_StdPeriph_Driver/src/stm32f10x_flash.c ****     else
1411:../libraries/STM32F10x_StdPeriph_Driver/src/stm32f10x_flash.c ****     {
1412:../libraries/STM32F10x_StdPeriph_Driver/src/stm32f10x_flash.c ****       bitstatus = RESET;
 399              		.loc 1 1412 0
 400 0008 00F00100 		and	r0, r0, #1
 401 000c 7047     		bx	lr
 402              	.LVL20:
 403              	.L42:
1413:../libraries/STM32F10x_StdPeriph_Driver/src/stm32f10x_flash.c ****     }
1414:../libraries/STM32F10x_StdPeriph_Driver/src/stm32f10x_flash.c ****   }
1415:../libraries/STM32F10x_StdPeriph_Driver/src/stm32f10x_flash.c ****   else
1416:../libraries/STM32F10x_StdPeriph_Driver/src/stm32f10x_flash.c ****   {
1417:../libraries/STM32F10x_StdPeriph_Driver/src/stm32f10x_flash.c ****    if((FLASH->SR & FLASH_FLAG) != (uint32_t)RESET)
 404              		.loc 1 1417 0
 405 000e D968     		ldr	r1, [r3, #12]
 406 0010 0842     		tst	r0, r1
1412:../libraries/STM32F10x_StdPeriph_Driver/src/stm32f10x_flash.c ****       bitstatus = RESET;
 407              		.loc 1 1412 0
 408 0012 0CBF     		ite	eq
 409 0014 0020     		moveq	r0, #0
 410 0016 0120     		movne	r0, #1
 411              	.LVL21:
1418:../libraries/STM32F10x_StdPeriph_Driver/src/stm32f10x_flash.c ****     {
1419:../libraries/STM32F10x_StdPeriph_Driver/src/stm32f10x_flash.c ****       bitstatus = SET;
1420:../libraries/STM32F10x_StdPeriph_Driver/src/stm32f10x_flash.c ****     }
1421:../libraries/STM32F10x_StdPeriph_Driver/src/stm32f10x_flash.c ****     else
1422:../libraries/STM32F10x_StdPeriph_Driver/src/stm32f10x_flash.c ****     {
1423:../libraries/STM32F10x_StdPeriph_Driver/src/stm32f10x_flash.c ****       bitstatus = RESET;
1424:../libraries/STM32F10x_StdPeriph_Driver/src/stm32f10x_flash.c ****     }
1425:../libraries/STM32F10x_StdPeriph_Driver/src/stm32f10x_flash.c ****   }
1426:../libraries/STM32F10x_StdPeriph_Driver/src/stm32f10x_flash.c **** #endif /* STM32F10X_XL */
1427:../libraries/STM32F10x_StdPeriph_Driver/src/stm32f10x_flash.c **** 
1428:../libraries/STM32F10x_StdPeriph_Driver/src/stm32f10x_flash.c ****   /* Return the new state of FLASH_FLAG (SET or RESET) */
1429:../libraries/STM32F10x_StdPeriph_Driver/src/stm32f10x_flash.c ****   return bitstatus;
1430:../libraries/STM32F10x_StdPeriph_Driver/src/stm32f10x_flash.c **** }
 412              		.loc 1 1430 0
 413 0018 7047     		bx	lr
 414              	.L45:
 415 001a 00BF     		.align	2
 416              	.L44:
 417 001c 00200240 		.word	1073881088
 418              		.cfi_endproc
 419              	.LFE78:
 421              		.section	.text.FLASH_ClearFlag,"ax",%progbits
 422              		.align	1
 423              		.global	FLASH_ClearFlag
 424              		.thumb
 425              		.thumb_func
 427              	FLASH_ClearFlag:
 428              	.LFB79:
1431:../libraries/STM32F10x_StdPeriph_Driver/src/stm32f10x_flash.c **** 
1432:../libraries/STM32F10x_StdPeriph_Driver/src/stm32f10x_flash.c **** /**
1433:../libraries/STM32F10x_StdPeriph_Driver/src/stm32f10x_flash.c ****   * @brief  Clears the FLASH's pending flags.
1434:../libraries/STM32F10x_StdPeriph_Driver/src/stm32f10x_flash.c ****   * @note   This function can be used for all STM32F10x devices.
1435:../libraries/STM32F10x_StdPeriph_Driver/src/stm32f10x_flash.c ****   *         - For STM32F10X_XL devices, this function clears Bank1 or Bank2s pending flags
1436:../libraries/STM32F10x_StdPeriph_Driver/src/stm32f10x_flash.c ****   *         - For other devices, it clears Bank1s pending flags.
1437:../libraries/STM32F10x_StdPeriph_Driver/src/stm32f10x_flash.c ****   * @param  FLASH_FLAG: specifies the FLASH flags to clear.
1438:../libraries/STM32F10x_StdPeriph_Driver/src/stm32f10x_flash.c ****   *   This parameter can be any combination of the following values:         
1439:../libraries/STM32F10x_StdPeriph_Driver/src/stm32f10x_flash.c ****   *     @arg FLASH_FLAG_PGERR: FLASH Program error flag       
1440:../libraries/STM32F10x_StdPeriph_Driver/src/stm32f10x_flash.c ****   *     @arg FLASH_FLAG_WRPRTERR: FLASH Write protected error flag      
1441:../libraries/STM32F10x_StdPeriph_Driver/src/stm32f10x_flash.c ****   *     @arg FLASH_FLAG_EOP: FLASH End of Operation flag           
1442:../libraries/STM32F10x_StdPeriph_Driver/src/stm32f10x_flash.c ****   * @retval None
1443:../libraries/STM32F10x_StdPeriph_Driver/src/stm32f10x_flash.c ****   */
1444:../libraries/STM32F10x_StdPeriph_Driver/src/stm32f10x_flash.c **** void FLASH_ClearFlag(uint32_t FLASH_FLAG)
1445:../libraries/STM32F10x_StdPeriph_Driver/src/stm32f10x_flash.c **** {
 429              		.loc 1 1445 0
 430              		.cfi_startproc
 431              		@ args = 0, pretend = 0, frame = 0
 432              		@ frame_needed = 0, uses_anonymous_args = 0
 433              		@ link register save eliminated.
 434              	.LVL22:
1446:../libraries/STM32F10x_StdPeriph_Driver/src/stm32f10x_flash.c **** #ifdef STM32F10X_XL
1447:../libraries/STM32F10x_StdPeriph_Driver/src/stm32f10x_flash.c ****   /* Check the parameters */
1448:../libraries/STM32F10x_StdPeriph_Driver/src/stm32f10x_flash.c ****   assert_param(IS_FLASH_CLEAR_FLAG(FLASH_FLAG)) ;
1449:../libraries/STM32F10x_StdPeriph_Driver/src/stm32f10x_flash.c **** 
1450:../libraries/STM32F10x_StdPeriph_Driver/src/stm32f10x_flash.c ****   if((FLASH_FLAG & 0x80000000) != 0x0)
1451:../libraries/STM32F10x_StdPeriph_Driver/src/stm32f10x_flash.c ****   {
1452:../libraries/STM32F10x_StdPeriph_Driver/src/stm32f10x_flash.c ****     /* Clear the flags */
1453:../libraries/STM32F10x_StdPeriph_Driver/src/stm32f10x_flash.c ****     FLASH->SR2 = FLASH_FLAG;
1454:../libraries/STM32F10x_StdPeriph_Driver/src/stm32f10x_flash.c ****   }
1455:../libraries/STM32F10x_StdPeriph_Driver/src/stm32f10x_flash.c ****   else
1456:../libraries/STM32F10x_StdPeriph_Driver/src/stm32f10x_flash.c ****   {
1457:../libraries/STM32F10x_StdPeriph_Driver/src/stm32f10x_flash.c ****     /* Clear the flags */
1458:../libraries/STM32F10x_StdPeriph_Driver/src/stm32f10x_flash.c ****     FLASH->SR = FLASH_FLAG;
1459:../libraries/STM32F10x_StdPeriph_Driver/src/stm32f10x_flash.c ****   }  
1460:../libraries/STM32F10x_StdPeriph_Driver/src/stm32f10x_flash.c **** 
1461:../libraries/STM32F10x_StdPeriph_Driver/src/stm32f10x_flash.c **** #else
1462:../libraries/STM32F10x_StdPeriph_Driver/src/stm32f10x_flash.c ****   /* Check the parameters */
1463:../libraries/STM32F10x_StdPeriph_Driver/src/stm32f10x_flash.c ****   assert_param(IS_FLASH_CLEAR_FLAG(FLASH_FLAG)) ;
1464:../libraries/STM32F10x_StdPeriph_Driver/src/stm32f10x_flash.c ****   
1465:../libraries/STM32F10x_StdPeriph_Driver/src/stm32f10x_flash.c ****   /* Clear the flags */
1466:../libraries/STM32F10x_StdPeriph_Driver/src/stm32f10x_flash.c ****   FLASH->SR = FLASH_FLAG;
 435              		.loc 1 1466 0
 436 0000 014B     		ldr	r3, .L47
 437 0002 D860     		str	r0, [r3, #12]
 438 0004 7047     		bx	lr
 439              	.L48:
 440 0006 00BF     		.align	2
 441              	.L47:
 442 0008 00200240 		.word	1073881088
 443              		.cfi_endproc
 444              	.LFE79:
 446              		.section	.text.FLASH_GetStatus,"ax",%progbits
 447              		.align	1
 448              		.global	FLASH_GetStatus
 449              		.thumb
 450              		.thumb_func
 452              	FLASH_GetStatus:
 453              	.LFB80:
1467:../libraries/STM32F10x_StdPeriph_Driver/src/stm32f10x_flash.c **** #endif /* STM32F10X_XL */
1468:../libraries/STM32F10x_StdPeriph_Driver/src/stm32f10x_flash.c **** }
1469:../libraries/STM32F10x_StdPeriph_Driver/src/stm32f10x_flash.c **** 
1470:../libraries/STM32F10x_StdPeriph_Driver/src/stm32f10x_flash.c **** /**
1471:../libraries/STM32F10x_StdPeriph_Driver/src/stm32f10x_flash.c ****   * @brief  Returns the FLASH Status.
1472:../libraries/STM32F10x_StdPeriph_Driver/src/stm32f10x_flash.c ****   * @note   This function can be used for all STM32F10x devices, it is equivalent
1473:../libraries/STM32F10x_StdPeriph_Driver/src/stm32f10x_flash.c ****   *         to FLASH_GetBank1Status function.
1474:../libraries/STM32F10x_StdPeriph_Driver/src/stm32f10x_flash.c ****   * @param  None
1475:../libraries/STM32F10x_StdPeriph_Driver/src/stm32f10x_flash.c ****   * @retval FLASH Status: The returned value can be: FLASH_BUSY, FLASH_ERROR_PG,
1476:../libraries/STM32F10x_StdPeriph_Driver/src/stm32f10x_flash.c ****   *         FLASH_ERROR_WRP or FLASH_COMPLETE
1477:../libraries/STM32F10x_StdPeriph_Driver/src/stm32f10x_flash.c ****   */
1478:../libraries/STM32F10x_StdPeriph_Driver/src/stm32f10x_flash.c **** FLASH_Status FLASH_GetStatus(void)
1479:../libraries/STM32F10x_StdPeriph_Driver/src/stm32f10x_flash.c **** {
 454              		.loc 1 1479 0
 455              		.cfi_startproc
 456              		@ args = 0, pretend = 0, frame = 0
 457              		@ frame_needed = 0, uses_anonymous_args = 0
 458              		@ link register save eliminated.
 459              	.LVL23:
1480:../libraries/STM32F10x_StdPeriph_Driver/src/stm32f10x_flash.c ****   FLASH_Status flashstatus = FLASH_COMPLETE;
1481:../libraries/STM32F10x_StdPeriph_Driver/src/stm32f10x_flash.c ****   
1482:../libraries/STM32F10x_StdPeriph_Driver/src/stm32f10x_flash.c ****   if((FLASH->SR & FLASH_FLAG_BSY) == FLASH_FLAG_BSY) 
 460              		.loc 1 1482 0
 461 0000 084B     		ldr	r3, .L54
 462 0002 DA68     		ldr	r2, [r3, #12]
 463 0004 D107     		lsls	r1, r2, #31
 464 0006 09D4     		bmi	.L51
1483:../libraries/STM32F10x_StdPeriph_Driver/src/stm32f10x_flash.c ****   {
1484:../libraries/STM32F10x_StdPeriph_Driver/src/stm32f10x_flash.c ****     flashstatus = FLASH_BUSY;
1485:../libraries/STM32F10x_StdPeriph_Driver/src/stm32f10x_flash.c ****   }
1486:../libraries/STM32F10x_StdPeriph_Driver/src/stm32f10x_flash.c ****   else 
1487:../libraries/STM32F10x_StdPeriph_Driver/src/stm32f10x_flash.c ****   {  
1488:../libraries/STM32F10x_StdPeriph_Driver/src/stm32f10x_flash.c ****     if((FLASH->SR & FLASH_FLAG_PGERR) != 0)
 465              		.loc 1 1488 0
 466 0008 D868     		ldr	r0, [r3, #12]
 467 000a 4207     		lsls	r2, r0, #29
 468 000c 08D4     		bmi	.L52
1489:../libraries/STM32F10x_StdPeriph_Driver/src/stm32f10x_flash.c ****     { 
1490:../libraries/STM32F10x_StdPeriph_Driver/src/stm32f10x_flash.c ****       flashstatus = FLASH_ERROR_PG;
1491:../libraries/STM32F10x_StdPeriph_Driver/src/stm32f10x_flash.c ****     }
1492:../libraries/STM32F10x_StdPeriph_Driver/src/stm32f10x_flash.c ****     else 
1493:../libraries/STM32F10x_StdPeriph_Driver/src/stm32f10x_flash.c ****     {
1494:../libraries/STM32F10x_StdPeriph_Driver/src/stm32f10x_flash.c ****       if((FLASH->SR & FLASH_FLAG_WRPRTERR) != 0 )
 469              		.loc 1 1494 0
 470 000e D968     		ldr	r1, [r3, #12]
 471 0010 11F0100F 		tst	r1, #16
1495:../libraries/STM32F10x_StdPeriph_Driver/src/stm32f10x_flash.c ****       {
1496:../libraries/STM32F10x_StdPeriph_Driver/src/stm32f10x_flash.c ****         flashstatus = FLASH_ERROR_WRP;
 472              		.loc 1 1496 0
 473 0014 0CBF     		ite	eq
 474 0016 0420     		moveq	r0, #4
 475 0018 0320     		movne	r0, #3
 476 001a 7047     		bx	lr
 477              	.L51:
1484:../libraries/STM32F10x_StdPeriph_Driver/src/stm32f10x_flash.c ****     flashstatus = FLASH_BUSY;
 478              		.loc 1 1484 0
 479 001c 0120     		movs	r0, #1
 480 001e 7047     		bx	lr
 481              	.L52:
1490:../libraries/STM32F10x_StdPeriph_Driver/src/stm32f10x_flash.c ****       flashstatus = FLASH_ERROR_PG;
 482              		.loc 1 1490 0
 483 0020 0220     		movs	r0, #2
 484              	.LVL24:
1497:../libraries/STM32F10x_StdPeriph_Driver/src/stm32f10x_flash.c ****       }
1498:../libraries/STM32F10x_StdPeriph_Driver/src/stm32f10x_flash.c ****       else
1499:../libraries/STM32F10x_StdPeriph_Driver/src/stm32f10x_flash.c ****       {
1500:../libraries/STM32F10x_StdPeriph_Driver/src/stm32f10x_flash.c ****         flashstatus = FLASH_COMPLETE;
1501:../libraries/STM32F10x_StdPeriph_Driver/src/stm32f10x_flash.c ****       }
1502:../libraries/STM32F10x_StdPeriph_Driver/src/stm32f10x_flash.c ****     }
1503:../libraries/STM32F10x_StdPeriph_Driver/src/stm32f10x_flash.c ****   }
1504:../libraries/STM32F10x_StdPeriph_Driver/src/stm32f10x_flash.c ****   /* Return the Flash Status */
1505:../libraries/STM32F10x_StdPeriph_Driver/src/stm32f10x_flash.c ****   return flashstatus;
1506:../libraries/STM32F10x_StdPeriph_Driver/src/stm32f10x_flash.c **** }
 485              		.loc 1 1506 0
 486 0022 7047     		bx	lr
 487              	.L55:
 488              		.align	2
 489              	.L54:
 490 0024 00200240 		.word	1073881088
 491              		.cfi_endproc
 492              	.LFE80:
 494              		.section	.text.FLASH_GetBank1Status,"ax",%progbits
 495              		.align	1
 496              		.global	FLASH_GetBank1Status
 497              		.thumb
 498              		.thumb_func
 500              	FLASH_GetBank1Status:
 501              	.LFB81:
1507:../libraries/STM32F10x_StdPeriph_Driver/src/stm32f10x_flash.c **** 
1508:../libraries/STM32F10x_StdPeriph_Driver/src/stm32f10x_flash.c **** /**
1509:../libraries/STM32F10x_StdPeriph_Driver/src/stm32f10x_flash.c ****   * @brief  Returns the FLASH Bank1 Status.
1510:../libraries/STM32F10x_StdPeriph_Driver/src/stm32f10x_flash.c ****   * @note   This function can be used for all STM32F10x devices, it is equivalent
1511:../libraries/STM32F10x_StdPeriph_Driver/src/stm32f10x_flash.c ****   *         to FLASH_GetStatus function.
1512:../libraries/STM32F10x_StdPeriph_Driver/src/stm32f10x_flash.c ****   * @param  None
1513:../libraries/STM32F10x_StdPeriph_Driver/src/stm32f10x_flash.c ****   * @retval FLASH Status: The returned value can be: FLASH_BUSY, FLASH_ERROR_PG,
1514:../libraries/STM32F10x_StdPeriph_Driver/src/stm32f10x_flash.c ****   *         FLASH_ERROR_WRP or FLASH_COMPLETE
1515:../libraries/STM32F10x_StdPeriph_Driver/src/stm32f10x_flash.c ****   */
1516:../libraries/STM32F10x_StdPeriph_Driver/src/stm32f10x_flash.c **** FLASH_Status FLASH_GetBank1Status(void)
1517:../libraries/STM32F10x_StdPeriph_Driver/src/stm32f10x_flash.c **** {
 502              		.loc 1 1517 0
 503              		.cfi_startproc
 504              		@ args = 0, pretend = 0, frame = 0
 505              		@ frame_needed = 0, uses_anonymous_args = 0
 506              		@ link register save eliminated.
 507              	.LVL25:
1518:../libraries/STM32F10x_StdPeriph_Driver/src/stm32f10x_flash.c ****   FLASH_Status flashstatus = FLASH_COMPLETE;
1519:../libraries/STM32F10x_StdPeriph_Driver/src/stm32f10x_flash.c ****   
1520:../libraries/STM32F10x_StdPeriph_Driver/src/stm32f10x_flash.c ****   if((FLASH->SR & FLASH_FLAG_BANK1_BSY) == FLASH_FLAG_BSY) 
 508              		.loc 1 1520 0
 509 0000 084B     		ldr	r3, .L62
 510 0002 DA68     		ldr	r2, [r3, #12]
 511 0004 D207     		lsls	r2, r2, #31
 512 0006 09D4     		bmi	.L59
1521:../libraries/STM32F10x_StdPeriph_Driver/src/stm32f10x_flash.c ****   {
1522:../libraries/STM32F10x_StdPeriph_Driver/src/stm32f10x_flash.c ****     flashstatus = FLASH_BUSY;
1523:../libraries/STM32F10x_StdPeriph_Driver/src/stm32f10x_flash.c ****   }
1524:../libraries/STM32F10x_StdPeriph_Driver/src/stm32f10x_flash.c ****   else 
1525:../libraries/STM32F10x_StdPeriph_Driver/src/stm32f10x_flash.c ****   {  
1526:../libraries/STM32F10x_StdPeriph_Driver/src/stm32f10x_flash.c ****     if((FLASH->SR & FLASH_FLAG_BANK1_PGERR) != 0)
 513              		.loc 1 1526 0
 514 0008 D868     		ldr	r0, [r3, #12]
 515 000a 4007     		lsls	r0, r0, #29
 516 000c 08D4     		bmi	.L60
 517              	.LBB4:
 518              	.LBB5:
1527:../libraries/STM32F10x_StdPeriph_Driver/src/stm32f10x_flash.c ****     { 
1528:../libraries/STM32F10x_StdPeriph_Driver/src/stm32f10x_flash.c ****       flashstatus = FLASH_ERROR_PG;
1529:../libraries/STM32F10x_StdPeriph_Driver/src/stm32f10x_flash.c ****     }
1530:../libraries/STM32F10x_StdPeriph_Driver/src/stm32f10x_flash.c ****     else 
1531:../libraries/STM32F10x_StdPeriph_Driver/src/stm32f10x_flash.c ****     {
1532:../libraries/STM32F10x_StdPeriph_Driver/src/stm32f10x_flash.c ****       if((FLASH->SR & FLASH_FLAG_BANK1_WRPRTERR) != 0 )
 519              		.loc 1 1532 0
 520 000e D968     		ldr	r1, [r3, #12]
 521 0010 11F0100F 		tst	r1, #16
1533:../libraries/STM32F10x_StdPeriph_Driver/src/stm32f10x_flash.c ****       {
1534:../libraries/STM32F10x_StdPeriph_Driver/src/stm32f10x_flash.c ****         flashstatus = FLASH_ERROR_WRP;
 522              		.loc 1 1534 0
 523 0014 0CBF     		ite	eq
 524 0016 0420     		moveq	r0, #4
 525 0018 0320     		movne	r0, #3
 526 001a 7047     		bx	lr
 527              	.L59:
 528              	.LBE5:
 529              	.LBE4:
1522:../libraries/STM32F10x_StdPeriph_Driver/src/stm32f10x_flash.c ****     flashstatus = FLASH_BUSY;
 530              		.loc 1 1522 0
 531 001c 0120     		movs	r0, #1
 532 001e 7047     		bx	lr
 533              	.L60:
1528:../libraries/STM32F10x_StdPeriph_Driver/src/stm32f10x_flash.c ****       flashstatus = FLASH_ERROR_PG;
 534              		.loc 1 1528 0
 535 0020 0220     		movs	r0, #2
 536              	.LVL26:
1535:../libraries/STM32F10x_StdPeriph_Driver/src/stm32f10x_flash.c ****       }
1536:../libraries/STM32F10x_StdPeriph_Driver/src/stm32f10x_flash.c ****       else
1537:../libraries/STM32F10x_StdPeriph_Driver/src/stm32f10x_flash.c ****       {
1538:../libraries/STM32F10x_StdPeriph_Driver/src/stm32f10x_flash.c ****         flashstatus = FLASH_COMPLETE;
1539:../libraries/STM32F10x_StdPeriph_Driver/src/stm32f10x_flash.c ****       }
1540:../libraries/STM32F10x_StdPeriph_Driver/src/stm32f10x_flash.c ****     }
1541:../libraries/STM32F10x_StdPeriph_Driver/src/stm32f10x_flash.c ****   }
1542:../libraries/STM32F10x_StdPeriph_Driver/src/stm32f10x_flash.c ****   /* Return the Flash Status */
1543:../libraries/STM32F10x_StdPeriph_Driver/src/stm32f10x_flash.c ****   return flashstatus;
1544:../libraries/STM32F10x_StdPeriph_Driver/src/stm32f10x_flash.c **** }
 537              		.loc 1 1544 0
 538 0022 7047     		bx	lr
 539              	.L63:
 540              		.align	2
 541              	.L62:
 542 0024 00200240 		.word	1073881088
 543              		.cfi_endproc
 544              	.LFE81:
 546              		.section	.text.FLASH_WaitForLastOperation,"ax",%progbits
 547              		.align	1
 548              		.global	FLASH_WaitForLastOperation
 549              		.thumb
 550              		.thumb_func
 552              	FLASH_WaitForLastOperation:
 553              	.LFB82:
1545:../libraries/STM32F10x_StdPeriph_Driver/src/stm32f10x_flash.c **** 
1546:../libraries/STM32F10x_StdPeriph_Driver/src/stm32f10x_flash.c **** #ifdef STM32F10X_XL
1547:../libraries/STM32F10x_StdPeriph_Driver/src/stm32f10x_flash.c **** /**
1548:../libraries/STM32F10x_StdPeriph_Driver/src/stm32f10x_flash.c ****   * @brief  Returns the FLASH Bank2 Status.
1549:../libraries/STM32F10x_StdPeriph_Driver/src/stm32f10x_flash.c ****   * @note   This function can be used for STM32F10x_XL density devices.
1550:../libraries/STM32F10x_StdPeriph_Driver/src/stm32f10x_flash.c ****   * @param  None
1551:../libraries/STM32F10x_StdPeriph_Driver/src/stm32f10x_flash.c ****   * @retval FLASH Status: The returned value can be: FLASH_BUSY, FLASH_ERROR_PG,
1552:../libraries/STM32F10x_StdPeriph_Driver/src/stm32f10x_flash.c ****   *        FLASH_ERROR_WRP or FLASH_COMPLETE
1553:../libraries/STM32F10x_StdPeriph_Driver/src/stm32f10x_flash.c ****   */
1554:../libraries/STM32F10x_StdPeriph_Driver/src/stm32f10x_flash.c **** FLASH_Status FLASH_GetBank2Status(void)
1555:../libraries/STM32F10x_StdPeriph_Driver/src/stm32f10x_flash.c **** {
1556:../libraries/STM32F10x_StdPeriph_Driver/src/stm32f10x_flash.c ****   FLASH_Status flashstatus = FLASH_COMPLETE;
1557:../libraries/STM32F10x_StdPeriph_Driver/src/stm32f10x_flash.c ****   
1558:../libraries/STM32F10x_StdPeriph_Driver/src/stm32f10x_flash.c ****   if((FLASH->SR2 & (FLASH_FLAG_BANK2_BSY & 0x7FFFFFFF)) == (FLASH_FLAG_BANK2_BSY & 0x7FFFFFFF)) 
1559:../libraries/STM32F10x_StdPeriph_Driver/src/stm32f10x_flash.c ****   {
1560:../libraries/STM32F10x_StdPeriph_Driver/src/stm32f10x_flash.c ****     flashstatus = FLASH_BUSY;
1561:../libraries/STM32F10x_StdPeriph_Driver/src/stm32f10x_flash.c ****   }
1562:../libraries/STM32F10x_StdPeriph_Driver/src/stm32f10x_flash.c ****   else 
1563:../libraries/STM32F10x_StdPeriph_Driver/src/stm32f10x_flash.c ****   {  
1564:../libraries/STM32F10x_StdPeriph_Driver/src/stm32f10x_flash.c ****     if((FLASH->SR2 & (FLASH_FLAG_BANK2_PGERR & 0x7FFFFFFF)) != 0)
1565:../libraries/STM32F10x_StdPeriph_Driver/src/stm32f10x_flash.c ****     { 
1566:../libraries/STM32F10x_StdPeriph_Driver/src/stm32f10x_flash.c ****       flashstatus = FLASH_ERROR_PG;
1567:../libraries/STM32F10x_StdPeriph_Driver/src/stm32f10x_flash.c ****     }
1568:../libraries/STM32F10x_StdPeriph_Driver/src/stm32f10x_flash.c ****     else 
1569:../libraries/STM32F10x_StdPeriph_Driver/src/stm32f10x_flash.c ****     {
1570:../libraries/STM32F10x_StdPeriph_Driver/src/stm32f10x_flash.c ****       if((FLASH->SR2 & (FLASH_FLAG_BANK2_WRPRTERR & 0x7FFFFFFF)) != 0 )
1571:../libraries/STM32F10x_StdPeriph_Driver/src/stm32f10x_flash.c ****       {
1572:../libraries/STM32F10x_StdPeriph_Driver/src/stm32f10x_flash.c ****         flashstatus = FLASH_ERROR_WRP;
1573:../libraries/STM32F10x_StdPeriph_Driver/src/stm32f10x_flash.c ****       }
1574:../libraries/STM32F10x_StdPeriph_Driver/src/stm32f10x_flash.c ****       else
1575:../libraries/STM32F10x_StdPeriph_Driver/src/stm32f10x_flash.c ****       {
1576:../libraries/STM32F10x_StdPeriph_Driver/src/stm32f10x_flash.c ****         flashstatus = FLASH_COMPLETE;
1577:../libraries/STM32F10x_StdPeriph_Driver/src/stm32f10x_flash.c ****       }
1578:../libraries/STM32F10x_StdPeriph_Driver/src/stm32f10x_flash.c ****     }
1579:../libraries/STM32F10x_StdPeriph_Driver/src/stm32f10x_flash.c ****   }
1580:../libraries/STM32F10x_StdPeriph_Driver/src/stm32f10x_flash.c ****   /* Return the Flash Status */
1581:../libraries/STM32F10x_StdPeriph_Driver/src/stm32f10x_flash.c ****   return flashstatus;
1582:../libraries/STM32F10x_StdPeriph_Driver/src/stm32f10x_flash.c **** }
1583:../libraries/STM32F10x_StdPeriph_Driver/src/stm32f10x_flash.c **** #endif /* STM32F10X_XL */
1584:../libraries/STM32F10x_StdPeriph_Driver/src/stm32f10x_flash.c **** /**
1585:../libraries/STM32F10x_StdPeriph_Driver/src/stm32f10x_flash.c ****   * @brief  Waits for a Flash operation to complete or a TIMEOUT to occur.
1586:../libraries/STM32F10x_StdPeriph_Driver/src/stm32f10x_flash.c ****   * @note   This function can be used for all STM32F10x devices, 
1587:../libraries/STM32F10x_StdPeriph_Driver/src/stm32f10x_flash.c ****   *         it is equivalent to FLASH_WaitForLastBank1Operation.
1588:../libraries/STM32F10x_StdPeriph_Driver/src/stm32f10x_flash.c ****   *         - For STM32F10X_XL devices this function waits for a Bank1 Flash operation
1589:../libraries/STM32F10x_StdPeriph_Driver/src/stm32f10x_flash.c ****   *           to complete or a TIMEOUT to occur.
1590:../libraries/STM32F10x_StdPeriph_Driver/src/stm32f10x_flash.c ****   *         - For all other devices it waits for a Flash operation to complete 
1591:../libraries/STM32F10x_StdPeriph_Driver/src/stm32f10x_flash.c ****   *           or a TIMEOUT to occur.
1592:../libraries/STM32F10x_StdPeriph_Driver/src/stm32f10x_flash.c ****   * @param  Timeout: FLASH programming Timeout
1593:../libraries/STM32F10x_StdPeriph_Driver/src/stm32f10x_flash.c ****   * @retval FLASH Status: The returned value can be: FLASH_ERROR_PG,
1594:../libraries/STM32F10x_StdPeriph_Driver/src/stm32f10x_flash.c ****   *         FLASH_ERROR_WRP, FLASH_COMPLETE or FLASH_TIMEOUT.
1595:../libraries/STM32F10x_StdPeriph_Driver/src/stm32f10x_flash.c ****   */
1596:../libraries/STM32F10x_StdPeriph_Driver/src/stm32f10x_flash.c **** FLASH_Status FLASH_WaitForLastOperation(uint32_t Timeout)
1597:../libraries/STM32F10x_StdPeriph_Driver/src/stm32f10x_flash.c **** { 
 554              		.loc 1 1597 0
 555              		.cfi_startproc
 556              		@ args = 0, pretend = 0, frame = 0
 557              		@ frame_needed = 0, uses_anonymous_args = 0
 558              	.LVL27:
 559 0000 10B5     		push	{r4, lr}
 560              	.LCFI0:
 561              		.cfi_def_cfa_offset 8
 562              		.cfi_offset 4, -8
 563              		.cfi_offset 14, -4
 564              		.loc 1 1597 0
 565 0002 0446     		mov	r4, r0
1598:../libraries/STM32F10x_StdPeriph_Driver/src/stm32f10x_flash.c ****   FLASH_Status status = FLASH_COMPLETE;
1599:../libraries/STM32F10x_StdPeriph_Driver/src/stm32f10x_flash.c ****    
1600:../libraries/STM32F10x_StdPeriph_Driver/src/stm32f10x_flash.c ****   /* Check for the Flash Status */
1601:../libraries/STM32F10x_StdPeriph_Driver/src/stm32f10x_flash.c ****   status = FLASH_GetBank1Status();
 566              		.loc 1 1601 0
 567 0004 FFF7FEFF 		bl	FLASH_GetBank1Status
 568              	.LVL28:
 569              	.L65:
1602:../libraries/STM32F10x_StdPeriph_Driver/src/stm32f10x_flash.c ****   /* Wait for a Flash operation to complete or a TIMEOUT to occur */
1603:../libraries/STM32F10x_StdPeriph_Driver/src/stm32f10x_flash.c ****   while((status == FLASH_BUSY) && (Timeout != 0x00))
 570              		.loc 1 1603 0 discriminator 1
 571 0008 0128     		cmp	r0, #1
 572 000a 06D1     		bne	.L66
 573              		.loc 1 1603 0 is_stmt 0 discriminator 2
 574 000c 1CB1     		cbz	r4, .L70
 575              	.L67:
1604:../libraries/STM32F10x_StdPeriph_Driver/src/stm32f10x_flash.c ****   {
1605:../libraries/STM32F10x_StdPeriph_Driver/src/stm32f10x_flash.c ****     status = FLASH_GetBank1Status();
 576              		.loc 1 1605 0 is_stmt 1
 577 000e FFF7FEFF 		bl	FLASH_GetBank1Status
 578              	.LVL29:
1606:../libraries/STM32F10x_StdPeriph_Driver/src/stm32f10x_flash.c ****     Timeout--;
 579              		.loc 1 1606 0
 580 0012 013C     		subs	r4, r4, #1
 581              	.LVL30:
 582 0014 F8E7     		b	.L65
 583              	.L70:
1607:../libraries/STM32F10x_StdPeriph_Driver/src/stm32f10x_flash.c ****   }
1608:../libraries/STM32F10x_StdPeriph_Driver/src/stm32f10x_flash.c ****   if(Timeout == 0x00 )
1609:../libraries/STM32F10x_StdPeriph_Driver/src/stm32f10x_flash.c ****   {
1610:../libraries/STM32F10x_StdPeriph_Driver/src/stm32f10x_flash.c ****     status = FLASH_TIMEOUT;
 584              		.loc 1 1610 0
 585 0016 0520     		movs	r0, #5
 586              	.LVL31:
 587 0018 10BD     		pop	{r4, pc}
 588              	.LVL32:
 589              	.L66:
 590 001a 002C     		cmp	r4, #0
 591 001c 08BF     		it	eq
 592 001e 0520     		moveq	r0, #5
 593              	.LVL33:
1611:../libraries/STM32F10x_StdPeriph_Driver/src/stm32f10x_flash.c ****   }
1612:../libraries/STM32F10x_StdPeriph_Driver/src/stm32f10x_flash.c ****   /* Return the operation status */
1613:../libraries/STM32F10x_StdPeriph_Driver/src/stm32f10x_flash.c ****   return status;
1614:../libraries/STM32F10x_StdPeriph_Driver/src/stm32f10x_flash.c **** }
 594              		.loc 1 1614 0
 595 0020 10BD     		pop	{r4, pc}
 596              		.cfi_endproc
 597              	.LFE82:
 599              		.section	.text.FLASH_UserOptionByteConfig,"ax",%progbits
 600              		.align	1
 601              		.global	FLASH_UserOptionByteConfig
 602              		.thumb
 603              		.thumb_func
 605              	FLASH_UserOptionByteConfig:
 606              	.LFB72:
1120:../libraries/STM32F10x_StdPeriph_Driver/src/stm32f10x_flash.c **** {
 607              		.loc 1 1120 0
 608              		.cfi_startproc
 609              		@ args = 0, pretend = 0, frame = 0
 610              		@ frame_needed = 0, uses_anonymous_args = 0
 611              	.LVL34:
 612 0000 F8B5     		push	{r3, r4, r5, r6, r7, lr}
 613              	.LCFI1:
 614              		.cfi_def_cfa_offset 24
 615              		.cfi_offset 3, -24
 616              		.cfi_offset 4, -20
 617              		.cfi_offset 5, -16
 618              		.cfi_offset 6, -12
 619              		.cfi_offset 7, -8
 620              		.cfi_offset 14, -4
1129:../libraries/STM32F10x_StdPeriph_Driver/src/stm32f10x_flash.c ****   FLASH->OPTKEYR = FLASH_KEY1;
 621              		.loc 1 1129 0
 622 0002 124B     		ldr	r3, .L76
 623 0004 124C     		ldr	r4, .L76+4
1120:../libraries/STM32F10x_StdPeriph_Driver/src/stm32f10x_flash.c **** {
 624              		.loc 1 1120 0
 625 0006 0546     		mov	r5, r0
1130:../libraries/STM32F10x_StdPeriph_Driver/src/stm32f10x_flash.c ****   FLASH->OPTKEYR = FLASH_KEY2;
 626              		.loc 1 1130 0
 627 0008 03F18830 		add	r0, r3, #-2004318072
 628              	.LVL35:
1129:../libraries/STM32F10x_StdPeriph_Driver/src/stm32f10x_flash.c ****   FLASH->OPTKEYR = FLASH_KEY1;
 629              		.loc 1 1129 0
 630 000c A360     		str	r3, [r4, #8]
1130:../libraries/STM32F10x_StdPeriph_Driver/src/stm32f10x_flash.c ****   FLASH->OPTKEYR = FLASH_KEY2;
 631              		.loc 1 1130 0
 632 000e A060     		str	r0, [r4, #8]
1133:../libraries/STM32F10x_StdPeriph_Driver/src/stm32f10x_flash.c ****   status = FLASH_WaitForLastOperation(ProgramTimeout);
 633              		.loc 1 1133 0
 634 0010 4FF40050 		mov	r0, #8192
1120:../libraries/STM32F10x_StdPeriph_Driver/src/stm32f10x_flash.c **** {
 635              		.loc 1 1120 0
 636 0014 0E46     		mov	r6, r1
 637 0016 1746     		mov	r7, r2
1133:../libraries/STM32F10x_StdPeriph_Driver/src/stm32f10x_flash.c ****   status = FLASH_WaitForLastOperation(ProgramTimeout);
 638              		.loc 1 1133 0
 639 0018 FFF7FEFF 		bl	FLASH_WaitForLastOperation
 640              	.LVL36:
1135:../libraries/STM32F10x_StdPeriph_Driver/src/stm32f10x_flash.c ****   if(status == FLASH_COMPLETE)
 641              		.loc 1 1135 0
 642 001c 0428     		cmp	r0, #4
 643 001e 14D1     		bne	.L72
1138:../libraries/STM32F10x_StdPeriph_Driver/src/stm32f10x_flash.c ****     FLASH->CR |= CR_OPTPG_Set; 
 644              		.loc 1 1138 0
 645 0020 2169     		ldr	r1, [r4, #16]
1140:../libraries/STM32F10x_StdPeriph_Driver/src/stm32f10x_flash.c ****     OB->USER = OB_IWDG | (uint16_t)(OB_STOP | (uint16_t)(OB_STDBY | ((uint16_t)0xF8))); 
 646              		.loc 1 1140 0
 647 0022 45F0F805 		orr	r5, r5, #248
 648 0026 0B4B     		ldr	r3, .L76+8
 649 0028 2E43     		orrs	r6, r6, r5
1138:../libraries/STM32F10x_StdPeriph_Driver/src/stm32f10x_flash.c ****     FLASH->CR |= CR_OPTPG_Set; 
 650              		.loc 1 1138 0
 651 002a 41F01002 		orr	r2, r1, #16
1140:../libraries/STM32F10x_StdPeriph_Driver/src/stm32f10x_flash.c ****     OB->USER = OB_IWDG | (uint16_t)(OB_STOP | (uint16_t)(OB_STDBY | ((uint16_t)0xF8))); 
 652              		.loc 1 1140 0
 653 002e 3743     		orrs	r7, r7, r6
1138:../libraries/STM32F10x_StdPeriph_Driver/src/stm32f10x_flash.c ****     FLASH->CR |= CR_OPTPG_Set; 
 654              		.loc 1 1138 0
 655 0030 2261     		str	r2, [r4, #16]
1143:../libraries/STM32F10x_StdPeriph_Driver/src/stm32f10x_flash.c ****     status = FLASH_WaitForLastOperation(ProgramTimeout);
 656              		.loc 1 1143 0
 657 0032 4FF40050 		mov	r0, #8192
 658              	.LVL37:
1140:../libraries/STM32F10x_StdPeriph_Driver/src/stm32f10x_flash.c ****     OB->USER = OB_IWDG | (uint16_t)(OB_STOP | (uint16_t)(OB_STDBY | ((uint16_t)0xF8))); 
 659              		.loc 1 1140 0
 660 0036 5F80     		strh	r7, [r3, #2]	@ movhi
1143:../libraries/STM32F10x_StdPeriph_Driver/src/stm32f10x_flash.c ****     status = FLASH_WaitForLastOperation(ProgramTimeout);
 661              		.loc 1 1143 0
 662 0038 FFF7FEFF 		bl	FLASH_WaitForLastOperation
 663              	.LVL38:
1144:../libraries/STM32F10x_StdPeriph_Driver/src/stm32f10x_flash.c ****     if(status != FLASH_TIMEOUT)
 664              		.loc 1 1144 0
 665 003c 0528     		cmp	r0, #5
 666 003e 04D0     		beq	.L72
1147:../libraries/STM32F10x_StdPeriph_Driver/src/stm32f10x_flash.c ****       FLASH->CR &= CR_OPTPG_Reset;
 667              		.loc 1 1147 0
 668 0040 2169     		ldr	r1, [r4, #16]
 669 0042 41F6EF72 		movw	r2, #8175
 670 0046 0A40     		ands	r2, r2, r1
 671 0048 2261     		str	r2, [r4, #16]
 672              	.LVL39:
 673              	.L72:
1152:../libraries/STM32F10x_StdPeriph_Driver/src/stm32f10x_flash.c **** }
 674              		.loc 1 1152 0
 675 004a F8BD     		pop	{r3, r4, r5, r6, r7, pc}
 676              	.L77:
 677              		.align	2
 678              	.L76:
 679 004c 23016745 		.word	1164378403
 680 0050 00200240 		.word	1073881088
 681 0054 00F8FF1F 		.word	536868864
 682              		.cfi_endproc
 683              	.LFE72:
 685              		.section	.text.FLASH_ReadOutProtection,"ax",%progbits
 686              		.align	1
 687              		.global	FLASH_ReadOutProtection
 688              		.thumb
 689              		.thumb_func
 691              	FLASH_ReadOutProtection:
 692              	.LFB71:
1051:../libraries/STM32F10x_StdPeriph_Driver/src/stm32f10x_flash.c **** {
 693              		.loc 1 1051 0
 694              		.cfi_startproc
 695              		@ args = 0, pretend = 0, frame = 0
 696              		@ frame_needed = 0, uses_anonymous_args = 0
 697              	.LVL40:
 698 0000 38B5     		push	{r3, r4, r5, lr}
 699              	.LCFI2:
 700              		.cfi_def_cfa_offset 16
 701              		.cfi_offset 3, -16
 702              		.cfi_offset 4, -12
 703              		.cfi_offset 5, -8
 704              		.cfi_offset 14, -4
1051:../libraries/STM32F10x_StdPeriph_Driver/src/stm32f10x_flash.c **** {
 705              		.loc 1 1051 0
 706 0002 0546     		mov	r5, r0
1055:../libraries/STM32F10x_StdPeriph_Driver/src/stm32f10x_flash.c ****   status = FLASH_WaitForLastOperation(EraseTimeout);
 707              		.loc 1 1055 0
 708 0004 4FF43020 		mov	r0, #720896
 709              	.LVL41:
 710 0008 FFF7FEFF 		bl	FLASH_WaitForLastOperation
 711              	.LVL42:
1056:../libraries/STM32F10x_StdPeriph_Driver/src/stm32f10x_flash.c ****   if(status == FLASH_COMPLETE)
 712              		.loc 1 1056 0
 713 000c 0428     		cmp	r0, #4
 714 000e 38D1     		bne	.L79
1059:../libraries/STM32F10x_StdPeriph_Driver/src/stm32f10x_flash.c ****     FLASH->OPTKEYR = FLASH_KEY1;
 715              		.loc 1 1059 0
 716 0010 1C4B     		ldr	r3, .L89
 717 0012 1D4C     		ldr	r4, .L89+4
1060:../libraries/STM32F10x_StdPeriph_Driver/src/stm32f10x_flash.c ****     FLASH->OPTKEYR = FLASH_KEY2;
 718              		.loc 1 1060 0
 719 0014 03F18830 		add	r0, r3, #-2004318072
 720              	.LVL43:
1059:../libraries/STM32F10x_StdPeriph_Driver/src/stm32f10x_flash.c ****     FLASH->OPTKEYR = FLASH_KEY1;
 721              		.loc 1 1059 0
 722 0018 A360     		str	r3, [r4, #8]
1060:../libraries/STM32F10x_StdPeriph_Driver/src/stm32f10x_flash.c ****     FLASH->OPTKEYR = FLASH_KEY2;
 723              		.loc 1 1060 0
 724 001a A060     		str	r0, [r4, #8]
1061:../libraries/STM32F10x_StdPeriph_Driver/src/stm32f10x_flash.c ****     FLASH->CR |= CR_OPTER_Set;
 725              		.loc 1 1061 0
 726 001c 2169     		ldr	r1, [r4, #16]
 727 001e 41F02002 		orr	r2, r1, #32
 728 0022 2261     		str	r2, [r4, #16]
1062:../libraries/STM32F10x_StdPeriph_Driver/src/stm32f10x_flash.c ****     FLASH->CR |= CR_STRT_Set;
 729              		.loc 1 1062 0
 730 0024 2369     		ldr	r3, [r4, #16]
 731 0026 43F04000 		orr	r0, r3, #64
 732 002a 2061     		str	r0, [r4, #16]
1064:../libraries/STM32F10x_StdPeriph_Driver/src/stm32f10x_flash.c ****     status = FLASH_WaitForLastOperation(EraseTimeout);
 733              		.loc 1 1064 0
 734 002c 4FF43020 		mov	r0, #720896
 735 0030 FFF7FEFF 		bl	FLASH_WaitForLastOperation
 736              	.LVL44:
1065:../libraries/STM32F10x_StdPeriph_Driver/src/stm32f10x_flash.c ****     if(status == FLASH_COMPLETE)
 737              		.loc 1 1065 0
 738 0034 0428     		cmp	r0, #4
 739 0036 1DD1     		bne	.L80
1068:../libraries/STM32F10x_StdPeriph_Driver/src/stm32f10x_flash.c ****       FLASH->CR &= CR_OPTER_Reset;
 740              		.loc 1 1068 0
 741 0038 2069     		ldr	r0, [r4, #16]
 742              	.LVL45:
 743 003a 41F6DF73 		movw	r3, #8159
 744 003e 0340     		ands	r3, r3, r0
 745 0040 2361     		str	r3, [r4, #16]
1070:../libraries/STM32F10x_StdPeriph_Driver/src/stm32f10x_flash.c ****       FLASH->CR |= CR_OPTPG_Set; 
 746              		.loc 1 1070 0
 747 0042 2169     		ldr	r1, [r4, #16]
 748 0044 1148     		ldr	r0, .L89+8
 749 0046 41F01002 		orr	r2, r1, #16
 750 004a 2261     		str	r2, [r4, #16]
1071:../libraries/STM32F10x_StdPeriph_Driver/src/stm32f10x_flash.c ****       if(NewState != DISABLE)
 751              		.loc 1 1071 0
 752 004c 0DB1     		cbz	r5, .L81
1073:../libraries/STM32F10x_StdPeriph_Driver/src/stm32f10x_flash.c ****         OB->RDP = 0x00;
 753              		.loc 1 1073 0
 754 004e 0023     		movs	r3, #0
 755 0050 00E0     		b	.L88
 756              	.L81:
1077:../libraries/STM32F10x_StdPeriph_Driver/src/stm32f10x_flash.c ****         OB->RDP = RDP_Key;  
 757              		.loc 1 1077 0
 758 0052 A523     		movs	r3, #165
 759              	.L88:
 760 0054 0380     		strh	r3, [r0, #0]	@ movhi
1080:../libraries/STM32F10x_StdPeriph_Driver/src/stm32f10x_flash.c ****       status = FLASH_WaitForLastOperation(EraseTimeout); 
 761              		.loc 1 1080 0
 762 0056 4FF43020 		mov	r0, #720896
 763 005a FFF7FEFF 		bl	FLASH_WaitForLastOperation
 764              	.LVL46:
1082:../libraries/STM32F10x_StdPeriph_Driver/src/stm32f10x_flash.c ****       if(status != FLASH_TIMEOUT)
 765              		.loc 1 1082 0
 766 005e 0528     		cmp	r0, #5
 767 0060 01D1     		bne	.L83
 768              	.LVL47:
 769              	.L84:
1051:../libraries/STM32F10x_StdPeriph_Driver/src/stm32f10x_flash.c **** {
 770              		.loc 1 1051 0
 771 0062 0520     		movs	r0, #5
 772 0064 38BD     		pop	{r3, r4, r5, pc}
 773              	.LVL48:
 774              	.L83:
1085:../libraries/STM32F10x_StdPeriph_Driver/src/stm32f10x_flash.c ****         FLASH->CR &= CR_OPTPG_Reset;
 775              		.loc 1 1085 0
 776 0066 084A     		ldr	r2, .L89+4
 777 0068 41F6EF73 		movw	r3, #8175
 778 006c 1169     		ldr	r1, [r2, #16]
 779 006e 0B40     		ands	r3, r3, r1
 780 0070 1361     		str	r3, [r2, #16]
 781 0072 38BD     		pop	{r3, r4, r5, pc}
 782              	.L80:
1090:../libraries/STM32F10x_StdPeriph_Driver/src/stm32f10x_flash.c ****       if(status != FLASH_TIMEOUT)
 783              		.loc 1 1090 0
 784 0074 0528     		cmp	r0, #5
 785 0076 F4D0     		beq	.L84
1093:../libraries/STM32F10x_StdPeriph_Driver/src/stm32f10x_flash.c ****         FLASH->CR &= CR_OPTER_Reset;
 786              		.loc 1 1093 0
 787 0078 2169     		ldr	r1, [r4, #16]
 788 007a 41F6DF72 		movw	r2, #8159
 789 007e 0A40     		ands	r2, r2, r1
 790 0080 2261     		str	r2, [r4, #16]
 791              	.LVL49:
 792              	.L79:
1099:../libraries/STM32F10x_StdPeriph_Driver/src/stm32f10x_flash.c **** }
 793              		.loc 1 1099 0
 794 0082 38BD     		pop	{r3, r4, r5, pc}
 795              	.L90:
 796              		.align	2
 797              	.L89:
 798 0084 23016745 		.word	1164378403
 799 0088 00200240 		.word	1073881088
 800 008c 00F8FF1F 		.word	536868864
 801              		.cfi_endproc
 802              	.LFE71:
 804              		.section	.text.FLASH_EnableWriteProtection,"ax",%progbits
 805              		.align	1
 806              		.global	FLASH_EnableWriteProtection
 807              		.thumb
 808              		.thumb_func
 810              	FLASH_EnableWriteProtection:
 811              	.LFB70:
 977:../libraries/STM32F10x_StdPeriph_Driver/src/stm32f10x_flash.c **** {
 812              		.loc 1 977 0
 813              		.cfi_startproc
 814              		@ args = 0, pretend = 0, frame = 0
 815              		@ frame_needed = 0, uses_anonymous_args = 0
 816              	.LVL50:
 817 0000 10B5     		push	{r4, lr}
 818              	.LCFI3:
 819              		.cfi_def_cfa_offset 8
 820              		.cfi_offset 4, -8
 821              		.cfi_offset 14, -4
 977:../libraries/STM32F10x_StdPeriph_Driver/src/stm32f10x_flash.c **** {
 822              		.loc 1 977 0
 823 0002 0446     		mov	r4, r0
 824              	.LVL51:
 992:../libraries/STM32F10x_StdPeriph_Driver/src/stm32f10x_flash.c ****   status = FLASH_WaitForLastOperation(ProgramTimeout);
 825              		.loc 1 992 0
 826 0004 4FF40050 		mov	r0, #8192
 827              	.LVL52:
 828 0008 FFF7FEFF 		bl	FLASH_WaitForLastOperation
 829              	.LVL53:
 994:../libraries/STM32F10x_StdPeriph_Driver/src/stm32f10x_flash.c ****   if(status == FLASH_COMPLETE)
 830              		.loc 1 994 0
 831 000c 0428     		cmp	r0, #4
 832 000e 42D1     		bne	.L92
 997:../libraries/STM32F10x_StdPeriph_Driver/src/stm32f10x_flash.c ****     FLASH->OPTKEYR = FLASH_KEY1;
 833              		.loc 1 997 0
 834 0010 2149     		ldr	r1, .L116
 835 0012 224B     		ldr	r3, .L116+4
 998:../libraries/STM32F10x_StdPeriph_Driver/src/stm32f10x_flash.c ****     FLASH->OPTKEYR = FLASH_KEY2;
 836              		.loc 1 998 0
 837 0014 01F18830 		add	r0, r1, #-2004318072
 838              	.LVL54:
 997:../libraries/STM32F10x_StdPeriph_Driver/src/stm32f10x_flash.c ****     FLASH->OPTKEYR = FLASH_KEY1;
 839              		.loc 1 997 0
 840 0018 9960     		str	r1, [r3, #8]
 998:../libraries/STM32F10x_StdPeriph_Driver/src/stm32f10x_flash.c ****     FLASH->OPTKEYR = FLASH_KEY2;
 841              		.loc 1 998 0
 842 001a 9860     		str	r0, [r3, #8]
 985:../libraries/STM32F10x_StdPeriph_Driver/src/stm32f10x_flash.c ****   FLASH_Pages = (uint32_t)(~FLASH_Pages);
 843              		.loc 1 985 0
 844 001c E443     		mvns	r4, r4
 845              	.LVL55:
 999:../libraries/STM32F10x_StdPeriph_Driver/src/stm32f10x_flash.c ****     FLASH->CR |= CR_OPTPG_Set;
 846              		.loc 1 999 0
 847 001e 1969     		ldr	r1, [r3, #16]
 986:../libraries/STM32F10x_StdPeriph_Driver/src/stm32f10x_flash.c ****   WRP0_Data = (uint16_t)(FLASH_Pages & WRP0_Mask);
 848              		.loc 1 986 0
 849 0020 E2B2     		uxtb	r2, r4
 999:../libraries/STM32F10x_StdPeriph_Driver/src/stm32f10x_flash.c ****     FLASH->CR |= CR_OPTPG_Set;
 850              		.loc 1 999 0
 851 0022 41F01000 		orr	r0, r1, #16
1000:../libraries/STM32F10x_StdPeriph_Driver/src/stm32f10x_flash.c ****     if(WRP0_Data != 0xFF)
 852              		.loc 1 1000 0
 853 0026 FF2A     		cmp	r2, #255
 999:../libraries/STM32F10x_StdPeriph_Driver/src/stm32f10x_flash.c ****     FLASH->CR |= CR_OPTPG_Set;
 854              		.loc 1 999 0
 855 0028 1861     		str	r0, [r3, #16]
1000:../libraries/STM32F10x_StdPeriph_Driver/src/stm32f10x_flash.c ****     if(WRP0_Data != 0xFF)
 856              		.loc 1 1000 0
 857 002a 04D1     		bne	.L93
 858              	.L96:
 987:../libraries/STM32F10x_StdPeriph_Driver/src/stm32f10x_flash.c ****   WRP1_Data = (uint16_t)((FLASH_Pages & WRP1_Mask) >> 8);
 859              		.loc 1 987 0
 860 002c C4F30721 		ubfx	r1, r4, #8, #8
1007:../libraries/STM32F10x_StdPeriph_Driver/src/stm32f10x_flash.c ****     if((status == FLASH_COMPLETE) && (WRP1_Data != 0xFF))
 861              		.loc 1 1007 0
 862 0030 FF29     		cmp	r1, #255
 863 0032 09D1     		bne	.L94
 864 0034 10E0     		b	.L95
 865              	.L93:
1002:../libraries/STM32F10x_StdPeriph_Driver/src/stm32f10x_flash.c ****       OB->WRP0 = WRP0_Data;
 866              		.loc 1 1002 0
 867 0036 1A4B     		ldr	r3, .L116+8
1005:../libraries/STM32F10x_StdPeriph_Driver/src/stm32f10x_flash.c ****       status = FLASH_WaitForLastOperation(ProgramTimeout);
 868              		.loc 1 1005 0
 869 0038 4FF40050 		mov	r0, #8192
1002:../libraries/STM32F10x_StdPeriph_Driver/src/stm32f10x_flash.c ****       OB->WRP0 = WRP0_Data;
 870              		.loc 1 1002 0
 871 003c 1A81     		strh	r2, [r3, #8]	@ movhi
1005:../libraries/STM32F10x_StdPeriph_Driver/src/stm32f10x_flash.c ****       status = FLASH_WaitForLastOperation(ProgramTimeout);
 872              		.loc 1 1005 0
 873 003e FFF7FEFF 		bl	FLASH_WaitForLastOperation
 874              	.LVL56:
1007:../libraries/STM32F10x_StdPeriph_Driver/src/stm32f10x_flash.c ****     if((status == FLASH_COMPLETE) && (WRP1_Data != 0xFF))
 875              		.loc 1 1007 0
 876 0042 0428     		cmp	r0, #4
 877 0044 1FD1     		bne	.L102
 878 0046 F1E7     		b	.L96
 879              	.LVL57:
 880              	.L94:
1009:../libraries/STM32F10x_StdPeriph_Driver/src/stm32f10x_flash.c ****       OB->WRP1 = WRP1_Data;
 881              		.loc 1 1009 0
 882 0048 154A     		ldr	r2, .L116+8
1012:../libraries/STM32F10x_StdPeriph_Driver/src/stm32f10x_flash.c ****       status = FLASH_WaitForLastOperation(ProgramTimeout);
 883              		.loc 1 1012 0
 884 004a 4FF40050 		mov	r0, #8192
1009:../libraries/STM32F10x_StdPeriph_Driver/src/stm32f10x_flash.c ****       OB->WRP1 = WRP1_Data;
 885              		.loc 1 1009 0
 886 004e 5181     		strh	r1, [r2, #10]	@ movhi
1012:../libraries/STM32F10x_StdPeriph_Driver/src/stm32f10x_flash.c ****       status = FLASH_WaitForLastOperation(ProgramTimeout);
 887              		.loc 1 1012 0
 888 0050 FFF7FEFF 		bl	FLASH_WaitForLastOperation
 889              	.LVL58:
1014:../libraries/STM32F10x_StdPeriph_Driver/src/stm32f10x_flash.c ****     if((status == FLASH_COMPLETE) && (WRP2_Data != 0xFF))
 890              		.loc 1 1014 0
 891 0054 0428     		cmp	r0, #4
 892 0056 16D1     		bne	.L102
 893              	.LVL59:
 894              	.L95:
 988:../libraries/STM32F10x_StdPeriph_Driver/src/stm32f10x_flash.c ****   WRP2_Data = (uint16_t)((FLASH_Pages & WRP2_Mask) >> 16);
 895              		.loc 1 988 0
 896 0058 C4F30740 		ubfx	r0, r4, #16, #8
1014:../libraries/STM32F10x_StdPeriph_Driver/src/stm32f10x_flash.c ****     if((status == FLASH_COMPLETE) && (WRP2_Data != 0xFF))
 897              		.loc 1 1014 0
 898 005c FF28     		cmp	r0, #255
 899 005e 07D0     		beq	.L99
 900              	.L98:
1016:../libraries/STM32F10x_StdPeriph_Driver/src/stm32f10x_flash.c ****       OB->WRP2 = WRP2_Data;
 901              		.loc 1 1016 0
 902 0060 0F4B     		ldr	r3, .L116+8
 903 0062 9881     		strh	r0, [r3, #12]	@ movhi
1019:../libraries/STM32F10x_StdPeriph_Driver/src/stm32f10x_flash.c ****       status = FLASH_WaitForLastOperation(ProgramTimeout);
 904              		.loc 1 1019 0
 905 0064 4FF40050 		mov	r0, #8192
 906 0068 FFF7FEFF 		bl	FLASH_WaitForLastOperation
 907              	.LVL60:
1022:../libraries/STM32F10x_StdPeriph_Driver/src/stm32f10x_flash.c ****     if((status == FLASH_COMPLETE)&& (WRP3_Data != 0xFF))
 908              		.loc 1 1022 0
 909 006c 0428     		cmp	r0, #4
 910 006e 0AD1     		bne	.L102
 911              	.LVL61:
 912              	.L99:
 989:../libraries/STM32F10x_StdPeriph_Driver/src/stm32f10x_flash.c ****   WRP3_Data = (uint16_t)((FLASH_Pages & WRP3_Mask) >> 24);
 913              		.loc 1 989 0
 914 0070 240E     		lsrs	r4, r4, #24
 915              	.LVL62:
1022:../libraries/STM32F10x_StdPeriph_Driver/src/stm32f10x_flash.c ****     if((status == FLASH_COMPLETE)&& (WRP3_Data != 0xFF))
 916              		.loc 1 1022 0
 917 0072 FF2C     		cmp	r4, #255
 918 0074 01D1     		bne	.L100
 919 0076 0420     		movs	r0, #4
 920 0078 07E0     		b	.L101
 921              	.L100:
1024:../libraries/STM32F10x_StdPeriph_Driver/src/stm32f10x_flash.c ****       OB->WRP3 = WRP3_Data;
 922              		.loc 1 1024 0
 923 007a 0949     		ldr	r1, .L116+8
1027:../libraries/STM32F10x_StdPeriph_Driver/src/stm32f10x_flash.c ****       status = FLASH_WaitForLastOperation(ProgramTimeout);
 924              		.loc 1 1027 0
 925 007c 4FF40050 		mov	r0, #8192
1024:../libraries/STM32F10x_StdPeriph_Driver/src/stm32f10x_flash.c ****       OB->WRP3 = WRP3_Data;
 926              		.loc 1 1024 0
 927 0080 CC81     		strh	r4, [r1, #14]	@ movhi
1027:../libraries/STM32F10x_StdPeriph_Driver/src/stm32f10x_flash.c ****       status = FLASH_WaitForLastOperation(ProgramTimeout);
 928              		.loc 1 1027 0
 929 0082 FFF7FEFF 		bl	FLASH_WaitForLastOperation
 930              	.LVL63:
 931              	.L102:
1030:../libraries/STM32F10x_StdPeriph_Driver/src/stm32f10x_flash.c ****     if(status != FLASH_TIMEOUT)
 932              		.loc 1 1030 0
 933 0086 0528     		cmp	r0, #5
 934 0088 05D0     		beq	.L92
 935              	.LVL64:
 936              	.L101:
1033:../libraries/STM32F10x_StdPeriph_Driver/src/stm32f10x_flash.c ****       FLASH->CR &= CR_OPTPG_Reset;
 937              		.loc 1 1033 0
 938 008a 044A     		ldr	r2, .L116+4
 939 008c 41F6EF73 		movw	r3, #8175
 940 0090 1169     		ldr	r1, [r2, #16]
 941 0092 0B40     		ands	r3, r3, r1
 942 0094 1361     		str	r3, [r2, #16]
 943              	.L92:
 944              	.LVL65:
1038:../libraries/STM32F10x_StdPeriph_Driver/src/stm32f10x_flash.c **** }
 945              		.loc 1 1038 0
 946 0096 10BD     		pop	{r4, pc}
 947              	.L117:
 948              		.align	2
 949              	.L116:
 950 0098 23016745 		.word	1164378403
 951 009c 00200240 		.word	1073881088
 952 00a0 00F8FF1F 		.word	536868864
 953              		.cfi_endproc
 954              	.LFE70:
 956              		.section	.text.FLASH_ProgramOptionByteData,"ax",%progbits
 957              		.align	1
 958              		.global	FLASH_ProgramOptionByteData
 959              		.thumb
 960              		.thumb_func
 962              	FLASH_ProgramOptionByteData:
 963              	.LFB69:
 931:../libraries/STM32F10x_StdPeriph_Driver/src/stm32f10x_flash.c **** {
 964              		.loc 1 931 0
 965              		.cfi_startproc
 966              		@ args = 0, pretend = 0, frame = 0
 967              		@ frame_needed = 0, uses_anonymous_args = 0
 968              	.LVL66:
 969 0000 70B5     		push	{r4, r5, r6, lr}
 970              	.LCFI4:
 971              		.cfi_def_cfa_offset 16
 972              		.cfi_offset 4, -16
 973              		.cfi_offset 5, -12
 974              		.cfi_offset 6, -8
 975              		.cfi_offset 14, -4
 931:../libraries/STM32F10x_StdPeriph_Driver/src/stm32f10x_flash.c **** {
 976              		.loc 1 931 0
 977 0002 0546     		mov	r5, r0
 935:../libraries/STM32F10x_StdPeriph_Driver/src/stm32f10x_flash.c ****   status = FLASH_WaitForLastOperation(ProgramTimeout);
 978              		.loc 1 935 0
 979 0004 4FF40050 		mov	r0, #8192
 980              	.LVL67:
 931:../libraries/STM32F10x_StdPeriph_Driver/src/stm32f10x_flash.c **** {
 981              		.loc 1 931 0
 982 0008 0E46     		mov	r6, r1
 935:../libraries/STM32F10x_StdPeriph_Driver/src/stm32f10x_flash.c ****   status = FLASH_WaitForLastOperation(ProgramTimeout);
 983              		.loc 1 935 0
 984 000a FFF7FEFF 		bl	FLASH_WaitForLastOperation
 985              	.LVL68:
 937:../libraries/STM32F10x_StdPeriph_Driver/src/stm32f10x_flash.c ****   if(status == FLASH_COMPLETE)
 986              		.loc 1 937 0
 987 000e 0428     		cmp	r0, #4
 988 0010 15D1     		bne	.L119
 940:../libraries/STM32F10x_StdPeriph_Driver/src/stm32f10x_flash.c ****     FLASH->OPTKEYR = FLASH_KEY1;
 989              		.loc 1 940 0
 990 0012 0B4B     		ldr	r3, .L123
 991 0014 0B4C     		ldr	r4, .L123+4
 941:../libraries/STM32F10x_StdPeriph_Driver/src/stm32f10x_flash.c ****     FLASH->OPTKEYR = FLASH_KEY2;
 992              		.loc 1 941 0
 993 0016 03F18830 		add	r0, r3, #-2004318072
 994              	.LVL69:
 940:../libraries/STM32F10x_StdPeriph_Driver/src/stm32f10x_flash.c ****     FLASH->OPTKEYR = FLASH_KEY1;
 995              		.loc 1 940 0
 996 001a A360     		str	r3, [r4, #8]
 941:../libraries/STM32F10x_StdPeriph_Driver/src/stm32f10x_flash.c ****     FLASH->OPTKEYR = FLASH_KEY2;
 997              		.loc 1 941 0
 998 001c A060     		str	r0, [r4, #8]
 943:../libraries/STM32F10x_StdPeriph_Driver/src/stm32f10x_flash.c ****     FLASH->CR |= CR_OPTPG_Set; 
 999              		.loc 1 943 0
 1000 001e 2169     		ldr	r1, [r4, #16]
 947:../libraries/STM32F10x_StdPeriph_Driver/src/stm32f10x_flash.c ****     status = FLASH_WaitForLastOperation(ProgramTimeout);
 1001              		.loc 1 947 0
 1002 0020 4FF40050 		mov	r0, #8192
 943:../libraries/STM32F10x_StdPeriph_Driver/src/stm32f10x_flash.c ****     FLASH->CR |= CR_OPTPG_Set; 
 1003              		.loc 1 943 0
 1004 0024 41F01002 		orr	r2, r1, #16
 1005 0028 2261     		str	r2, [r4, #16]
 944:../libraries/STM32F10x_StdPeriph_Driver/src/stm32f10x_flash.c ****     *(__IO uint16_t*)Address = Data;
 1006              		.loc 1 944 0
 1007 002a 2E80     		strh	r6, [r5, #0]	@ movhi
 947:../libraries/STM32F10x_StdPeriph_Driver/src/stm32f10x_flash.c ****     status = FLASH_WaitForLastOperation(ProgramTimeout);
 1008              		.loc 1 947 0
 1009 002c FFF7FEFF 		bl	FLASH_WaitForLastOperation
 1010              	.LVL70:
 948:../libraries/STM32F10x_StdPeriph_Driver/src/stm32f10x_flash.c ****     if(status != FLASH_TIMEOUT)
 1011              		.loc 1 948 0
 1012 0030 0528     		cmp	r0, #5
 1013 0032 04D0     		beq	.L119
 951:../libraries/STM32F10x_StdPeriph_Driver/src/stm32f10x_flash.c ****       FLASH->CR &= CR_OPTPG_Reset;
 1014              		.loc 1 951 0
 1015 0034 2169     		ldr	r1, [r4, #16]
 1016 0036 41F6EF73 		movw	r3, #8175
 1017 003a 0B40     		ands	r3, r3, r1
 1018 003c 2361     		str	r3, [r4, #16]
 1019              	.LVL71:
 1020              	.L119:
 956:../libraries/STM32F10x_StdPeriph_Driver/src/stm32f10x_flash.c **** }
 1021              		.loc 1 956 0
 1022 003e 70BD     		pop	{r4, r5, r6, pc}
 1023              	.L124:
 1024              		.align	2
 1025              	.L123:
 1026 0040 23016745 		.word	1164378403
 1027 0044 00200240 		.word	1073881088
 1028              		.cfi_endproc
 1029              	.LFE69:
 1031              		.section	.text.FLASH_ProgramHalfWord,"ax",%progbits
 1032              		.align	1
 1033              		.global	FLASH_ProgramHalfWord
 1034              		.thumb
 1035              		.thumb_func
 1037              	FLASH_ProgramHalfWord:
 1038              	.LFB68:
 860:../libraries/STM32F10x_StdPeriph_Driver/src/stm32f10x_flash.c **** {
 1039              		.loc 1 860 0
 1040              		.cfi_startproc
 1041              		@ args = 0, pretend = 0, frame = 0
 1042              		@ frame_needed = 0, uses_anonymous_args = 0
 1043              	.LVL72:
 1044 0000 70B5     		push	{r4, r5, r6, lr}
 1045              	.LCFI5:
 1046              		.cfi_def_cfa_offset 16
 1047              		.cfi_offset 4, -16
 1048              		.cfi_offset 5, -12
 1049              		.cfi_offset 6, -8
 1050              		.cfi_offset 14, -4
 860:../libraries/STM32F10x_StdPeriph_Driver/src/stm32f10x_flash.c **** {
 1051              		.loc 1 860 0
 1052 0002 0546     		mov	r5, r0
 901:../libraries/STM32F10x_StdPeriph_Driver/src/stm32f10x_flash.c ****   status = FLASH_WaitForLastOperation(ProgramTimeout);
 1053              		.loc 1 901 0
 1054 0004 4FF40050 		mov	r0, #8192
 1055              	.LVL73:
 860:../libraries/STM32F10x_StdPeriph_Driver/src/stm32f10x_flash.c **** {
 1056              		.loc 1 860 0
 1057 0008 0E46     		mov	r6, r1
 901:../libraries/STM32F10x_StdPeriph_Driver/src/stm32f10x_flash.c ****   status = FLASH_WaitForLastOperation(ProgramTimeout);
 1058              		.loc 1 901 0
 1059 000a FFF7FEFF 		bl	FLASH_WaitForLastOperation
 1060              	.LVL74:
 903:../libraries/STM32F10x_StdPeriph_Driver/src/stm32f10x_flash.c ****   if(status == FLASH_COMPLETE)
 1061              		.loc 1 903 0
 1062 000e 0428     		cmp	r0, #4
 1063 0010 0ED1     		bne	.L126
 906:../libraries/STM32F10x_StdPeriph_Driver/src/stm32f10x_flash.c ****     FLASH->CR |= CR_PG_Set;
 1064              		.loc 1 906 0
 1065 0012 084C     		ldr	r4, .L127
 1066 0014 2369     		ldr	r3, [r4, #16]
 1067 0016 43F00100 		orr	r0, r3, #1
 1068              	.LVL75:
 1069 001a 2061     		str	r0, [r4, #16]
 908:../libraries/STM32F10x_StdPeriph_Driver/src/stm32f10x_flash.c ****     *(__IO uint16_t*)Address = Data;
 1070              		.loc 1 908 0
 1071 001c 2E80     		strh	r6, [r5, #0]	@ movhi
 910:../libraries/STM32F10x_StdPeriph_Driver/src/stm32f10x_flash.c ****     status = FLASH_WaitForLastOperation(ProgramTimeout);
 1072              		.loc 1 910 0
 1073 001e 4FF40050 		mov	r0, #8192
 1074 0022 FFF7FEFF 		bl	FLASH_WaitForLastOperation
 1075              	.LVL76:
 913:../libraries/STM32F10x_StdPeriph_Driver/src/stm32f10x_flash.c ****     FLASH->CR &= CR_PG_Reset;
 1076              		.loc 1 913 0
 1077 0026 2269     		ldr	r2, [r4, #16]
 1078 0028 41F6FE71 		movw	r1, #8190
 1079 002c 1140     		ands	r1, r1, r2
 1080 002e 2161     		str	r1, [r4, #16]
 1081              	.LVL77:
 1082              	.L126:
 919:../libraries/STM32F10x_StdPeriph_Driver/src/stm32f10x_flash.c **** }
 1083              		.loc 1 919 0
 1084 0030 70BD     		pop	{r4, r5, r6, pc}
 1085              	.L128:
 1086 0032 00BF     		.align	2
 1087              	.L127:
 1088 0034 00200240 		.word	1073881088
 1089              		.cfi_endproc
 1090              	.LFE68:
 1092              		.section	.text.FLASH_ProgramWord,"ax",%progbits
 1093              		.align	1
 1094              		.global	FLASH_ProgramWord
 1095              		.thumb
 1096              		.thumb_func
 1098              	FLASH_ProgramWord:
 1099              	.LFB67:
 683:../libraries/STM32F10x_StdPeriph_Driver/src/stm32f10x_flash.c **** {
 1100              		.loc 1 683 0
 1101              		.cfi_startproc
 1102              		@ args = 0, pretend = 0, frame = 8
 1103              		@ frame_needed = 0, uses_anonymous_args = 0
 1104              	.LVL78:
 1105 0000 73B5     		push	{r0, r1, r4, r5, r6, lr}
 1106              	.LCFI6:
 1107              		.cfi_def_cfa_offset 24
 1108              		.cfi_offset 0, -24
 1109              		.cfi_offset 1, -20
 1110              		.cfi_offset 4, -16
 1111              		.cfi_offset 5, -12
 1112              		.cfi_offset 6, -8
 1113              		.cfi_offset 14, -4
 685:../libraries/STM32F10x_StdPeriph_Driver/src/stm32f10x_flash.c ****   __IO uint32_t tmp = 0;
 1114              		.loc 1 685 0
 1115 0002 0023     		movs	r3, #0
 683:../libraries/STM32F10x_StdPeriph_Driver/src/stm32f10x_flash.c **** {
 1116              		.loc 1 683 0
 1117 0004 0646     		mov	r6, r0
 813:../libraries/STM32F10x_StdPeriph_Driver/src/stm32f10x_flash.c ****   status = FLASH_WaitForLastOperation(ProgramTimeout);
 1118              		.loc 1 813 0
 1119 0006 4FF40050 		mov	r0, #8192
 1120              	.LVL79:
 683:../libraries/STM32F10x_StdPeriph_Driver/src/stm32f10x_flash.c **** {
 1121              		.loc 1 683 0
 1122 000a 0D46     		mov	r5, r1
 685:../libraries/STM32F10x_StdPeriph_Driver/src/stm32f10x_flash.c ****   __IO uint32_t tmp = 0;
 1123              		.loc 1 685 0
 1124 000c 0193     		str	r3, [sp, #4]
 1125              	.LVL80:
 813:../libraries/STM32F10x_StdPeriph_Driver/src/stm32f10x_flash.c ****   status = FLASH_WaitForLastOperation(ProgramTimeout);
 1126              		.loc 1 813 0
 1127 000e FFF7FEFF 		bl	FLASH_WaitForLastOperation
 1128              	.LVL81:
 815:../libraries/STM32F10x_StdPeriph_Driver/src/stm32f10x_flash.c ****   if(status == FLASH_COMPLETE)
 1129              		.loc 1 815 0
 1130 0012 0428     		cmp	r0, #4
 1131 0014 1AD1     		bne	.L130
 819:../libraries/STM32F10x_StdPeriph_Driver/src/stm32f10x_flash.c ****     FLASH->CR |= CR_PG_Set;
 1132              		.loc 1 819 0
 1133 0016 0E4C     		ldr	r4, .L132
 821:../libraries/STM32F10x_StdPeriph_Driver/src/stm32f10x_flash.c ****     *(__IO uint16_t*)Address = (uint16_t)Data;
 1134              		.loc 1 821 0
 1135 0018 AAB2     		uxth	r2, r5
 819:../libraries/STM32F10x_StdPeriph_Driver/src/stm32f10x_flash.c ****     FLASH->CR |= CR_PG_Set;
 1136              		.loc 1 819 0
 1137 001a 2069     		ldr	r0, [r4, #16]
 1138              	.LVL82:
 1139 001c 40F00101 		orr	r1, r0, #1
 1140 0020 2161     		str	r1, [r4, #16]
 823:../libraries/STM32F10x_StdPeriph_Driver/src/stm32f10x_flash.c ****     status = FLASH_WaitForLastOperation(ProgramTimeout);
 1141              		.loc 1 823 0
 1142 0022 4FF40050 		mov	r0, #8192
 821:../libraries/STM32F10x_StdPeriph_Driver/src/stm32f10x_flash.c ****     *(__IO uint16_t*)Address = (uint16_t)Data;
 1143              		.loc 1 821 0
 1144 0026 3280     		strh	r2, [r6, #0]	@ movhi
 823:../libraries/STM32F10x_StdPeriph_Driver/src/stm32f10x_flash.c ****     status = FLASH_WaitForLastOperation(ProgramTimeout);
 1145              		.loc 1 823 0
 1146 0028 FFF7FEFF 		bl	FLASH_WaitForLastOperation
 1147              	.LVL83:
 825:../libraries/STM32F10x_StdPeriph_Driver/src/stm32f10x_flash.c ****     if(status == FLASH_COMPLETE)
 1148              		.loc 1 825 0
 1149 002c 0428     		cmp	r0, #4
 1150 002e 08D1     		bne	.L131
 829:../libraries/STM32F10x_StdPeriph_Driver/src/stm32f10x_flash.c ****       tmp = Address + 2;
 1151              		.loc 1 829 0
 1152 0030 0236     		adds	r6, r6, #2
 1153              	.LVL84:
 1154 0032 0196     		str	r6, [sp, #4]
 1155              	.LVL85:
 831:../libraries/STM32F10x_StdPeriph_Driver/src/stm32f10x_flash.c ****       *(__IO uint16_t*) tmp = Data >> 16;
 1156              		.loc 1 831 0
 1157 0034 019B     		ldr	r3, [sp, #4]
 1158 0036 2D0C     		lsrs	r5, r5, #16
 1159              	.LVL86:
 1160 0038 1D80     		strh	r5, [r3, #0]	@ movhi
 834:../libraries/STM32F10x_StdPeriph_Driver/src/stm32f10x_flash.c ****       status = FLASH_WaitForLastOperation(ProgramTimeout);
 1161              		.loc 1 834 0
 1162 003a 4FF40050 		mov	r0, #8192
 1163              	.LVL87:
 1164 003e FFF7FEFF 		bl	FLASH_WaitForLastOperation
 1165              	.LVL88:
 1166              	.L131:
 842:../libraries/STM32F10x_StdPeriph_Driver/src/stm32f10x_flash.c ****       FLASH->CR &= CR_PG_Reset;
 1167              		.loc 1 842 0
 1168 0042 2169     		ldr	r1, [r4, #16]
 1169 0044 41F6FE72 		movw	r2, #8190
 1170 0048 0A40     		ands	r2, r2, r1
 1171 004a 2261     		str	r2, [r4, #16]
 1172              	.L130:
 1173              	.LVL89:
 849:../libraries/STM32F10x_StdPeriph_Driver/src/stm32f10x_flash.c **** }
 1174              		.loc 1 849 0
 1175 004c 7CBD     		pop	{r2, r3, r4, r5, r6, pc}
 1176              	.L133:
 1177 004e 00BF     		.align	2
 1178              	.L132:
 1179 0050 00200240 		.word	1073881088
 1180              		.cfi_endproc
 1181              	.LFE67:
 1183              		.section	.text.FLASH_EraseOptionBytes,"ax",%progbits
 1184              		.align	1
 1185              		.global	FLASH_EraseOptionBytes
 1186              		.thumb
 1187              		.thumb_func
 1189              	FLASH_EraseOptionBytes:
 1190              	.LFB66:
 618:../libraries/STM32F10x_StdPeriph_Driver/src/stm32f10x_flash.c **** {
 1191              		.loc 1 618 0
 1192              		.cfi_startproc
 1193              		@ args = 0, pretend = 0, frame = 0
 1194              		@ frame_needed = 0, uses_anonymous_args = 0
 1195              	.LVL90:
 1196 0000 38B5     		push	{r3, r4, r5, lr}
 1197              	.LCFI7:
 1198              		.cfi_def_cfa_offset 16
 1199              		.cfi_offset 3, -16
 1200              		.cfi_offset 4, -12
 1201              		.cfi_offset 5, -8
 1202              		.cfi_offset 14, -4
 624:../libraries/STM32F10x_StdPeriph_Driver/src/stm32f10x_flash.c ****   if(FLASH_GetReadOutProtectionStatus() != RESET)
 1203              		.loc 1 624 0
 1204 0002 FFF7FEFF 		bl	FLASH_GetReadOutProtectionStatus
 1205              	.LVL91:
 619:../libraries/STM32F10x_StdPeriph_Driver/src/stm32f10x_flash.c ****   uint16_t rdptmp = RDP_Key;
 1206              		.loc 1 619 0
 1207 0006 0028     		cmp	r0, #0
 1208 0008 0CBF     		ite	eq
 1209 000a A525     		moveq	r5, #165
 1210 000c 0025     		movne	r5, #0
 1211              	.LVL92:
 630:../libraries/STM32F10x_StdPeriph_Driver/src/stm32f10x_flash.c ****   status = FLASH_WaitForLastOperation(EraseTimeout);
 1212              		.loc 1 630 0
 1213 000e 4FF43020 		mov	r0, #720896
 1214 0012 FFF7FEFF 		bl	FLASH_WaitForLastOperation
 1215              	.LVL93:
 631:../libraries/STM32F10x_StdPeriph_Driver/src/stm32f10x_flash.c ****   if(status == FLASH_COMPLETE)
 1216              		.loc 1 631 0
 1217 0016 0428     		cmp	r0, #4
 1218 0018 2BD1     		bne	.L136
 634:../libraries/STM32F10x_StdPeriph_Driver/src/stm32f10x_flash.c ****     FLASH->OPTKEYR = FLASH_KEY1;
 1219              		.loc 1 634 0
 1220 001a 164B     		ldr	r3, .L146
 1221 001c 164C     		ldr	r4, .L146+4
 635:../libraries/STM32F10x_StdPeriph_Driver/src/stm32f10x_flash.c ****     FLASH->OPTKEYR = FLASH_KEY2;
 1222              		.loc 1 635 0
 1223 001e 03F18830 		add	r0, r3, #-2004318072
 1224              	.LVL94:
 634:../libraries/STM32F10x_StdPeriph_Driver/src/stm32f10x_flash.c ****     FLASH->OPTKEYR = FLASH_KEY1;
 1225              		.loc 1 634 0
 1226 0022 A360     		str	r3, [r4, #8]
 635:../libraries/STM32F10x_StdPeriph_Driver/src/stm32f10x_flash.c ****     FLASH->OPTKEYR = FLASH_KEY2;
 1227              		.loc 1 635 0
 1228 0024 A060     		str	r0, [r4, #8]
 638:../libraries/STM32F10x_StdPeriph_Driver/src/stm32f10x_flash.c ****     FLASH->CR |= CR_OPTER_Set;
 1229              		.loc 1 638 0
 1230 0026 2169     		ldr	r1, [r4, #16]
 1231 0028 41F02002 		orr	r2, r1, #32
 1232 002c 2261     		str	r2, [r4, #16]
 639:../libraries/STM32F10x_StdPeriph_Driver/src/stm32f10x_flash.c ****     FLASH->CR |= CR_STRT_Set;
 1233              		.loc 1 639 0
 1234 002e 2369     		ldr	r3, [r4, #16]
 1235 0030 43F04000 		orr	r0, r3, #64
 1236 0034 2061     		str	r0, [r4, #16]
 641:../libraries/STM32F10x_StdPeriph_Driver/src/stm32f10x_flash.c ****     status = FLASH_WaitForLastOperation(EraseTimeout);
 1237              		.loc 1 641 0
 1238 0036 4FF43020 		mov	r0, #720896
 1239 003a FFF7FEFF 		bl	FLASH_WaitForLastOperation
 1240              	.LVL95:
 643:../libraries/STM32F10x_StdPeriph_Driver/src/stm32f10x_flash.c ****     if(status == FLASH_COMPLETE)
 1241              		.loc 1 643 0
 1242 003e 0428     		cmp	r0, #4
 1243 0040 0ED1     		bne	.L145
 646:../libraries/STM32F10x_StdPeriph_Driver/src/stm32f10x_flash.c ****       FLASH->CR &= CR_OPTER_Reset;
 1244              		.loc 1 646 0
 1245 0042 2169     		ldr	r1, [r4, #16]
 1246 0044 41F6DF72 		movw	r2, #8159
 1247 0048 0A40     		ands	r2, r2, r1
 1248 004a 2261     		str	r2, [r4, #16]
 649:../libraries/STM32F10x_StdPeriph_Driver/src/stm32f10x_flash.c ****       FLASH->CR |= CR_OPTPG_Set;
 1249              		.loc 1 649 0
 1250 004c 2369     		ldr	r3, [r4, #16]
 651:../libraries/STM32F10x_StdPeriph_Driver/src/stm32f10x_flash.c ****       OB->RDP = (uint16_t)rdptmp; 
 1251              		.loc 1 651 0
 1252 004e 0B49     		ldr	r1, .L146+8
 649:../libraries/STM32F10x_StdPeriph_Driver/src/stm32f10x_flash.c ****       FLASH->CR |= CR_OPTPG_Set;
 1253              		.loc 1 649 0
 1254 0050 43F01000 		orr	r0, r3, #16
 1255              	.LVL96:
 1256 0054 2061     		str	r0, [r4, #16]
 651:../libraries/STM32F10x_StdPeriph_Driver/src/stm32f10x_flash.c ****       OB->RDP = (uint16_t)rdptmp; 
 1257              		.loc 1 651 0
 1258 0056 0D80     		strh	r5, [r1, #0]	@ movhi
 653:../libraries/STM32F10x_StdPeriph_Driver/src/stm32f10x_flash.c ****       status = FLASH_WaitForLastOperation(ProgramTimeout);
 1259              		.loc 1 653 0
 1260 0058 4FF40050 		mov	r0, #8192
 1261 005c FFF7FEFF 		bl	FLASH_WaitForLastOperation
 1262              	.LVL97:
 1263              	.L145:
 655:../libraries/STM32F10x_StdPeriph_Driver/src/stm32f10x_flash.c ****       if(status != FLASH_TIMEOUT)
 1264              		.loc 1 655 0
 1265 0060 0528     		cmp	r0, #5
 1266 0062 01D1     		bne	.L144
 626:../libraries/STM32F10x_StdPeriph_Driver/src/stm32f10x_flash.c ****     rdptmp = 0x00;  
 1267              		.loc 1 626 0
 1268 0064 0520     		movs	r0, #5
 1269              	.LVL98:
 1270 0066 38BD     		pop	{r3, r4, r5, pc}
 1271              	.LVL99:
 1272              	.L144:
 666:../libraries/STM32F10x_StdPeriph_Driver/src/stm32f10x_flash.c ****         FLASH->CR &= CR_OPTPG_Reset;
 1273              		.loc 1 666 0
 1274 0068 2269     		ldr	r2, [r4, #16]
 1275 006a 41F6EF73 		movw	r3, #8175
 1276 006e 1340     		ands	r3, r3, r2
 1277 0070 2361     		str	r3, [r4, #16]
 1278              	.LVL100:
 1279              	.L136:
 672:../libraries/STM32F10x_StdPeriph_Driver/src/stm32f10x_flash.c **** }
 1280              		.loc 1 672 0
 1281 0072 38BD     		pop	{r3, r4, r5, pc}
 1282              	.L147:
 1283              		.align	2
 1284              	.L146:
 1285 0074 23016745 		.word	1164378403
 1286 0078 00200240 		.word	1073881088
 1287 007c 00F8FF1F 		.word	536868864
 1288              		.cfi_endproc
 1289              	.LFE66:
 1291              		.section	.text.FLASH_EraseAllPages,"ax",%progbits
 1292              		.align	1
 1293              		.global	FLASH_EraseAllPages
 1294              		.thumb
 1295              		.thumb_func
 1297              	FLASH_EraseAllPages:
 1298              	.LFB64:
 494:../libraries/STM32F10x_StdPeriph_Driver/src/stm32f10x_flash.c **** {
 1299              		.loc 1 494 0
 1300              		.cfi_startproc
 1301              		@ args = 0, pretend = 0, frame = 0
 1302              		@ frame_needed = 0, uses_anonymous_args = 0
 1303              	.LVL101:
 1304 0000 10B5     		push	{r4, lr}
 1305              	.LCFI8:
 1306              		.cfi_def_cfa_offset 8
 1307              		.cfi_offset 4, -8
 1308              		.cfi_offset 14, -4
 527:../libraries/STM32F10x_StdPeriph_Driver/src/stm32f10x_flash.c ****   status = FLASH_WaitForLastOperation(EraseTimeout);
 1309              		.loc 1 527 0
 1310 0002 4FF43020 		mov	r0, #720896
 1311 0006 FFF7FEFF 		bl	FLASH_WaitForLastOperation
 1312              	.LVL102:
 528:../libraries/STM32F10x_StdPeriph_Driver/src/stm32f10x_flash.c ****   if(status == FLASH_COMPLETE)
 1313              		.loc 1 528 0
 1314 000a 0428     		cmp	r0, #4
 1315 000c 11D1     		bne	.L149
 531:../libraries/STM32F10x_StdPeriph_Driver/src/stm32f10x_flash.c ****      FLASH->CR |= CR_MER_Set;
 1316              		.loc 1 531 0
 1317 000e 094C     		ldr	r4, .L150
 1318 0010 2369     		ldr	r3, [r4, #16]
 1319 0012 43F00400 		orr	r0, r3, #4
 1320              	.LVL103:
 1321 0016 2061     		str	r0, [r4, #16]
 532:../libraries/STM32F10x_StdPeriph_Driver/src/stm32f10x_flash.c ****      FLASH->CR |= CR_STRT_Set;
 1322              		.loc 1 532 0
 1323 0018 2169     		ldr	r1, [r4, #16]
 535:../libraries/STM32F10x_StdPeriph_Driver/src/stm32f10x_flash.c ****     status = FLASH_WaitForLastOperation(EraseTimeout);
 1324              		.loc 1 535 0
 1325 001a 4FF43020 		mov	r0, #720896
 532:../libraries/STM32F10x_StdPeriph_Driver/src/stm32f10x_flash.c ****      FLASH->CR |= CR_STRT_Set;
 1326              		.loc 1 532 0
 1327 001e 41F04002 		orr	r2, r1, #64
 1328 0022 2261     		str	r2, [r4, #16]
 535:../libraries/STM32F10x_StdPeriph_Driver/src/stm32f10x_flash.c ****     status = FLASH_WaitForLastOperation(EraseTimeout);
 1329              		.loc 1 535 0
 1330 0024 FFF7FEFF 		bl	FLASH_WaitForLastOperation
 1331              	.LVL104:
 538:../libraries/STM32F10x_StdPeriph_Driver/src/stm32f10x_flash.c ****     FLASH->CR &= CR_MER_Reset;
 1332              		.loc 1 538 0
 1333 0028 2169     		ldr	r1, [r4, #16]
 1334 002a 41F6FB73 		movw	r3, #8187
 1335 002e 0B40     		ands	r3, r3, r1
 1336 0030 2361     		str	r3, [r4, #16]
 1337              	.LVL105:
 1338              	.L149:
 544:../libraries/STM32F10x_StdPeriph_Driver/src/stm32f10x_flash.c **** }
 1339              		.loc 1 544 0
 1340 0032 10BD     		pop	{r4, pc}
 1341              	.L151:
 1342              		.align	2
 1343              	.L150:
 1344 0034 00200240 		.word	1073881088
 1345              		.cfi_endproc
 1346              	.LFE64:
 1348              		.section	.text.FLASH_ErasePage,"ax",%progbits
 1349              		.align	1
 1350              		.global	FLASH_ErasePage
 1351              		.thumb
 1352              		.thumb_func
 1354              	FLASH_ErasePage:
 1355              	.LFB63:
 421:../libraries/STM32F10x_StdPeriph_Driver/src/stm32f10x_flash.c **** {
 1356              		.loc 1 421 0
 1357              		.cfi_startproc
 1358              		@ args = 0, pretend = 0, frame = 0
 1359              		@ frame_needed = 0, uses_anonymous_args = 0
 1360              	.LVL106:
 1361 0000 38B5     		push	{r3, r4, r5, lr}
 1362              	.LCFI9:
 1363              		.cfi_def_cfa_offset 16
 1364              		.cfi_offset 3, -16
 1365              		.cfi_offset 4, -12
 1366              		.cfi_offset 5, -8
 1367              		.cfi_offset 14, -4
 421:../libraries/STM32F10x_StdPeriph_Driver/src/stm32f10x_flash.c **** {
 1368              		.loc 1 421 0
 1369 0002 0546     		mov	r5, r0
 465:../libraries/STM32F10x_StdPeriph_Driver/src/stm32f10x_flash.c ****   status = FLASH_WaitForLastOperation(EraseTimeout);
 1370              		.loc 1 465 0
 1371 0004 4FF43020 		mov	r0, #720896
 1372              	.LVL107:
 1373 0008 FFF7FEFF 		bl	FLASH_WaitForLastOperation
 1374              	.LVL108:
 467:../libraries/STM32F10x_StdPeriph_Driver/src/stm32f10x_flash.c ****   if(status == FLASH_COMPLETE)
 1375              		.loc 1 467 0
 1376 000c 0428     		cmp	r0, #4
 1377 000e 12D1     		bne	.L153
 470:../libraries/STM32F10x_StdPeriph_Driver/src/stm32f10x_flash.c ****     FLASH->CR|= CR_PER_Set;
 1378              		.loc 1 470 0
 1379 0010 094C     		ldr	r4, .L154
 1380 0012 2369     		ldr	r3, [r4, #16]
 1381 0014 43F00200 		orr	r0, r3, #2
 1382              	.LVL109:
 1383 0018 2061     		str	r0, [r4, #16]
 471:../libraries/STM32F10x_StdPeriph_Driver/src/stm32f10x_flash.c ****     FLASH->AR = Page_Address; 
 1384              		.loc 1 471 0
 1385 001a 6561     		str	r5, [r4, #20]
 472:../libraries/STM32F10x_StdPeriph_Driver/src/stm32f10x_flash.c ****     FLASH->CR|= CR_STRT_Set;
 1386              		.loc 1 472 0
 1387 001c 2169     		ldr	r1, [r4, #16]
 475:../libraries/STM32F10x_StdPeriph_Driver/src/stm32f10x_flash.c ****     status = FLASH_WaitForLastOperation(EraseTimeout);
 1388              		.loc 1 475 0
 1389 001e 4FF43020 		mov	r0, #720896
 472:../libraries/STM32F10x_StdPeriph_Driver/src/stm32f10x_flash.c ****     FLASH->CR|= CR_STRT_Set;
 1390              		.loc 1 472 0
 1391 0022 41F04002 		orr	r2, r1, #64
 1392 0026 2261     		str	r2, [r4, #16]
 475:../libraries/STM32F10x_StdPeriph_Driver/src/stm32f10x_flash.c ****     status = FLASH_WaitForLastOperation(EraseTimeout);
 1393              		.loc 1 475 0
 1394 0028 FFF7FEFF 		bl	FLASH_WaitForLastOperation
 1395              	.LVL110:
 478:../libraries/STM32F10x_StdPeriph_Driver/src/stm32f10x_flash.c ****     FLASH->CR &= CR_PER_Reset;
 1396              		.loc 1 478 0
 1397 002c 2169     		ldr	r1, [r4, #16]
 1398 002e 41F6FD73 		movw	r3, #8189
 1399 0032 0B40     		ands	r3, r3, r1
 1400 0034 2361     		str	r3, [r4, #16]
 1401              	.LVL111:
 1402              	.L153:
 484:../libraries/STM32F10x_StdPeriph_Driver/src/stm32f10x_flash.c **** }
 1403              		.loc 1 484 0
 1404 0036 38BD     		pop	{r3, r4, r5, pc}
 1405              	.L155:
 1406              		.align	2
 1407              	.L154:
 1408 0038 00200240 		.word	1073881088
 1409              		.cfi_endproc
 1410              	.LFE63:
 1412              		.section	.text.FLASH_WaitForLastBank1Operation,"ax",%progbits
 1413              		.align	1
 1414              		.global	FLASH_WaitForLastBank1Operation
 1415              		.thumb
 1416              		.thumb_func
 1418              	FLASH_WaitForLastBank1Operation:
 1419              	.LFB83:
1615:../libraries/STM32F10x_StdPeriph_Driver/src/stm32f10x_flash.c **** 
1616:../libraries/STM32F10x_StdPeriph_Driver/src/stm32f10x_flash.c **** /**
1617:../libraries/STM32F10x_StdPeriph_Driver/src/stm32f10x_flash.c ****   * @brief  Waits for a Flash operation on Bank1 to complete or a TIMEOUT to occur.
1618:../libraries/STM32F10x_StdPeriph_Driver/src/stm32f10x_flash.c ****   * @note   This function can be used for all STM32F10x devices, 
1619:../libraries/STM32F10x_StdPeriph_Driver/src/stm32f10x_flash.c ****   *         it is equivalent to FLASH_WaitForLastOperation.
1620:../libraries/STM32F10x_StdPeriph_Driver/src/stm32f10x_flash.c ****   * @param  Timeout: FLASH programming Timeout
1621:../libraries/STM32F10x_StdPeriph_Driver/src/stm32f10x_flash.c ****   * @retval FLASH Status: The returned value can be: FLASH_ERROR_PG,
1622:../libraries/STM32F10x_StdPeriph_Driver/src/stm32f10x_flash.c ****   *         FLASH_ERROR_WRP, FLASH_COMPLETE or FLASH_TIMEOUT.
1623:../libraries/STM32F10x_StdPeriph_Driver/src/stm32f10x_flash.c ****   */
1624:../libraries/STM32F10x_StdPeriph_Driver/src/stm32f10x_flash.c **** FLASH_Status FLASH_WaitForLastBank1Operation(uint32_t Timeout)
1625:../libraries/STM32F10x_StdPeriph_Driver/src/stm32f10x_flash.c **** { 
 1420              		.loc 1 1625 0
 1421              		.cfi_startproc
 1422              		@ args = 0, pretend = 0, frame = 0
 1423              		@ frame_needed = 0, uses_anonymous_args = 0
 1424              	.LVL112:
 1425 0000 10B5     		push	{r4, lr}
 1426              	.LCFI10:
 1427              		.cfi_def_cfa_offset 8
 1428              		.cfi_offset 4, -8
 1429              		.cfi_offset 14, -4
 1430              		.loc 1 1625 0
 1431 0002 0446     		mov	r4, r0
1626:../libraries/STM32F10x_StdPeriph_Driver/src/stm32f10x_flash.c ****   FLASH_Status status = FLASH_COMPLETE;
1627:../libraries/STM32F10x_StdPeriph_Driver/src/stm32f10x_flash.c ****    
1628:../libraries/STM32F10x_StdPeriph_Driver/src/stm32f10x_flash.c ****   /* Check for the Flash Status */
1629:../libraries/STM32F10x_StdPeriph_Driver/src/stm32f10x_flash.c ****   status = FLASH_GetBank1Status();
 1432              		.loc 1 1629 0
 1433 0004 FFF7FEFF 		bl	FLASH_GetBank1Status
 1434              	.LVL113:
 1435              	.L157:
1630:../libraries/STM32F10x_StdPeriph_Driver/src/stm32f10x_flash.c ****   /* Wait for a Flash operation to complete or a TIMEOUT to occur */
1631:../libraries/STM32F10x_StdPeriph_Driver/src/stm32f10x_flash.c ****   while((status == FLASH_FLAG_BANK1_BSY) && (Timeout != 0x00))
 1436              		.loc 1 1631 0 discriminator 1
 1437 0008 0128     		cmp	r0, #1
 1438 000a 06D1     		bne	.L158
 1439              		.loc 1 1631 0 is_stmt 0 discriminator 2
 1440 000c 1CB1     		cbz	r4, .L162
 1441              	.L159:
1632:../libraries/STM32F10x_StdPeriph_Driver/src/stm32f10x_flash.c ****   {
1633:../libraries/STM32F10x_StdPeriph_Driver/src/stm32f10x_flash.c ****     status = FLASH_GetBank1Status();
 1442              		.loc 1 1633 0 is_stmt 1
 1443 000e FFF7FEFF 		bl	FLASH_GetBank1Status
 1444              	.LVL114:
1634:../libraries/STM32F10x_StdPeriph_Driver/src/stm32f10x_flash.c ****     Timeout--;
 1445              		.loc 1 1634 0
 1446 0012 013C     		subs	r4, r4, #1
 1447              	.LVL115:
 1448 0014 F8E7     		b	.L157
 1449              	.L162:
1635:../libraries/STM32F10x_StdPeriph_Driver/src/stm32f10x_flash.c ****   }
1636:../libraries/STM32F10x_StdPeriph_Driver/src/stm32f10x_flash.c ****   if(Timeout == 0x00 )
1637:../libraries/STM32F10x_StdPeriph_Driver/src/stm32f10x_flash.c ****   {
1638:../libraries/STM32F10x_StdPeriph_Driver/src/stm32f10x_flash.c ****     status = FLASH_TIMEOUT;
 1450              		.loc 1 1638 0
 1451 0016 0520     		movs	r0, #5
 1452              	.LVL116:
 1453 0018 10BD     		pop	{r4, pc}
 1454              	.LVL117:
 1455              	.L158:
 1456 001a 002C     		cmp	r4, #0
 1457 001c 08BF     		it	eq
 1458 001e 0520     		moveq	r0, #5
 1459              	.LVL118:
1639:../libraries/STM32F10x_StdPeriph_Driver/src/stm32f10x_flash.c ****   }
1640:../libraries/STM32F10x_StdPeriph_Driver/src/stm32f10x_flash.c ****   /* Return the operation status */
1641:../libraries/STM32F10x_StdPeriph_Driver/src/stm32f10x_flash.c ****   return status;
1642:../libraries/STM32F10x_StdPeriph_Driver/src/stm32f10x_flash.c **** }
 1460              		.loc 1 1642 0
 1461 0020 10BD     		pop	{r4, pc}
 1462              		.cfi_endproc
 1463              	.LFE83:
 1465              		.section	.text.FLASH_EraseAllBank1Pages,"ax",%progbits
 1466              		.align	1
 1467              		.global	FLASH_EraseAllBank1Pages
 1468              		.thumb
 1469              		.thumb_func
 1471              	FLASH_EraseAllBank1Pages:
 1472              	.LFB65:
 557:../libraries/STM32F10x_StdPeriph_Driver/src/stm32f10x_flash.c **** {
 1473              		.loc 1 557 0
 1474              		.cfi_startproc
 1475              		@ args = 0, pretend = 0, frame = 0
 1476              		@ frame_needed = 0, uses_anonymous_args = 0
 1477              	.LVL119:
 1478 0000 10B5     		push	{r4, lr}
 1479              	.LCFI11:
 1480              		.cfi_def_cfa_offset 8
 1481              		.cfi_offset 4, -8
 1482              		.cfi_offset 14, -4
 560:../libraries/STM32F10x_StdPeriph_Driver/src/stm32f10x_flash.c ****   status = FLASH_WaitForLastBank1Operation(EraseTimeout);
 1483              		.loc 1 560 0
 1484 0002 4FF43020 		mov	r0, #720896
 1485 0006 FFF7FEFF 		bl	FLASH_WaitForLastBank1Operation
 1486              	.LVL120:
 562:../libraries/STM32F10x_StdPeriph_Driver/src/stm32f10x_flash.c ****   if(status == FLASH_COMPLETE)
 1487              		.loc 1 562 0
 1488 000a 0428     		cmp	r0, #4
 1489 000c 11D1     		bne	.L164
 565:../libraries/STM32F10x_StdPeriph_Driver/src/stm32f10x_flash.c ****      FLASH->CR |= CR_MER_Set;
 1490              		.loc 1 565 0
 1491 000e 094C     		ldr	r4, .L165
 1492 0010 2369     		ldr	r3, [r4, #16]
 1493 0012 43F00400 		orr	r0, r3, #4
 1494              	.LVL121:
 1495 0016 2061     		str	r0, [r4, #16]
 566:../libraries/STM32F10x_StdPeriph_Driver/src/stm32f10x_flash.c ****      FLASH->CR |= CR_STRT_Set;
 1496              		.loc 1 566 0
 1497 0018 2169     		ldr	r1, [r4, #16]
 569:../libraries/STM32F10x_StdPeriph_Driver/src/stm32f10x_flash.c ****     status = FLASH_WaitForLastBank1Operation(EraseTimeout);
 1498              		.loc 1 569 0
 1499 001a 4FF43020 		mov	r0, #720896
 566:../libraries/STM32F10x_StdPeriph_Driver/src/stm32f10x_flash.c ****      FLASH->CR |= CR_STRT_Set;
 1500              		.loc 1 566 0
 1501 001e 41F04002 		orr	r2, r1, #64
 1502 0022 2261     		str	r2, [r4, #16]
 569:../libraries/STM32F10x_StdPeriph_Driver/src/stm32f10x_flash.c ****     status = FLASH_WaitForLastBank1Operation(EraseTimeout);
 1503              		.loc 1 569 0
 1504 0024 FFF7FEFF 		bl	FLASH_WaitForLastBank1Operation
 1505              	.LVL122:
 572:../libraries/STM32F10x_StdPeriph_Driver/src/stm32f10x_flash.c ****     FLASH->CR &= CR_MER_Reset;
 1506              		.loc 1 572 0
 1507 0028 2169     		ldr	r1, [r4, #16]
 1508 002a 41F6FB73 		movw	r3, #8187
 1509 002e 0B40     		ands	r3, r3, r1
 1510 0030 2361     		str	r3, [r4, #16]
 1511              	.LVL123:
 1512              	.L164:
 576:../libraries/STM32F10x_StdPeriph_Driver/src/stm32f10x_flash.c **** }
 1513              		.loc 1 576 0
 1514 0032 10BD     		pop	{r4, pc}
 1515              	.L166:
 1516              		.align	2
 1517              	.L165:
 1518 0034 00200240 		.word	1073881088
 1519              		.cfi_endproc
 1520              	.LFE65:
 1522              		.text
 1523              	.Letext0:
 1524              		.file 2 "/usr/local/gcc-arm-none-eabi-4_7-2013q1/bin/../lib/gcc/arm-none-eabi/4.7.3/../../../../ar
 1525              		.file 3 "/Users/zac/code/spark/usb-dfu/libraries/CMSIS/Device/ST/STM32F10x/Include/stm32f10x.h"
 1526              		.file 4 "/Users/zac/code/spark/usb-dfu/libraries/STM32F10x_StdPeriph_Driver/inc/stm32f10x_flash.h"
 1527              		.file 5 "/Users/zac/code/spark/usb-dfu/libraries/CMSIS/Include/core_cm3.h"