   1              		.syntax unified
   2              		.cpu cortex-m3
   3              		.fpu softvfp
   4              		.eabi_attribute 20, 1
   5              		.eabi_attribute 21, 1
   6              		.eabi_attribute 23, 3
   7              		.eabi_attribute 24, 1
   8              		.eabi_attribute 25, 1
   9              		.eabi_attribute 26, 1
  10              		.eabi_attribute 30, 6
  11              		.eabi_attribute 34, 1
  12              		.eabi_attribute 18, 4
  13              		.thumb
  14              		.file	"stm32f10x_exti.c"
  15              		.text
  16              	.Ltext0:
  17              		.cfi_sections	.debug_frame
  18              		.section	.text.EXTI_DeInit,"ax",%progbits
  19              		.align	2
  20              		.global	EXTI_DeInit
  21              		.thumb
  22              		.thumb_func
  24              	EXTI_DeInit:
  25              	.LFB56:
  26              		.file 1 "../libraries/STM32F10x_StdPeriph_Driver/src/stm32f10x_exti.c"
   1:../libraries/STM32F10x_StdPeriph_Driver/src/stm32f10x_exti.c **** /**
   2:../libraries/STM32F10x_StdPeriph_Driver/src/stm32f10x_exti.c ****   ******************************************************************************
   3:../libraries/STM32F10x_StdPeriph_Driver/src/stm32f10x_exti.c ****   * @file    stm32f10x_exti.c
   4:../libraries/STM32F10x_StdPeriph_Driver/src/stm32f10x_exti.c ****   * @author  MCD Application Team
   5:../libraries/STM32F10x_StdPeriph_Driver/src/stm32f10x_exti.c ****   * @version V3.6.1
   6:../libraries/STM32F10x_StdPeriph_Driver/src/stm32f10x_exti.c ****   * @date    05-March-2012
   7:../libraries/STM32F10x_StdPeriph_Driver/src/stm32f10x_exti.c ****   * @brief   This file provides all the EXTI firmware functions.
   8:../libraries/STM32F10x_StdPeriph_Driver/src/stm32f10x_exti.c ****   ******************************************************************************
   9:../libraries/STM32F10x_StdPeriph_Driver/src/stm32f10x_exti.c ****   * @attention
  10:../libraries/STM32F10x_StdPeriph_Driver/src/stm32f10x_exti.c ****   *
  11:../libraries/STM32F10x_StdPeriph_Driver/src/stm32f10x_exti.c ****   * <h2><center>&copy; COPYRIGHT 2012 STMicroelectronics</center></h2>
  12:../libraries/STM32F10x_StdPeriph_Driver/src/stm32f10x_exti.c ****   *
  13:../libraries/STM32F10x_StdPeriph_Driver/src/stm32f10x_exti.c ****   * Licensed under MCD-ST Liberty SW License Agreement V2, (the "License");
  14:../libraries/STM32F10x_StdPeriph_Driver/src/stm32f10x_exti.c ****   * You may not use this file except in compliance with the License.
  15:../libraries/STM32F10x_StdPeriph_Driver/src/stm32f10x_exti.c ****   * You may obtain a copy of the License at:
  16:../libraries/STM32F10x_StdPeriph_Driver/src/stm32f10x_exti.c ****   *
  17:../libraries/STM32F10x_StdPeriph_Driver/src/stm32f10x_exti.c ****   *        http://www.st.com/software_license_agreement_liberty_v2
  18:../libraries/STM32F10x_StdPeriph_Driver/src/stm32f10x_exti.c ****   *
  19:../libraries/STM32F10x_StdPeriph_Driver/src/stm32f10x_exti.c ****   * Unless required by applicable law or agreed to in writing, software 
  20:../libraries/STM32F10x_StdPeriph_Driver/src/stm32f10x_exti.c ****   * distributed under the License is distributed on an "AS IS" BASIS, 
  21:../libraries/STM32F10x_StdPeriph_Driver/src/stm32f10x_exti.c ****   * WITHOUT WARRANTIES OR CONDITIONS OF ANY KIND, either express or implied.
  22:../libraries/STM32F10x_StdPeriph_Driver/src/stm32f10x_exti.c ****   * See the License for the specific language governing permissions and
  23:../libraries/STM32F10x_StdPeriph_Driver/src/stm32f10x_exti.c ****   * limitations under the License.
  24:../libraries/STM32F10x_StdPeriph_Driver/src/stm32f10x_exti.c ****   *
  25:../libraries/STM32F10x_StdPeriph_Driver/src/stm32f10x_exti.c ****   ******************************************************************************
  26:../libraries/STM32F10x_StdPeriph_Driver/src/stm32f10x_exti.c ****   */
  27:../libraries/STM32F10x_StdPeriph_Driver/src/stm32f10x_exti.c **** 
  28:../libraries/STM32F10x_StdPeriph_Driver/src/stm32f10x_exti.c **** /* Includes ------------------------------------------------------------------*/
  29:../libraries/STM32F10x_StdPeriph_Driver/src/stm32f10x_exti.c **** #include "stm32f10x_exti.h"
  30:../libraries/STM32F10x_StdPeriph_Driver/src/stm32f10x_exti.c **** 
  31:../libraries/STM32F10x_StdPeriph_Driver/src/stm32f10x_exti.c **** /** @addtogroup STM32F10x_StdPeriph_Driver
  32:../libraries/STM32F10x_StdPeriph_Driver/src/stm32f10x_exti.c ****   * @{
  33:../libraries/STM32F10x_StdPeriph_Driver/src/stm32f10x_exti.c ****   */
  34:../libraries/STM32F10x_StdPeriph_Driver/src/stm32f10x_exti.c **** 
  35:../libraries/STM32F10x_StdPeriph_Driver/src/stm32f10x_exti.c **** /** @defgroup EXTI 
  36:../libraries/STM32F10x_StdPeriph_Driver/src/stm32f10x_exti.c ****   * @brief EXTI driver modules
  37:../libraries/STM32F10x_StdPeriph_Driver/src/stm32f10x_exti.c ****   * @{
  38:../libraries/STM32F10x_StdPeriph_Driver/src/stm32f10x_exti.c ****   */
  39:../libraries/STM32F10x_StdPeriph_Driver/src/stm32f10x_exti.c **** 
  40:../libraries/STM32F10x_StdPeriph_Driver/src/stm32f10x_exti.c **** /** @defgroup EXTI_Private_TypesDefinitions
  41:../libraries/STM32F10x_StdPeriph_Driver/src/stm32f10x_exti.c ****   * @{
  42:../libraries/STM32F10x_StdPeriph_Driver/src/stm32f10x_exti.c ****   */
  43:../libraries/STM32F10x_StdPeriph_Driver/src/stm32f10x_exti.c **** 
  44:../libraries/STM32F10x_StdPeriph_Driver/src/stm32f10x_exti.c **** /**
  45:../libraries/STM32F10x_StdPeriph_Driver/src/stm32f10x_exti.c ****   * @}
  46:../libraries/STM32F10x_StdPeriph_Driver/src/stm32f10x_exti.c ****   */
  47:../libraries/STM32F10x_StdPeriph_Driver/src/stm32f10x_exti.c **** 
  48:../libraries/STM32F10x_StdPeriph_Driver/src/stm32f10x_exti.c **** /** @defgroup EXTI_Private_Defines
  49:../libraries/STM32F10x_StdPeriph_Driver/src/stm32f10x_exti.c ****   * @{
  50:../libraries/STM32F10x_StdPeriph_Driver/src/stm32f10x_exti.c ****   */
  51:../libraries/STM32F10x_StdPeriph_Driver/src/stm32f10x_exti.c **** 
  52:../libraries/STM32F10x_StdPeriph_Driver/src/stm32f10x_exti.c **** #define EXTI_LINENONE    ((uint32_t)0x00000)  /* No interrupt selected */
  53:../libraries/STM32F10x_StdPeriph_Driver/src/stm32f10x_exti.c **** 
  54:../libraries/STM32F10x_StdPeriph_Driver/src/stm32f10x_exti.c **** /**
  55:../libraries/STM32F10x_StdPeriph_Driver/src/stm32f10x_exti.c ****   * @}
  56:../libraries/STM32F10x_StdPeriph_Driver/src/stm32f10x_exti.c ****   */
  57:../libraries/STM32F10x_StdPeriph_Driver/src/stm32f10x_exti.c **** 
  58:../libraries/STM32F10x_StdPeriph_Driver/src/stm32f10x_exti.c **** /** @defgroup EXTI_Private_Macros
  59:../libraries/STM32F10x_StdPeriph_Driver/src/stm32f10x_exti.c ****   * @{
  60:../libraries/STM32F10x_StdPeriph_Driver/src/stm32f10x_exti.c ****   */
  61:../libraries/STM32F10x_StdPeriph_Driver/src/stm32f10x_exti.c **** 
  62:../libraries/STM32F10x_StdPeriph_Driver/src/stm32f10x_exti.c **** /**
  63:../libraries/STM32F10x_StdPeriph_Driver/src/stm32f10x_exti.c ****   * @}
  64:../libraries/STM32F10x_StdPeriph_Driver/src/stm32f10x_exti.c ****   */
  65:../libraries/STM32F10x_StdPeriph_Driver/src/stm32f10x_exti.c **** 
  66:../libraries/STM32F10x_StdPeriph_Driver/src/stm32f10x_exti.c **** /** @defgroup EXTI_Private_Variables
  67:../libraries/STM32F10x_StdPeriph_Driver/src/stm32f10x_exti.c ****   * @{
  68:../libraries/STM32F10x_StdPeriph_Driver/src/stm32f10x_exti.c ****   */
  69:../libraries/STM32F10x_StdPeriph_Driver/src/stm32f10x_exti.c **** 
  70:../libraries/STM32F10x_StdPeriph_Driver/src/stm32f10x_exti.c **** /**
  71:../libraries/STM32F10x_StdPeriph_Driver/src/stm32f10x_exti.c ****   * @}
  72:../libraries/STM32F10x_StdPeriph_Driver/src/stm32f10x_exti.c ****   */
  73:../libraries/STM32F10x_StdPeriph_Driver/src/stm32f10x_exti.c **** 
  74:../libraries/STM32F10x_StdPeriph_Driver/src/stm32f10x_exti.c **** /** @defgroup EXTI_Private_FunctionPrototypes
  75:../libraries/STM32F10x_StdPeriph_Driver/src/stm32f10x_exti.c ****   * @{
  76:../libraries/STM32F10x_StdPeriph_Driver/src/stm32f10x_exti.c ****   */
  77:../libraries/STM32F10x_StdPeriph_Driver/src/stm32f10x_exti.c **** 
  78:../libraries/STM32F10x_StdPeriph_Driver/src/stm32f10x_exti.c **** /**
  79:../libraries/STM32F10x_StdPeriph_Driver/src/stm32f10x_exti.c ****   * @}
  80:../libraries/STM32F10x_StdPeriph_Driver/src/stm32f10x_exti.c ****   */
  81:../libraries/STM32F10x_StdPeriph_Driver/src/stm32f10x_exti.c **** 
  82:../libraries/STM32F10x_StdPeriph_Driver/src/stm32f10x_exti.c **** /** @defgroup EXTI_Private_Functions
  83:../libraries/STM32F10x_StdPeriph_Driver/src/stm32f10x_exti.c ****   * @{
  84:../libraries/STM32F10x_StdPeriph_Driver/src/stm32f10x_exti.c ****   */
  85:../libraries/STM32F10x_StdPeriph_Driver/src/stm32f10x_exti.c **** 
  86:../libraries/STM32F10x_StdPeriph_Driver/src/stm32f10x_exti.c **** /**
  87:../libraries/STM32F10x_StdPeriph_Driver/src/stm32f10x_exti.c ****   * @brief  Deinitializes the EXTI peripheral registers to their default reset values.
  88:../libraries/STM32F10x_StdPeriph_Driver/src/stm32f10x_exti.c ****   * @param  None
  89:../libraries/STM32F10x_StdPeriph_Driver/src/stm32f10x_exti.c ****   * @retval None
  90:../libraries/STM32F10x_StdPeriph_Driver/src/stm32f10x_exti.c ****   */
  91:../libraries/STM32F10x_StdPeriph_Driver/src/stm32f10x_exti.c **** void EXTI_DeInit(void)
  92:../libraries/STM32F10x_StdPeriph_Driver/src/stm32f10x_exti.c **** {
  27              		.loc 1 92 0
  28              		.cfi_startproc
  29              		@ args = 0, pretend = 0, frame = 0
  30              		@ frame_needed = 1, uses_anonymous_args = 0
  31              		@ link register save eliminated.
  32 0000 80B4     		push	{r7}
  33              	.LCFI0:
  34              		.cfi_def_cfa_offset 4
  35              		.cfi_offset 7, -4
  36 0002 00AF     		add	r7, sp, #0
  37              	.LCFI1:
  38              		.cfi_def_cfa_register 7
  93:../libraries/STM32F10x_StdPeriph_Driver/src/stm32f10x_exti.c ****   EXTI->IMR = 0x00000000;
  39              		.loc 1 93 0
  40 0004 4FF48063 		mov	r3, #1024
  41 0008 C4F20103 		movt	r3, 16385
  42 000c 4FF00002 		mov	r2, #0
  43 0010 1A60     		str	r2, [r3, #0]
  94:../libraries/STM32F10x_StdPeriph_Driver/src/stm32f10x_exti.c ****   EXTI->EMR = 0x00000000;
  44              		.loc 1 94 0
  45 0012 4FF48063 		mov	r3, #1024
  46 0016 C4F20103 		movt	r3, 16385
  47 001a 4FF00002 		mov	r2, #0
  48 001e 5A60     		str	r2, [r3, #4]
  95:../libraries/STM32F10x_StdPeriph_Driver/src/stm32f10x_exti.c ****   EXTI->RTSR = 0x00000000; 
  49              		.loc 1 95 0
  50 0020 4FF48063 		mov	r3, #1024
  51 0024 C4F20103 		movt	r3, 16385
  52 0028 4FF00002 		mov	r2, #0
  53 002c 9A60     		str	r2, [r3, #8]
  96:../libraries/STM32F10x_StdPeriph_Driver/src/stm32f10x_exti.c ****   EXTI->FTSR = 0x00000000; 
  54              		.loc 1 96 0
  55 002e 4FF48063 		mov	r3, #1024
  56 0032 C4F20103 		movt	r3, 16385
  57 0036 4FF00002 		mov	r2, #0
  58 003a DA60     		str	r2, [r3, #12]
  97:../libraries/STM32F10x_StdPeriph_Driver/src/stm32f10x_exti.c ****   EXTI->PR = 0x000FFFFF;
  59              		.loc 1 97 0
  60 003c 4FF48063 		mov	r3, #1024
  61 0040 C4F20103 		movt	r3, 16385
  62 0044 4FF6FF72 		movw	r2, #65535
  63 0048 C0F20F02 		movt	r2, 15
  64 004c 5A61     		str	r2, [r3, #20]
  98:../libraries/STM32F10x_StdPeriph_Driver/src/stm32f10x_exti.c **** }
  65              		.loc 1 98 0
  66 004e BD46     		mov	sp, r7
  67 0050 80BC     		pop	{r7}
  68 0052 7047     		bx	lr
  69              		.cfi_endproc
  70              	.LFE56:
  72              		.section	.text.EXTI_Init,"ax",%progbits
  73              		.align	2
  74              		.global	EXTI_Init
  75              		.thumb
  76              		.thumb_func
  78              	EXTI_Init:
  79              	.LFB57:
  99:../libraries/STM32F10x_StdPeriph_Driver/src/stm32f10x_exti.c **** 
 100:../libraries/STM32F10x_StdPeriph_Driver/src/stm32f10x_exti.c **** /**
 101:../libraries/STM32F10x_StdPeriph_Driver/src/stm32f10x_exti.c ****   * @brief  Initializes the EXTI peripheral according to the specified
 102:../libraries/STM32F10x_StdPeriph_Driver/src/stm32f10x_exti.c ****   *         parameters in the EXTI_InitStruct.
 103:../libraries/STM32F10x_StdPeriph_Driver/src/stm32f10x_exti.c ****   * @param  EXTI_InitStruct: pointer to a EXTI_InitTypeDef structure
 104:../libraries/STM32F10x_StdPeriph_Driver/src/stm32f10x_exti.c ****   *         that contains the configuration information for the EXTI peripheral.
 105:../libraries/STM32F10x_StdPeriph_Driver/src/stm32f10x_exti.c ****   * @retval None
 106:../libraries/STM32F10x_StdPeriph_Driver/src/stm32f10x_exti.c ****   */
 107:../libraries/STM32F10x_StdPeriph_Driver/src/stm32f10x_exti.c **** void EXTI_Init(EXTI_InitTypeDef* EXTI_InitStruct)
 108:../libraries/STM32F10x_StdPeriph_Driver/src/stm32f10x_exti.c **** {
  80              		.loc 1 108 0
  81              		.cfi_startproc
  82              		@ args = 0, pretend = 0, frame = 16
  83              		@ frame_needed = 1, uses_anonymous_args = 0
  84              		@ link register save eliminated.
  85 0000 80B4     		push	{r7}
  86              	.LCFI2:
  87              		.cfi_def_cfa_offset 4
  88              		.cfi_offset 7, -4
  89 0002 85B0     		sub	sp, sp, #20
  90              	.LCFI3:
  91              		.cfi_def_cfa_offset 24
  92 0004 00AF     		add	r7, sp, #0
  93              	.LCFI4:
  94              		.cfi_def_cfa_register 7
  95 0006 7860     		str	r0, [r7, #4]
 109:../libraries/STM32F10x_StdPeriph_Driver/src/stm32f10x_exti.c ****   uint32_t tmp = 0;
  96              		.loc 1 109 0
  97 0008 4FF00003 		mov	r3, #0
  98 000c FB60     		str	r3, [r7, #12]
 110:../libraries/STM32F10x_StdPeriph_Driver/src/stm32f10x_exti.c **** 
 111:../libraries/STM32F10x_StdPeriph_Driver/src/stm32f10x_exti.c ****   /* Check the parameters */
 112:../libraries/STM32F10x_StdPeriph_Driver/src/stm32f10x_exti.c ****   assert_param(IS_EXTI_MODE(EXTI_InitStruct->EXTI_Mode));
 113:../libraries/STM32F10x_StdPeriph_Driver/src/stm32f10x_exti.c ****   assert_param(IS_EXTI_TRIGGER(EXTI_InitStruct->EXTI_Trigger));
 114:../libraries/STM32F10x_StdPeriph_Driver/src/stm32f10x_exti.c ****   assert_param(IS_EXTI_LINE(EXTI_InitStruct->EXTI_Line));  
 115:../libraries/STM32F10x_StdPeriph_Driver/src/stm32f10x_exti.c ****   assert_param(IS_FUNCTIONAL_STATE(EXTI_InitStruct->EXTI_LineCmd));
 116:../libraries/STM32F10x_StdPeriph_Driver/src/stm32f10x_exti.c **** 
 117:../libraries/STM32F10x_StdPeriph_Driver/src/stm32f10x_exti.c ****   tmp = (uint32_t)EXTI_BASE;
  99              		.loc 1 117 0
 100 000e 4FF48063 		mov	r3, #1024
 101 0012 C4F20103 		movt	r3, 16385
 102 0016 FB60     		str	r3, [r7, #12]
 118:../libraries/STM32F10x_StdPeriph_Driver/src/stm32f10x_exti.c ****      
 119:../libraries/STM32F10x_StdPeriph_Driver/src/stm32f10x_exti.c ****   if (EXTI_InitStruct->EXTI_LineCmd != DISABLE)
 103              		.loc 1 119 0
 104 0018 7B68     		ldr	r3, [r7, #4]
 105 001a 9B79     		ldrb	r3, [r3, #6]	@ zero_extendqisi2
 106 001c 002B     		cmp	r3, #0
 107 001e 78D0     		beq	.L3
 120:../libraries/STM32F10x_StdPeriph_Driver/src/stm32f10x_exti.c ****   {
 121:../libraries/STM32F10x_StdPeriph_Driver/src/stm32f10x_exti.c ****     /* Clear EXTI line configuration */
 122:../libraries/STM32F10x_StdPeriph_Driver/src/stm32f10x_exti.c ****     EXTI->IMR &= ~EXTI_InitStruct->EXTI_Line;
 108              		.loc 1 122 0
 109 0020 4FF48063 		mov	r3, #1024
 110 0024 C4F20103 		movt	r3, 16385
 111 0028 4FF48062 		mov	r2, #1024
 112 002c C4F20102 		movt	r2, 16385
 113 0030 1168     		ldr	r1, [r2, #0]
 114 0032 7A68     		ldr	r2, [r7, #4]
 115 0034 1268     		ldr	r2, [r2, #0]
 116 0036 6FEA0202 		mvn	r2, r2
 117 003a 0A40     		ands	r2, r2, r1
 118 003c 1A60     		str	r2, [r3, #0]
 123:../libraries/STM32F10x_StdPeriph_Driver/src/stm32f10x_exti.c ****     EXTI->EMR &= ~EXTI_InitStruct->EXTI_Line;
 119              		.loc 1 123 0
 120 003e 4FF48063 		mov	r3, #1024
 121 0042 C4F20103 		movt	r3, 16385
 122 0046 4FF48062 		mov	r2, #1024
 123 004a C4F20102 		movt	r2, 16385
 124 004e 5168     		ldr	r1, [r2, #4]
 125 0050 7A68     		ldr	r2, [r7, #4]
 126 0052 1268     		ldr	r2, [r2, #0]
 127 0054 6FEA0202 		mvn	r2, r2
 128 0058 0A40     		ands	r2, r2, r1
 129 005a 5A60     		str	r2, [r3, #4]
 124:../libraries/STM32F10x_StdPeriph_Driver/src/stm32f10x_exti.c ****     
 125:../libraries/STM32F10x_StdPeriph_Driver/src/stm32f10x_exti.c ****     tmp += EXTI_InitStruct->EXTI_Mode;
 130              		.loc 1 125 0
 131 005c 7B68     		ldr	r3, [r7, #4]
 132 005e 1B79     		ldrb	r3, [r3, #4]	@ zero_extendqisi2
 133 0060 FA68     		ldr	r2, [r7, #12]
 134 0062 D318     		adds	r3, r2, r3
 135 0064 FB60     		str	r3, [r7, #12]
 126:../libraries/STM32F10x_StdPeriph_Driver/src/stm32f10x_exti.c **** 
 127:../libraries/STM32F10x_StdPeriph_Driver/src/stm32f10x_exti.c ****     *(__IO uint32_t *) tmp |= EXTI_InitStruct->EXTI_Line;
 136              		.loc 1 127 0
 137 0066 FB68     		ldr	r3, [r7, #12]
 138 0068 FA68     		ldr	r2, [r7, #12]
 139 006a 1168     		ldr	r1, [r2, #0]
 140 006c 7A68     		ldr	r2, [r7, #4]
 141 006e 1268     		ldr	r2, [r2, #0]
 142 0070 0A43     		orrs	r2, r2, r1
 143 0072 1A60     		str	r2, [r3, #0]
 128:../libraries/STM32F10x_StdPeriph_Driver/src/stm32f10x_exti.c **** 
 129:../libraries/STM32F10x_StdPeriph_Driver/src/stm32f10x_exti.c ****     /* Clear Rising Falling edge configuration */
 130:../libraries/STM32F10x_StdPeriph_Driver/src/stm32f10x_exti.c ****     EXTI->RTSR &= ~EXTI_InitStruct->EXTI_Line;
 144              		.loc 1 130 0
 145 0074 4FF48063 		mov	r3, #1024
 146 0078 C4F20103 		movt	r3, 16385
 147 007c 4FF48062 		mov	r2, #1024
 148 0080 C4F20102 		movt	r2, 16385
 149 0084 9168     		ldr	r1, [r2, #8]
 150 0086 7A68     		ldr	r2, [r7, #4]
 151 0088 1268     		ldr	r2, [r2, #0]
 152 008a 6FEA0202 		mvn	r2, r2
 153 008e 0A40     		ands	r2, r2, r1
 154 0090 9A60     		str	r2, [r3, #8]
 131:../libraries/STM32F10x_StdPeriph_Driver/src/stm32f10x_exti.c ****     EXTI->FTSR &= ~EXTI_InitStruct->EXTI_Line;
 155              		.loc 1 131 0
 156 0092 4FF48063 		mov	r3, #1024
 157 0096 C4F20103 		movt	r3, 16385
 158 009a 4FF48062 		mov	r2, #1024
 159 009e C4F20102 		movt	r2, 16385
 160 00a2 D168     		ldr	r1, [r2, #12]
 161 00a4 7A68     		ldr	r2, [r7, #4]
 162 00a6 1268     		ldr	r2, [r2, #0]
 163 00a8 6FEA0202 		mvn	r2, r2
 164 00ac 0A40     		ands	r2, r2, r1
 165 00ae DA60     		str	r2, [r3, #12]
 132:../libraries/STM32F10x_StdPeriph_Driver/src/stm32f10x_exti.c ****     
 133:../libraries/STM32F10x_StdPeriph_Driver/src/stm32f10x_exti.c ****     /* Select the trigger for the selected external interrupts */
 134:../libraries/STM32F10x_StdPeriph_Driver/src/stm32f10x_exti.c ****     if (EXTI_InitStruct->EXTI_Trigger == EXTI_Trigger_Rising_Falling)
 166              		.loc 1 134 0
 167 00b0 7B68     		ldr	r3, [r7, #4]
 168 00b2 5B79     		ldrb	r3, [r3, #5]	@ zero_extendqisi2
 169 00b4 102B     		cmp	r3, #16
 170 00b6 1AD1     		bne	.L4
 135:../libraries/STM32F10x_StdPeriph_Driver/src/stm32f10x_exti.c ****     {
 136:../libraries/STM32F10x_StdPeriph_Driver/src/stm32f10x_exti.c ****       /* Rising Falling edge */
 137:../libraries/STM32F10x_StdPeriph_Driver/src/stm32f10x_exti.c ****       EXTI->RTSR |= EXTI_InitStruct->EXTI_Line;
 171              		.loc 1 137 0
 172 00b8 4FF48063 		mov	r3, #1024
 173 00bc C4F20103 		movt	r3, 16385
 174 00c0 4FF48062 		mov	r2, #1024
 175 00c4 C4F20102 		movt	r2, 16385
 176 00c8 9168     		ldr	r1, [r2, #8]
 177 00ca 7A68     		ldr	r2, [r7, #4]
 178 00cc 1268     		ldr	r2, [r2, #0]
 179 00ce 0A43     		orrs	r2, r2, r1
 180 00d0 9A60     		str	r2, [r3, #8]
 138:../libraries/STM32F10x_StdPeriph_Driver/src/stm32f10x_exti.c ****       EXTI->FTSR |= EXTI_InitStruct->EXTI_Line;
 181              		.loc 1 138 0
 182 00d2 4FF48063 		mov	r3, #1024
 183 00d6 C4F20103 		movt	r3, 16385
 184 00da 4FF48062 		mov	r2, #1024
 185 00de C4F20102 		movt	r2, 16385
 186 00e2 D168     		ldr	r1, [r2, #12]
 187 00e4 7A68     		ldr	r2, [r7, #4]
 188 00e6 1268     		ldr	r2, [r2, #0]
 189 00e8 0A43     		orrs	r2, r2, r1
 190 00ea DA60     		str	r2, [r3, #12]
 191 00ec 1FE0     		b	.L2
 192              	.L4:
 139:../libraries/STM32F10x_StdPeriph_Driver/src/stm32f10x_exti.c ****     }
 140:../libraries/STM32F10x_StdPeriph_Driver/src/stm32f10x_exti.c ****     else
 141:../libraries/STM32F10x_StdPeriph_Driver/src/stm32f10x_exti.c ****     {
 142:../libraries/STM32F10x_StdPeriph_Driver/src/stm32f10x_exti.c ****       tmp = (uint32_t)EXTI_BASE;
 193              		.loc 1 142 0
 194 00ee 4FF48063 		mov	r3, #1024
 195 00f2 C4F20103 		movt	r3, 16385
 196 00f6 FB60     		str	r3, [r7, #12]
 143:../libraries/STM32F10x_StdPeriph_Driver/src/stm32f10x_exti.c ****       tmp += EXTI_InitStruct->EXTI_Trigger;
 197              		.loc 1 143 0
 198 00f8 7B68     		ldr	r3, [r7, #4]
 199 00fa 5B79     		ldrb	r3, [r3, #5]	@ zero_extendqisi2
 200 00fc FA68     		ldr	r2, [r7, #12]
 201 00fe D318     		adds	r3, r2, r3
 202 0100 FB60     		str	r3, [r7, #12]
 144:../libraries/STM32F10x_StdPeriph_Driver/src/stm32f10x_exti.c **** 
 145:../libraries/STM32F10x_StdPeriph_Driver/src/stm32f10x_exti.c ****       *(__IO uint32_t *) tmp |= EXTI_InitStruct->EXTI_Line;
 203              		.loc 1 145 0
 204 0102 FB68     		ldr	r3, [r7, #12]
 205 0104 FA68     		ldr	r2, [r7, #12]
 206 0106 1168     		ldr	r1, [r2, #0]
 207 0108 7A68     		ldr	r2, [r7, #4]
 208 010a 1268     		ldr	r2, [r2, #0]
 209 010c 0A43     		orrs	r2, r2, r1
 210 010e 1A60     		str	r2, [r3, #0]
 211 0110 0DE0     		b	.L2
 212              	.L3:
 146:../libraries/STM32F10x_StdPeriph_Driver/src/stm32f10x_exti.c ****     }
 147:../libraries/STM32F10x_StdPeriph_Driver/src/stm32f10x_exti.c ****   }
 148:../libraries/STM32F10x_StdPeriph_Driver/src/stm32f10x_exti.c ****   else
 149:../libraries/STM32F10x_StdPeriph_Driver/src/stm32f10x_exti.c ****   {
 150:../libraries/STM32F10x_StdPeriph_Driver/src/stm32f10x_exti.c ****     tmp += EXTI_InitStruct->EXTI_Mode;
 213              		.loc 1 150 0
 214 0112 7B68     		ldr	r3, [r7, #4]
 215 0114 1B79     		ldrb	r3, [r3, #4]	@ zero_extendqisi2
 216 0116 FA68     		ldr	r2, [r7, #12]
 217 0118 D318     		adds	r3, r2, r3
 218 011a FB60     		str	r3, [r7, #12]
 151:../libraries/STM32F10x_StdPeriph_Driver/src/stm32f10x_exti.c **** 
 152:../libraries/STM32F10x_StdPeriph_Driver/src/stm32f10x_exti.c ****     /* Disable the selected external lines */
 153:../libraries/STM32F10x_StdPeriph_Driver/src/stm32f10x_exti.c ****     *(__IO uint32_t *) tmp &= ~EXTI_InitStruct->EXTI_Line;
 219              		.loc 1 153 0
 220 011c FB68     		ldr	r3, [r7, #12]
 221 011e FA68     		ldr	r2, [r7, #12]
 222 0120 1168     		ldr	r1, [r2, #0]
 223 0122 7A68     		ldr	r2, [r7, #4]
 224 0124 1268     		ldr	r2, [r2, #0]
 225 0126 6FEA0202 		mvn	r2, r2
 226 012a 0A40     		ands	r2, r2, r1
 227 012c 1A60     		str	r2, [r3, #0]
 228              	.L2:
 154:../libraries/STM32F10x_StdPeriph_Driver/src/stm32f10x_exti.c ****   }
 155:../libraries/STM32F10x_StdPeriph_Driver/src/stm32f10x_exti.c **** }
 229              		.loc 1 155 0
 230 012e 07F11407 		add	r7, r7, #20
 231 0132 BD46     		mov	sp, r7
 232 0134 80BC     		pop	{r7}
 233 0136 7047     		bx	lr
 234              		.cfi_endproc
 235              	.LFE57:
 237              		.section	.text.EXTI_StructInit,"ax",%progbits
 238              		.align	2
 239              		.global	EXTI_StructInit
 240              		.thumb
 241              		.thumb_func
 243              	EXTI_StructInit:
 244              	.LFB58:
 156:../libraries/STM32F10x_StdPeriph_Driver/src/stm32f10x_exti.c **** 
 157:../libraries/STM32F10x_StdPeriph_Driver/src/stm32f10x_exti.c **** /**
 158:../libraries/STM32F10x_StdPeriph_Driver/src/stm32f10x_exti.c ****   * @brief  Fills each EXTI_InitStruct member with its reset value.
 159:../libraries/STM32F10x_StdPeriph_Driver/src/stm32f10x_exti.c ****   * @param  EXTI_InitStruct: pointer to a EXTI_InitTypeDef structure which will
 160:../libraries/STM32F10x_StdPeriph_Driver/src/stm32f10x_exti.c ****   *         be initialized.
 161:../libraries/STM32F10x_StdPeriph_Driver/src/stm32f10x_exti.c ****   * @retval None
 162:../libraries/STM32F10x_StdPeriph_Driver/src/stm32f10x_exti.c ****   */
 163:../libraries/STM32F10x_StdPeriph_Driver/src/stm32f10x_exti.c **** void EXTI_StructInit(EXTI_InitTypeDef* EXTI_InitStruct)
 164:../libraries/STM32F10x_StdPeriph_Driver/src/stm32f10x_exti.c **** {
 245              		.loc 1 164 0
 246              		.cfi_startproc
 247              		@ args = 0, pretend = 0, frame = 8
 248              		@ frame_needed = 1, uses_anonymous_args = 0
 249              		@ link register save eliminated.
 250 0000 80B4     		push	{r7}
 251              	.LCFI5:
 252              		.cfi_def_cfa_offset 4
 253              		.cfi_offset 7, -4
 254 0002 83B0     		sub	sp, sp, #12
 255              	.LCFI6:
 256              		.cfi_def_cfa_offset 16
 257 0004 00AF     		add	r7, sp, #0
 258              	.LCFI7:
 259              		.cfi_def_cfa_register 7
 260 0006 7860     		str	r0, [r7, #4]
 165:../libraries/STM32F10x_StdPeriph_Driver/src/stm32f10x_exti.c ****   EXTI_InitStruct->EXTI_Line = EXTI_LINENONE;
 261              		.loc 1 165 0
 262 0008 7B68     		ldr	r3, [r7, #4]
 263 000a 4FF00002 		mov	r2, #0
 264 000e 1A60     		str	r2, [r3, #0]
 166:../libraries/STM32F10x_StdPeriph_Driver/src/stm32f10x_exti.c ****   EXTI_InitStruct->EXTI_Mode = EXTI_Mode_Interrupt;
 265              		.loc 1 166 0
 266 0010 7B68     		ldr	r3, [r7, #4]
 267 0012 4FF00002 		mov	r2, #0
 268 0016 1A71     		strb	r2, [r3, #4]
 167:../libraries/STM32F10x_StdPeriph_Driver/src/stm32f10x_exti.c ****   EXTI_InitStruct->EXTI_Trigger = EXTI_Trigger_Falling;
 269              		.loc 1 167 0
 270 0018 7B68     		ldr	r3, [r7, #4]
 271 001a 4FF00C02 		mov	r2, #12
 272 001e 5A71     		strb	r2, [r3, #5]
 168:../libraries/STM32F10x_StdPeriph_Driver/src/stm32f10x_exti.c ****   EXTI_InitStruct->EXTI_LineCmd = DISABLE;
 273              		.loc 1 168 0
 274 0020 7B68     		ldr	r3, [r7, #4]
 275 0022 4FF00002 		mov	r2, #0
 276 0026 9A71     		strb	r2, [r3, #6]
 169:../libraries/STM32F10x_StdPeriph_Driver/src/stm32f10x_exti.c **** }
 277              		.loc 1 169 0
 278 0028 07F10C07 		add	r7, r7, #12
 279 002c BD46     		mov	sp, r7
 280 002e 80BC     		pop	{r7}
 281 0030 7047     		bx	lr
 282              		.cfi_endproc
 283              	.LFE58:
 285 0032 00BF     		.section	.text.EXTI_GenerateSWInterrupt,"ax",%progbits
 286              		.align	2
 287              		.global	EXTI_GenerateSWInterrupt
 288              		.thumb
 289              		.thumb_func
 291              	EXTI_GenerateSWInterrupt:
 292              	.LFB59:
 170:../libraries/STM32F10x_StdPeriph_Driver/src/stm32f10x_exti.c **** 
 171:../libraries/STM32F10x_StdPeriph_Driver/src/stm32f10x_exti.c **** /**
 172:../libraries/STM32F10x_StdPeriph_Driver/src/stm32f10x_exti.c ****   * @brief  Generates a Software interrupt.
 173:../libraries/STM32F10x_StdPeriph_Driver/src/stm32f10x_exti.c ****   * @param  EXTI_Line: specifies the EXTI lines to be enabled or disabled.
 174:../libraries/STM32F10x_StdPeriph_Driver/src/stm32f10x_exti.c ****   *   This parameter can be any combination of EXTI_Linex where x can be (0..19).
 175:../libraries/STM32F10x_StdPeriph_Driver/src/stm32f10x_exti.c ****   * @retval None
 176:../libraries/STM32F10x_StdPeriph_Driver/src/stm32f10x_exti.c ****   */
 177:../libraries/STM32F10x_StdPeriph_Driver/src/stm32f10x_exti.c **** void EXTI_GenerateSWInterrupt(uint32_t EXTI_Line)
 178:../libraries/STM32F10x_StdPeriph_Driver/src/stm32f10x_exti.c **** {
 293              		.loc 1 178 0
 294              		.cfi_startproc
 295              		@ args = 0, pretend = 0, frame = 8
 296              		@ frame_needed = 1, uses_anonymous_args = 0
 297              		@ link register save eliminated.
 298 0000 80B4     		push	{r7}
 299              	.LCFI8:
 300              		.cfi_def_cfa_offset 4
 301              		.cfi_offset 7, -4
 302 0002 83B0     		sub	sp, sp, #12
 303              	.LCFI9:
 304              		.cfi_def_cfa_offset 16
 305 0004 00AF     		add	r7, sp, #0
 306              	.LCFI10:
 307              		.cfi_def_cfa_register 7
 308 0006 7860     		str	r0, [r7, #4]
 179:../libraries/STM32F10x_StdPeriph_Driver/src/stm32f10x_exti.c ****   /* Check the parameters */
 180:../libraries/STM32F10x_StdPeriph_Driver/src/stm32f10x_exti.c ****   assert_param(IS_EXTI_LINE(EXTI_Line));
 181:../libraries/STM32F10x_StdPeriph_Driver/src/stm32f10x_exti.c ****   
 182:../libraries/STM32F10x_StdPeriph_Driver/src/stm32f10x_exti.c ****   EXTI->SWIER |= EXTI_Line;
 309              		.loc 1 182 0
 310 0008 4FF48063 		mov	r3, #1024
 311 000c C4F20103 		movt	r3, 16385
 312 0010 4FF48062 		mov	r2, #1024
 313 0014 C4F20102 		movt	r2, 16385
 314 0018 1169     		ldr	r1, [r2, #16]
 315 001a 7A68     		ldr	r2, [r7, #4]
 316 001c 0A43     		orrs	r2, r2, r1
 317 001e 1A61     		str	r2, [r3, #16]
 183:../libraries/STM32F10x_StdPeriph_Driver/src/stm32f10x_exti.c **** }
 318              		.loc 1 183 0
 319 0020 07F10C07 		add	r7, r7, #12
 320 0024 BD46     		mov	sp, r7
 321 0026 80BC     		pop	{r7}
 322 0028 7047     		bx	lr
 323              		.cfi_endproc
 324              	.LFE59:
 326 002a 00BF     		.section	.text.EXTI_GetFlagStatus,"ax",%progbits
 327              		.align	2
 328              		.global	EXTI_GetFlagStatus
 329              		.thumb
 330              		.thumb_func
 332              	EXTI_GetFlagStatus:
 333              	.LFB60:
 184:../libraries/STM32F10x_StdPeriph_Driver/src/stm32f10x_exti.c **** 
 185:../libraries/STM32F10x_StdPeriph_Driver/src/stm32f10x_exti.c **** /**
 186:../libraries/STM32F10x_StdPeriph_Driver/src/stm32f10x_exti.c ****   * @brief  Checks whether the specified EXTI line flag is set or not.
 187:../libraries/STM32F10x_StdPeriph_Driver/src/stm32f10x_exti.c ****   * @param  EXTI_Line: specifies the EXTI line flag to check.
 188:../libraries/STM32F10x_StdPeriph_Driver/src/stm32f10x_exti.c ****   *   This parameter can be:
 189:../libraries/STM32F10x_StdPeriph_Driver/src/stm32f10x_exti.c ****   *     @arg EXTI_Linex: External interrupt line x where x(0..19)
 190:../libraries/STM32F10x_StdPeriph_Driver/src/stm32f10x_exti.c ****   * @retval The new state of EXTI_Line (SET or RESET).
 191:../libraries/STM32F10x_StdPeriph_Driver/src/stm32f10x_exti.c ****   */
 192:../libraries/STM32F10x_StdPeriph_Driver/src/stm32f10x_exti.c **** FlagStatus EXTI_GetFlagStatus(uint32_t EXTI_Line)
 193:../libraries/STM32F10x_StdPeriph_Driver/src/stm32f10x_exti.c **** {
 334              		.loc 1 193 0
 335              		.cfi_startproc
 336              		@ args = 0, pretend = 0, frame = 16
 337              		@ frame_needed = 1, uses_anonymous_args = 0
 338              		@ link register save eliminated.
 339 0000 80B4     		push	{r7}
 340              	.LCFI11:
 341              		.cfi_def_cfa_offset 4
 342              		.cfi_offset 7, -4
 343 0002 85B0     		sub	sp, sp, #20
 344              	.LCFI12:
 345              		.cfi_def_cfa_offset 24
 346 0004 00AF     		add	r7, sp, #0
 347              	.LCFI13:
 348              		.cfi_def_cfa_register 7
 349 0006 7860     		str	r0, [r7, #4]
 194:../libraries/STM32F10x_StdPeriph_Driver/src/stm32f10x_exti.c ****   FlagStatus bitstatus = RESET;
 350              		.loc 1 194 0
 351 0008 4FF00003 		mov	r3, #0
 352 000c FB73     		strb	r3, [r7, #15]
 195:../libraries/STM32F10x_StdPeriph_Driver/src/stm32f10x_exti.c ****   /* Check the parameters */
 196:../libraries/STM32F10x_StdPeriph_Driver/src/stm32f10x_exti.c ****   assert_param(IS_GET_EXTI_LINE(EXTI_Line));
 197:../libraries/STM32F10x_StdPeriph_Driver/src/stm32f10x_exti.c ****   
 198:../libraries/STM32F10x_StdPeriph_Driver/src/stm32f10x_exti.c ****   if ((EXTI->PR & EXTI_Line) != (uint32_t)RESET)
 353              		.loc 1 198 0
 354 000e 4FF48063 		mov	r3, #1024
 355 0012 C4F20103 		movt	r3, 16385
 356 0016 5A69     		ldr	r2, [r3, #20]
 357 0018 7B68     		ldr	r3, [r7, #4]
 358 001a 1340     		ands	r3, r3, r2
 359 001c 002B     		cmp	r3, #0
 360 001e 03D0     		beq	.L9
 199:../libraries/STM32F10x_StdPeriph_Driver/src/stm32f10x_exti.c ****   {
 200:../libraries/STM32F10x_StdPeriph_Driver/src/stm32f10x_exti.c ****     bitstatus = SET;
 361              		.loc 1 200 0
 362 0020 4FF00103 		mov	r3, #1
 363 0024 FB73     		strb	r3, [r7, #15]
 364 0026 02E0     		b	.L10
 365              	.L9:
 201:../libraries/STM32F10x_StdPeriph_Driver/src/stm32f10x_exti.c ****   }
 202:../libraries/STM32F10x_StdPeriph_Driver/src/stm32f10x_exti.c ****   else
 203:../libraries/STM32F10x_StdPeriph_Driver/src/stm32f10x_exti.c ****   {
 204:../libraries/STM32F10x_StdPeriph_Driver/src/stm32f10x_exti.c ****     bitstatus = RESET;
 366              		.loc 1 204 0
 367 0028 4FF00003 		mov	r3, #0
 368 002c FB73     		strb	r3, [r7, #15]
 369              	.L10:
 205:../libraries/STM32F10x_StdPeriph_Driver/src/stm32f10x_exti.c ****   }
 206:../libraries/STM32F10x_StdPeriph_Driver/src/stm32f10x_exti.c ****   return bitstatus;
 370              		.loc 1 206 0
 371 002e FB7B     		ldrb	r3, [r7, #15]	@ zero_extendqisi2
 207:../libraries/STM32F10x_StdPeriph_Driver/src/stm32f10x_exti.c **** }
 372              		.loc 1 207 0
 373 0030 1846     		mov	r0, r3
 374 0032 07F11407 		add	r7, r7, #20
 375 0036 BD46     		mov	sp, r7
 376 0038 80BC     		pop	{r7}
 377 003a 7047     		bx	lr
 378              		.cfi_endproc
 379              	.LFE60:
 381              		.section	.text.EXTI_ClearFlag,"ax",%progbits
 382              		.align	2
 383              		.global	EXTI_ClearFlag
 384              		.thumb
 385              		.thumb_func
 387              	EXTI_ClearFlag:
 388              	.LFB61:
 208:../libraries/STM32F10x_StdPeriph_Driver/src/stm32f10x_exti.c **** 
 209:../libraries/STM32F10x_StdPeriph_Driver/src/stm32f10x_exti.c **** /**
 210:../libraries/STM32F10x_StdPeriph_Driver/src/stm32f10x_exti.c ****   * @brief  Clears the EXTI's line pending flags.
 211:../libraries/STM32F10x_StdPeriph_Driver/src/stm32f10x_exti.c ****   * @param  EXTI_Line: specifies the EXTI lines flags to clear.
 212:../libraries/STM32F10x_StdPeriph_Driver/src/stm32f10x_exti.c ****   *   This parameter can be any combination of EXTI_Linex where x can be (0..19).
 213:../libraries/STM32F10x_StdPeriph_Driver/src/stm32f10x_exti.c ****   * @retval None
 214:../libraries/STM32F10x_StdPeriph_Driver/src/stm32f10x_exti.c ****   */
 215:../libraries/STM32F10x_StdPeriph_Driver/src/stm32f10x_exti.c **** void EXTI_ClearFlag(uint32_t EXTI_Line)
 216:../libraries/STM32F10x_StdPeriph_Driver/src/stm32f10x_exti.c **** {
 389              		.loc 1 216 0
 390              		.cfi_startproc
 391              		@ args = 0, pretend = 0, frame = 8
 392              		@ frame_needed = 1, uses_anonymous_args = 0
 393              		@ link register save eliminated.
 394 0000 80B4     		push	{r7}
 395              	.LCFI14:
 396              		.cfi_def_cfa_offset 4
 397              		.cfi_offset 7, -4
 398 0002 83B0     		sub	sp, sp, #12
 399              	.LCFI15:
 400              		.cfi_def_cfa_offset 16
 401 0004 00AF     		add	r7, sp, #0
 402              	.LCFI16:
 403              		.cfi_def_cfa_register 7
 404 0006 7860     		str	r0, [r7, #4]
 217:../libraries/STM32F10x_StdPeriph_Driver/src/stm32f10x_exti.c ****   /* Check the parameters */
 218:../libraries/STM32F10x_StdPeriph_Driver/src/stm32f10x_exti.c ****   assert_param(IS_EXTI_LINE(EXTI_Line));
 219:../libraries/STM32F10x_StdPeriph_Driver/src/stm32f10x_exti.c ****   
 220:../libraries/STM32F10x_StdPeriph_Driver/src/stm32f10x_exti.c ****   EXTI->PR = EXTI_Line;
 405              		.loc 1 220 0
 406 0008 4FF48063 		mov	r3, #1024
 407 000c C4F20103 		movt	r3, 16385
 408 0010 7A68     		ldr	r2, [r7, #4]
 409 0012 5A61     		str	r2, [r3, #20]
 221:../libraries/STM32F10x_StdPeriph_Driver/src/stm32f10x_exti.c **** }
 410              		.loc 1 221 0
 411 0014 07F10C07 		add	r7, r7, #12
 412 0018 BD46     		mov	sp, r7
 413 001a 80BC     		pop	{r7}
 414 001c 7047     		bx	lr
 415              		.cfi_endproc
 416              	.LFE61:
 418 001e 00BF     		.section	.text.EXTI_GetITStatus,"ax",%progbits
 419              		.align	2
 420              		.global	EXTI_GetITStatus
 421              		.thumb
 422              		.thumb_func
 424              	EXTI_GetITStatus:
 425              	.LFB62:
 222:../libraries/STM32F10x_StdPeriph_Driver/src/stm32f10x_exti.c **** 
 223:../libraries/STM32F10x_StdPeriph_Driver/src/stm32f10x_exti.c **** /**
 224:../libraries/STM32F10x_StdPeriph_Driver/src/stm32f10x_exti.c ****   * @brief  Checks whether the specified EXTI line is asserted or not.
 225:../libraries/STM32F10x_StdPeriph_Driver/src/stm32f10x_exti.c ****   * @param  EXTI_Line: specifies the EXTI line to check.
 226:../libraries/STM32F10x_StdPeriph_Driver/src/stm32f10x_exti.c ****   *   This parameter can be:
 227:../libraries/STM32F10x_StdPeriph_Driver/src/stm32f10x_exti.c ****   *     @arg EXTI_Linex: External interrupt line x where x(0..19)
 228:../libraries/STM32F10x_StdPeriph_Driver/src/stm32f10x_exti.c ****   * @retval The new state of EXTI_Line (SET or RESET).
 229:../libraries/STM32F10x_StdPeriph_Driver/src/stm32f10x_exti.c ****   */
 230:../libraries/STM32F10x_StdPeriph_Driver/src/stm32f10x_exti.c **** ITStatus EXTI_GetITStatus(uint32_t EXTI_Line)
 231:../libraries/STM32F10x_StdPeriph_Driver/src/stm32f10x_exti.c **** {
 426              		.loc 1 231 0
 427              		.cfi_startproc
 428              		@ args = 0, pretend = 0, frame = 16
 429              		@ frame_needed = 1, uses_anonymous_args = 0
 430              		@ link register save eliminated.
 431 0000 80B4     		push	{r7}
 432              	.LCFI17:
 433              		.cfi_def_cfa_offset 4
 434              		.cfi_offset 7, -4
 435 0002 85B0     		sub	sp, sp, #20
 436              	.LCFI18:
 437              		.cfi_def_cfa_offset 24
 438 0004 00AF     		add	r7, sp, #0
 439              	.LCFI19:
 440              		.cfi_def_cfa_register 7
 441 0006 7860     		str	r0, [r7, #4]
 232:../libraries/STM32F10x_StdPeriph_Driver/src/stm32f10x_exti.c ****   ITStatus bitstatus = RESET;
 442              		.loc 1 232 0
 443 0008 4FF00003 		mov	r3, #0
 444 000c FB73     		strb	r3, [r7, #15]
 233:../libraries/STM32F10x_StdPeriph_Driver/src/stm32f10x_exti.c ****   uint32_t enablestatus = 0;
 445              		.loc 1 233 0
 446 000e 4FF00003 		mov	r3, #0
 447 0012 BB60     		str	r3, [r7, #8]
 234:../libraries/STM32F10x_StdPeriph_Driver/src/stm32f10x_exti.c ****   /* Check the parameters */
 235:../libraries/STM32F10x_StdPeriph_Driver/src/stm32f10x_exti.c ****   assert_param(IS_GET_EXTI_LINE(EXTI_Line));
 236:../libraries/STM32F10x_StdPeriph_Driver/src/stm32f10x_exti.c ****   
 237:../libraries/STM32F10x_StdPeriph_Driver/src/stm32f10x_exti.c ****   enablestatus =  EXTI->IMR & EXTI_Line;
 448              		.loc 1 237 0
 449 0014 4FF48063 		mov	r3, #1024
 450 0018 C4F20103 		movt	r3, 16385
 451 001c 1A68     		ldr	r2, [r3, #0]
 452 001e 7B68     		ldr	r3, [r7, #4]
 453 0020 1340     		ands	r3, r3, r2
 454 0022 BB60     		str	r3, [r7, #8]
 238:../libraries/STM32F10x_StdPeriph_Driver/src/stm32f10x_exti.c ****   if (((EXTI->PR & EXTI_Line) != (uint32_t)RESET) && (enablestatus != (uint32_t)RESET))
 455              		.loc 1 238 0
 456 0024 4FF48063 		mov	r3, #1024
 457 0028 C4F20103 		movt	r3, 16385
 458 002c 5A69     		ldr	r2, [r3, #20]
 459 002e 7B68     		ldr	r3, [r7, #4]
 460 0030 1340     		ands	r3, r3, r2
 461 0032 002B     		cmp	r3, #0
 462 0034 06D0     		beq	.L14
 463              		.loc 1 238 0 is_stmt 0 discriminator 1
 464 0036 BB68     		ldr	r3, [r7, #8]
 465 0038 002B     		cmp	r3, #0
 466 003a 03D0     		beq	.L14
 239:../libraries/STM32F10x_StdPeriph_Driver/src/stm32f10x_exti.c ****   {
 240:../libraries/STM32F10x_StdPeriph_Driver/src/stm32f10x_exti.c ****     bitstatus = SET;
 467              		.loc 1 240 0 is_stmt 1
 468 003c 4FF00103 		mov	r3, #1
 469 0040 FB73     		strb	r3, [r7, #15]
 470 0042 02E0     		b	.L15
 471              	.L14:
 241:../libraries/STM32F10x_StdPeriph_Driver/src/stm32f10x_exti.c ****   }
 242:../libraries/STM32F10x_StdPeriph_Driver/src/stm32f10x_exti.c ****   else
 243:../libraries/STM32F10x_StdPeriph_Driver/src/stm32f10x_exti.c ****   {
 244:../libraries/STM32F10x_StdPeriph_Driver/src/stm32f10x_exti.c ****     bitstatus = RESET;
 472              		.loc 1 244 0
 473 0044 4FF00003 		mov	r3, #0
 474 0048 FB73     		strb	r3, [r7, #15]
 475              	.L15:
 245:../libraries/STM32F10x_StdPeriph_Driver/src/stm32f10x_exti.c ****   }
 246:../libraries/STM32F10x_StdPeriph_Driver/src/stm32f10x_exti.c ****   return bitstatus;
 476              		.loc 1 246 0
 477 004a FB7B     		ldrb	r3, [r7, #15]	@ zero_extendqisi2
 247:../libraries/STM32F10x_StdPeriph_Driver/src/stm32f10x_exti.c **** }
 478              		.loc 1 247 0
 479 004c 1846     		mov	r0, r3
 480 004e 07F11407 		add	r7, r7, #20
 481 0052 BD46     		mov	sp, r7
 482 0054 80BC     		pop	{r7}
 483 0056 7047     		bx	lr
 484              		.cfi_endproc
 485              	.LFE62:
 487              		.section	.text.EXTI_ClearITPendingBit,"ax",%progbits
 488              		.align	2
 489              		.global	EXTI_ClearITPendingBit
 490              		.thumb
 491              		.thumb_func
 493              	EXTI_ClearITPendingBit:
 494              	.LFB63:
 248:../libraries/STM32F10x_StdPeriph_Driver/src/stm32f10x_exti.c **** 
 249:../libraries/STM32F10x_StdPeriph_Driver/src/stm32f10x_exti.c **** /**
 250:../libraries/STM32F10x_StdPeriph_Driver/src/stm32f10x_exti.c ****   * @brief  Clears the EXTI's line pending bits.
 251:../libraries/STM32F10x_StdPeriph_Driver/src/stm32f10x_exti.c ****   * @param  EXTI_Line: specifies the EXTI lines to clear.
 252:../libraries/STM32F10x_StdPeriph_Driver/src/stm32f10x_exti.c ****   *   This parameter can be any combination of EXTI_Linex where x can be (0..19).
 253:../libraries/STM32F10x_StdPeriph_Driver/src/stm32f10x_exti.c ****   * @retval None
 254:../libraries/STM32F10x_StdPeriph_Driver/src/stm32f10x_exti.c ****   */
 255:../libraries/STM32F10x_StdPeriph_Driver/src/stm32f10x_exti.c **** void EXTI_ClearITPendingBit(uint32_t EXTI_Line)
 256:../libraries/STM32F10x_StdPeriph_Driver/src/stm32f10x_exti.c **** {
 495              		.loc 1 256 0
 496              		.cfi_startproc
 497              		@ args = 0, pretend = 0, frame = 8
 498              		@ frame_needed = 1, uses_anonymous_args = 0
 499              		@ link register save eliminated.
 500 0000 80B4     		push	{r7}
 501              	.LCFI20:
 502              		.cfi_def_cfa_offset 4
 503              		.cfi_offset 7, -4
 504 0002 83B0     		sub	sp, sp, #12
 505              	.LCFI21:
 506              		.cfi_def_cfa_offset 16
 507 0004 00AF     		add	r7, sp, #0
 508              	.LCFI22:
 509              		.cfi_def_cfa_register 7
 510 0006 7860     		str	r0, [r7, #4]
 257:../libraries/STM32F10x_StdPeriph_Driver/src/stm32f10x_exti.c ****   /* Check the parameters */
 258:../libraries/STM32F10x_StdPeriph_Driver/src/stm32f10x_exti.c ****   assert_param(IS_EXTI_LINE(EXTI_Line));
 259:../libraries/STM32F10x_StdPeriph_Driver/src/stm32f10x_exti.c ****   
 260:../libraries/STM32F10x_StdPeriph_Driver/src/stm32f10x_exti.c ****   EXTI->PR = EXTI_Line;
 511              		.loc 1 260 0
 512 0008 4FF48063 		mov	r3, #1024
 513 000c C4F20103 		movt	r3, 16385
 514 0010 7A68     		ldr	r2, [r7, #4]
 515 0012 5A61     		str	r2, [r3, #20]
 261:../libraries/STM32F10x_StdPeriph_Driver/src/stm32f10x_exti.c **** }
 516              		.loc 1 261 0
 517 0014 07F10C07 		add	r7, r7, #12
 518 0018 BD46     		mov	sp, r7
 519 001a 80BC     		pop	{r7}
 520 001c 7047     		bx	lr
 521              		.cfi_endproc
 522              	.LFE63:
 524 001e 00BF     		.text
 525              	.Letext0:
 526              		.file 2 "/usr/local/gcc-arm-none-eabi-4_7-2013q1/bin/../lib/gcc/arm-none-eabi/4.7.3/../../../../ar
 527              		.file 3 "/Users/zac/code/spark/marvin/libraries/CMSIS/Device/ST/STM32F10x/Include/stm32f10x.h"
 528              		.file 4 "/Users/zac/code/spark/marvin/libraries/STM32F10x_StdPeriph_Driver/inc/stm32f10x_exti.h"
 529              		.file 5 "/Users/zac/code/spark/marvin/libraries/CMSIS/Include/core_cm3.h"