   1              		.syntax unified
   2              		.cpu cortex-m3
   3              		.fpu softvfp
   4              		.eabi_attribute 20, 1
   5              		.eabi_attribute 21, 1
   6              		.eabi_attribute 23, 3
   7              		.eabi_attribute 24, 1
   8              		.eabi_attribute 25, 1
   9              		.eabi_attribute 26, 1
  10              		.eabi_attribute 30, 6
  11              		.eabi_attribute 34, 1
  12              		.eabi_attribute 18, 4
  13              		.thumb
  14              		.file	"stm32f10x_i2c.c"
  15              		.text
  16              	.Ltext0:
  17              		.cfi_sections	.debug_frame
  18              		.section	.text.I2C_DeInit,"ax",%progbits
  19              		.align	2
  20              		.global	I2C_DeInit
  21              		.thumb
  22              		.thumb_func
  24              	I2C_DeInit:
  25              	.LFB56:
  26              		.file 1 "../libraries/STM32F10x_StdPeriph_Driver/src/stm32f10x_i2c.c"
   1:../libraries/STM32F10x_StdPeriph_Driver/src/stm32f10x_i2c.c **** /**
   2:../libraries/STM32F10x_StdPeriph_Driver/src/stm32f10x_i2c.c ****   ******************************************************************************
   3:../libraries/STM32F10x_StdPeriph_Driver/src/stm32f10x_i2c.c ****   * @file    stm32f10x_i2c.c
   4:../libraries/STM32F10x_StdPeriph_Driver/src/stm32f10x_i2c.c ****   * @author  MCD Application Team
   5:../libraries/STM32F10x_StdPeriph_Driver/src/stm32f10x_i2c.c ****   * @version V3.6.1
   6:../libraries/STM32F10x_StdPeriph_Driver/src/stm32f10x_i2c.c ****   * @date    05-March-2012
   7:../libraries/STM32F10x_StdPeriph_Driver/src/stm32f10x_i2c.c ****   * @brief   This file provides all the I2C firmware functions.
   8:../libraries/STM32F10x_StdPeriph_Driver/src/stm32f10x_i2c.c ****   ******************************************************************************
   9:../libraries/STM32F10x_StdPeriph_Driver/src/stm32f10x_i2c.c ****   * @attention
  10:../libraries/STM32F10x_StdPeriph_Driver/src/stm32f10x_i2c.c ****   *
  11:../libraries/STM32F10x_StdPeriph_Driver/src/stm32f10x_i2c.c ****   * <h2><center>&copy; COPYRIGHT 2012 STMicroelectronics</center></h2>
  12:../libraries/STM32F10x_StdPeriph_Driver/src/stm32f10x_i2c.c ****   *
  13:../libraries/STM32F10x_StdPeriph_Driver/src/stm32f10x_i2c.c ****   * Licensed under MCD-ST Liberty SW License Agreement V2, (the "License");
  14:../libraries/STM32F10x_StdPeriph_Driver/src/stm32f10x_i2c.c ****   * You may not use this file except in compliance with the License.
  15:../libraries/STM32F10x_StdPeriph_Driver/src/stm32f10x_i2c.c ****   * You may obtain a copy of the License at:
  16:../libraries/STM32F10x_StdPeriph_Driver/src/stm32f10x_i2c.c ****   *
  17:../libraries/STM32F10x_StdPeriph_Driver/src/stm32f10x_i2c.c ****   *        http://www.st.com/software_license_agreement_liberty_v2
  18:../libraries/STM32F10x_StdPeriph_Driver/src/stm32f10x_i2c.c ****   *
  19:../libraries/STM32F10x_StdPeriph_Driver/src/stm32f10x_i2c.c ****   * Unless required by applicable law or agreed to in writing, software 
  20:../libraries/STM32F10x_StdPeriph_Driver/src/stm32f10x_i2c.c ****   * distributed under the License is distributed on an "AS IS" BASIS, 
  21:../libraries/STM32F10x_StdPeriph_Driver/src/stm32f10x_i2c.c ****   * WITHOUT WARRANTIES OR CONDITIONS OF ANY KIND, either express or implied.
  22:../libraries/STM32F10x_StdPeriph_Driver/src/stm32f10x_i2c.c ****   * See the License for the specific language governing permissions and
  23:../libraries/STM32F10x_StdPeriph_Driver/src/stm32f10x_i2c.c ****   * limitations under the License.
  24:../libraries/STM32F10x_StdPeriph_Driver/src/stm32f10x_i2c.c ****   *
  25:../libraries/STM32F10x_StdPeriph_Driver/src/stm32f10x_i2c.c ****   ******************************************************************************
  26:../libraries/STM32F10x_StdPeriph_Driver/src/stm32f10x_i2c.c ****   */
  27:../libraries/STM32F10x_StdPeriph_Driver/src/stm32f10x_i2c.c **** 
  28:../libraries/STM32F10x_StdPeriph_Driver/src/stm32f10x_i2c.c **** /* Includes ------------------------------------------------------------------*/
  29:../libraries/STM32F10x_StdPeriph_Driver/src/stm32f10x_i2c.c **** #include "stm32f10x_i2c.h"
  30:../libraries/STM32F10x_StdPeriph_Driver/src/stm32f10x_i2c.c **** #include "stm32f10x_rcc.h"
  31:../libraries/STM32F10x_StdPeriph_Driver/src/stm32f10x_i2c.c **** 
  32:../libraries/STM32F10x_StdPeriph_Driver/src/stm32f10x_i2c.c **** 
  33:../libraries/STM32F10x_StdPeriph_Driver/src/stm32f10x_i2c.c **** /** @addtogroup STM32F10x_StdPeriph_Driver
  34:../libraries/STM32F10x_StdPeriph_Driver/src/stm32f10x_i2c.c ****   * @{
  35:../libraries/STM32F10x_StdPeriph_Driver/src/stm32f10x_i2c.c ****   */
  36:../libraries/STM32F10x_StdPeriph_Driver/src/stm32f10x_i2c.c **** 
  37:../libraries/STM32F10x_StdPeriph_Driver/src/stm32f10x_i2c.c **** /** @defgroup I2C 
  38:../libraries/STM32F10x_StdPeriph_Driver/src/stm32f10x_i2c.c ****   * @brief I2C driver modules
  39:../libraries/STM32F10x_StdPeriph_Driver/src/stm32f10x_i2c.c ****   * @{
  40:../libraries/STM32F10x_StdPeriph_Driver/src/stm32f10x_i2c.c ****   */ 
  41:../libraries/STM32F10x_StdPeriph_Driver/src/stm32f10x_i2c.c **** 
  42:../libraries/STM32F10x_StdPeriph_Driver/src/stm32f10x_i2c.c **** /** @defgroup I2C_Private_TypesDefinitions
  43:../libraries/STM32F10x_StdPeriph_Driver/src/stm32f10x_i2c.c ****   * @{
  44:../libraries/STM32F10x_StdPeriph_Driver/src/stm32f10x_i2c.c ****   */
  45:../libraries/STM32F10x_StdPeriph_Driver/src/stm32f10x_i2c.c **** 
  46:../libraries/STM32F10x_StdPeriph_Driver/src/stm32f10x_i2c.c **** /**
  47:../libraries/STM32F10x_StdPeriph_Driver/src/stm32f10x_i2c.c ****   * @}
  48:../libraries/STM32F10x_StdPeriph_Driver/src/stm32f10x_i2c.c ****   */
  49:../libraries/STM32F10x_StdPeriph_Driver/src/stm32f10x_i2c.c **** 
  50:../libraries/STM32F10x_StdPeriph_Driver/src/stm32f10x_i2c.c **** /** @defgroup I2C_Private_Defines
  51:../libraries/STM32F10x_StdPeriph_Driver/src/stm32f10x_i2c.c ****   * @{
  52:../libraries/STM32F10x_StdPeriph_Driver/src/stm32f10x_i2c.c ****   */
  53:../libraries/STM32F10x_StdPeriph_Driver/src/stm32f10x_i2c.c **** 
  54:../libraries/STM32F10x_StdPeriph_Driver/src/stm32f10x_i2c.c **** /* I2C SPE mask */
  55:../libraries/STM32F10x_StdPeriph_Driver/src/stm32f10x_i2c.c **** #define CR1_PE_Set              ((uint16_t)0x0001)
  56:../libraries/STM32F10x_StdPeriph_Driver/src/stm32f10x_i2c.c **** #define CR1_PE_Reset            ((uint16_t)0xFFFE)
  57:../libraries/STM32F10x_StdPeriph_Driver/src/stm32f10x_i2c.c **** 
  58:../libraries/STM32F10x_StdPeriph_Driver/src/stm32f10x_i2c.c **** /* I2C START mask */
  59:../libraries/STM32F10x_StdPeriph_Driver/src/stm32f10x_i2c.c **** #define CR1_START_Set           ((uint16_t)0x0100)
  60:../libraries/STM32F10x_StdPeriph_Driver/src/stm32f10x_i2c.c **** #define CR1_START_Reset         ((uint16_t)0xFEFF)
  61:../libraries/STM32F10x_StdPeriph_Driver/src/stm32f10x_i2c.c **** 
  62:../libraries/STM32F10x_StdPeriph_Driver/src/stm32f10x_i2c.c **** /* I2C STOP mask */
  63:../libraries/STM32F10x_StdPeriph_Driver/src/stm32f10x_i2c.c **** #define CR1_STOP_Set            ((uint16_t)0x0200)
  64:../libraries/STM32F10x_StdPeriph_Driver/src/stm32f10x_i2c.c **** #define CR1_STOP_Reset          ((uint16_t)0xFDFF)
  65:../libraries/STM32F10x_StdPeriph_Driver/src/stm32f10x_i2c.c **** 
  66:../libraries/STM32F10x_StdPeriph_Driver/src/stm32f10x_i2c.c **** /* I2C ACK mask */
  67:../libraries/STM32F10x_StdPeriph_Driver/src/stm32f10x_i2c.c **** #define CR1_ACK_Set             ((uint16_t)0x0400)
  68:../libraries/STM32F10x_StdPeriph_Driver/src/stm32f10x_i2c.c **** #define CR1_ACK_Reset           ((uint16_t)0xFBFF)
  69:../libraries/STM32F10x_StdPeriph_Driver/src/stm32f10x_i2c.c **** 
  70:../libraries/STM32F10x_StdPeriph_Driver/src/stm32f10x_i2c.c **** /* I2C ENGC mask */
  71:../libraries/STM32F10x_StdPeriph_Driver/src/stm32f10x_i2c.c **** #define CR1_ENGC_Set            ((uint16_t)0x0040)
  72:../libraries/STM32F10x_StdPeriph_Driver/src/stm32f10x_i2c.c **** #define CR1_ENGC_Reset          ((uint16_t)0xFFBF)
  73:../libraries/STM32F10x_StdPeriph_Driver/src/stm32f10x_i2c.c **** 
  74:../libraries/STM32F10x_StdPeriph_Driver/src/stm32f10x_i2c.c **** /* I2C SWRST mask */
  75:../libraries/STM32F10x_StdPeriph_Driver/src/stm32f10x_i2c.c **** #define CR1_SWRST_Set           ((uint16_t)0x8000)
  76:../libraries/STM32F10x_StdPeriph_Driver/src/stm32f10x_i2c.c **** #define CR1_SWRST_Reset         ((uint16_t)0x7FFF)
  77:../libraries/STM32F10x_StdPeriph_Driver/src/stm32f10x_i2c.c **** 
  78:../libraries/STM32F10x_StdPeriph_Driver/src/stm32f10x_i2c.c **** /* I2C PEC mask */
  79:../libraries/STM32F10x_StdPeriph_Driver/src/stm32f10x_i2c.c **** #define CR1_PEC_Set             ((uint16_t)0x1000)
  80:../libraries/STM32F10x_StdPeriph_Driver/src/stm32f10x_i2c.c **** #define CR1_PEC_Reset           ((uint16_t)0xEFFF)
  81:../libraries/STM32F10x_StdPeriph_Driver/src/stm32f10x_i2c.c **** 
  82:../libraries/STM32F10x_StdPeriph_Driver/src/stm32f10x_i2c.c **** /* I2C ENPEC mask */
  83:../libraries/STM32F10x_StdPeriph_Driver/src/stm32f10x_i2c.c **** #define CR1_ENPEC_Set           ((uint16_t)0x0020)
  84:../libraries/STM32F10x_StdPeriph_Driver/src/stm32f10x_i2c.c **** #define CR1_ENPEC_Reset         ((uint16_t)0xFFDF)
  85:../libraries/STM32F10x_StdPeriph_Driver/src/stm32f10x_i2c.c **** 
  86:../libraries/STM32F10x_StdPeriph_Driver/src/stm32f10x_i2c.c **** /* I2C ENARP mask */
  87:../libraries/STM32F10x_StdPeriph_Driver/src/stm32f10x_i2c.c **** #define CR1_ENARP_Set           ((uint16_t)0x0010)
  88:../libraries/STM32F10x_StdPeriph_Driver/src/stm32f10x_i2c.c **** #define CR1_ENARP_Reset         ((uint16_t)0xFFEF)
  89:../libraries/STM32F10x_StdPeriph_Driver/src/stm32f10x_i2c.c **** 
  90:../libraries/STM32F10x_StdPeriph_Driver/src/stm32f10x_i2c.c **** /* I2C NOSTRETCH mask */
  91:../libraries/STM32F10x_StdPeriph_Driver/src/stm32f10x_i2c.c **** #define CR1_NOSTRETCH_Set       ((uint16_t)0x0080)
  92:../libraries/STM32F10x_StdPeriph_Driver/src/stm32f10x_i2c.c **** #define CR1_NOSTRETCH_Reset     ((uint16_t)0xFF7F)
  93:../libraries/STM32F10x_StdPeriph_Driver/src/stm32f10x_i2c.c **** 
  94:../libraries/STM32F10x_StdPeriph_Driver/src/stm32f10x_i2c.c **** /* I2C registers Masks */
  95:../libraries/STM32F10x_StdPeriph_Driver/src/stm32f10x_i2c.c **** #define CR1_CLEAR_Mask          ((uint16_t)0xFBF5)
  96:../libraries/STM32F10x_StdPeriph_Driver/src/stm32f10x_i2c.c **** 
  97:../libraries/STM32F10x_StdPeriph_Driver/src/stm32f10x_i2c.c **** /* I2C DMAEN mask */
  98:../libraries/STM32F10x_StdPeriph_Driver/src/stm32f10x_i2c.c **** #define CR2_DMAEN_Set           ((uint16_t)0x0800)
  99:../libraries/STM32F10x_StdPeriph_Driver/src/stm32f10x_i2c.c **** #define CR2_DMAEN_Reset         ((uint16_t)0xF7FF)
 100:../libraries/STM32F10x_StdPeriph_Driver/src/stm32f10x_i2c.c **** 
 101:../libraries/STM32F10x_StdPeriph_Driver/src/stm32f10x_i2c.c **** /* I2C LAST mask */
 102:../libraries/STM32F10x_StdPeriph_Driver/src/stm32f10x_i2c.c **** #define CR2_LAST_Set            ((uint16_t)0x1000)
 103:../libraries/STM32F10x_StdPeriph_Driver/src/stm32f10x_i2c.c **** #define CR2_LAST_Reset          ((uint16_t)0xEFFF)
 104:../libraries/STM32F10x_StdPeriph_Driver/src/stm32f10x_i2c.c **** 
 105:../libraries/STM32F10x_StdPeriph_Driver/src/stm32f10x_i2c.c **** /* I2C FREQ mask */
 106:../libraries/STM32F10x_StdPeriph_Driver/src/stm32f10x_i2c.c **** #define CR2_FREQ_Reset          ((uint16_t)0xFFC0)
 107:../libraries/STM32F10x_StdPeriph_Driver/src/stm32f10x_i2c.c **** 
 108:../libraries/STM32F10x_StdPeriph_Driver/src/stm32f10x_i2c.c **** /* I2C ADD0 mask */
 109:../libraries/STM32F10x_StdPeriph_Driver/src/stm32f10x_i2c.c **** #define OAR1_ADD0_Set           ((uint16_t)0x0001)
 110:../libraries/STM32F10x_StdPeriph_Driver/src/stm32f10x_i2c.c **** #define OAR1_ADD0_Reset         ((uint16_t)0xFFFE)
 111:../libraries/STM32F10x_StdPeriph_Driver/src/stm32f10x_i2c.c **** 
 112:../libraries/STM32F10x_StdPeriph_Driver/src/stm32f10x_i2c.c **** /* I2C ENDUAL mask */
 113:../libraries/STM32F10x_StdPeriph_Driver/src/stm32f10x_i2c.c **** #define OAR2_ENDUAL_Set         ((uint16_t)0x0001)
 114:../libraries/STM32F10x_StdPeriph_Driver/src/stm32f10x_i2c.c **** #define OAR2_ENDUAL_Reset       ((uint16_t)0xFFFE)
 115:../libraries/STM32F10x_StdPeriph_Driver/src/stm32f10x_i2c.c **** 
 116:../libraries/STM32F10x_StdPeriph_Driver/src/stm32f10x_i2c.c **** /* I2C ADD2 mask */
 117:../libraries/STM32F10x_StdPeriph_Driver/src/stm32f10x_i2c.c **** #define OAR2_ADD2_Reset         ((uint16_t)0xFF01)
 118:../libraries/STM32F10x_StdPeriph_Driver/src/stm32f10x_i2c.c **** 
 119:../libraries/STM32F10x_StdPeriph_Driver/src/stm32f10x_i2c.c **** /* I2C F/S mask */
 120:../libraries/STM32F10x_StdPeriph_Driver/src/stm32f10x_i2c.c **** #define CCR_FS_Set              ((uint16_t)0x8000)
 121:../libraries/STM32F10x_StdPeriph_Driver/src/stm32f10x_i2c.c **** 
 122:../libraries/STM32F10x_StdPeriph_Driver/src/stm32f10x_i2c.c **** /* I2C CCR mask */
 123:../libraries/STM32F10x_StdPeriph_Driver/src/stm32f10x_i2c.c **** #define CCR_CCR_Set             ((uint16_t)0x0FFF)
 124:../libraries/STM32F10x_StdPeriph_Driver/src/stm32f10x_i2c.c **** 
 125:../libraries/STM32F10x_StdPeriph_Driver/src/stm32f10x_i2c.c **** /* I2C FLAG mask */
 126:../libraries/STM32F10x_StdPeriph_Driver/src/stm32f10x_i2c.c **** #define FLAG_Mask               ((uint32_t)0x00FFFFFF)
 127:../libraries/STM32F10x_StdPeriph_Driver/src/stm32f10x_i2c.c **** 
 128:../libraries/STM32F10x_StdPeriph_Driver/src/stm32f10x_i2c.c **** /* I2C Interrupt Enable mask */
 129:../libraries/STM32F10x_StdPeriph_Driver/src/stm32f10x_i2c.c **** #define ITEN_Mask               ((uint32_t)0x07000000)
 130:../libraries/STM32F10x_StdPeriph_Driver/src/stm32f10x_i2c.c **** 
 131:../libraries/STM32F10x_StdPeriph_Driver/src/stm32f10x_i2c.c **** /**
 132:../libraries/STM32F10x_StdPeriph_Driver/src/stm32f10x_i2c.c ****   * @}
 133:../libraries/STM32F10x_StdPeriph_Driver/src/stm32f10x_i2c.c ****   */
 134:../libraries/STM32F10x_StdPeriph_Driver/src/stm32f10x_i2c.c **** 
 135:../libraries/STM32F10x_StdPeriph_Driver/src/stm32f10x_i2c.c **** /** @defgroup I2C_Private_Macros
 136:../libraries/STM32F10x_StdPeriph_Driver/src/stm32f10x_i2c.c ****   * @{
 137:../libraries/STM32F10x_StdPeriph_Driver/src/stm32f10x_i2c.c ****   */
 138:../libraries/STM32F10x_StdPeriph_Driver/src/stm32f10x_i2c.c **** 
 139:../libraries/STM32F10x_StdPeriph_Driver/src/stm32f10x_i2c.c **** /**
 140:../libraries/STM32F10x_StdPeriph_Driver/src/stm32f10x_i2c.c ****   * @}
 141:../libraries/STM32F10x_StdPeriph_Driver/src/stm32f10x_i2c.c ****   */
 142:../libraries/STM32F10x_StdPeriph_Driver/src/stm32f10x_i2c.c **** 
 143:../libraries/STM32F10x_StdPeriph_Driver/src/stm32f10x_i2c.c **** /** @defgroup I2C_Private_Variables
 144:../libraries/STM32F10x_StdPeriph_Driver/src/stm32f10x_i2c.c ****   * @{
 145:../libraries/STM32F10x_StdPeriph_Driver/src/stm32f10x_i2c.c ****   */
 146:../libraries/STM32F10x_StdPeriph_Driver/src/stm32f10x_i2c.c **** 
 147:../libraries/STM32F10x_StdPeriph_Driver/src/stm32f10x_i2c.c **** /**
 148:../libraries/STM32F10x_StdPeriph_Driver/src/stm32f10x_i2c.c ****   * @}
 149:../libraries/STM32F10x_StdPeriph_Driver/src/stm32f10x_i2c.c ****   */
 150:../libraries/STM32F10x_StdPeriph_Driver/src/stm32f10x_i2c.c **** 
 151:../libraries/STM32F10x_StdPeriph_Driver/src/stm32f10x_i2c.c **** /** @defgroup I2C_Private_FunctionPrototypes
 152:../libraries/STM32F10x_StdPeriph_Driver/src/stm32f10x_i2c.c ****   * @{
 153:../libraries/STM32F10x_StdPeriph_Driver/src/stm32f10x_i2c.c ****   */
 154:../libraries/STM32F10x_StdPeriph_Driver/src/stm32f10x_i2c.c **** 
 155:../libraries/STM32F10x_StdPeriph_Driver/src/stm32f10x_i2c.c **** /**
 156:../libraries/STM32F10x_StdPeriph_Driver/src/stm32f10x_i2c.c ****   * @}
 157:../libraries/STM32F10x_StdPeriph_Driver/src/stm32f10x_i2c.c ****   */
 158:../libraries/STM32F10x_StdPeriph_Driver/src/stm32f10x_i2c.c **** 
 159:../libraries/STM32F10x_StdPeriph_Driver/src/stm32f10x_i2c.c **** /** @defgroup I2C_Private_Functions
 160:../libraries/STM32F10x_StdPeriph_Driver/src/stm32f10x_i2c.c ****   * @{
 161:../libraries/STM32F10x_StdPeriph_Driver/src/stm32f10x_i2c.c ****   */
 162:../libraries/STM32F10x_StdPeriph_Driver/src/stm32f10x_i2c.c **** 
 163:../libraries/STM32F10x_StdPeriph_Driver/src/stm32f10x_i2c.c **** /**
 164:../libraries/STM32F10x_StdPeriph_Driver/src/stm32f10x_i2c.c ****   * @brief  Deinitializes the I2Cx peripheral registers to their default reset values.
 165:../libraries/STM32F10x_StdPeriph_Driver/src/stm32f10x_i2c.c ****   * @param  I2Cx: where x can be 1 or 2 to select the I2C peripheral.
 166:../libraries/STM32F10x_StdPeriph_Driver/src/stm32f10x_i2c.c ****   * @retval None
 167:../libraries/STM32F10x_StdPeriph_Driver/src/stm32f10x_i2c.c ****   */
 168:../libraries/STM32F10x_StdPeriph_Driver/src/stm32f10x_i2c.c **** void I2C_DeInit(I2C_TypeDef* I2Cx)
 169:../libraries/STM32F10x_StdPeriph_Driver/src/stm32f10x_i2c.c **** {
  27              		.loc 1 169 0
  28              		.cfi_startproc
  29              		@ args = 0, pretend = 0, frame = 8
  30              		@ frame_needed = 1, uses_anonymous_args = 0
  31 0000 80B5     		push	{r7, lr}
  32              	.LCFI0:
  33              		.cfi_def_cfa_offset 8
  34              		.cfi_offset 7, -8
  35              		.cfi_offset 14, -4
  36 0002 82B0     		sub	sp, sp, #8
  37              	.LCFI1:
  38              		.cfi_def_cfa_offset 16
  39 0004 00AF     		add	r7, sp, #0
  40              	.LCFI2:
  41              		.cfi_def_cfa_register 7
  42 0006 7860     		str	r0, [r7, #4]
 170:../libraries/STM32F10x_StdPeriph_Driver/src/stm32f10x_i2c.c ****   /* Check the parameters */
 171:../libraries/STM32F10x_StdPeriph_Driver/src/stm32f10x_i2c.c ****   assert_param(IS_I2C_ALL_PERIPH(I2Cx));
 172:../libraries/STM32F10x_StdPeriph_Driver/src/stm32f10x_i2c.c **** 
 173:../libraries/STM32F10x_StdPeriph_Driver/src/stm32f10x_i2c.c ****   if (I2Cx == I2C1)
  43              		.loc 1 173 0
  44 0008 7A68     		ldr	r2, [r7, #4]
  45 000a 4FF4A843 		mov	r3, #21504
  46 000e C4F20003 		movt	r3, 16384
  47 0012 9A42     		cmp	r2, r3
  48 0014 0CD1     		bne	.L2
 174:../libraries/STM32F10x_StdPeriph_Driver/src/stm32f10x_i2c.c ****   {
 175:../libraries/STM32F10x_StdPeriph_Driver/src/stm32f10x_i2c.c ****     /* Enable I2C1 reset state */
 176:../libraries/STM32F10x_StdPeriph_Driver/src/stm32f10x_i2c.c ****     RCC_APB1PeriphResetCmd(RCC_APB1Periph_I2C1, ENABLE);
  49              		.loc 1 176 0
  50 0016 4FF40010 		mov	r0, #2097152
  51 001a 4FF00101 		mov	r1, #1
  52 001e FFF7FEFF 		bl	RCC_APB1PeriphResetCmd
 177:../libraries/STM32F10x_StdPeriph_Driver/src/stm32f10x_i2c.c ****     /* Release I2C1 from reset state */
 178:../libraries/STM32F10x_StdPeriph_Driver/src/stm32f10x_i2c.c ****     RCC_APB1PeriphResetCmd(RCC_APB1Periph_I2C1, DISABLE);
  53              		.loc 1 178 0
  54 0022 4FF40010 		mov	r0, #2097152
  55 0026 4FF00001 		mov	r1, #0
  56 002a FFF7FEFF 		bl	RCC_APB1PeriphResetCmd
  57 002e 0BE0     		b	.L1
  58              	.L2:
 179:../libraries/STM32F10x_StdPeriph_Driver/src/stm32f10x_i2c.c ****   }
 180:../libraries/STM32F10x_StdPeriph_Driver/src/stm32f10x_i2c.c ****   else
 181:../libraries/STM32F10x_StdPeriph_Driver/src/stm32f10x_i2c.c ****   {
 182:../libraries/STM32F10x_StdPeriph_Driver/src/stm32f10x_i2c.c ****     /* Enable I2C2 reset state */
 183:../libraries/STM32F10x_StdPeriph_Driver/src/stm32f10x_i2c.c ****     RCC_APB1PeriphResetCmd(RCC_APB1Periph_I2C2, ENABLE);
  59              		.loc 1 183 0
  60 0030 4FF48000 		mov	r0, #4194304
  61 0034 4FF00101 		mov	r1, #1
  62 0038 FFF7FEFF 		bl	RCC_APB1PeriphResetCmd
 184:../libraries/STM32F10x_StdPeriph_Driver/src/stm32f10x_i2c.c ****     /* Release I2C2 from reset state */
 185:../libraries/STM32F10x_StdPeriph_Driver/src/stm32f10x_i2c.c ****     RCC_APB1PeriphResetCmd(RCC_APB1Periph_I2C2, DISABLE);
  63              		.loc 1 185 0
  64 003c 4FF48000 		mov	r0, #4194304
  65 0040 4FF00001 		mov	r1, #0
  66 0044 FFF7FEFF 		bl	RCC_APB1PeriphResetCmd
  67              	.L1:
 186:../libraries/STM32F10x_StdPeriph_Driver/src/stm32f10x_i2c.c ****   }
 187:../libraries/STM32F10x_StdPeriph_Driver/src/stm32f10x_i2c.c **** }
  68              		.loc 1 187 0
  69 0048 07F10807 		add	r7, r7, #8
  70 004c BD46     		mov	sp, r7
  71 004e 80BD     		pop	{r7, pc}
  72              		.cfi_endproc
  73              	.LFE56:
  75              		.section	.text.I2C_Init,"ax",%progbits
  76              		.align	2
  77              		.global	I2C_Init
  78              		.thumb
  79              		.thumb_func
  81              	I2C_Init:
  82              	.LFB57:
 188:../libraries/STM32F10x_StdPeriph_Driver/src/stm32f10x_i2c.c **** 
 189:../libraries/STM32F10x_StdPeriph_Driver/src/stm32f10x_i2c.c **** /**
 190:../libraries/STM32F10x_StdPeriph_Driver/src/stm32f10x_i2c.c ****   * @brief  Initializes the I2Cx peripheral according to the specified 
 191:../libraries/STM32F10x_StdPeriph_Driver/src/stm32f10x_i2c.c ****   *   parameters in the I2C_InitStruct.
 192:../libraries/STM32F10x_StdPeriph_Driver/src/stm32f10x_i2c.c ****   * @param  I2Cx: where x can be 1 or 2 to select the I2C peripheral.
 193:../libraries/STM32F10x_StdPeriph_Driver/src/stm32f10x_i2c.c ****   * @param  I2C_InitStruct: pointer to a I2C_InitTypeDef structure that
 194:../libraries/STM32F10x_StdPeriph_Driver/src/stm32f10x_i2c.c ****   *   contains the configuration information for the specified I2C peripheral.
 195:../libraries/STM32F10x_StdPeriph_Driver/src/stm32f10x_i2c.c ****   * @retval None
 196:../libraries/STM32F10x_StdPeriph_Driver/src/stm32f10x_i2c.c ****   */
 197:../libraries/STM32F10x_StdPeriph_Driver/src/stm32f10x_i2c.c **** void I2C_Init(I2C_TypeDef* I2Cx, I2C_InitTypeDef* I2C_InitStruct)
 198:../libraries/STM32F10x_StdPeriph_Driver/src/stm32f10x_i2c.c **** {
  83              		.loc 1 198 0
  84              		.cfi_startproc
  85              		@ args = 0, pretend = 0, frame = 40
  86              		@ frame_needed = 1, uses_anonymous_args = 0
  87 0000 80B5     		push	{r7, lr}
  88              	.LCFI3:
  89              		.cfi_def_cfa_offset 8
  90              		.cfi_offset 7, -8
  91              		.cfi_offset 14, -4
  92 0002 8AB0     		sub	sp, sp, #40
  93              	.LCFI4:
  94              		.cfi_def_cfa_offset 48
  95 0004 00AF     		add	r7, sp, #0
  96              	.LCFI5:
  97              		.cfi_def_cfa_register 7
  98 0006 7860     		str	r0, [r7, #4]
  99 0008 3960     		str	r1, [r7, #0]
 199:../libraries/STM32F10x_StdPeriph_Driver/src/stm32f10x_i2c.c ****   uint16_t tmpreg = 0, freqrange = 0;
 100              		.loc 1 199 0
 101 000a 4FF00003 		mov	r3, #0
 102 000e FB84     		strh	r3, [r7, #38]	@ movhi
 103 0010 4FF00003 		mov	r3, #0
 104 0014 7B84     		strh	r3, [r7, #34]	@ movhi
 200:../libraries/STM32F10x_StdPeriph_Driver/src/stm32f10x_i2c.c ****   uint16_t result = 0x04;
 105              		.loc 1 200 0
 106 0016 4FF00403 		mov	r3, #4
 107 001a BB84     		strh	r3, [r7, #36]	@ movhi
 201:../libraries/STM32F10x_StdPeriph_Driver/src/stm32f10x_i2c.c ****   uint32_t pclk1 = 8000000;
 108              		.loc 1 201 0
 109 001c 4FF49053 		mov	r3, #4608
 110 0020 C0F27A03 		movt	r3, 122
 111 0024 FB61     		str	r3, [r7, #28]
 202:../libraries/STM32F10x_StdPeriph_Driver/src/stm32f10x_i2c.c ****   RCC_ClocksTypeDef  rcc_clocks;
 203:../libraries/STM32F10x_StdPeriph_Driver/src/stm32f10x_i2c.c ****   /* Check the parameters */
 204:../libraries/STM32F10x_StdPeriph_Driver/src/stm32f10x_i2c.c ****   assert_param(IS_I2C_ALL_PERIPH(I2Cx));
 205:../libraries/STM32F10x_StdPeriph_Driver/src/stm32f10x_i2c.c ****   assert_param(IS_I2C_CLOCK_SPEED(I2C_InitStruct->I2C_ClockSpeed));
 206:../libraries/STM32F10x_StdPeriph_Driver/src/stm32f10x_i2c.c ****   assert_param(IS_I2C_MODE(I2C_InitStruct->I2C_Mode));
 207:../libraries/STM32F10x_StdPeriph_Driver/src/stm32f10x_i2c.c ****   assert_param(IS_I2C_DUTY_CYCLE(I2C_InitStruct->I2C_DutyCycle));
 208:../libraries/STM32F10x_StdPeriph_Driver/src/stm32f10x_i2c.c ****   assert_param(IS_I2C_OWN_ADDRESS1(I2C_InitStruct->I2C_OwnAddress1));
 209:../libraries/STM32F10x_StdPeriph_Driver/src/stm32f10x_i2c.c ****   assert_param(IS_I2C_ACK_STATE(I2C_InitStruct->I2C_Ack));
 210:../libraries/STM32F10x_StdPeriph_Driver/src/stm32f10x_i2c.c ****   assert_param(IS_I2C_ACKNOWLEDGE_ADDRESS(I2C_InitStruct->I2C_AcknowledgedAddress));
 211:../libraries/STM32F10x_StdPeriph_Driver/src/stm32f10x_i2c.c **** 
 212:../libraries/STM32F10x_StdPeriph_Driver/src/stm32f10x_i2c.c **** /*---------------------------- I2Cx CR2 Configuration ------------------------*/
 213:../libraries/STM32F10x_StdPeriph_Driver/src/stm32f10x_i2c.c ****   /* Get the I2Cx CR2 value */
 214:../libraries/STM32F10x_StdPeriph_Driver/src/stm32f10x_i2c.c ****   tmpreg = I2Cx->CR2;
 112              		.loc 1 214 0
 113 0026 7B68     		ldr	r3, [r7, #4]
 114 0028 9B88     		ldrh	r3, [r3, #4]	@ movhi
 115 002a FB84     		strh	r3, [r7, #38]	@ movhi
 215:../libraries/STM32F10x_StdPeriph_Driver/src/stm32f10x_i2c.c ****   /* Clear frequency FREQ[5:0] bits */
 216:../libraries/STM32F10x_StdPeriph_Driver/src/stm32f10x_i2c.c ****   tmpreg &= CR2_FREQ_Reset;
 116              		.loc 1 216 0
 117 002c FB8C     		ldrh	r3, [r7, #38]	@ movhi
 118 002e 23F03F03 		bic	r3, r3, #63
 119 0032 FB84     		strh	r3, [r7, #38]	@ movhi
 217:../libraries/STM32F10x_StdPeriph_Driver/src/stm32f10x_i2c.c ****   /* Get pclk1 frequency value */
 218:../libraries/STM32F10x_StdPeriph_Driver/src/stm32f10x_i2c.c ****   RCC_GetClocksFreq(&rcc_clocks);
 120              		.loc 1 218 0
 121 0034 07F10803 		add	r3, r7, #8
 122 0038 1846     		mov	r0, r3
 123 003a FFF7FEFF 		bl	RCC_GetClocksFreq
 219:../libraries/STM32F10x_StdPeriph_Driver/src/stm32f10x_i2c.c ****   pclk1 = rcc_clocks.PCLK1_Frequency;
 124              		.loc 1 219 0
 125 003e 3B69     		ldr	r3, [r7, #16]
 126 0040 FB61     		str	r3, [r7, #28]
 220:../libraries/STM32F10x_StdPeriph_Driver/src/stm32f10x_i2c.c ****   /* Set frequency bits depending on pclk1 value */
 221:../libraries/STM32F10x_StdPeriph_Driver/src/stm32f10x_i2c.c ****   freqrange = (uint16_t)(pclk1 / 1000000);
 127              		.loc 1 221 0
 128 0042 FA69     		ldr	r2, [r7, #28]
 129 0044 4DF68363 		movw	r3, #56963
 130 0048 C4F21B33 		movt	r3, 17179
 131 004c A3FB0213 		umull	r1, r3, r3, r2
 132 0050 4FEA9343 		lsr	r3, r3, #18
 133 0054 7B84     		strh	r3, [r7, #34]	@ movhi
 222:../libraries/STM32F10x_StdPeriph_Driver/src/stm32f10x_i2c.c ****   tmpreg |= freqrange;
 134              		.loc 1 222 0
 135 0056 FA8C     		ldrh	r2, [r7, #38]	@ movhi
 136 0058 7B8C     		ldrh	r3, [r7, #34]	@ movhi
 137 005a 1343     		orrs	r3, r3, r2
 138 005c FB84     		strh	r3, [r7, #38]	@ movhi
 223:../libraries/STM32F10x_StdPeriph_Driver/src/stm32f10x_i2c.c ****   /* Write to I2Cx CR2 */
 224:../libraries/STM32F10x_StdPeriph_Driver/src/stm32f10x_i2c.c ****   I2Cx->CR2 = tmpreg;
 139              		.loc 1 224 0
 140 005e 7B68     		ldr	r3, [r7, #4]
 141 0060 FA8C     		ldrh	r2, [r7, #38]	@ movhi
 142 0062 9A80     		strh	r2, [r3, #4]	@ movhi
 225:../libraries/STM32F10x_StdPeriph_Driver/src/stm32f10x_i2c.c **** 
 226:../libraries/STM32F10x_StdPeriph_Driver/src/stm32f10x_i2c.c **** /*---------------------------- I2Cx CCR Configuration ------------------------*/
 227:../libraries/STM32F10x_StdPeriph_Driver/src/stm32f10x_i2c.c ****   /* Disable the selected I2C peripheral to configure TRISE */
 228:../libraries/STM32F10x_StdPeriph_Driver/src/stm32f10x_i2c.c ****   I2Cx->CR1 &= CR1_PE_Reset;
 143              		.loc 1 228 0
 144 0064 7B68     		ldr	r3, [r7, #4]
 145 0066 1B88     		ldrh	r3, [r3, #0]	@ movhi
 146 0068 9BB2     		uxth	r3, r3
 147 006a 23F00103 		bic	r3, r3, #1
 148 006e 9AB2     		uxth	r2, r3
 149 0070 7B68     		ldr	r3, [r7, #4]
 150 0072 1A80     		strh	r2, [r3, #0]	@ movhi
 229:../libraries/STM32F10x_StdPeriph_Driver/src/stm32f10x_i2c.c ****   /* Reset tmpreg value */
 230:../libraries/STM32F10x_StdPeriph_Driver/src/stm32f10x_i2c.c ****   /* Clear F/S, DUTY and CCR[11:0] bits */
 231:../libraries/STM32F10x_StdPeriph_Driver/src/stm32f10x_i2c.c ****   tmpreg = 0;
 151              		.loc 1 231 0
 152 0074 4FF00003 		mov	r3, #0
 153 0078 FB84     		strh	r3, [r7, #38]	@ movhi
 232:../libraries/STM32F10x_StdPeriph_Driver/src/stm32f10x_i2c.c **** 
 233:../libraries/STM32F10x_StdPeriph_Driver/src/stm32f10x_i2c.c ****   /* Configure speed in standard mode */
 234:../libraries/STM32F10x_StdPeriph_Driver/src/stm32f10x_i2c.c ****   if (I2C_InitStruct->I2C_ClockSpeed <= 100000)
 154              		.loc 1 234 0
 155 007a 3B68     		ldr	r3, [r7, #0]
 156 007c 1A68     		ldr	r2, [r3, #0]
 157 007e 48F2A063 		movw	r3, #34464
 158 0082 C0F20103 		movt	r3, 1
 159 0086 9A42     		cmp	r2, r3
 160 0088 18D8     		bhi	.L5
 235:../libraries/STM32F10x_StdPeriph_Driver/src/stm32f10x_i2c.c ****   {
 236:../libraries/STM32F10x_StdPeriph_Driver/src/stm32f10x_i2c.c ****     /* Standard mode speed calculate */
 237:../libraries/STM32F10x_StdPeriph_Driver/src/stm32f10x_i2c.c ****     result = (uint16_t)(pclk1 / (I2C_InitStruct->I2C_ClockSpeed << 1));
 161              		.loc 1 237 0
 162 008a 3B68     		ldr	r3, [r7, #0]
 163 008c 1B68     		ldr	r3, [r3, #0]
 164 008e 4FEA4303 		lsl	r3, r3, #1
 165 0092 FA69     		ldr	r2, [r7, #28]
 166 0094 B2FBF3F3 		udiv	r3, r2, r3
 167 0098 BB84     		strh	r3, [r7, #36]	@ movhi
 238:../libraries/STM32F10x_StdPeriph_Driver/src/stm32f10x_i2c.c ****     /* Test if CCR value is under 0x4*/
 239:../libraries/STM32F10x_StdPeriph_Driver/src/stm32f10x_i2c.c ****     if (result < 0x04)
 168              		.loc 1 239 0
 169 009a BB8C     		ldrh	r3, [r7, #36]
 170 009c 032B     		cmp	r3, #3
 171 009e 02D8     		bhi	.L6
 240:../libraries/STM32F10x_StdPeriph_Driver/src/stm32f10x_i2c.c ****     {
 241:../libraries/STM32F10x_StdPeriph_Driver/src/stm32f10x_i2c.c ****       /* Set minimum allowed value */
 242:../libraries/STM32F10x_StdPeriph_Driver/src/stm32f10x_i2c.c ****       result = 0x04;  
 172              		.loc 1 242 0
 173 00a0 4FF00403 		mov	r3, #4
 174 00a4 BB84     		strh	r3, [r7, #36]	@ movhi
 175              	.L6:
 243:../libraries/STM32F10x_StdPeriph_Driver/src/stm32f10x_i2c.c ****     }
 244:../libraries/STM32F10x_StdPeriph_Driver/src/stm32f10x_i2c.c ****     /* Set speed value for standard mode */
 245:../libraries/STM32F10x_StdPeriph_Driver/src/stm32f10x_i2c.c ****     tmpreg |= result;	  
 176              		.loc 1 245 0
 177 00a6 FA8C     		ldrh	r2, [r7, #38]	@ movhi
 178 00a8 BB8C     		ldrh	r3, [r7, #36]	@ movhi
 179 00aa 1343     		orrs	r3, r3, r2
 180 00ac FB84     		strh	r3, [r7, #38]	@ movhi
 246:../libraries/STM32F10x_StdPeriph_Driver/src/stm32f10x_i2c.c ****     /* Set Maximum Rise Time for standard mode */
 247:../libraries/STM32F10x_StdPeriph_Driver/src/stm32f10x_i2c.c ****     I2Cx->TRISE = freqrange + 1; 
 181              		.loc 1 247 0
 182 00ae 7B8C     		ldrh	r3, [r7, #34]	@ movhi
 183 00b0 03F10103 		add	r3, r3, #1
 184 00b4 9AB2     		uxth	r2, r3
 185 00b6 7B68     		ldr	r3, [r7, #4]
 186 00b8 1A84     		strh	r2, [r3, #32]	@ movhi
 187 00ba 4BE0     		b	.L7
 188              	.L5:
 248:../libraries/STM32F10x_StdPeriph_Driver/src/stm32f10x_i2c.c ****   }
 249:../libraries/STM32F10x_StdPeriph_Driver/src/stm32f10x_i2c.c ****   /* Configure speed in fast mode */
 250:../libraries/STM32F10x_StdPeriph_Driver/src/stm32f10x_i2c.c ****   else /*(I2C_InitStruct->I2C_ClockSpeed <= 400000)*/
 251:../libraries/STM32F10x_StdPeriph_Driver/src/stm32f10x_i2c.c ****   {
 252:../libraries/STM32F10x_StdPeriph_Driver/src/stm32f10x_i2c.c ****     if (I2C_InitStruct->I2C_DutyCycle == I2C_DutyCycle_2)
 189              		.loc 1 252 0
 190 00bc 3B68     		ldr	r3, [r7, #0]
 191 00be DA88     		ldrh	r2, [r3, #6]
 192 00c0 4BF6FF73 		movw	r3, #49151
 193 00c4 9A42     		cmp	r2, r3
 194 00c6 0AD1     		bne	.L8
 253:../libraries/STM32F10x_StdPeriph_Driver/src/stm32f10x_i2c.c ****     {
 254:../libraries/STM32F10x_StdPeriph_Driver/src/stm32f10x_i2c.c ****       /* Fast mode speed calculate: Tlow/Thigh = 2 */
 255:../libraries/STM32F10x_StdPeriph_Driver/src/stm32f10x_i2c.c ****       result = (uint16_t)(pclk1 / (I2C_InitStruct->I2C_ClockSpeed * 3));
 195              		.loc 1 255 0
 196 00c8 3B68     		ldr	r3, [r7, #0]
 197 00ca 1A68     		ldr	r2, [r3, #0]
 198 00cc 1346     		mov	r3, r2
 199 00ce 4FEA4303 		lsl	r3, r3, #1
 200 00d2 9B18     		adds	r3, r3, r2
 201 00d4 FA69     		ldr	r2, [r7, #28]
 202 00d6 B2FBF3F3 		udiv	r3, r2, r3
 203 00da BB84     		strh	r3, [r7, #36]	@ movhi
 204 00dc 10E0     		b	.L9
 205              	.L8:
 256:../libraries/STM32F10x_StdPeriph_Driver/src/stm32f10x_i2c.c ****     }
 257:../libraries/STM32F10x_StdPeriph_Driver/src/stm32f10x_i2c.c ****     else /*I2C_InitStruct->I2C_DutyCycle == I2C_DutyCycle_16_9*/
 258:../libraries/STM32F10x_StdPeriph_Driver/src/stm32f10x_i2c.c ****     {
 259:../libraries/STM32F10x_StdPeriph_Driver/src/stm32f10x_i2c.c ****       /* Fast mode speed calculate: Tlow/Thigh = 16/9 */
 260:../libraries/STM32F10x_StdPeriph_Driver/src/stm32f10x_i2c.c ****       result = (uint16_t)(pclk1 / (I2C_InitStruct->I2C_ClockSpeed * 25));
 206              		.loc 1 260 0
 207 00de 3B68     		ldr	r3, [r7, #0]
 208 00e0 1A68     		ldr	r2, [r3, #0]
 209 00e2 1346     		mov	r3, r2
 210 00e4 4FEA8303 		lsl	r3, r3, #2
 211 00e8 9B18     		adds	r3, r3, r2
 212 00ea 4FEA8302 		lsl	r2, r3, #2
 213 00ee 9B18     		adds	r3, r3, r2
 214 00f0 FA69     		ldr	r2, [r7, #28]
 215 00f2 B2FBF3F3 		udiv	r3, r2, r3
 216 00f6 BB84     		strh	r3, [r7, #36]	@ movhi
 261:../libraries/STM32F10x_StdPeriph_Driver/src/stm32f10x_i2c.c ****       /* Set DUTY bit */
 262:../libraries/STM32F10x_StdPeriph_Driver/src/stm32f10x_i2c.c ****       result |= I2C_DutyCycle_16_9;
 217              		.loc 1 262 0
 218 00f8 BB8C     		ldrh	r3, [r7, #36]	@ movhi
 219 00fa 43F48043 		orr	r3, r3, #16384
 220 00fe BB84     		strh	r3, [r7, #36]	@ movhi
 221              	.L9:
 263:../libraries/STM32F10x_StdPeriph_Driver/src/stm32f10x_i2c.c ****     }
 264:../libraries/STM32F10x_StdPeriph_Driver/src/stm32f10x_i2c.c **** 
 265:../libraries/STM32F10x_StdPeriph_Driver/src/stm32f10x_i2c.c ****     /* Test if CCR value is under 0x1*/
 266:../libraries/STM32F10x_StdPeriph_Driver/src/stm32f10x_i2c.c ****     if ((result & CCR_CCR_Set) == 0)
 222              		.loc 1 266 0
 223 0100 BB8C     		ldrh	r3, [r7, #36]
 224 0102 4FEA0353 		lsl	r3, r3, #20
 225 0106 4FEA1353 		lsr	r3, r3, #20
 226 010a 002B     		cmp	r3, #0
 227 010c 03D1     		bne	.L10
 267:../libraries/STM32F10x_StdPeriph_Driver/src/stm32f10x_i2c.c ****     {
 268:../libraries/STM32F10x_StdPeriph_Driver/src/stm32f10x_i2c.c ****       /* Set minimum allowed value */
 269:../libraries/STM32F10x_StdPeriph_Driver/src/stm32f10x_i2c.c ****       result |= (uint16_t)0x0001;  
 228              		.loc 1 269 0
 229 010e BB8C     		ldrh	r3, [r7, #36]	@ movhi
 230 0110 43F00103 		orr	r3, r3, #1
 231 0114 BB84     		strh	r3, [r7, #36]	@ movhi
 232              	.L10:
 270:../libraries/STM32F10x_StdPeriph_Driver/src/stm32f10x_i2c.c ****     }
 271:../libraries/STM32F10x_StdPeriph_Driver/src/stm32f10x_i2c.c ****     /* Set speed value and set F/S bit for fast mode */
 272:../libraries/STM32F10x_StdPeriph_Driver/src/stm32f10x_i2c.c ****     tmpreg |= (uint16_t)(result | CCR_FS_Set);
 233              		.loc 1 272 0
 234 0116 BA8C     		ldrh	r2, [r7, #36]	@ movhi
 235 0118 FB8C     		ldrh	r3, [r7, #38]	@ movhi
 236 011a 1343     		orrs	r3, r3, r2
 237 011c 9BB2     		uxth	r3, r3
 238 011e 6FEA4343 		mvn	r3, r3, lsl #17
 239 0122 6FEA5343 		mvn	r3, r3, lsr #17
 240 0126 FB84     		strh	r3, [r7, #38]	@ movhi
 273:../libraries/STM32F10x_StdPeriph_Driver/src/stm32f10x_i2c.c ****     /* Set Maximum Rise Time for fast mode */
 274:../libraries/STM32F10x_StdPeriph_Driver/src/stm32f10x_i2c.c ****     I2Cx->TRISE = (uint16_t)(((freqrange * (uint16_t)300) / (uint16_t)1000) + (uint16_t)1);  
 241              		.loc 1 274 0
 242 0128 7B8C     		ldrh	r3, [r7, #34]
 243 012a 4FF49672 		mov	r2, #300
 244 012e 02FB03F2 		mul	r2, r2, r3
 245 0132 44F6D353 		movw	r3, #19923
 246 0136 C1F26203 		movt	r3, 4194
 247 013a 83FB0213 		smull	r1, r3, r3, r2
 248 013e 4FEAA311 		asr	r1, r3, #6
 249 0142 4FEAE273 		asr	r3, r2, #31
 250 0146 CB1A     		subs	r3, r1, r3
 251 0148 9BB2     		uxth	r3, r3
 252 014a 03F10103 		add	r3, r3, #1
 253 014e 9AB2     		uxth	r2, r3
 254 0150 7B68     		ldr	r3, [r7, #4]
 255 0152 1A84     		strh	r2, [r3, #32]	@ movhi
 256              	.L7:
 275:../libraries/STM32F10x_StdPeriph_Driver/src/stm32f10x_i2c.c ****   }
 276:../libraries/STM32F10x_StdPeriph_Driver/src/stm32f10x_i2c.c **** 
 277:../libraries/STM32F10x_StdPeriph_Driver/src/stm32f10x_i2c.c ****   /* Write to I2Cx CCR */
 278:../libraries/STM32F10x_StdPeriph_Driver/src/stm32f10x_i2c.c ****   I2Cx->CCR = tmpreg;
 257              		.loc 1 278 0
 258 0154 7B68     		ldr	r3, [r7, #4]
 259 0156 FA8C     		ldrh	r2, [r7, #38]	@ movhi
 260 0158 9A83     		strh	r2, [r3, #28]	@ movhi
 279:../libraries/STM32F10x_StdPeriph_Driver/src/stm32f10x_i2c.c ****   /* Enable the selected I2C peripheral */
 280:../libraries/STM32F10x_StdPeriph_Driver/src/stm32f10x_i2c.c ****   I2Cx->CR1 |= CR1_PE_Set;
 261              		.loc 1 280 0
 262 015a 7B68     		ldr	r3, [r7, #4]
 263 015c 1B88     		ldrh	r3, [r3, #0]	@ movhi
 264 015e 9BB2     		uxth	r3, r3
 265 0160 43F00103 		orr	r3, r3, #1
 266 0164 9AB2     		uxth	r2, r3
 267 0166 7B68     		ldr	r3, [r7, #4]
 268 0168 1A80     		strh	r2, [r3, #0]	@ movhi
 281:../libraries/STM32F10x_StdPeriph_Driver/src/stm32f10x_i2c.c **** 
 282:../libraries/STM32F10x_StdPeriph_Driver/src/stm32f10x_i2c.c **** /*---------------------------- I2Cx CR1 Configuration ------------------------*/
 283:../libraries/STM32F10x_StdPeriph_Driver/src/stm32f10x_i2c.c ****   /* Get the I2Cx CR1 value */
 284:../libraries/STM32F10x_StdPeriph_Driver/src/stm32f10x_i2c.c ****   tmpreg = I2Cx->CR1;
 269              		.loc 1 284 0
 270 016a 7B68     		ldr	r3, [r7, #4]
 271 016c 1B88     		ldrh	r3, [r3, #0]	@ movhi
 272 016e FB84     		strh	r3, [r7, #38]	@ movhi
 285:../libraries/STM32F10x_StdPeriph_Driver/src/stm32f10x_i2c.c ****   /* Clear ACK, SMBTYPE and  SMBUS bits */
 286:../libraries/STM32F10x_StdPeriph_Driver/src/stm32f10x_i2c.c ****   tmpreg &= CR1_CLEAR_Mask;
 273              		.loc 1 286 0
 274 0170 FB8C     		ldrh	r3, [r7, #38]	@ movhi
 275 0172 23F48163 		bic	r3, r3, #1032
 276 0176 23F00203 		bic	r3, r3, #2
 277 017a FB84     		strh	r3, [r7, #38]	@ movhi
 287:../libraries/STM32F10x_StdPeriph_Driver/src/stm32f10x_i2c.c ****   /* Configure I2Cx: mode and acknowledgement */
 288:../libraries/STM32F10x_StdPeriph_Driver/src/stm32f10x_i2c.c ****   /* Set SMBTYPE and SMBUS bits according to I2C_Mode value */
 289:../libraries/STM32F10x_StdPeriph_Driver/src/stm32f10x_i2c.c ****   /* Set ACK bit according to I2C_Ack value */
 290:../libraries/STM32F10x_StdPeriph_Driver/src/stm32f10x_i2c.c ****   tmpreg |= (uint16_t)((uint32_t)I2C_InitStruct->I2C_Mode | I2C_InitStruct->I2C_Ack);
 278              		.loc 1 290 0
 279 017c 3B68     		ldr	r3, [r7, #0]
 280 017e 9A88     		ldrh	r2, [r3, #4]
 281 0180 3B68     		ldr	r3, [r7, #0]
 282 0182 5B89     		ldrh	r3, [r3, #10]
 283 0184 1343     		orrs	r3, r3, r2
 284 0186 9AB2     		uxth	r2, r3
 285 0188 FB8C     		ldrh	r3, [r7, #38]	@ movhi
 286 018a 1343     		orrs	r3, r3, r2
 287 018c FB84     		strh	r3, [r7, #38]	@ movhi
 291:../libraries/STM32F10x_StdPeriph_Driver/src/stm32f10x_i2c.c ****   /* Write to I2Cx CR1 */
 292:../libraries/STM32F10x_StdPeriph_Driver/src/stm32f10x_i2c.c ****   I2Cx->CR1 = tmpreg;
 288              		.loc 1 292 0
 289 018e 7B68     		ldr	r3, [r7, #4]
 290 0190 FA8C     		ldrh	r2, [r7, #38]	@ movhi
 291 0192 1A80     		strh	r2, [r3, #0]	@ movhi
 293:../libraries/STM32F10x_StdPeriph_Driver/src/stm32f10x_i2c.c **** 
 294:../libraries/STM32F10x_StdPeriph_Driver/src/stm32f10x_i2c.c **** /*---------------------------- I2Cx OAR1 Configuration -----------------------*/
 295:../libraries/STM32F10x_StdPeriph_Driver/src/stm32f10x_i2c.c ****   /* Set I2Cx Own Address1 and acknowledged address */
 296:../libraries/STM32F10x_StdPeriph_Driver/src/stm32f10x_i2c.c ****   I2Cx->OAR1 = (I2C_InitStruct->I2C_AcknowledgedAddress | I2C_InitStruct->I2C_OwnAddress1);
 292              		.loc 1 296 0
 293 0194 3B68     		ldr	r3, [r7, #0]
 294 0196 9A89     		ldrh	r2, [r3, #12]
 295 0198 3B68     		ldr	r3, [r7, #0]
 296 019a 1B89     		ldrh	r3, [r3, #8]
 297 019c 1343     		orrs	r3, r3, r2
 298 019e 9AB2     		uxth	r2, r3
 299 01a0 7B68     		ldr	r3, [r7, #4]
 300 01a2 1A81     		strh	r2, [r3, #8]	@ movhi
 297:../libraries/STM32F10x_StdPeriph_Driver/src/stm32f10x_i2c.c **** }
 301              		.loc 1 297 0
 302 01a4 07F12807 		add	r7, r7, #40
 303 01a8 BD46     		mov	sp, r7
 304 01aa 80BD     		pop	{r7, pc}
 305              		.cfi_endproc
 306              	.LFE57:
 308              		.section	.text.I2C_StructInit,"ax",%progbits
 309              		.align	2
 310              		.global	I2C_StructInit
 311              		.thumb
 312              		.thumb_func
 314              	I2C_StructInit:
 315              	.LFB58:
 298:../libraries/STM32F10x_StdPeriph_Driver/src/stm32f10x_i2c.c **** 
 299:../libraries/STM32F10x_StdPeriph_Driver/src/stm32f10x_i2c.c **** /**
 300:../libraries/STM32F10x_StdPeriph_Driver/src/stm32f10x_i2c.c ****   * @brief  Fills each I2C_InitStruct member with its default value.
 301:../libraries/STM32F10x_StdPeriph_Driver/src/stm32f10x_i2c.c ****   * @param  I2C_InitStruct: pointer to an I2C_InitTypeDef structure which will be initialized.
 302:../libraries/STM32F10x_StdPeriph_Driver/src/stm32f10x_i2c.c ****   * @retval None
 303:../libraries/STM32F10x_StdPeriph_Driver/src/stm32f10x_i2c.c ****   */
 304:../libraries/STM32F10x_StdPeriph_Driver/src/stm32f10x_i2c.c **** void I2C_StructInit(I2C_InitTypeDef* I2C_InitStruct)
 305:../libraries/STM32F10x_StdPeriph_Driver/src/stm32f10x_i2c.c **** {
 316              		.loc 1 305 0
 317              		.cfi_startproc
 318              		@ args = 0, pretend = 0, frame = 8
 319              		@ frame_needed = 1, uses_anonymous_args = 0
 320              		@ link register save eliminated.
 321 0000 80B4     		push	{r7}
 322              	.LCFI6:
 323              		.cfi_def_cfa_offset 4
 324              		.cfi_offset 7, -4
 325 0002 83B0     		sub	sp, sp, #12
 326              	.LCFI7:
 327              		.cfi_def_cfa_offset 16
 328 0004 00AF     		add	r7, sp, #0
 329              	.LCFI8:
 330              		.cfi_def_cfa_register 7
 331 0006 7860     		str	r0, [r7, #4]
 306:../libraries/STM32F10x_StdPeriph_Driver/src/stm32f10x_i2c.c **** /*---------------- Reset I2C init structure parameters values ----------------*/
 307:../libraries/STM32F10x_StdPeriph_Driver/src/stm32f10x_i2c.c ****   /* initialize the I2C_ClockSpeed member */
 308:../libraries/STM32F10x_StdPeriph_Driver/src/stm32f10x_i2c.c ****   I2C_InitStruct->I2C_ClockSpeed = 5000;
 332              		.loc 1 308 0
 333 0008 7B68     		ldr	r3, [r7, #4]
 334 000a 41F28832 		movw	r2, #5000
 335 000e 1A60     		str	r2, [r3, #0]
 309:../libraries/STM32F10x_StdPeriph_Driver/src/stm32f10x_i2c.c ****   /* Initialize the I2C_Mode member */
 310:../libraries/STM32F10x_StdPeriph_Driver/src/stm32f10x_i2c.c ****   I2C_InitStruct->I2C_Mode = I2C_Mode_I2C;
 336              		.loc 1 310 0
 337 0010 7B68     		ldr	r3, [r7, #4]
 338 0012 4FF00002 		mov	r2, #0
 339 0016 9A80     		strh	r2, [r3, #4]	@ movhi
 311:../libraries/STM32F10x_StdPeriph_Driver/src/stm32f10x_i2c.c ****   /* Initialize the I2C_DutyCycle member */
 312:../libraries/STM32F10x_StdPeriph_Driver/src/stm32f10x_i2c.c ****   I2C_InitStruct->I2C_DutyCycle = I2C_DutyCycle_2;
 340              		.loc 1 312 0
 341 0018 7B68     		ldr	r3, [r7, #4]
 342 001a 4BF6FF72 		movw	r2, #49151
 343 001e DA80     		strh	r2, [r3, #6]	@ movhi
 313:../libraries/STM32F10x_StdPeriph_Driver/src/stm32f10x_i2c.c ****   /* Initialize the I2C_OwnAddress1 member */
 314:../libraries/STM32F10x_StdPeriph_Driver/src/stm32f10x_i2c.c ****   I2C_InitStruct->I2C_OwnAddress1 = 0;
 344              		.loc 1 314 0
 345 0020 7B68     		ldr	r3, [r7, #4]
 346 0022 4FF00002 		mov	r2, #0
 347 0026 1A81     		strh	r2, [r3, #8]	@ movhi
 315:../libraries/STM32F10x_StdPeriph_Driver/src/stm32f10x_i2c.c ****   /* Initialize the I2C_Ack member */
 316:../libraries/STM32F10x_StdPeriph_Driver/src/stm32f10x_i2c.c ****   I2C_InitStruct->I2C_Ack = I2C_Ack_Disable;
 348              		.loc 1 316 0
 349 0028 7B68     		ldr	r3, [r7, #4]
 350 002a 4FF00002 		mov	r2, #0
 351 002e 5A81     		strh	r2, [r3, #10]	@ movhi
 317:../libraries/STM32F10x_StdPeriph_Driver/src/stm32f10x_i2c.c ****   /* Initialize the I2C_AcknowledgedAddress member */
 318:../libraries/STM32F10x_StdPeriph_Driver/src/stm32f10x_i2c.c ****   I2C_InitStruct->I2C_AcknowledgedAddress = I2C_AcknowledgedAddress_7bit;
 352              		.loc 1 318 0
 353 0030 7B68     		ldr	r3, [r7, #4]
 354 0032 4FF48042 		mov	r2, #16384
 355 0036 9A81     		strh	r2, [r3, #12]	@ movhi
 319:../libraries/STM32F10x_StdPeriph_Driver/src/stm32f10x_i2c.c **** }
 356              		.loc 1 319 0
 357 0038 07F10C07 		add	r7, r7, #12
 358 003c BD46     		mov	sp, r7
 359 003e 80BC     		pop	{r7}
 360 0040 7047     		bx	lr
 361              		.cfi_endproc
 362              	.LFE58:
 364 0042 00BF     		.section	.text.I2C_Cmd,"ax",%progbits
 365              		.align	2
 366              		.global	I2C_Cmd
 367              		.thumb
 368              		.thumb_func
 370              	I2C_Cmd:
 371              	.LFB59:
 320:../libraries/STM32F10x_StdPeriph_Driver/src/stm32f10x_i2c.c **** 
 321:../libraries/STM32F10x_StdPeriph_Driver/src/stm32f10x_i2c.c **** /**
 322:../libraries/STM32F10x_StdPeriph_Driver/src/stm32f10x_i2c.c ****   * @brief  Enables or disables the specified I2C peripheral.
 323:../libraries/STM32F10x_StdPeriph_Driver/src/stm32f10x_i2c.c ****   * @param  I2Cx: where x can be 1 or 2 to select the I2C peripheral.
 324:../libraries/STM32F10x_StdPeriph_Driver/src/stm32f10x_i2c.c ****   * @param  NewState: new state of the I2Cx peripheral. 
 325:../libraries/STM32F10x_StdPeriph_Driver/src/stm32f10x_i2c.c ****   *   This parameter can be: ENABLE or DISABLE.
 326:../libraries/STM32F10x_StdPeriph_Driver/src/stm32f10x_i2c.c ****   * @retval None
 327:../libraries/STM32F10x_StdPeriph_Driver/src/stm32f10x_i2c.c ****   */
 328:../libraries/STM32F10x_StdPeriph_Driver/src/stm32f10x_i2c.c **** void I2C_Cmd(I2C_TypeDef* I2Cx, FunctionalState NewState)
 329:../libraries/STM32F10x_StdPeriph_Driver/src/stm32f10x_i2c.c **** {
 372              		.loc 1 329 0
 373              		.cfi_startproc
 374              		@ args = 0, pretend = 0, frame = 8
 375              		@ frame_needed = 1, uses_anonymous_args = 0
 376              		@ link register save eliminated.
 377 0000 80B4     		push	{r7}
 378              	.LCFI9:
 379              		.cfi_def_cfa_offset 4
 380              		.cfi_offset 7, -4
 381 0002 83B0     		sub	sp, sp, #12
 382              	.LCFI10:
 383              		.cfi_def_cfa_offset 16
 384 0004 00AF     		add	r7, sp, #0
 385              	.LCFI11:
 386              		.cfi_def_cfa_register 7
 387 0006 7860     		str	r0, [r7, #4]
 388 0008 0B46     		mov	r3, r1
 389 000a FB70     		strb	r3, [r7, #3]
 330:../libraries/STM32F10x_StdPeriph_Driver/src/stm32f10x_i2c.c ****   /* Check the parameters */
 331:../libraries/STM32F10x_StdPeriph_Driver/src/stm32f10x_i2c.c ****   assert_param(IS_I2C_ALL_PERIPH(I2Cx));
 332:../libraries/STM32F10x_StdPeriph_Driver/src/stm32f10x_i2c.c ****   assert_param(IS_FUNCTIONAL_STATE(NewState));
 333:../libraries/STM32F10x_StdPeriph_Driver/src/stm32f10x_i2c.c ****   if (NewState != DISABLE)
 390              		.loc 1 333 0
 391 000c FB78     		ldrb	r3, [r7, #3]	@ zero_extendqisi2
 392 000e 002B     		cmp	r3, #0
 393 0010 08D0     		beq	.L13
 334:../libraries/STM32F10x_StdPeriph_Driver/src/stm32f10x_i2c.c ****   {
 335:../libraries/STM32F10x_StdPeriph_Driver/src/stm32f10x_i2c.c ****     /* Enable the selected I2C peripheral */
 336:../libraries/STM32F10x_StdPeriph_Driver/src/stm32f10x_i2c.c ****     I2Cx->CR1 |= CR1_PE_Set;
 394              		.loc 1 336 0
 395 0012 7B68     		ldr	r3, [r7, #4]
 396 0014 1B88     		ldrh	r3, [r3, #0]	@ movhi
 397 0016 9BB2     		uxth	r3, r3
 398 0018 43F00103 		orr	r3, r3, #1
 399 001c 9AB2     		uxth	r2, r3
 400 001e 7B68     		ldr	r3, [r7, #4]
 401 0020 1A80     		strh	r2, [r3, #0]	@ movhi
 402 0022 07E0     		b	.L12
 403              	.L13:
 337:../libraries/STM32F10x_StdPeriph_Driver/src/stm32f10x_i2c.c ****   }
 338:../libraries/STM32F10x_StdPeriph_Driver/src/stm32f10x_i2c.c ****   else
 339:../libraries/STM32F10x_StdPeriph_Driver/src/stm32f10x_i2c.c ****   {
 340:../libraries/STM32F10x_StdPeriph_Driver/src/stm32f10x_i2c.c ****     /* Disable the selected I2C peripheral */
 341:../libraries/STM32F10x_StdPeriph_Driver/src/stm32f10x_i2c.c ****     I2Cx->CR1 &= CR1_PE_Reset;
 404              		.loc 1 341 0
 405 0024 7B68     		ldr	r3, [r7, #4]
 406 0026 1B88     		ldrh	r3, [r3, #0]	@ movhi
 407 0028 9BB2     		uxth	r3, r3
 408 002a 23F00103 		bic	r3, r3, #1
 409 002e 9AB2     		uxth	r2, r3
 410 0030 7B68     		ldr	r3, [r7, #4]
 411 0032 1A80     		strh	r2, [r3, #0]	@ movhi
 412              	.L12:
 342:../libraries/STM32F10x_StdPeriph_Driver/src/stm32f10x_i2c.c ****   }
 343:../libraries/STM32F10x_StdPeriph_Driver/src/stm32f10x_i2c.c **** }
 413              		.loc 1 343 0
 414 0034 07F10C07 		add	r7, r7, #12
 415 0038 BD46     		mov	sp, r7
 416 003a 80BC     		pop	{r7}
 417 003c 7047     		bx	lr
 418              		.cfi_endproc
 419              	.LFE59:
 421 003e 00BF     		.section	.text.I2C_DMACmd,"ax",%progbits
 422              		.align	2
 423              		.global	I2C_DMACmd
 424              		.thumb
 425              		.thumb_func
 427              	I2C_DMACmd:
 428              	.LFB60:
 344:../libraries/STM32F10x_StdPeriph_Driver/src/stm32f10x_i2c.c **** 
 345:../libraries/STM32F10x_StdPeriph_Driver/src/stm32f10x_i2c.c **** /**
 346:../libraries/STM32F10x_StdPeriph_Driver/src/stm32f10x_i2c.c ****   * @brief  Enables or disables the specified I2C DMA requests.
 347:../libraries/STM32F10x_StdPeriph_Driver/src/stm32f10x_i2c.c ****   * @param  I2Cx: where x can be 1 or 2 to select the I2C peripheral.
 348:../libraries/STM32F10x_StdPeriph_Driver/src/stm32f10x_i2c.c ****   * @param  NewState: new state of the I2C DMA transfer.
 349:../libraries/STM32F10x_StdPeriph_Driver/src/stm32f10x_i2c.c ****   *   This parameter can be: ENABLE or DISABLE.
 350:../libraries/STM32F10x_StdPeriph_Driver/src/stm32f10x_i2c.c ****   * @retval None
 351:../libraries/STM32F10x_StdPeriph_Driver/src/stm32f10x_i2c.c ****   */
 352:../libraries/STM32F10x_StdPeriph_Driver/src/stm32f10x_i2c.c **** void I2C_DMACmd(I2C_TypeDef* I2Cx, FunctionalState NewState)
 353:../libraries/STM32F10x_StdPeriph_Driver/src/stm32f10x_i2c.c **** {
 429              		.loc 1 353 0
 430              		.cfi_startproc
 431              		@ args = 0, pretend = 0, frame = 8
 432              		@ frame_needed = 1, uses_anonymous_args = 0
 433              		@ link register save eliminated.
 434 0000 80B4     		push	{r7}
 435              	.LCFI12:
 436              		.cfi_def_cfa_offset 4
 437              		.cfi_offset 7, -4
 438 0002 83B0     		sub	sp, sp, #12
 439              	.LCFI13:
 440              		.cfi_def_cfa_offset 16
 441 0004 00AF     		add	r7, sp, #0
 442              	.LCFI14:
 443              		.cfi_def_cfa_register 7
 444 0006 7860     		str	r0, [r7, #4]
 445 0008 0B46     		mov	r3, r1
 446 000a FB70     		strb	r3, [r7, #3]
 354:../libraries/STM32F10x_StdPeriph_Driver/src/stm32f10x_i2c.c ****   /* Check the parameters */
 355:../libraries/STM32F10x_StdPeriph_Driver/src/stm32f10x_i2c.c ****   assert_param(IS_I2C_ALL_PERIPH(I2Cx));
 356:../libraries/STM32F10x_StdPeriph_Driver/src/stm32f10x_i2c.c ****   assert_param(IS_FUNCTIONAL_STATE(NewState));
 357:../libraries/STM32F10x_StdPeriph_Driver/src/stm32f10x_i2c.c ****   if (NewState != DISABLE)
 447              		.loc 1 357 0
 448 000c FB78     		ldrb	r3, [r7, #3]	@ zero_extendqisi2
 449 000e 002B     		cmp	r3, #0
 450 0010 08D0     		beq	.L16
 358:../libraries/STM32F10x_StdPeriph_Driver/src/stm32f10x_i2c.c ****   {
 359:../libraries/STM32F10x_StdPeriph_Driver/src/stm32f10x_i2c.c ****     /* Enable the selected I2C DMA requests */
 360:../libraries/STM32F10x_StdPeriph_Driver/src/stm32f10x_i2c.c ****     I2Cx->CR2 |= CR2_DMAEN_Set;
 451              		.loc 1 360 0
 452 0012 7B68     		ldr	r3, [r7, #4]
 453 0014 9B88     		ldrh	r3, [r3, #4]	@ movhi
 454 0016 9BB2     		uxth	r3, r3
 455 0018 43F40063 		orr	r3, r3, #2048
 456 001c 9AB2     		uxth	r2, r3
 457 001e 7B68     		ldr	r3, [r7, #4]
 458 0020 9A80     		strh	r2, [r3, #4]	@ movhi
 459 0022 07E0     		b	.L15
 460              	.L16:
 361:../libraries/STM32F10x_StdPeriph_Driver/src/stm32f10x_i2c.c ****   }
 362:../libraries/STM32F10x_StdPeriph_Driver/src/stm32f10x_i2c.c ****   else
 363:../libraries/STM32F10x_StdPeriph_Driver/src/stm32f10x_i2c.c ****   {
 364:../libraries/STM32F10x_StdPeriph_Driver/src/stm32f10x_i2c.c ****     /* Disable the selected I2C DMA requests */
 365:../libraries/STM32F10x_StdPeriph_Driver/src/stm32f10x_i2c.c ****     I2Cx->CR2 &= CR2_DMAEN_Reset;
 461              		.loc 1 365 0
 462 0024 7B68     		ldr	r3, [r7, #4]
 463 0026 9B88     		ldrh	r3, [r3, #4]	@ movhi
 464 0028 9BB2     		uxth	r3, r3
 465 002a 23F40063 		bic	r3, r3, #2048
 466 002e 9AB2     		uxth	r2, r3
 467 0030 7B68     		ldr	r3, [r7, #4]
 468 0032 9A80     		strh	r2, [r3, #4]	@ movhi
 469              	.L15:
 366:../libraries/STM32F10x_StdPeriph_Driver/src/stm32f10x_i2c.c ****   }
 367:../libraries/STM32F10x_StdPeriph_Driver/src/stm32f10x_i2c.c **** }
 470              		.loc 1 367 0
 471 0034 07F10C07 		add	r7, r7, #12
 472 0038 BD46     		mov	sp, r7
 473 003a 80BC     		pop	{r7}
 474 003c 7047     		bx	lr
 475              		.cfi_endproc
 476              	.LFE60:
 478 003e 00BF     		.section	.text.I2C_DMALastTransferCmd,"ax",%progbits
 479              		.align	2
 480              		.global	I2C_DMALastTransferCmd
 481              		.thumb
 482              		.thumb_func
 484              	I2C_DMALastTransferCmd:
 485              	.LFB61:
 368:../libraries/STM32F10x_StdPeriph_Driver/src/stm32f10x_i2c.c **** 
 369:../libraries/STM32F10x_StdPeriph_Driver/src/stm32f10x_i2c.c **** /**
 370:../libraries/STM32F10x_StdPeriph_Driver/src/stm32f10x_i2c.c ****   * @brief  Specifies if the next DMA transfer will be the last one.
 371:../libraries/STM32F10x_StdPeriph_Driver/src/stm32f10x_i2c.c ****   * @param  I2Cx: where x can be 1 or 2 to select the I2C peripheral.
 372:../libraries/STM32F10x_StdPeriph_Driver/src/stm32f10x_i2c.c ****   * @param  NewState: new state of the I2C DMA last transfer.
 373:../libraries/STM32F10x_StdPeriph_Driver/src/stm32f10x_i2c.c ****   *   This parameter can be: ENABLE or DISABLE.
 374:../libraries/STM32F10x_StdPeriph_Driver/src/stm32f10x_i2c.c ****   * @retval None
 375:../libraries/STM32F10x_StdPeriph_Driver/src/stm32f10x_i2c.c ****   */
 376:../libraries/STM32F10x_StdPeriph_Driver/src/stm32f10x_i2c.c **** void I2C_DMALastTransferCmd(I2C_TypeDef* I2Cx, FunctionalState NewState)
 377:../libraries/STM32F10x_StdPeriph_Driver/src/stm32f10x_i2c.c **** {
 486              		.loc 1 377 0
 487              		.cfi_startproc
 488              		@ args = 0, pretend = 0, frame = 8
 489              		@ frame_needed = 1, uses_anonymous_args = 0
 490              		@ link register save eliminated.
 491 0000 80B4     		push	{r7}
 492              	.LCFI15:
 493              		.cfi_def_cfa_offset 4
 494              		.cfi_offset 7, -4
 495 0002 83B0     		sub	sp, sp, #12
 496              	.LCFI16:
 497              		.cfi_def_cfa_offset 16
 498 0004 00AF     		add	r7, sp, #0
 499              	.LCFI17:
 500              		.cfi_def_cfa_register 7
 501 0006 7860     		str	r0, [r7, #4]
 502 0008 0B46     		mov	r3, r1
 503 000a FB70     		strb	r3, [r7, #3]
 378:../libraries/STM32F10x_StdPeriph_Driver/src/stm32f10x_i2c.c ****   /* Check the parameters */
 379:../libraries/STM32F10x_StdPeriph_Driver/src/stm32f10x_i2c.c ****   assert_param(IS_I2C_ALL_PERIPH(I2Cx));
 380:../libraries/STM32F10x_StdPeriph_Driver/src/stm32f10x_i2c.c ****   assert_param(IS_FUNCTIONAL_STATE(NewState));
 381:../libraries/STM32F10x_StdPeriph_Driver/src/stm32f10x_i2c.c ****   if (NewState != DISABLE)
 504              		.loc 1 381 0
 505 000c FB78     		ldrb	r3, [r7, #3]	@ zero_extendqisi2
 506 000e 002B     		cmp	r3, #0
 507 0010 08D0     		beq	.L19
 382:../libraries/STM32F10x_StdPeriph_Driver/src/stm32f10x_i2c.c ****   {
 383:../libraries/STM32F10x_StdPeriph_Driver/src/stm32f10x_i2c.c ****     /* Next DMA transfer is the last transfer */
 384:../libraries/STM32F10x_StdPeriph_Driver/src/stm32f10x_i2c.c ****     I2Cx->CR2 |= CR2_LAST_Set;
 508              		.loc 1 384 0
 509 0012 7B68     		ldr	r3, [r7, #4]
 510 0014 9B88     		ldrh	r3, [r3, #4]	@ movhi
 511 0016 9BB2     		uxth	r3, r3
 512 0018 43F48053 		orr	r3, r3, #4096
 513 001c 9AB2     		uxth	r2, r3
 514 001e 7B68     		ldr	r3, [r7, #4]
 515 0020 9A80     		strh	r2, [r3, #4]	@ movhi
 516 0022 07E0     		b	.L18
 517              	.L19:
 385:../libraries/STM32F10x_StdPeriph_Driver/src/stm32f10x_i2c.c ****   }
 386:../libraries/STM32F10x_StdPeriph_Driver/src/stm32f10x_i2c.c ****   else
 387:../libraries/STM32F10x_StdPeriph_Driver/src/stm32f10x_i2c.c ****   {
 388:../libraries/STM32F10x_StdPeriph_Driver/src/stm32f10x_i2c.c ****     /* Next DMA transfer is not the last transfer */
 389:../libraries/STM32F10x_StdPeriph_Driver/src/stm32f10x_i2c.c ****     I2Cx->CR2 &= CR2_LAST_Reset;
 518              		.loc 1 389 0
 519 0024 7B68     		ldr	r3, [r7, #4]
 520 0026 9B88     		ldrh	r3, [r3, #4]	@ movhi
 521 0028 9BB2     		uxth	r3, r3
 522 002a 23F48053 		bic	r3, r3, #4096
 523 002e 9AB2     		uxth	r2, r3
 524 0030 7B68     		ldr	r3, [r7, #4]
 525 0032 9A80     		strh	r2, [r3, #4]	@ movhi
 526              	.L18:
 390:../libraries/STM32F10x_StdPeriph_Driver/src/stm32f10x_i2c.c ****   }
 391:../libraries/STM32F10x_StdPeriph_Driver/src/stm32f10x_i2c.c **** }
 527              		.loc 1 391 0
 528 0034 07F10C07 		add	r7, r7, #12
 529 0038 BD46     		mov	sp, r7
 530 003a 80BC     		pop	{r7}
 531 003c 7047     		bx	lr
 532              		.cfi_endproc
 533              	.LFE61:
 535 003e 00BF     		.section	.text.I2C_GenerateSTART,"ax",%progbits
 536              		.align	2
 537              		.global	I2C_GenerateSTART
 538              		.thumb
 539              		.thumb_func
 541              	I2C_GenerateSTART:
 542              	.LFB62:
 392:../libraries/STM32F10x_StdPeriph_Driver/src/stm32f10x_i2c.c **** 
 393:../libraries/STM32F10x_StdPeriph_Driver/src/stm32f10x_i2c.c **** /**
 394:../libraries/STM32F10x_StdPeriph_Driver/src/stm32f10x_i2c.c ****   * @brief  Generates I2Cx communication START condition.
 395:../libraries/STM32F10x_StdPeriph_Driver/src/stm32f10x_i2c.c ****   * @param  I2Cx: where x can be 1 or 2 to select the I2C peripheral.
 396:../libraries/STM32F10x_StdPeriph_Driver/src/stm32f10x_i2c.c ****   * @param  NewState: new state of the I2C START condition generation.
 397:../libraries/STM32F10x_StdPeriph_Driver/src/stm32f10x_i2c.c ****   *   This parameter can be: ENABLE or DISABLE.
 398:../libraries/STM32F10x_StdPeriph_Driver/src/stm32f10x_i2c.c ****   * @retval None.
 399:../libraries/STM32F10x_StdPeriph_Driver/src/stm32f10x_i2c.c ****   */
 400:../libraries/STM32F10x_StdPeriph_Driver/src/stm32f10x_i2c.c **** void I2C_GenerateSTART(I2C_TypeDef* I2Cx, FunctionalState NewState)
 401:../libraries/STM32F10x_StdPeriph_Driver/src/stm32f10x_i2c.c **** {
 543              		.loc 1 401 0
 544              		.cfi_startproc
 545              		@ args = 0, pretend = 0, frame = 8
 546              		@ frame_needed = 1, uses_anonymous_args = 0
 547              		@ link register save eliminated.
 548 0000 80B4     		push	{r7}
 549              	.LCFI18:
 550              		.cfi_def_cfa_offset 4
 551              		.cfi_offset 7, -4
 552 0002 83B0     		sub	sp, sp, #12
 553              	.LCFI19:
 554              		.cfi_def_cfa_offset 16
 555 0004 00AF     		add	r7, sp, #0
 556              	.LCFI20:
 557              		.cfi_def_cfa_register 7
 558 0006 7860     		str	r0, [r7, #4]
 559 0008 0B46     		mov	r3, r1
 560 000a FB70     		strb	r3, [r7, #3]
 402:../libraries/STM32F10x_StdPeriph_Driver/src/stm32f10x_i2c.c ****   /* Check the parameters */
 403:../libraries/STM32F10x_StdPeriph_Driver/src/stm32f10x_i2c.c ****   assert_param(IS_I2C_ALL_PERIPH(I2Cx));
 404:../libraries/STM32F10x_StdPeriph_Driver/src/stm32f10x_i2c.c ****   assert_param(IS_FUNCTIONAL_STATE(NewState));
 405:../libraries/STM32F10x_StdPeriph_Driver/src/stm32f10x_i2c.c ****   if (NewState != DISABLE)
 561              		.loc 1 405 0
 562 000c FB78     		ldrb	r3, [r7, #3]	@ zero_extendqisi2
 563 000e 002B     		cmp	r3, #0
 564 0010 08D0     		beq	.L22
 406:../libraries/STM32F10x_StdPeriph_Driver/src/stm32f10x_i2c.c ****   {
 407:../libraries/STM32F10x_StdPeriph_Driver/src/stm32f10x_i2c.c ****     /* Generate a START condition */
 408:../libraries/STM32F10x_StdPeriph_Driver/src/stm32f10x_i2c.c ****     I2Cx->CR1 |= CR1_START_Set;
 565              		.loc 1 408 0
 566 0012 7B68     		ldr	r3, [r7, #4]
 567 0014 1B88     		ldrh	r3, [r3, #0]	@ movhi
 568 0016 9BB2     		uxth	r3, r3
 569 0018 43F48073 		orr	r3, r3, #256
 570 001c 9AB2     		uxth	r2, r3
 571 001e 7B68     		ldr	r3, [r7, #4]
 572 0020 1A80     		strh	r2, [r3, #0]	@ movhi
 573 0022 07E0     		b	.L21
 574              	.L22:
 409:../libraries/STM32F10x_StdPeriph_Driver/src/stm32f10x_i2c.c ****   }
 410:../libraries/STM32F10x_StdPeriph_Driver/src/stm32f10x_i2c.c ****   else
 411:../libraries/STM32F10x_StdPeriph_Driver/src/stm32f10x_i2c.c ****   {
 412:../libraries/STM32F10x_StdPeriph_Driver/src/stm32f10x_i2c.c ****     /* Disable the START condition generation */
 413:../libraries/STM32F10x_StdPeriph_Driver/src/stm32f10x_i2c.c ****     I2Cx->CR1 &= CR1_START_Reset;
 575              		.loc 1 413 0
 576 0024 7B68     		ldr	r3, [r7, #4]
 577 0026 1B88     		ldrh	r3, [r3, #0]	@ movhi
 578 0028 9BB2     		uxth	r3, r3
 579 002a 23F48073 		bic	r3, r3, #256
 580 002e 9AB2     		uxth	r2, r3
 581 0030 7B68     		ldr	r3, [r7, #4]
 582 0032 1A80     		strh	r2, [r3, #0]	@ movhi
 583              	.L21:
 414:../libraries/STM32F10x_StdPeriph_Driver/src/stm32f10x_i2c.c ****   }
 415:../libraries/STM32F10x_StdPeriph_Driver/src/stm32f10x_i2c.c **** }
 584              		.loc 1 415 0
 585 0034 07F10C07 		add	r7, r7, #12
 586 0038 BD46     		mov	sp, r7
 587 003a 80BC     		pop	{r7}
 588 003c 7047     		bx	lr
 589              		.cfi_endproc
 590              	.LFE62:
 592 003e 00BF     		.section	.text.I2C_GenerateSTOP,"ax",%progbits
 593              		.align	2
 594              		.global	I2C_GenerateSTOP
 595              		.thumb
 596              		.thumb_func
 598              	I2C_GenerateSTOP:
 599              	.LFB63:
 416:../libraries/STM32F10x_StdPeriph_Driver/src/stm32f10x_i2c.c **** 
 417:../libraries/STM32F10x_StdPeriph_Driver/src/stm32f10x_i2c.c **** /**
 418:../libraries/STM32F10x_StdPeriph_Driver/src/stm32f10x_i2c.c ****   * @brief  Generates I2Cx communication STOP condition.
 419:../libraries/STM32F10x_StdPeriph_Driver/src/stm32f10x_i2c.c ****   * @param  I2Cx: where x can be 1 or 2 to select the I2C peripheral.
 420:../libraries/STM32F10x_StdPeriph_Driver/src/stm32f10x_i2c.c ****   * @param  NewState: new state of the I2C STOP condition generation.
 421:../libraries/STM32F10x_StdPeriph_Driver/src/stm32f10x_i2c.c ****   *   This parameter can be: ENABLE or DISABLE.
 422:../libraries/STM32F10x_StdPeriph_Driver/src/stm32f10x_i2c.c ****   * @retval None.
 423:../libraries/STM32F10x_StdPeriph_Driver/src/stm32f10x_i2c.c ****   */
 424:../libraries/STM32F10x_StdPeriph_Driver/src/stm32f10x_i2c.c **** void I2C_GenerateSTOP(I2C_TypeDef* I2Cx, FunctionalState NewState)
 425:../libraries/STM32F10x_StdPeriph_Driver/src/stm32f10x_i2c.c **** {
 600              		.loc 1 425 0
 601              		.cfi_startproc
 602              		@ args = 0, pretend = 0, frame = 8
 603              		@ frame_needed = 1, uses_anonymous_args = 0
 604              		@ link register save eliminated.
 605 0000 80B4     		push	{r7}
 606              	.LCFI21:
 607              		.cfi_def_cfa_offset 4
 608              		.cfi_offset 7, -4
 609 0002 83B0     		sub	sp, sp, #12
 610              	.LCFI22:
 611              		.cfi_def_cfa_offset 16
 612 0004 00AF     		add	r7, sp, #0
 613              	.LCFI23:
 614              		.cfi_def_cfa_register 7
 615 0006 7860     		str	r0, [r7, #4]
 616 0008 0B46     		mov	r3, r1
 617 000a FB70     		strb	r3, [r7, #3]
 426:../libraries/STM32F10x_StdPeriph_Driver/src/stm32f10x_i2c.c ****   /* Check the parameters */
 427:../libraries/STM32F10x_StdPeriph_Driver/src/stm32f10x_i2c.c ****   assert_param(IS_I2C_ALL_PERIPH(I2Cx));
 428:../libraries/STM32F10x_StdPeriph_Driver/src/stm32f10x_i2c.c ****   assert_param(IS_FUNCTIONAL_STATE(NewState));
 429:../libraries/STM32F10x_StdPeriph_Driver/src/stm32f10x_i2c.c ****   if (NewState != DISABLE)
 618              		.loc 1 429 0
 619 000c FB78     		ldrb	r3, [r7, #3]	@ zero_extendqisi2
 620 000e 002B     		cmp	r3, #0
 621 0010 08D0     		beq	.L25
 430:../libraries/STM32F10x_StdPeriph_Driver/src/stm32f10x_i2c.c ****   {
 431:../libraries/STM32F10x_StdPeriph_Driver/src/stm32f10x_i2c.c ****     /* Generate a STOP condition */
 432:../libraries/STM32F10x_StdPeriph_Driver/src/stm32f10x_i2c.c ****     I2Cx->CR1 |= CR1_STOP_Set;
 622              		.loc 1 432 0
 623 0012 7B68     		ldr	r3, [r7, #4]
 624 0014 1B88     		ldrh	r3, [r3, #0]	@ movhi
 625 0016 9BB2     		uxth	r3, r3
 626 0018 43F40073 		orr	r3, r3, #512
 627 001c 9AB2     		uxth	r2, r3
 628 001e 7B68     		ldr	r3, [r7, #4]
 629 0020 1A80     		strh	r2, [r3, #0]	@ movhi
 630 0022 07E0     		b	.L24
 631              	.L25:
 433:../libraries/STM32F10x_StdPeriph_Driver/src/stm32f10x_i2c.c ****   }
 434:../libraries/STM32F10x_StdPeriph_Driver/src/stm32f10x_i2c.c ****   else
 435:../libraries/STM32F10x_StdPeriph_Driver/src/stm32f10x_i2c.c ****   {
 436:../libraries/STM32F10x_StdPeriph_Driver/src/stm32f10x_i2c.c ****     /* Disable the STOP condition generation */
 437:../libraries/STM32F10x_StdPeriph_Driver/src/stm32f10x_i2c.c ****     I2Cx->CR1 &= CR1_STOP_Reset;
 632              		.loc 1 437 0
 633 0024 7B68     		ldr	r3, [r7, #4]
 634 0026 1B88     		ldrh	r3, [r3, #0]	@ movhi
 635 0028 9BB2     		uxth	r3, r3
 636 002a 23F40073 		bic	r3, r3, #512
 637 002e 9AB2     		uxth	r2, r3
 638 0030 7B68     		ldr	r3, [r7, #4]
 639 0032 1A80     		strh	r2, [r3, #0]	@ movhi
 640              	.L24:
 438:../libraries/STM32F10x_StdPeriph_Driver/src/stm32f10x_i2c.c ****   }
 439:../libraries/STM32F10x_StdPeriph_Driver/src/stm32f10x_i2c.c **** }
 641              		.loc 1 439 0
 642 0034 07F10C07 		add	r7, r7, #12
 643 0038 BD46     		mov	sp, r7
 644 003a 80BC     		pop	{r7}
 645 003c 7047     		bx	lr
 646              		.cfi_endproc
 647              	.LFE63:
 649 003e 00BF     		.section	.text.I2C_AcknowledgeConfig,"ax",%progbits
 650              		.align	2
 651              		.global	I2C_AcknowledgeConfig
 652              		.thumb
 653              		.thumb_func
 655              	I2C_AcknowledgeConfig:
 656              	.LFB64:
 440:../libraries/STM32F10x_StdPeriph_Driver/src/stm32f10x_i2c.c **** 
 441:../libraries/STM32F10x_StdPeriph_Driver/src/stm32f10x_i2c.c **** /**
 442:../libraries/STM32F10x_StdPeriph_Driver/src/stm32f10x_i2c.c ****   * @brief  Enables or disables the specified I2C acknowledge feature.
 443:../libraries/STM32F10x_StdPeriph_Driver/src/stm32f10x_i2c.c ****   * @param  I2Cx: where x can be 1 or 2 to select the I2C peripheral.
 444:../libraries/STM32F10x_StdPeriph_Driver/src/stm32f10x_i2c.c ****   * @param  NewState: new state of the I2C Acknowledgement.
 445:../libraries/STM32F10x_StdPeriph_Driver/src/stm32f10x_i2c.c ****   *   This parameter can be: ENABLE or DISABLE.
 446:../libraries/STM32F10x_StdPeriph_Driver/src/stm32f10x_i2c.c ****   * @retval None.
 447:../libraries/STM32F10x_StdPeriph_Driver/src/stm32f10x_i2c.c ****   */
 448:../libraries/STM32F10x_StdPeriph_Driver/src/stm32f10x_i2c.c **** void I2C_AcknowledgeConfig(I2C_TypeDef* I2Cx, FunctionalState NewState)
 449:../libraries/STM32F10x_StdPeriph_Driver/src/stm32f10x_i2c.c **** {
 657              		.loc 1 449 0
 658              		.cfi_startproc
 659              		@ args = 0, pretend = 0, frame = 8
 660              		@ frame_needed = 1, uses_anonymous_args = 0
 661              		@ link register save eliminated.
 662 0000 80B4     		push	{r7}
 663              	.LCFI24:
 664              		.cfi_def_cfa_offset 4
 665              		.cfi_offset 7, -4
 666 0002 83B0     		sub	sp, sp, #12
 667              	.LCFI25:
 668              		.cfi_def_cfa_offset 16
 669 0004 00AF     		add	r7, sp, #0
 670              	.LCFI26:
 671              		.cfi_def_cfa_register 7
 672 0006 7860     		str	r0, [r7, #4]
 673 0008 0B46     		mov	r3, r1
 674 000a FB70     		strb	r3, [r7, #3]
 450:../libraries/STM32F10x_StdPeriph_Driver/src/stm32f10x_i2c.c ****   /* Check the parameters */
 451:../libraries/STM32F10x_StdPeriph_Driver/src/stm32f10x_i2c.c ****   assert_param(IS_I2C_ALL_PERIPH(I2Cx));
 452:../libraries/STM32F10x_StdPeriph_Driver/src/stm32f10x_i2c.c ****   assert_param(IS_FUNCTIONAL_STATE(NewState));
 453:../libraries/STM32F10x_StdPeriph_Driver/src/stm32f10x_i2c.c ****   if (NewState != DISABLE)
 675              		.loc 1 453 0
 676 000c FB78     		ldrb	r3, [r7, #3]	@ zero_extendqisi2
 677 000e 002B     		cmp	r3, #0
 678 0010 08D0     		beq	.L28
 454:../libraries/STM32F10x_StdPeriph_Driver/src/stm32f10x_i2c.c ****   {
 455:../libraries/STM32F10x_StdPeriph_Driver/src/stm32f10x_i2c.c ****     /* Enable the acknowledgement */
 456:../libraries/STM32F10x_StdPeriph_Driver/src/stm32f10x_i2c.c ****     I2Cx->CR1 |= CR1_ACK_Set;
 679              		.loc 1 456 0
 680 0012 7B68     		ldr	r3, [r7, #4]
 681 0014 1B88     		ldrh	r3, [r3, #0]	@ movhi
 682 0016 9BB2     		uxth	r3, r3
 683 0018 43F48063 		orr	r3, r3, #1024
 684 001c 9AB2     		uxth	r2, r3
 685 001e 7B68     		ldr	r3, [r7, #4]
 686 0020 1A80     		strh	r2, [r3, #0]	@ movhi
 687 0022 07E0     		b	.L27
 688              	.L28:
 457:../libraries/STM32F10x_StdPeriph_Driver/src/stm32f10x_i2c.c ****   }
 458:../libraries/STM32F10x_StdPeriph_Driver/src/stm32f10x_i2c.c ****   else
 459:../libraries/STM32F10x_StdPeriph_Driver/src/stm32f10x_i2c.c ****   {
 460:../libraries/STM32F10x_StdPeriph_Driver/src/stm32f10x_i2c.c ****     /* Disable the acknowledgement */
 461:../libraries/STM32F10x_StdPeriph_Driver/src/stm32f10x_i2c.c ****     I2Cx->CR1 &= CR1_ACK_Reset;
 689              		.loc 1 461 0
 690 0024 7B68     		ldr	r3, [r7, #4]
 691 0026 1B88     		ldrh	r3, [r3, #0]	@ movhi
 692 0028 9BB2     		uxth	r3, r3
 693 002a 23F48063 		bic	r3, r3, #1024
 694 002e 9AB2     		uxth	r2, r3
 695 0030 7B68     		ldr	r3, [r7, #4]
 696 0032 1A80     		strh	r2, [r3, #0]	@ movhi
 697              	.L27:
 462:../libraries/STM32F10x_StdPeriph_Driver/src/stm32f10x_i2c.c ****   }
 463:../libraries/STM32F10x_StdPeriph_Driver/src/stm32f10x_i2c.c **** }
 698              		.loc 1 463 0
 699 0034 07F10C07 		add	r7, r7, #12
 700 0038 BD46     		mov	sp, r7
 701 003a 80BC     		pop	{r7}
 702 003c 7047     		bx	lr
 703              		.cfi_endproc
 704              	.LFE64:
 706 003e 00BF     		.section	.text.I2C_OwnAddress2Config,"ax",%progbits
 707              		.align	2
 708              		.global	I2C_OwnAddress2Config
 709              		.thumb
 710              		.thumb_func
 712              	I2C_OwnAddress2Config:
 713              	.LFB65:
 464:../libraries/STM32F10x_StdPeriph_Driver/src/stm32f10x_i2c.c **** 
 465:../libraries/STM32F10x_StdPeriph_Driver/src/stm32f10x_i2c.c **** /**
 466:../libraries/STM32F10x_StdPeriph_Driver/src/stm32f10x_i2c.c ****   * @brief  Configures the specified I2C own address2.
 467:../libraries/STM32F10x_StdPeriph_Driver/src/stm32f10x_i2c.c ****   * @param  I2Cx: where x can be 1 or 2 to select the I2C peripheral.
 468:../libraries/STM32F10x_StdPeriph_Driver/src/stm32f10x_i2c.c ****   * @param  Address: specifies the 7bit I2C own address2.
 469:../libraries/STM32F10x_StdPeriph_Driver/src/stm32f10x_i2c.c ****   * @retval None.
 470:../libraries/STM32F10x_StdPeriph_Driver/src/stm32f10x_i2c.c ****   */
 471:../libraries/STM32F10x_StdPeriph_Driver/src/stm32f10x_i2c.c **** void I2C_OwnAddress2Config(I2C_TypeDef* I2Cx, uint8_t Address)
 472:../libraries/STM32F10x_StdPeriph_Driver/src/stm32f10x_i2c.c **** {
 714              		.loc 1 472 0
 715              		.cfi_startproc
 716              		@ args = 0, pretend = 0, frame = 16
 717              		@ frame_needed = 1, uses_anonymous_args = 0
 718              		@ link register save eliminated.
 719 0000 80B4     		push	{r7}
 720              	.LCFI27:
 721              		.cfi_def_cfa_offset 4
 722              		.cfi_offset 7, -4
 723 0002 85B0     		sub	sp, sp, #20
 724              	.LCFI28:
 725              		.cfi_def_cfa_offset 24
 726 0004 00AF     		add	r7, sp, #0
 727              	.LCFI29:
 728              		.cfi_def_cfa_register 7
 729 0006 7860     		str	r0, [r7, #4]
 730 0008 0B46     		mov	r3, r1
 731 000a FB70     		strb	r3, [r7, #3]
 473:../libraries/STM32F10x_StdPeriph_Driver/src/stm32f10x_i2c.c ****   uint16_t tmpreg = 0;
 732              		.loc 1 473 0
 733 000c 4FF00003 		mov	r3, #0
 734 0010 FB81     		strh	r3, [r7, #14]	@ movhi
 474:../libraries/STM32F10x_StdPeriph_Driver/src/stm32f10x_i2c.c **** 
 475:../libraries/STM32F10x_StdPeriph_Driver/src/stm32f10x_i2c.c ****   /* Check the parameters */
 476:../libraries/STM32F10x_StdPeriph_Driver/src/stm32f10x_i2c.c ****   assert_param(IS_I2C_ALL_PERIPH(I2Cx));
 477:../libraries/STM32F10x_StdPeriph_Driver/src/stm32f10x_i2c.c **** 
 478:../libraries/STM32F10x_StdPeriph_Driver/src/stm32f10x_i2c.c ****   /* Get the old register value */
 479:../libraries/STM32F10x_StdPeriph_Driver/src/stm32f10x_i2c.c ****   tmpreg = I2Cx->OAR2;
 735              		.loc 1 479 0
 736 0012 7B68     		ldr	r3, [r7, #4]
 737 0014 9B89     		ldrh	r3, [r3, #12]	@ movhi
 738 0016 FB81     		strh	r3, [r7, #14]	@ movhi
 480:../libraries/STM32F10x_StdPeriph_Driver/src/stm32f10x_i2c.c **** 
 481:../libraries/STM32F10x_StdPeriph_Driver/src/stm32f10x_i2c.c ****   /* Reset I2Cx Own address2 bit [7:1] */
 482:../libraries/STM32F10x_StdPeriph_Driver/src/stm32f10x_i2c.c ****   tmpreg &= OAR2_ADD2_Reset;
 739              		.loc 1 482 0
 740 0018 FB89     		ldrh	r3, [r7, #14]	@ movhi
 741 001a 23F0FE03 		bic	r3, r3, #254
 742 001e FB81     		strh	r3, [r7, #14]	@ movhi
 483:../libraries/STM32F10x_StdPeriph_Driver/src/stm32f10x_i2c.c **** 
 484:../libraries/STM32F10x_StdPeriph_Driver/src/stm32f10x_i2c.c ****   /* Set I2Cx Own address2 */
 485:../libraries/STM32F10x_StdPeriph_Driver/src/stm32f10x_i2c.c ****   tmpreg |= (uint16_t)((uint16_t)Address & (uint16_t)0x00FE);
 743              		.loc 1 485 0
 744 0020 FB78     		ldrb	r3, [r7, #3]	@ zero_extendqisi2
 745 0022 9BB2     		uxth	r3, r3
 746 0024 03F0FE03 		and	r3, r3, #254
 747 0028 9AB2     		uxth	r2, r3
 748 002a FB89     		ldrh	r3, [r7, #14]
 749 002c 1343     		orrs	r3, r3, r2
 750 002e 9BB2     		uxth	r3, r3
 751 0030 FB81     		strh	r3, [r7, #14]	@ movhi
 486:../libraries/STM32F10x_StdPeriph_Driver/src/stm32f10x_i2c.c **** 
 487:../libraries/STM32F10x_StdPeriph_Driver/src/stm32f10x_i2c.c ****   /* Store the new register value */
 488:../libraries/STM32F10x_StdPeriph_Driver/src/stm32f10x_i2c.c ****   I2Cx->OAR2 = tmpreg;
 752              		.loc 1 488 0
 753 0032 7B68     		ldr	r3, [r7, #4]
 754 0034 FA89     		ldrh	r2, [r7, #14]	@ movhi
 755 0036 9A81     		strh	r2, [r3, #12]	@ movhi
 489:../libraries/STM32F10x_StdPeriph_Driver/src/stm32f10x_i2c.c **** }
 756              		.loc 1 489 0
 757 0038 07F11407 		add	r7, r7, #20
 758 003c BD46     		mov	sp, r7
 759 003e 80BC     		pop	{r7}
 760 0040 7047     		bx	lr
 761              		.cfi_endproc
 762              	.LFE65:
 764 0042 00BF     		.section	.text.I2C_DualAddressCmd,"ax",%progbits
 765              		.align	2
 766              		.global	I2C_DualAddressCmd
 767              		.thumb
 768              		.thumb_func
 770              	I2C_DualAddressCmd:
 771              	.LFB66:
 490:../libraries/STM32F10x_StdPeriph_Driver/src/stm32f10x_i2c.c **** 
 491:../libraries/STM32F10x_StdPeriph_Driver/src/stm32f10x_i2c.c **** /**
 492:../libraries/STM32F10x_StdPeriph_Driver/src/stm32f10x_i2c.c ****   * @brief  Enables or disables the specified I2C dual addressing mode.
 493:../libraries/STM32F10x_StdPeriph_Driver/src/stm32f10x_i2c.c ****   * @param  I2Cx: where x can be 1 or 2 to select the I2C peripheral.
 494:../libraries/STM32F10x_StdPeriph_Driver/src/stm32f10x_i2c.c ****   * @param  NewState: new state of the I2C dual addressing mode.
 495:../libraries/STM32F10x_StdPeriph_Driver/src/stm32f10x_i2c.c ****   *   This parameter can be: ENABLE or DISABLE.
 496:../libraries/STM32F10x_StdPeriph_Driver/src/stm32f10x_i2c.c ****   * @retval None
 497:../libraries/STM32F10x_StdPeriph_Driver/src/stm32f10x_i2c.c ****   */
 498:../libraries/STM32F10x_StdPeriph_Driver/src/stm32f10x_i2c.c **** void I2C_DualAddressCmd(I2C_TypeDef* I2Cx, FunctionalState NewState)
 499:../libraries/STM32F10x_StdPeriph_Driver/src/stm32f10x_i2c.c **** {
 772              		.loc 1 499 0
 773              		.cfi_startproc
 774              		@ args = 0, pretend = 0, frame = 8
 775              		@ frame_needed = 1, uses_anonymous_args = 0
 776              		@ link register save eliminated.
 777 0000 80B4     		push	{r7}
 778              	.LCFI30:
 779              		.cfi_def_cfa_offset 4
 780              		.cfi_offset 7, -4
 781 0002 83B0     		sub	sp, sp, #12
 782              	.LCFI31:
 783              		.cfi_def_cfa_offset 16
 784 0004 00AF     		add	r7, sp, #0
 785              	.LCFI32:
 786              		.cfi_def_cfa_register 7
 787 0006 7860     		str	r0, [r7, #4]
 788 0008 0B46     		mov	r3, r1
 789 000a FB70     		strb	r3, [r7, #3]
 500:../libraries/STM32F10x_StdPeriph_Driver/src/stm32f10x_i2c.c ****   /* Check the parameters */
 501:../libraries/STM32F10x_StdPeriph_Driver/src/stm32f10x_i2c.c ****   assert_param(IS_I2C_ALL_PERIPH(I2Cx));
 502:../libraries/STM32F10x_StdPeriph_Driver/src/stm32f10x_i2c.c ****   assert_param(IS_FUNCTIONAL_STATE(NewState));
 503:../libraries/STM32F10x_StdPeriph_Driver/src/stm32f10x_i2c.c ****   if (NewState != DISABLE)
 790              		.loc 1 503 0
 791 000c FB78     		ldrb	r3, [r7, #3]	@ zero_extendqisi2
 792 000e 002B     		cmp	r3, #0
 793 0010 08D0     		beq	.L32
 504:../libraries/STM32F10x_StdPeriph_Driver/src/stm32f10x_i2c.c ****   {
 505:../libraries/STM32F10x_StdPeriph_Driver/src/stm32f10x_i2c.c ****     /* Enable dual addressing mode */
 506:../libraries/STM32F10x_StdPeriph_Driver/src/stm32f10x_i2c.c ****     I2Cx->OAR2 |= OAR2_ENDUAL_Set;
 794              		.loc 1 506 0
 795 0012 7B68     		ldr	r3, [r7, #4]
 796 0014 9B89     		ldrh	r3, [r3, #12]	@ movhi
 797 0016 9BB2     		uxth	r3, r3
 798 0018 43F00103 		orr	r3, r3, #1
 799 001c 9AB2     		uxth	r2, r3
 800 001e 7B68     		ldr	r3, [r7, #4]
 801 0020 9A81     		strh	r2, [r3, #12]	@ movhi
 802 0022 07E0     		b	.L31
 803              	.L32:
 507:../libraries/STM32F10x_StdPeriph_Driver/src/stm32f10x_i2c.c ****   }
 508:../libraries/STM32F10x_StdPeriph_Driver/src/stm32f10x_i2c.c ****   else
 509:../libraries/STM32F10x_StdPeriph_Driver/src/stm32f10x_i2c.c ****   {
 510:../libraries/STM32F10x_StdPeriph_Driver/src/stm32f10x_i2c.c ****     /* Disable dual addressing mode */
 511:../libraries/STM32F10x_StdPeriph_Driver/src/stm32f10x_i2c.c ****     I2Cx->OAR2 &= OAR2_ENDUAL_Reset;
 804              		.loc 1 511 0
 805 0024 7B68     		ldr	r3, [r7, #4]
 806 0026 9B89     		ldrh	r3, [r3, #12]	@ movhi
 807 0028 9BB2     		uxth	r3, r3
 808 002a 23F00103 		bic	r3, r3, #1
 809 002e 9AB2     		uxth	r2, r3
 810 0030 7B68     		ldr	r3, [r7, #4]
 811 0032 9A81     		strh	r2, [r3, #12]	@ movhi
 812              	.L31:
 512:../libraries/STM32F10x_StdPeriph_Driver/src/stm32f10x_i2c.c ****   }
 513:../libraries/STM32F10x_StdPeriph_Driver/src/stm32f10x_i2c.c **** }
 813              		.loc 1 513 0
 814 0034 07F10C07 		add	r7, r7, #12
 815 0038 BD46     		mov	sp, r7
 816 003a 80BC     		pop	{r7}
 817 003c 7047     		bx	lr
 818              		.cfi_endproc
 819              	.LFE66:
 821 003e 00BF     		.section	.text.I2C_GeneralCallCmd,"ax",%progbits
 822              		.align	2
 823              		.global	I2C_GeneralCallCmd
 824              		.thumb
 825              		.thumb_func
 827              	I2C_GeneralCallCmd:
 828              	.LFB67:
 514:../libraries/STM32F10x_StdPeriph_Driver/src/stm32f10x_i2c.c **** 
 515:../libraries/STM32F10x_StdPeriph_Driver/src/stm32f10x_i2c.c **** /**
 516:../libraries/STM32F10x_StdPeriph_Driver/src/stm32f10x_i2c.c ****   * @brief  Enables or disables the specified I2C general call feature.
 517:../libraries/STM32F10x_StdPeriph_Driver/src/stm32f10x_i2c.c ****   * @param  I2Cx: where x can be 1 or 2 to select the I2C peripheral.
 518:../libraries/STM32F10x_StdPeriph_Driver/src/stm32f10x_i2c.c ****   * @param  NewState: new state of the I2C General call.
 519:../libraries/STM32F10x_StdPeriph_Driver/src/stm32f10x_i2c.c ****   *   This parameter can be: ENABLE or DISABLE.
 520:../libraries/STM32F10x_StdPeriph_Driver/src/stm32f10x_i2c.c ****   * @retval None
 521:../libraries/STM32F10x_StdPeriph_Driver/src/stm32f10x_i2c.c ****   */
 522:../libraries/STM32F10x_StdPeriph_Driver/src/stm32f10x_i2c.c **** void I2C_GeneralCallCmd(I2C_TypeDef* I2Cx, FunctionalState NewState)
 523:../libraries/STM32F10x_StdPeriph_Driver/src/stm32f10x_i2c.c **** {
 829              		.loc 1 523 0
 830              		.cfi_startproc
 831              		@ args = 0, pretend = 0, frame = 8
 832              		@ frame_needed = 1, uses_anonymous_args = 0
 833              		@ link register save eliminated.
 834 0000 80B4     		push	{r7}
 835              	.LCFI33:
 836              		.cfi_def_cfa_offset 4
 837              		.cfi_offset 7, -4
 838 0002 83B0     		sub	sp, sp, #12
 839              	.LCFI34:
 840              		.cfi_def_cfa_offset 16
 841 0004 00AF     		add	r7, sp, #0
 842              	.LCFI35:
 843              		.cfi_def_cfa_register 7
 844 0006 7860     		str	r0, [r7, #4]
 845 0008 0B46     		mov	r3, r1
 846 000a FB70     		strb	r3, [r7, #3]
 524:../libraries/STM32F10x_StdPeriph_Driver/src/stm32f10x_i2c.c ****   /* Check the parameters */
 525:../libraries/STM32F10x_StdPeriph_Driver/src/stm32f10x_i2c.c ****   assert_param(IS_I2C_ALL_PERIPH(I2Cx));
 526:../libraries/STM32F10x_StdPeriph_Driver/src/stm32f10x_i2c.c ****   assert_param(IS_FUNCTIONAL_STATE(NewState));
 527:../libraries/STM32F10x_StdPeriph_Driver/src/stm32f10x_i2c.c ****   if (NewState != DISABLE)
 847              		.loc 1 527 0
 848 000c FB78     		ldrb	r3, [r7, #3]	@ zero_extendqisi2
 849 000e 002B     		cmp	r3, #0
 850 0010 08D0     		beq	.L35
 528:../libraries/STM32F10x_StdPeriph_Driver/src/stm32f10x_i2c.c ****   {
 529:../libraries/STM32F10x_StdPeriph_Driver/src/stm32f10x_i2c.c ****     /* Enable generall call */
 530:../libraries/STM32F10x_StdPeriph_Driver/src/stm32f10x_i2c.c ****     I2Cx->CR1 |= CR1_ENGC_Set;
 851              		.loc 1 530 0
 852 0012 7B68     		ldr	r3, [r7, #4]
 853 0014 1B88     		ldrh	r3, [r3, #0]	@ movhi
 854 0016 9BB2     		uxth	r3, r3
 855 0018 43F04003 		orr	r3, r3, #64
 856 001c 9AB2     		uxth	r2, r3
 857 001e 7B68     		ldr	r3, [r7, #4]
 858 0020 1A80     		strh	r2, [r3, #0]	@ movhi
 859 0022 07E0     		b	.L34
 860              	.L35:
 531:../libraries/STM32F10x_StdPeriph_Driver/src/stm32f10x_i2c.c ****   }
 532:../libraries/STM32F10x_StdPeriph_Driver/src/stm32f10x_i2c.c ****   else
 533:../libraries/STM32F10x_StdPeriph_Driver/src/stm32f10x_i2c.c ****   {
 534:../libraries/STM32F10x_StdPeriph_Driver/src/stm32f10x_i2c.c ****     /* Disable generall call */
 535:../libraries/STM32F10x_StdPeriph_Driver/src/stm32f10x_i2c.c ****     I2Cx->CR1 &= CR1_ENGC_Reset;
 861              		.loc 1 535 0
 862 0024 7B68     		ldr	r3, [r7, #4]
 863 0026 1B88     		ldrh	r3, [r3, #0]	@ movhi
 864 0028 9BB2     		uxth	r3, r3
 865 002a 23F04003 		bic	r3, r3, #64
 866 002e 9AB2     		uxth	r2, r3
 867 0030 7B68     		ldr	r3, [r7, #4]
 868 0032 1A80     		strh	r2, [r3, #0]	@ movhi
 869              	.L34:
 536:../libraries/STM32F10x_StdPeriph_Driver/src/stm32f10x_i2c.c ****   }
 537:../libraries/STM32F10x_StdPeriph_Driver/src/stm32f10x_i2c.c **** }
 870              		.loc 1 537 0
 871 0034 07F10C07 		add	r7, r7, #12
 872 0038 BD46     		mov	sp, r7
 873 003a 80BC     		pop	{r7}
 874 003c 7047     		bx	lr
 875              		.cfi_endproc
 876              	.LFE67:
 878 003e 00BF     		.section	.text.I2C_ITConfig,"ax",%progbits
 879              		.align	2
 880              		.global	I2C_ITConfig
 881              		.thumb
 882              		.thumb_func
 884              	I2C_ITConfig:
 885              	.LFB68:
 538:../libraries/STM32F10x_StdPeriph_Driver/src/stm32f10x_i2c.c **** 
 539:../libraries/STM32F10x_StdPeriph_Driver/src/stm32f10x_i2c.c **** /**
 540:../libraries/STM32F10x_StdPeriph_Driver/src/stm32f10x_i2c.c ****   * @brief  Enables or disables the specified I2C interrupts.
 541:../libraries/STM32F10x_StdPeriph_Driver/src/stm32f10x_i2c.c ****   * @param  I2Cx: where x can be 1 or 2 to select the I2C peripheral.
 542:../libraries/STM32F10x_StdPeriph_Driver/src/stm32f10x_i2c.c ****   * @param  I2C_IT: specifies the I2C interrupts sources to be enabled or disabled. 
 543:../libraries/STM32F10x_StdPeriph_Driver/src/stm32f10x_i2c.c ****   *   This parameter can be any combination of the following values:
 544:../libraries/STM32F10x_StdPeriph_Driver/src/stm32f10x_i2c.c ****   *     @arg I2C_IT_BUF: Buffer interrupt mask
 545:../libraries/STM32F10x_StdPeriph_Driver/src/stm32f10x_i2c.c ****   *     @arg I2C_IT_EVT: Event interrupt mask
 546:../libraries/STM32F10x_StdPeriph_Driver/src/stm32f10x_i2c.c ****   *     @arg I2C_IT_ERR: Error interrupt mask
 547:../libraries/STM32F10x_StdPeriph_Driver/src/stm32f10x_i2c.c ****   * @param  NewState: new state of the specified I2C interrupts.
 548:../libraries/STM32F10x_StdPeriph_Driver/src/stm32f10x_i2c.c ****   *   This parameter can be: ENABLE or DISABLE.
 549:../libraries/STM32F10x_StdPeriph_Driver/src/stm32f10x_i2c.c ****   * @retval None
 550:../libraries/STM32F10x_StdPeriph_Driver/src/stm32f10x_i2c.c ****   */
 551:../libraries/STM32F10x_StdPeriph_Driver/src/stm32f10x_i2c.c **** void I2C_ITConfig(I2C_TypeDef* I2Cx, uint16_t I2C_IT, FunctionalState NewState)
 552:../libraries/STM32F10x_StdPeriph_Driver/src/stm32f10x_i2c.c **** {
 886              		.loc 1 552 0
 887              		.cfi_startproc
 888              		@ args = 0, pretend = 0, frame = 8
 889              		@ frame_needed = 1, uses_anonymous_args = 0
 890              		@ link register save eliminated.
 891 0000 80B4     		push	{r7}
 892              	.LCFI36:
 893              		.cfi_def_cfa_offset 4
 894              		.cfi_offset 7, -4
 895 0002 83B0     		sub	sp, sp, #12
 896              	.LCFI37:
 897              		.cfi_def_cfa_offset 16
 898 0004 00AF     		add	r7, sp, #0
 899              	.LCFI38:
 900              		.cfi_def_cfa_register 7
 901 0006 7860     		str	r0, [r7, #4]
 902 0008 1346     		mov	r3, r2
 903 000a 0A46     		mov	r2, r1	@ movhi
 904 000c 7A80     		strh	r2, [r7, #2]	@ movhi
 905 000e 7B70     		strb	r3, [r7, #1]
 553:../libraries/STM32F10x_StdPeriph_Driver/src/stm32f10x_i2c.c ****   /* Check the parameters */
 554:../libraries/STM32F10x_StdPeriph_Driver/src/stm32f10x_i2c.c ****   assert_param(IS_I2C_ALL_PERIPH(I2Cx));
 555:../libraries/STM32F10x_StdPeriph_Driver/src/stm32f10x_i2c.c ****   assert_param(IS_FUNCTIONAL_STATE(NewState));
 556:../libraries/STM32F10x_StdPeriph_Driver/src/stm32f10x_i2c.c ****   assert_param(IS_I2C_CONFIG_IT(I2C_IT));
 557:../libraries/STM32F10x_StdPeriph_Driver/src/stm32f10x_i2c.c ****   
 558:../libraries/STM32F10x_StdPeriph_Driver/src/stm32f10x_i2c.c ****   if (NewState != DISABLE)
 906              		.loc 1 558 0
 907 0010 7B78     		ldrb	r3, [r7, #1]	@ zero_extendqisi2
 908 0012 002B     		cmp	r3, #0
 909 0014 08D0     		beq	.L38
 559:../libraries/STM32F10x_StdPeriph_Driver/src/stm32f10x_i2c.c ****   {
 560:../libraries/STM32F10x_StdPeriph_Driver/src/stm32f10x_i2c.c ****     /* Enable the selected I2C interrupts */
 561:../libraries/STM32F10x_StdPeriph_Driver/src/stm32f10x_i2c.c ****     I2Cx->CR2 |= I2C_IT;
 910              		.loc 1 561 0
 911 0016 7B68     		ldr	r3, [r7, #4]
 912 0018 9B88     		ldrh	r3, [r3, #4]	@ movhi
 913 001a 9AB2     		uxth	r2, r3
 914 001c 7B88     		ldrh	r3, [r7, #2]	@ movhi
 915 001e 1343     		orrs	r3, r3, r2
 916 0020 9AB2     		uxth	r2, r3
 917 0022 7B68     		ldr	r3, [r7, #4]
 918 0024 9A80     		strh	r2, [r3, #4]	@ movhi
 919 0026 0AE0     		b	.L37
 920              	.L38:
 562:../libraries/STM32F10x_StdPeriph_Driver/src/stm32f10x_i2c.c ****   }
 563:../libraries/STM32F10x_StdPeriph_Driver/src/stm32f10x_i2c.c ****   else
 564:../libraries/STM32F10x_StdPeriph_Driver/src/stm32f10x_i2c.c ****   {
 565:../libraries/STM32F10x_StdPeriph_Driver/src/stm32f10x_i2c.c ****     /* Disable the selected I2C interrupts */
 566:../libraries/STM32F10x_StdPeriph_Driver/src/stm32f10x_i2c.c ****     I2Cx->CR2 &= (uint16_t)~I2C_IT;
 921              		.loc 1 566 0
 922 0028 7B68     		ldr	r3, [r7, #4]
 923 002a 9B88     		ldrh	r3, [r3, #4]	@ movhi
 924 002c 9AB2     		uxth	r2, r3
 925 002e 7B88     		ldrh	r3, [r7, #2]	@ movhi
 926 0030 6FEA0303 		mvn	r3, r3
 927 0034 9BB2     		uxth	r3, r3
 928 0036 1340     		ands	r3, r3, r2
 929 0038 9AB2     		uxth	r2, r3
 930 003a 7B68     		ldr	r3, [r7, #4]
 931 003c 9A80     		strh	r2, [r3, #4]	@ movhi
 932              	.L37:
 567:../libraries/STM32F10x_StdPeriph_Driver/src/stm32f10x_i2c.c ****   }
 568:../libraries/STM32F10x_StdPeriph_Driver/src/stm32f10x_i2c.c **** }
 933              		.loc 1 568 0
 934 003e 07F10C07 		add	r7, r7, #12
 935 0042 BD46     		mov	sp, r7
 936 0044 80BC     		pop	{r7}
 937 0046 7047     		bx	lr
 938              		.cfi_endproc
 939              	.LFE68:
 941              		.section	.text.I2C_SendData,"ax",%progbits
 942              		.align	2
 943              		.global	I2C_SendData
 944              		.thumb
 945              		.thumb_func
 947              	I2C_SendData:
 948              	.LFB69:
 569:../libraries/STM32F10x_StdPeriph_Driver/src/stm32f10x_i2c.c **** 
 570:../libraries/STM32F10x_StdPeriph_Driver/src/stm32f10x_i2c.c **** /**
 571:../libraries/STM32F10x_StdPeriph_Driver/src/stm32f10x_i2c.c ****   * @brief  Sends a data byte through the I2Cx peripheral.
 572:../libraries/STM32F10x_StdPeriph_Driver/src/stm32f10x_i2c.c ****   * @param  I2Cx: where x can be 1 or 2 to select the I2C peripheral.
 573:../libraries/STM32F10x_StdPeriph_Driver/src/stm32f10x_i2c.c ****   * @param  Data: Byte to be transmitted..
 574:../libraries/STM32F10x_StdPeriph_Driver/src/stm32f10x_i2c.c ****   * @retval None
 575:../libraries/STM32F10x_StdPeriph_Driver/src/stm32f10x_i2c.c ****   */
 576:../libraries/STM32F10x_StdPeriph_Driver/src/stm32f10x_i2c.c **** void I2C_SendData(I2C_TypeDef* I2Cx, uint8_t Data)
 577:../libraries/STM32F10x_StdPeriph_Driver/src/stm32f10x_i2c.c **** {
 949              		.loc 1 577 0
 950              		.cfi_startproc
 951              		@ args = 0, pretend = 0, frame = 8
 952              		@ frame_needed = 1, uses_anonymous_args = 0
 953              		@ link register save eliminated.
 954 0000 80B4     		push	{r7}
 955              	.LCFI39:
 956              		.cfi_def_cfa_offset 4
 957              		.cfi_offset 7, -4
 958 0002 83B0     		sub	sp, sp, #12
 959              	.LCFI40:
 960              		.cfi_def_cfa_offset 16
 961 0004 00AF     		add	r7, sp, #0
 962              	.LCFI41:
 963              		.cfi_def_cfa_register 7
 964 0006 7860     		str	r0, [r7, #4]
 965 0008 0B46     		mov	r3, r1
 966 000a FB70     		strb	r3, [r7, #3]
 578:../libraries/STM32F10x_StdPeriph_Driver/src/stm32f10x_i2c.c ****   /* Check the parameters */
 579:../libraries/STM32F10x_StdPeriph_Driver/src/stm32f10x_i2c.c ****   assert_param(IS_I2C_ALL_PERIPH(I2Cx));
 580:../libraries/STM32F10x_StdPeriph_Driver/src/stm32f10x_i2c.c ****   /* Write in the DR register the data to be sent */
 581:../libraries/STM32F10x_StdPeriph_Driver/src/stm32f10x_i2c.c ****   I2Cx->DR = Data;
 967              		.loc 1 581 0
 968 000c FB78     		ldrb	r3, [r7, #3]	@ zero_extendqisi2
 969 000e 9AB2     		uxth	r2, r3
 970 0010 7B68     		ldr	r3, [r7, #4]
 971 0012 1A82     		strh	r2, [r3, #16]	@ movhi
 582:../libraries/STM32F10x_StdPeriph_Driver/src/stm32f10x_i2c.c **** }
 972              		.loc 1 582 0
 973 0014 07F10C07 		add	r7, r7, #12
 974 0018 BD46     		mov	sp, r7
 975 001a 80BC     		pop	{r7}
 976 001c 7047     		bx	lr
 977              		.cfi_endproc
 978              	.LFE69:
 980              		.section	.text.I2C_ReceiveData,"ax",%progbits
 981              		.align	2
 982              		.global	I2C_ReceiveData
 983              		.thumb
 984              		.thumb_func
 986              	I2C_ReceiveData:
 987              	.LFB70:
 583:../libraries/STM32F10x_StdPeriph_Driver/src/stm32f10x_i2c.c **** 
 584:../libraries/STM32F10x_StdPeriph_Driver/src/stm32f10x_i2c.c **** /**
 585:../libraries/STM32F10x_StdPeriph_Driver/src/stm32f10x_i2c.c ****   * @brief  Returns the most recent received data by the I2Cx peripheral.
 586:../libraries/STM32F10x_StdPeriph_Driver/src/stm32f10x_i2c.c ****   * @param  I2Cx: where x can be 1 or 2 to select the I2C peripheral.
 587:../libraries/STM32F10x_StdPeriph_Driver/src/stm32f10x_i2c.c ****   * @retval The value of the received data.
 588:../libraries/STM32F10x_StdPeriph_Driver/src/stm32f10x_i2c.c ****   */
 589:../libraries/STM32F10x_StdPeriph_Driver/src/stm32f10x_i2c.c **** uint8_t I2C_ReceiveData(I2C_TypeDef* I2Cx)
 590:../libraries/STM32F10x_StdPeriph_Driver/src/stm32f10x_i2c.c **** {
 988              		.loc 1 590 0
 989              		.cfi_startproc
 990              		@ args = 0, pretend = 0, frame = 8
 991              		@ frame_needed = 1, uses_anonymous_args = 0
 992              		@ link register save eliminated.
 993 0000 80B4     		push	{r7}
 994              	.LCFI42:
 995              		.cfi_def_cfa_offset 4
 996              		.cfi_offset 7, -4
 997 0002 83B0     		sub	sp, sp, #12
 998              	.LCFI43:
 999              		.cfi_def_cfa_offset 16
 1000 0004 00AF     		add	r7, sp, #0
 1001              	.LCFI44:
 1002              		.cfi_def_cfa_register 7
 1003 0006 7860     		str	r0, [r7, #4]
 591:../libraries/STM32F10x_StdPeriph_Driver/src/stm32f10x_i2c.c ****   /* Check the parameters */
 592:../libraries/STM32F10x_StdPeriph_Driver/src/stm32f10x_i2c.c ****   assert_param(IS_I2C_ALL_PERIPH(I2Cx));
 593:../libraries/STM32F10x_StdPeriph_Driver/src/stm32f10x_i2c.c ****   /* Return the data in the DR register */
 594:../libraries/STM32F10x_StdPeriph_Driver/src/stm32f10x_i2c.c ****   return (uint8_t)I2Cx->DR;
 1004              		.loc 1 594 0
 1005 0008 7B68     		ldr	r3, [r7, #4]
 1006 000a 1B8A     		ldrh	r3, [r3, #16]	@ movhi
 1007 000c 9BB2     		uxth	r3, r3
 1008 000e DBB2     		uxtb	r3, r3
 595:../libraries/STM32F10x_StdPeriph_Driver/src/stm32f10x_i2c.c **** }
 1009              		.loc 1 595 0
 1010 0010 1846     		mov	r0, r3
 1011 0012 07F10C07 		add	r7, r7, #12
 1012 0016 BD46     		mov	sp, r7
 1013 0018 80BC     		pop	{r7}
 1014 001a 7047     		bx	lr
 1015              		.cfi_endproc
 1016              	.LFE70:
 1018              		.section	.text.I2C_Send7bitAddress,"ax",%progbits
 1019              		.align	2
 1020              		.global	I2C_Send7bitAddress
 1021              		.thumb
 1022              		.thumb_func
 1024              	I2C_Send7bitAddress:
 1025              	.LFB71:
 596:../libraries/STM32F10x_StdPeriph_Driver/src/stm32f10x_i2c.c **** 
 597:../libraries/STM32F10x_StdPeriph_Driver/src/stm32f10x_i2c.c **** /**
 598:../libraries/STM32F10x_StdPeriph_Driver/src/stm32f10x_i2c.c ****   * @brief  Transmits the address byte to select the slave device.
 599:../libraries/STM32F10x_StdPeriph_Driver/src/stm32f10x_i2c.c ****   * @param  I2Cx: where x can be 1 or 2 to select the I2C peripheral.
 600:../libraries/STM32F10x_StdPeriph_Driver/src/stm32f10x_i2c.c ****   * @param  Address: specifies the slave address which will be transmitted
 601:../libraries/STM32F10x_StdPeriph_Driver/src/stm32f10x_i2c.c ****   * @param  I2C_Direction: specifies whether the I2C device will be a
 602:../libraries/STM32F10x_StdPeriph_Driver/src/stm32f10x_i2c.c ****   *   Transmitter or a Receiver. This parameter can be one of the following values
 603:../libraries/STM32F10x_StdPeriph_Driver/src/stm32f10x_i2c.c ****   *     @arg I2C_Direction_Transmitter: Transmitter mode
 604:../libraries/STM32F10x_StdPeriph_Driver/src/stm32f10x_i2c.c ****   *     @arg I2C_Direction_Receiver: Receiver mode
 605:../libraries/STM32F10x_StdPeriph_Driver/src/stm32f10x_i2c.c ****   * @retval None.
 606:../libraries/STM32F10x_StdPeriph_Driver/src/stm32f10x_i2c.c ****   */
 607:../libraries/STM32F10x_StdPeriph_Driver/src/stm32f10x_i2c.c **** void I2C_Send7bitAddress(I2C_TypeDef* I2Cx, uint8_t Address, uint8_t I2C_Direction)
 608:../libraries/STM32F10x_StdPeriph_Driver/src/stm32f10x_i2c.c **** {
 1026              		.loc 1 608 0
 1027              		.cfi_startproc
 1028              		@ args = 0, pretend = 0, frame = 8
 1029              		@ frame_needed = 1, uses_anonymous_args = 0
 1030              		@ link register save eliminated.
 1031 0000 80B4     		push	{r7}
 1032              	.LCFI45:
 1033              		.cfi_def_cfa_offset 4
 1034              		.cfi_offset 7, -4
 1035 0002 83B0     		sub	sp, sp, #12
 1036              	.LCFI46:
 1037              		.cfi_def_cfa_offset 16
 1038 0004 00AF     		add	r7, sp, #0
 1039              	.LCFI47:
 1040              		.cfi_def_cfa_register 7
 1041 0006 7860     		str	r0, [r7, #4]
 1042 0008 1346     		mov	r3, r2
 1043 000a 0A46     		mov	r2, r1
 1044 000c FA70     		strb	r2, [r7, #3]
 1045 000e BB70     		strb	r3, [r7, #2]
 609:../libraries/STM32F10x_StdPeriph_Driver/src/stm32f10x_i2c.c ****   /* Check the parameters */
 610:../libraries/STM32F10x_StdPeriph_Driver/src/stm32f10x_i2c.c ****   assert_param(IS_I2C_ALL_PERIPH(I2Cx));
 611:../libraries/STM32F10x_StdPeriph_Driver/src/stm32f10x_i2c.c ****   assert_param(IS_I2C_DIRECTION(I2C_Direction));
 612:../libraries/STM32F10x_StdPeriph_Driver/src/stm32f10x_i2c.c ****   /* Test on the direction to set/reset the read/write bit */
 613:../libraries/STM32F10x_StdPeriph_Driver/src/stm32f10x_i2c.c ****   if (I2C_Direction != I2C_Direction_Transmitter)
 1046              		.loc 1 613 0
 1047 0010 BB78     		ldrb	r3, [r7, #2]	@ zero_extendqisi2
 1048 0012 002B     		cmp	r3, #0
 1049 0014 04D0     		beq	.L44
 614:../libraries/STM32F10x_StdPeriph_Driver/src/stm32f10x_i2c.c ****   {
 615:../libraries/STM32F10x_StdPeriph_Driver/src/stm32f10x_i2c.c ****     /* Set the address bit0 for read */
 616:../libraries/STM32F10x_StdPeriph_Driver/src/stm32f10x_i2c.c ****     Address |= OAR1_ADD0_Set;
 1050              		.loc 1 616 0
 1051 0016 FB78     		ldrb	r3, [r7, #3]
 1052 0018 43F00103 		orr	r3, r3, #1
 1053 001c FB70     		strb	r3, [r7, #3]
 1054 001e 03E0     		b	.L45
 1055              	.L44:
 617:../libraries/STM32F10x_StdPeriph_Driver/src/stm32f10x_i2c.c ****   }
 618:../libraries/STM32F10x_StdPeriph_Driver/src/stm32f10x_i2c.c ****   else
 619:../libraries/STM32F10x_StdPeriph_Driver/src/stm32f10x_i2c.c ****   {
 620:../libraries/STM32F10x_StdPeriph_Driver/src/stm32f10x_i2c.c ****     /* Reset the address bit0 for write */
 621:../libraries/STM32F10x_StdPeriph_Driver/src/stm32f10x_i2c.c ****     Address &= OAR1_ADD0_Reset;
 1056              		.loc 1 621 0
 1057 0020 FB78     		ldrb	r3, [r7, #3]
 1058 0022 23F00103 		bic	r3, r3, #1
 1059 0026 FB70     		strb	r3, [r7, #3]
 1060              	.L45:
 622:../libraries/STM32F10x_StdPeriph_Driver/src/stm32f10x_i2c.c ****   }
 623:../libraries/STM32F10x_StdPeriph_Driver/src/stm32f10x_i2c.c ****   /* Send the address */
 624:../libraries/STM32F10x_StdPeriph_Driver/src/stm32f10x_i2c.c ****   I2Cx->DR = Address;
 1061              		.loc 1 624 0
 1062 0028 FB78     		ldrb	r3, [r7, #3]	@ zero_extendqisi2
 1063 002a 9AB2     		uxth	r2, r3
 1064 002c 7B68     		ldr	r3, [r7, #4]
 1065 002e 1A82     		strh	r2, [r3, #16]	@ movhi
 625:../libraries/STM32F10x_StdPeriph_Driver/src/stm32f10x_i2c.c **** }
 1066              		.loc 1 625 0
 1067 0030 07F10C07 		add	r7, r7, #12
 1068 0034 BD46     		mov	sp, r7
 1069 0036 80BC     		pop	{r7}
 1070 0038 7047     		bx	lr
 1071              		.cfi_endproc
 1072              	.LFE71:
 1074 003a 00BF     		.section	.text.I2C_ReadRegister,"ax",%progbits
 1075              		.align	2
 1076              		.global	I2C_ReadRegister
 1077              		.thumb
 1078              		.thumb_func
 1080              	I2C_ReadRegister:
 1081              	.LFB72:
 626:../libraries/STM32F10x_StdPeriph_Driver/src/stm32f10x_i2c.c **** 
 627:../libraries/STM32F10x_StdPeriph_Driver/src/stm32f10x_i2c.c **** /**
 628:../libraries/STM32F10x_StdPeriph_Driver/src/stm32f10x_i2c.c ****   * @brief  Reads the specified I2C register and returns its value.
 629:../libraries/STM32F10x_StdPeriph_Driver/src/stm32f10x_i2c.c ****   * @param  I2C_Register: specifies the register to read.
 630:../libraries/STM32F10x_StdPeriph_Driver/src/stm32f10x_i2c.c ****   *   This parameter can be one of the following values:
 631:../libraries/STM32F10x_StdPeriph_Driver/src/stm32f10x_i2c.c ****   *     @arg I2C_Register_CR1:  CR1 register.
 632:../libraries/STM32F10x_StdPeriph_Driver/src/stm32f10x_i2c.c ****   *     @arg I2C_Register_CR2:   CR2 register.
 633:../libraries/STM32F10x_StdPeriph_Driver/src/stm32f10x_i2c.c ****   *     @arg I2C_Register_OAR1:  OAR1 register.
 634:../libraries/STM32F10x_StdPeriph_Driver/src/stm32f10x_i2c.c ****   *     @arg I2C_Register_OAR2:  OAR2 register.
 635:../libraries/STM32F10x_StdPeriph_Driver/src/stm32f10x_i2c.c ****   *     @arg I2C_Register_DR:    DR register.
 636:../libraries/STM32F10x_StdPeriph_Driver/src/stm32f10x_i2c.c ****   *     @arg I2C_Register_SR1:   SR1 register.
 637:../libraries/STM32F10x_StdPeriph_Driver/src/stm32f10x_i2c.c ****   *     @arg I2C_Register_SR2:   SR2 register.
 638:../libraries/STM32F10x_StdPeriph_Driver/src/stm32f10x_i2c.c ****   *     @arg I2C_Register_CCR:   CCR register.
 639:../libraries/STM32F10x_StdPeriph_Driver/src/stm32f10x_i2c.c ****   *     @arg I2C_Register_TRISE: TRISE register.
 640:../libraries/STM32F10x_StdPeriph_Driver/src/stm32f10x_i2c.c ****   * @retval The value of the read register.
 641:../libraries/STM32F10x_StdPeriph_Driver/src/stm32f10x_i2c.c ****   */
 642:../libraries/STM32F10x_StdPeriph_Driver/src/stm32f10x_i2c.c **** uint16_t I2C_ReadRegister(I2C_TypeDef* I2Cx, uint8_t I2C_Register)
 643:../libraries/STM32F10x_StdPeriph_Driver/src/stm32f10x_i2c.c **** {
 1082              		.loc 1 643 0
 1083              		.cfi_startproc
 1084              		@ args = 0, pretend = 0, frame = 16
 1085              		@ frame_needed = 1, uses_anonymous_args = 0
 1086              		@ link register save eliminated.
 1087 0000 80B4     		push	{r7}
 1088              	.LCFI48:
 1089              		.cfi_def_cfa_offset 4
 1090              		.cfi_offset 7, -4
 1091 0002 85B0     		sub	sp, sp, #20
 1092              	.LCFI49:
 1093              		.cfi_def_cfa_offset 24
 1094 0004 00AF     		add	r7, sp, #0
 1095              	.LCFI50:
 1096              		.cfi_def_cfa_register 7
 1097 0006 7860     		str	r0, [r7, #4]
 1098 0008 0B46     		mov	r3, r1
 1099 000a FB70     		strb	r3, [r7, #3]
 644:../libraries/STM32F10x_StdPeriph_Driver/src/stm32f10x_i2c.c ****   __IO uint32_t tmp = 0;
 1100              		.loc 1 644 0
 1101 000c 4FF00003 		mov	r3, #0
 1102 0010 FB60     		str	r3, [r7, #12]
 645:../libraries/STM32F10x_StdPeriph_Driver/src/stm32f10x_i2c.c **** 
 646:../libraries/STM32F10x_StdPeriph_Driver/src/stm32f10x_i2c.c ****   /* Check the parameters */
 647:../libraries/STM32F10x_StdPeriph_Driver/src/stm32f10x_i2c.c ****   assert_param(IS_I2C_ALL_PERIPH(I2Cx));
 648:../libraries/STM32F10x_StdPeriph_Driver/src/stm32f10x_i2c.c ****   assert_param(IS_I2C_REGISTER(I2C_Register));
 649:../libraries/STM32F10x_StdPeriph_Driver/src/stm32f10x_i2c.c **** 
 650:../libraries/STM32F10x_StdPeriph_Driver/src/stm32f10x_i2c.c ****   tmp = (uint32_t) I2Cx;
 1103              		.loc 1 650 0
 1104 0012 7B68     		ldr	r3, [r7, #4]
 1105 0014 FB60     		str	r3, [r7, #12]
 651:../libraries/STM32F10x_StdPeriph_Driver/src/stm32f10x_i2c.c ****   tmp += I2C_Register;
 1106              		.loc 1 651 0
 1107 0016 FA78     		ldrb	r2, [r7, #3]	@ zero_extendqisi2
 1108 0018 FB68     		ldr	r3, [r7, #12]
 1109 001a D318     		adds	r3, r2, r3
 1110 001c FB60     		str	r3, [r7, #12]
 652:../libraries/STM32F10x_StdPeriph_Driver/src/stm32f10x_i2c.c **** 
 653:../libraries/STM32F10x_StdPeriph_Driver/src/stm32f10x_i2c.c ****   /* Return the selected register value */
 654:../libraries/STM32F10x_StdPeriph_Driver/src/stm32f10x_i2c.c ****   return (*(__IO uint16_t *) tmp);
 1111              		.loc 1 654 0
 1112 001e FB68     		ldr	r3, [r7, #12]
 1113 0020 1B88     		ldrh	r3, [r3, #0]	@ movhi
 1114 0022 9BB2     		uxth	r3, r3
 655:../libraries/STM32F10x_StdPeriph_Driver/src/stm32f10x_i2c.c **** }
 1115              		.loc 1 655 0
 1116 0024 1846     		mov	r0, r3
 1117 0026 07F11407 		add	r7, r7, #20
 1118 002a BD46     		mov	sp, r7
 1119 002c 80BC     		pop	{r7}
 1120 002e 7047     		bx	lr
 1121              		.cfi_endproc
 1122              	.LFE72:
 1124              		.section	.text.I2C_SoftwareResetCmd,"ax",%progbits
 1125              		.align	2
 1126              		.global	I2C_SoftwareResetCmd
 1127              		.thumb
 1128              		.thumb_func
 1130              	I2C_SoftwareResetCmd:
 1131              	.LFB73:
 656:../libraries/STM32F10x_StdPeriph_Driver/src/stm32f10x_i2c.c **** 
 657:../libraries/STM32F10x_StdPeriph_Driver/src/stm32f10x_i2c.c **** /**
 658:../libraries/STM32F10x_StdPeriph_Driver/src/stm32f10x_i2c.c ****   * @brief  Enables or disables the specified I2C software reset.
 659:../libraries/STM32F10x_StdPeriph_Driver/src/stm32f10x_i2c.c ****   * @param  I2Cx: where x can be 1 or 2 to select the I2C peripheral.
 660:../libraries/STM32F10x_StdPeriph_Driver/src/stm32f10x_i2c.c ****   * @param  NewState: new state of the I2C software reset.
 661:../libraries/STM32F10x_StdPeriph_Driver/src/stm32f10x_i2c.c ****   *   This parameter can be: ENABLE or DISABLE.
 662:../libraries/STM32F10x_StdPeriph_Driver/src/stm32f10x_i2c.c ****   * @retval None
 663:../libraries/STM32F10x_StdPeriph_Driver/src/stm32f10x_i2c.c ****   */
 664:../libraries/STM32F10x_StdPeriph_Driver/src/stm32f10x_i2c.c **** void I2C_SoftwareResetCmd(I2C_TypeDef* I2Cx, FunctionalState NewState)
 665:../libraries/STM32F10x_StdPeriph_Driver/src/stm32f10x_i2c.c **** {
 1132              		.loc 1 665 0
 1133              		.cfi_startproc
 1134              		@ args = 0, pretend = 0, frame = 8
 1135              		@ frame_needed = 1, uses_anonymous_args = 0
 1136              		@ link register save eliminated.
 1137 0000 80B4     		push	{r7}
 1138              	.LCFI51:
 1139              		.cfi_def_cfa_offset 4
 1140              		.cfi_offset 7, -4
 1141 0002 83B0     		sub	sp, sp, #12
 1142              	.LCFI52:
 1143              		.cfi_def_cfa_offset 16
 1144 0004 00AF     		add	r7, sp, #0
 1145              	.LCFI53:
 1146              		.cfi_def_cfa_register 7
 1147 0006 7860     		str	r0, [r7, #4]
 1148 0008 0B46     		mov	r3, r1
 1149 000a FB70     		strb	r3, [r7, #3]
 666:../libraries/STM32F10x_StdPeriph_Driver/src/stm32f10x_i2c.c ****   /* Check the parameters */
 667:../libraries/STM32F10x_StdPeriph_Driver/src/stm32f10x_i2c.c ****   assert_param(IS_I2C_ALL_PERIPH(I2Cx));
 668:../libraries/STM32F10x_StdPeriph_Driver/src/stm32f10x_i2c.c ****   assert_param(IS_FUNCTIONAL_STATE(NewState));
 669:../libraries/STM32F10x_StdPeriph_Driver/src/stm32f10x_i2c.c ****   if (NewState != DISABLE)
 1150              		.loc 1 669 0
 1151 000c FB78     		ldrb	r3, [r7, #3]	@ zero_extendqisi2
 1152 000e 002B     		cmp	r3, #0
 1153 0010 0AD0     		beq	.L49
 670:../libraries/STM32F10x_StdPeriph_Driver/src/stm32f10x_i2c.c ****   {
 671:../libraries/STM32F10x_StdPeriph_Driver/src/stm32f10x_i2c.c ****     /* Peripheral under reset */
 672:../libraries/STM32F10x_StdPeriph_Driver/src/stm32f10x_i2c.c ****     I2Cx->CR1 |= CR1_SWRST_Set;
 1154              		.loc 1 672 0
 1155 0012 7B68     		ldr	r3, [r7, #4]
 1156 0014 1B88     		ldrh	r3, [r3, #0]	@ movhi
 1157 0016 9BB2     		uxth	r3, r3
 1158 0018 6FEA4343 		mvn	r3, r3, lsl #17
 1159 001c 6FEA5343 		mvn	r3, r3, lsr #17
 1160 0020 9AB2     		uxth	r2, r3
 1161 0022 7B68     		ldr	r3, [r7, #4]
 1162 0024 1A80     		strh	r2, [r3, #0]	@ movhi
 1163 0026 09E0     		b	.L48
 1164              	.L49:
 673:../libraries/STM32F10x_StdPeriph_Driver/src/stm32f10x_i2c.c ****   }
 674:../libraries/STM32F10x_StdPeriph_Driver/src/stm32f10x_i2c.c ****   else
 675:../libraries/STM32F10x_StdPeriph_Driver/src/stm32f10x_i2c.c ****   {
 676:../libraries/STM32F10x_StdPeriph_Driver/src/stm32f10x_i2c.c ****     /* Peripheral not under reset */
 677:../libraries/STM32F10x_StdPeriph_Driver/src/stm32f10x_i2c.c ****     I2Cx->CR1 &= CR1_SWRST_Reset;
 1165              		.loc 1 677 0
 1166 0028 7B68     		ldr	r3, [r7, #4]
 1167 002a 1B88     		ldrh	r3, [r3, #0]	@ movhi
 1168 002c 9BB2     		uxth	r3, r3
 1169 002e 4FEA4343 		lsl	r3, r3, #17
 1170 0032 4FEA5343 		lsr	r3, r3, #17
 1171 0036 9AB2     		uxth	r2, r3
 1172 0038 7B68     		ldr	r3, [r7, #4]
 1173 003a 1A80     		strh	r2, [r3, #0]	@ movhi
 1174              	.L48:
 678:../libraries/STM32F10x_StdPeriph_Driver/src/stm32f10x_i2c.c ****   }
 679:../libraries/STM32F10x_StdPeriph_Driver/src/stm32f10x_i2c.c **** }
 1175              		.loc 1 679 0
 1176 003c 07F10C07 		add	r7, r7, #12
 1177 0040 BD46     		mov	sp, r7
 1178 0042 80BC     		pop	{r7}
 1179 0044 7047     		bx	lr
 1180              		.cfi_endproc
 1181              	.LFE73:
 1183 0046 00BF     		.section	.text.I2C_NACKPositionConfig,"ax",%progbits
 1184              		.align	2
 1185              		.global	I2C_NACKPositionConfig
 1186              		.thumb
 1187              		.thumb_func
 1189              	I2C_NACKPositionConfig:
 1190              	.LFB74:
 680:../libraries/STM32F10x_StdPeriph_Driver/src/stm32f10x_i2c.c **** 
 681:../libraries/STM32F10x_StdPeriph_Driver/src/stm32f10x_i2c.c **** /**
 682:../libraries/STM32F10x_StdPeriph_Driver/src/stm32f10x_i2c.c ****   * @brief  Selects the specified I2C NACK position in master receiver mode.
 683:../libraries/STM32F10x_StdPeriph_Driver/src/stm32f10x_i2c.c ****   *         This function is useful in I2C Master Receiver mode when the number
 684:../libraries/STM32F10x_StdPeriph_Driver/src/stm32f10x_i2c.c ****   *         of data to be received is equal to 2. In this case, this function 
 685:../libraries/STM32F10x_StdPeriph_Driver/src/stm32f10x_i2c.c ****   *         should be called (with parameter I2C_NACKPosition_Next) before data 
 686:../libraries/STM32F10x_StdPeriph_Driver/src/stm32f10x_i2c.c ****   *         reception starts,as described in the 2-byte reception procedure 
 687:../libraries/STM32F10x_StdPeriph_Driver/src/stm32f10x_i2c.c ****   *         recommended in Reference Manual in Section: Master receiver.                
 688:../libraries/STM32F10x_StdPeriph_Driver/src/stm32f10x_i2c.c ****   * @param  I2Cx: where x can be 1 or 2 to select the I2C peripheral.
 689:../libraries/STM32F10x_StdPeriph_Driver/src/stm32f10x_i2c.c ****   * @param  I2C_NACKPosition: specifies the NACK position. 
 690:../libraries/STM32F10x_StdPeriph_Driver/src/stm32f10x_i2c.c ****   *   This parameter can be one of the following values:
 691:../libraries/STM32F10x_StdPeriph_Driver/src/stm32f10x_i2c.c ****   *     @arg I2C_NACKPosition_Next: indicates that the next byte will be the last
 692:../libraries/STM32F10x_StdPeriph_Driver/src/stm32f10x_i2c.c ****   *          received byte.  
 693:../libraries/STM32F10x_StdPeriph_Driver/src/stm32f10x_i2c.c ****   *     @arg I2C_NACKPosition_Current: indicates that current byte is the last 
 694:../libraries/STM32F10x_StdPeriph_Driver/src/stm32f10x_i2c.c ****   *          received byte.
 695:../libraries/STM32F10x_StdPeriph_Driver/src/stm32f10x_i2c.c ****   *            
 696:../libraries/STM32F10x_StdPeriph_Driver/src/stm32f10x_i2c.c ****   * @note    This function configures the same bit (POS) as I2C_PECPositionConfig() 
 697:../libraries/STM32F10x_StdPeriph_Driver/src/stm32f10x_i2c.c ****   *          but is intended to be used in I2C mode while I2C_PECPositionConfig() 
 698:../libraries/STM32F10x_StdPeriph_Driver/src/stm32f10x_i2c.c ****   *          is intended to used in SMBUS mode. 
 699:../libraries/STM32F10x_StdPeriph_Driver/src/stm32f10x_i2c.c ****   *            
 700:../libraries/STM32F10x_StdPeriph_Driver/src/stm32f10x_i2c.c ****   * @retval None
 701:../libraries/STM32F10x_StdPeriph_Driver/src/stm32f10x_i2c.c ****   */
 702:../libraries/STM32F10x_StdPeriph_Driver/src/stm32f10x_i2c.c **** void I2C_NACKPositionConfig(I2C_TypeDef* I2Cx, uint16_t I2C_NACKPosition)
 703:../libraries/STM32F10x_StdPeriph_Driver/src/stm32f10x_i2c.c **** {
 1191              		.loc 1 703 0
 1192              		.cfi_startproc
 1193              		@ args = 0, pretend = 0, frame = 8
 1194              		@ frame_needed = 1, uses_anonymous_args = 0
 1195              		@ link register save eliminated.
 1196 0000 80B4     		push	{r7}
 1197              	.LCFI54:
 1198              		.cfi_def_cfa_offset 4
 1199              		.cfi_offset 7, -4
 1200 0002 83B0     		sub	sp, sp, #12
 1201              	.LCFI55:
 1202              		.cfi_def_cfa_offset 16
 1203 0004 00AF     		add	r7, sp, #0
 1204              	.LCFI56:
 1205              		.cfi_def_cfa_register 7
 1206 0006 7860     		str	r0, [r7, #4]
 1207 0008 0B46     		mov	r3, r1
 1208 000a 7B80     		strh	r3, [r7, #2]	@ movhi
 704:../libraries/STM32F10x_StdPeriph_Driver/src/stm32f10x_i2c.c ****   /* Check the parameters */
 705:../libraries/STM32F10x_StdPeriph_Driver/src/stm32f10x_i2c.c ****   assert_param(IS_I2C_ALL_PERIPH(I2Cx));
 706:../libraries/STM32F10x_StdPeriph_Driver/src/stm32f10x_i2c.c ****   assert_param(IS_I2C_NACK_POSITION(I2C_NACKPosition));
 707:../libraries/STM32F10x_StdPeriph_Driver/src/stm32f10x_i2c.c ****   
 708:../libraries/STM32F10x_StdPeriph_Driver/src/stm32f10x_i2c.c ****   /* Check the input parameter */
 709:../libraries/STM32F10x_StdPeriph_Driver/src/stm32f10x_i2c.c ****   if (I2C_NACKPosition == I2C_NACKPosition_Next)
 1209              		.loc 1 709 0
 1210 000c 7B88     		ldrh	r3, [r7, #2]
 1211 000e B3F5006F 		cmp	r3, #2048
 1212 0012 08D1     		bne	.L52
 710:../libraries/STM32F10x_StdPeriph_Driver/src/stm32f10x_i2c.c ****   {
 711:../libraries/STM32F10x_StdPeriph_Driver/src/stm32f10x_i2c.c ****     /* Next byte in shift register is the last received byte */
 712:../libraries/STM32F10x_StdPeriph_Driver/src/stm32f10x_i2c.c ****     I2Cx->CR1 |= I2C_NACKPosition_Next;
 1213              		.loc 1 712 0
 1214 0014 7B68     		ldr	r3, [r7, #4]
 1215 0016 1B88     		ldrh	r3, [r3, #0]	@ movhi
 1216 0018 9BB2     		uxth	r3, r3
 1217 001a 43F40063 		orr	r3, r3, #2048
 1218 001e 9AB2     		uxth	r2, r3
 1219 0020 7B68     		ldr	r3, [r7, #4]
 1220 0022 1A80     		strh	r2, [r3, #0]	@ movhi
 1221 0024 07E0     		b	.L51
 1222              	.L52:
 713:../libraries/STM32F10x_StdPeriph_Driver/src/stm32f10x_i2c.c ****   }
 714:../libraries/STM32F10x_StdPeriph_Driver/src/stm32f10x_i2c.c ****   else
 715:../libraries/STM32F10x_StdPeriph_Driver/src/stm32f10x_i2c.c ****   {
 716:../libraries/STM32F10x_StdPeriph_Driver/src/stm32f10x_i2c.c ****     /* Current byte in shift register is the last received byte */
 717:../libraries/STM32F10x_StdPeriph_Driver/src/stm32f10x_i2c.c ****     I2Cx->CR1 &= I2C_NACKPosition_Current;
 1223              		.loc 1 717 0
 1224 0026 7B68     		ldr	r3, [r7, #4]
 1225 0028 1B88     		ldrh	r3, [r3, #0]	@ movhi
 1226 002a 9BB2     		uxth	r3, r3
 1227 002c 23F40063 		bic	r3, r3, #2048
 1228 0030 9AB2     		uxth	r2, r3
 1229 0032 7B68     		ldr	r3, [r7, #4]
 1230 0034 1A80     		strh	r2, [r3, #0]	@ movhi
 1231              	.L51:
 718:../libraries/STM32F10x_StdPeriph_Driver/src/stm32f10x_i2c.c ****   }
 719:../libraries/STM32F10x_StdPeriph_Driver/src/stm32f10x_i2c.c **** }
 1232              		.loc 1 719 0
 1233 0036 07F10C07 		add	r7, r7, #12
 1234 003a BD46     		mov	sp, r7
 1235 003c 80BC     		pop	{r7}
 1236 003e 7047     		bx	lr
 1237              		.cfi_endproc
 1238              	.LFE74:
 1240              		.section	.text.I2C_SMBusAlertConfig,"ax",%progbits
 1241              		.align	2
 1242              		.global	I2C_SMBusAlertConfig
 1243              		.thumb
 1244              		.thumb_func
 1246              	I2C_SMBusAlertConfig:
 1247              	.LFB75:
 720:../libraries/STM32F10x_StdPeriph_Driver/src/stm32f10x_i2c.c **** 
 721:../libraries/STM32F10x_StdPeriph_Driver/src/stm32f10x_i2c.c **** /**
 722:../libraries/STM32F10x_StdPeriph_Driver/src/stm32f10x_i2c.c ****   * @brief  Drives the SMBusAlert pin high or low for the specified I2C.
 723:../libraries/STM32F10x_StdPeriph_Driver/src/stm32f10x_i2c.c ****   * @param  I2Cx: where x can be 1 or 2 to select the I2C peripheral.
 724:../libraries/STM32F10x_StdPeriph_Driver/src/stm32f10x_i2c.c ****   * @param  I2C_SMBusAlert: specifies SMBAlert pin level. 
 725:../libraries/STM32F10x_StdPeriph_Driver/src/stm32f10x_i2c.c ****   *   This parameter can be one of the following values:
 726:../libraries/STM32F10x_StdPeriph_Driver/src/stm32f10x_i2c.c ****   *     @arg I2C_SMBusAlert_Low: SMBAlert pin driven low
 727:../libraries/STM32F10x_StdPeriph_Driver/src/stm32f10x_i2c.c ****   *     @arg I2C_SMBusAlert_High: SMBAlert pin driven high
 728:../libraries/STM32F10x_StdPeriph_Driver/src/stm32f10x_i2c.c ****   * @retval None
 729:../libraries/STM32F10x_StdPeriph_Driver/src/stm32f10x_i2c.c ****   */
 730:../libraries/STM32F10x_StdPeriph_Driver/src/stm32f10x_i2c.c **** void I2C_SMBusAlertConfig(I2C_TypeDef* I2Cx, uint16_t I2C_SMBusAlert)
 731:../libraries/STM32F10x_StdPeriph_Driver/src/stm32f10x_i2c.c **** {
 1248              		.loc 1 731 0
 1249              		.cfi_startproc
 1250              		@ args = 0, pretend = 0, frame = 8
 1251              		@ frame_needed = 1, uses_anonymous_args = 0
 1252              		@ link register save eliminated.
 1253 0000 80B4     		push	{r7}
 1254              	.LCFI57:
 1255              		.cfi_def_cfa_offset 4
 1256              		.cfi_offset 7, -4
 1257 0002 83B0     		sub	sp, sp, #12
 1258              	.LCFI58:
 1259              		.cfi_def_cfa_offset 16
 1260 0004 00AF     		add	r7, sp, #0
 1261              	.LCFI59:
 1262              		.cfi_def_cfa_register 7
 1263 0006 7860     		str	r0, [r7, #4]
 1264 0008 0B46     		mov	r3, r1
 1265 000a 7B80     		strh	r3, [r7, #2]	@ movhi
 732:../libraries/STM32F10x_StdPeriph_Driver/src/stm32f10x_i2c.c ****   /* Check the parameters */
 733:../libraries/STM32F10x_StdPeriph_Driver/src/stm32f10x_i2c.c ****   assert_param(IS_I2C_ALL_PERIPH(I2Cx));
 734:../libraries/STM32F10x_StdPeriph_Driver/src/stm32f10x_i2c.c ****   assert_param(IS_I2C_SMBUS_ALERT(I2C_SMBusAlert));
 735:../libraries/STM32F10x_StdPeriph_Driver/src/stm32f10x_i2c.c ****   if (I2C_SMBusAlert == I2C_SMBusAlert_Low)
 1266              		.loc 1 735 0
 1267 000c 7B88     		ldrh	r3, [r7, #2]
 1268 000e B3F5005F 		cmp	r3, #8192
 1269 0012 08D1     		bne	.L55
 736:../libraries/STM32F10x_StdPeriph_Driver/src/stm32f10x_i2c.c ****   {
 737:../libraries/STM32F10x_StdPeriph_Driver/src/stm32f10x_i2c.c ****     /* Drive the SMBusAlert pin Low */
 738:../libraries/STM32F10x_StdPeriph_Driver/src/stm32f10x_i2c.c ****     I2Cx->CR1 |= I2C_SMBusAlert_Low;
 1270              		.loc 1 738 0
 1271 0014 7B68     		ldr	r3, [r7, #4]
 1272 0016 1B88     		ldrh	r3, [r3, #0]	@ movhi
 1273 0018 9BB2     		uxth	r3, r3
 1274 001a 43F40053 		orr	r3, r3, #8192
 1275 001e 9AB2     		uxth	r2, r3
 1276 0020 7B68     		ldr	r3, [r7, #4]
 1277 0022 1A80     		strh	r2, [r3, #0]	@ movhi
 1278 0024 07E0     		b	.L54
 1279              	.L55:
 739:../libraries/STM32F10x_StdPeriph_Driver/src/stm32f10x_i2c.c ****   }
 740:../libraries/STM32F10x_StdPeriph_Driver/src/stm32f10x_i2c.c ****   else
 741:../libraries/STM32F10x_StdPeriph_Driver/src/stm32f10x_i2c.c ****   {
 742:../libraries/STM32F10x_StdPeriph_Driver/src/stm32f10x_i2c.c ****     /* Drive the SMBusAlert pin High  */
 743:../libraries/STM32F10x_StdPeriph_Driver/src/stm32f10x_i2c.c ****     I2Cx->CR1 &= I2C_SMBusAlert_High;
 1280              		.loc 1 743 0
 1281 0026 7B68     		ldr	r3, [r7, #4]
 1282 0028 1B88     		ldrh	r3, [r3, #0]	@ movhi
 1283 002a 9BB2     		uxth	r3, r3
 1284 002c 23F40053 		bic	r3, r3, #8192
 1285 0030 9AB2     		uxth	r2, r3
 1286 0032 7B68     		ldr	r3, [r7, #4]
 1287 0034 1A80     		strh	r2, [r3, #0]	@ movhi
 1288              	.L54:
 744:../libraries/STM32F10x_StdPeriph_Driver/src/stm32f10x_i2c.c ****   }
 745:../libraries/STM32F10x_StdPeriph_Driver/src/stm32f10x_i2c.c **** }
 1289              		.loc 1 745 0
 1290 0036 07F10C07 		add	r7, r7, #12
 1291 003a BD46     		mov	sp, r7
 1292 003c 80BC     		pop	{r7}
 1293 003e 7047     		bx	lr
 1294              		.cfi_endproc
 1295              	.LFE75:
 1297              		.section	.text.I2C_TransmitPEC,"ax",%progbits
 1298              		.align	2
 1299              		.global	I2C_TransmitPEC
 1300              		.thumb
 1301              		.thumb_func
 1303              	I2C_TransmitPEC:
 1304              	.LFB76:
 746:../libraries/STM32F10x_StdPeriph_Driver/src/stm32f10x_i2c.c **** 
 747:../libraries/STM32F10x_StdPeriph_Driver/src/stm32f10x_i2c.c **** /**
 748:../libraries/STM32F10x_StdPeriph_Driver/src/stm32f10x_i2c.c ****   * @brief  Enables or disables the specified I2C PEC transfer.
 749:../libraries/STM32F10x_StdPeriph_Driver/src/stm32f10x_i2c.c ****   * @param  I2Cx: where x can be 1 or 2 to select the I2C peripheral.
 750:../libraries/STM32F10x_StdPeriph_Driver/src/stm32f10x_i2c.c ****   * @param  NewState: new state of the I2C PEC transmission.
 751:../libraries/STM32F10x_StdPeriph_Driver/src/stm32f10x_i2c.c ****   *   This parameter can be: ENABLE or DISABLE.
 752:../libraries/STM32F10x_StdPeriph_Driver/src/stm32f10x_i2c.c ****   * @retval None
 753:../libraries/STM32F10x_StdPeriph_Driver/src/stm32f10x_i2c.c ****   */
 754:../libraries/STM32F10x_StdPeriph_Driver/src/stm32f10x_i2c.c **** void I2C_TransmitPEC(I2C_TypeDef* I2Cx, FunctionalState NewState)
 755:../libraries/STM32F10x_StdPeriph_Driver/src/stm32f10x_i2c.c **** {
 1305              		.loc 1 755 0
 1306              		.cfi_startproc
 1307              		@ args = 0, pretend = 0, frame = 8
 1308              		@ frame_needed = 1, uses_anonymous_args = 0
 1309              		@ link register save eliminated.
 1310 0000 80B4     		push	{r7}
 1311              	.LCFI60:
 1312              		.cfi_def_cfa_offset 4
 1313              		.cfi_offset 7, -4
 1314 0002 83B0     		sub	sp, sp, #12
 1315              	.LCFI61:
 1316              		.cfi_def_cfa_offset 16
 1317 0004 00AF     		add	r7, sp, #0
 1318              	.LCFI62:
 1319              		.cfi_def_cfa_register 7
 1320 0006 7860     		str	r0, [r7, #4]
 1321 0008 0B46     		mov	r3, r1
 1322 000a FB70     		strb	r3, [r7, #3]
 756:../libraries/STM32F10x_StdPeriph_Driver/src/stm32f10x_i2c.c ****   /* Check the parameters */
 757:../libraries/STM32F10x_StdPeriph_Driver/src/stm32f10x_i2c.c ****   assert_param(IS_I2C_ALL_PERIPH(I2Cx));
 758:../libraries/STM32F10x_StdPeriph_Driver/src/stm32f10x_i2c.c ****   assert_param(IS_FUNCTIONAL_STATE(NewState));
 759:../libraries/STM32F10x_StdPeriph_Driver/src/stm32f10x_i2c.c ****   if (NewState != DISABLE)
 1323              		.loc 1 759 0
 1324 000c FB78     		ldrb	r3, [r7, #3]	@ zero_extendqisi2
 1325 000e 002B     		cmp	r3, #0
 1326 0010 08D0     		beq	.L58
 760:../libraries/STM32F10x_StdPeriph_Driver/src/stm32f10x_i2c.c ****   {
 761:../libraries/STM32F10x_StdPeriph_Driver/src/stm32f10x_i2c.c ****     /* Enable the selected I2C PEC transmission */
 762:../libraries/STM32F10x_StdPeriph_Driver/src/stm32f10x_i2c.c ****     I2Cx->CR1 |= CR1_PEC_Set;
 1327              		.loc 1 762 0
 1328 0012 7B68     		ldr	r3, [r7, #4]
 1329 0014 1B88     		ldrh	r3, [r3, #0]	@ movhi
 1330 0016 9BB2     		uxth	r3, r3
 1331 0018 43F48053 		orr	r3, r3, #4096
 1332 001c 9AB2     		uxth	r2, r3
 1333 001e 7B68     		ldr	r3, [r7, #4]
 1334 0020 1A80     		strh	r2, [r3, #0]	@ movhi
 1335 0022 07E0     		b	.L57
 1336              	.L58:
 763:../libraries/STM32F10x_StdPeriph_Driver/src/stm32f10x_i2c.c ****   }
 764:../libraries/STM32F10x_StdPeriph_Driver/src/stm32f10x_i2c.c ****   else
 765:../libraries/STM32F10x_StdPeriph_Driver/src/stm32f10x_i2c.c ****   {
 766:../libraries/STM32F10x_StdPeriph_Driver/src/stm32f10x_i2c.c ****     /* Disable the selected I2C PEC transmission */
 767:../libraries/STM32F10x_StdPeriph_Driver/src/stm32f10x_i2c.c ****     I2Cx->CR1 &= CR1_PEC_Reset;
 1337              		.loc 1 767 0
 1338 0024 7B68     		ldr	r3, [r7, #4]
 1339 0026 1B88     		ldrh	r3, [r3, #0]	@ movhi
 1340 0028 9BB2     		uxth	r3, r3
 1341 002a 23F48053 		bic	r3, r3, #4096
 1342 002e 9AB2     		uxth	r2, r3
 1343 0030 7B68     		ldr	r3, [r7, #4]
 1344 0032 1A80     		strh	r2, [r3, #0]	@ movhi
 1345              	.L57:
 768:../libraries/STM32F10x_StdPeriph_Driver/src/stm32f10x_i2c.c ****   }
 769:../libraries/STM32F10x_StdPeriph_Driver/src/stm32f10x_i2c.c **** }
 1346              		.loc 1 769 0
 1347 0034 07F10C07 		add	r7, r7, #12
 1348 0038 BD46     		mov	sp, r7
 1349 003a 80BC     		pop	{r7}
 1350 003c 7047     		bx	lr
 1351              		.cfi_endproc
 1352              	.LFE76:
 1354 003e 00BF     		.section	.text.I2C_PECPositionConfig,"ax",%progbits
 1355              		.align	2
 1356              		.global	I2C_PECPositionConfig
 1357              		.thumb
 1358              		.thumb_func
 1360              	I2C_PECPositionConfig:
 1361              	.LFB77:
 770:../libraries/STM32F10x_StdPeriph_Driver/src/stm32f10x_i2c.c **** 
 771:../libraries/STM32F10x_StdPeriph_Driver/src/stm32f10x_i2c.c **** /**
 772:../libraries/STM32F10x_StdPeriph_Driver/src/stm32f10x_i2c.c ****   * @brief  Selects the specified I2C PEC position.
 773:../libraries/STM32F10x_StdPeriph_Driver/src/stm32f10x_i2c.c ****   * @param  I2Cx: where x can be 1 or 2 to select the I2C peripheral.
 774:../libraries/STM32F10x_StdPeriph_Driver/src/stm32f10x_i2c.c ****   * @param  I2C_PECPosition: specifies the PEC position. 
 775:../libraries/STM32F10x_StdPeriph_Driver/src/stm32f10x_i2c.c ****   *   This parameter can be one of the following values:
 776:../libraries/STM32F10x_StdPeriph_Driver/src/stm32f10x_i2c.c ****   *     @arg I2C_PECPosition_Next: indicates that the next byte is PEC
 777:../libraries/STM32F10x_StdPeriph_Driver/src/stm32f10x_i2c.c ****   *     @arg I2C_PECPosition_Current: indicates that current byte is PEC
 778:../libraries/STM32F10x_StdPeriph_Driver/src/stm32f10x_i2c.c ****   *       
 779:../libraries/STM32F10x_StdPeriph_Driver/src/stm32f10x_i2c.c ****   * @note    This function configures the same bit (POS) as I2C_NACKPositionConfig()
 780:../libraries/STM32F10x_StdPeriph_Driver/src/stm32f10x_i2c.c ****   *          but is intended to be used in SMBUS mode while I2C_NACKPositionConfig() 
 781:../libraries/STM32F10x_StdPeriph_Driver/src/stm32f10x_i2c.c ****   *          is intended to used in I2C mode.
 782:../libraries/STM32F10x_StdPeriph_Driver/src/stm32f10x_i2c.c ****   *               
 783:../libraries/STM32F10x_StdPeriph_Driver/src/stm32f10x_i2c.c ****   * @retval None
 784:../libraries/STM32F10x_StdPeriph_Driver/src/stm32f10x_i2c.c ****   */
 785:../libraries/STM32F10x_StdPeriph_Driver/src/stm32f10x_i2c.c **** void I2C_PECPositionConfig(I2C_TypeDef* I2Cx, uint16_t I2C_PECPosition)
 786:../libraries/STM32F10x_StdPeriph_Driver/src/stm32f10x_i2c.c **** {
 1362              		.loc 1 786 0
 1363              		.cfi_startproc
 1364              		@ args = 0, pretend = 0, frame = 8
 1365              		@ frame_needed = 1, uses_anonymous_args = 0
 1366              		@ link register save eliminated.
 1367 0000 80B4     		push	{r7}
 1368              	.LCFI63:
 1369              		.cfi_def_cfa_offset 4
 1370              		.cfi_offset 7, -4
 1371 0002 83B0     		sub	sp, sp, #12
 1372              	.LCFI64:
 1373              		.cfi_def_cfa_offset 16
 1374 0004 00AF     		add	r7, sp, #0
 1375              	.LCFI65:
 1376              		.cfi_def_cfa_register 7
 1377 0006 7860     		str	r0, [r7, #4]
 1378 0008 0B46     		mov	r3, r1
 1379 000a 7B80     		strh	r3, [r7, #2]	@ movhi
 787:../libraries/STM32F10x_StdPeriph_Driver/src/stm32f10x_i2c.c ****   /* Check the parameters */
 788:../libraries/STM32F10x_StdPeriph_Driver/src/stm32f10x_i2c.c ****   assert_param(IS_I2C_ALL_PERIPH(I2Cx));
 789:../libraries/STM32F10x_StdPeriph_Driver/src/stm32f10x_i2c.c ****   assert_param(IS_I2C_PEC_POSITION(I2C_PECPosition));
 790:../libraries/STM32F10x_StdPeriph_Driver/src/stm32f10x_i2c.c ****   if (I2C_PECPosition == I2C_PECPosition_Next)
 1380              		.loc 1 790 0
 1381 000c 7B88     		ldrh	r3, [r7, #2]
 1382 000e B3F5006F 		cmp	r3, #2048
 1383 0012 08D1     		bne	.L61
 791:../libraries/STM32F10x_StdPeriph_Driver/src/stm32f10x_i2c.c ****   {
 792:../libraries/STM32F10x_StdPeriph_Driver/src/stm32f10x_i2c.c ****     /* Next byte in shift register is PEC */
 793:../libraries/STM32F10x_StdPeriph_Driver/src/stm32f10x_i2c.c ****     I2Cx->CR1 |= I2C_PECPosition_Next;
 1384              		.loc 1 793 0
 1385 0014 7B68     		ldr	r3, [r7, #4]
 1386 0016 1B88     		ldrh	r3, [r3, #0]	@ movhi
 1387 0018 9BB2     		uxth	r3, r3
 1388 001a 43F40063 		orr	r3, r3, #2048
 1389 001e 9AB2     		uxth	r2, r3
 1390 0020 7B68     		ldr	r3, [r7, #4]
 1391 0022 1A80     		strh	r2, [r3, #0]	@ movhi
 1392 0024 07E0     		b	.L60
 1393              	.L61:
 794:../libraries/STM32F10x_StdPeriph_Driver/src/stm32f10x_i2c.c ****   }
 795:../libraries/STM32F10x_StdPeriph_Driver/src/stm32f10x_i2c.c ****   else
 796:../libraries/STM32F10x_StdPeriph_Driver/src/stm32f10x_i2c.c ****   {
 797:../libraries/STM32F10x_StdPeriph_Driver/src/stm32f10x_i2c.c ****     /* Current byte in shift register is PEC */
 798:../libraries/STM32F10x_StdPeriph_Driver/src/stm32f10x_i2c.c ****     I2Cx->CR1 &= I2C_PECPosition_Current;
 1394              		.loc 1 798 0
 1395 0026 7B68     		ldr	r3, [r7, #4]
 1396 0028 1B88     		ldrh	r3, [r3, #0]	@ movhi
 1397 002a 9BB2     		uxth	r3, r3
 1398 002c 23F40063 		bic	r3, r3, #2048
 1399 0030 9AB2     		uxth	r2, r3
 1400 0032 7B68     		ldr	r3, [r7, #4]
 1401 0034 1A80     		strh	r2, [r3, #0]	@ movhi
 1402              	.L60:
 799:../libraries/STM32F10x_StdPeriph_Driver/src/stm32f10x_i2c.c ****   }
 800:../libraries/STM32F10x_StdPeriph_Driver/src/stm32f10x_i2c.c **** }
 1403              		.loc 1 800 0
 1404 0036 07F10C07 		add	r7, r7, #12
 1405 003a BD46     		mov	sp, r7
 1406 003c 80BC     		pop	{r7}
 1407 003e 7047     		bx	lr
 1408              		.cfi_endproc
 1409              	.LFE77:
 1411              		.section	.text.I2C_CalculatePEC,"ax",%progbits
 1412              		.align	2
 1413              		.global	I2C_CalculatePEC
 1414              		.thumb
 1415              		.thumb_func
 1417              	I2C_CalculatePEC:
 1418              	.LFB78:
 801:../libraries/STM32F10x_StdPeriph_Driver/src/stm32f10x_i2c.c **** 
 802:../libraries/STM32F10x_StdPeriph_Driver/src/stm32f10x_i2c.c **** /**
 803:../libraries/STM32F10x_StdPeriph_Driver/src/stm32f10x_i2c.c ****   * @brief  Enables or disables the PEC value calculation of the transferred bytes.
 804:../libraries/STM32F10x_StdPeriph_Driver/src/stm32f10x_i2c.c ****   * @param  I2Cx: where x can be 1 or 2 to select the I2C peripheral.
 805:../libraries/STM32F10x_StdPeriph_Driver/src/stm32f10x_i2c.c ****   * @param  NewState: new state of the I2Cx PEC value calculation.
 806:../libraries/STM32F10x_StdPeriph_Driver/src/stm32f10x_i2c.c ****   *   This parameter can be: ENABLE or DISABLE.
 807:../libraries/STM32F10x_StdPeriph_Driver/src/stm32f10x_i2c.c ****   * @retval None
 808:../libraries/STM32F10x_StdPeriph_Driver/src/stm32f10x_i2c.c ****   */
 809:../libraries/STM32F10x_StdPeriph_Driver/src/stm32f10x_i2c.c **** void I2C_CalculatePEC(I2C_TypeDef* I2Cx, FunctionalState NewState)
 810:../libraries/STM32F10x_StdPeriph_Driver/src/stm32f10x_i2c.c **** {
 1419              		.loc 1 810 0
 1420              		.cfi_startproc
 1421              		@ args = 0, pretend = 0, frame = 8
 1422              		@ frame_needed = 1, uses_anonymous_args = 0
 1423              		@ link register save eliminated.
 1424 0000 80B4     		push	{r7}
 1425              	.LCFI66:
 1426              		.cfi_def_cfa_offset 4
 1427              		.cfi_offset 7, -4
 1428 0002 83B0     		sub	sp, sp, #12
 1429              	.LCFI67:
 1430              		.cfi_def_cfa_offset 16
 1431 0004 00AF     		add	r7, sp, #0
 1432              	.LCFI68:
 1433              		.cfi_def_cfa_register 7
 1434 0006 7860     		str	r0, [r7, #4]
 1435 0008 0B46     		mov	r3, r1
 1436 000a FB70     		strb	r3, [r7, #3]
 811:../libraries/STM32F10x_StdPeriph_Driver/src/stm32f10x_i2c.c ****   /* Check the parameters */
 812:../libraries/STM32F10x_StdPeriph_Driver/src/stm32f10x_i2c.c ****   assert_param(IS_I2C_ALL_PERIPH(I2Cx));
 813:../libraries/STM32F10x_StdPeriph_Driver/src/stm32f10x_i2c.c ****   assert_param(IS_FUNCTIONAL_STATE(NewState));
 814:../libraries/STM32F10x_StdPeriph_Driver/src/stm32f10x_i2c.c ****   if (NewState != DISABLE)
 1437              		.loc 1 814 0
 1438 000c FB78     		ldrb	r3, [r7, #3]	@ zero_extendqisi2
 1439 000e 002B     		cmp	r3, #0
 1440 0010 08D0     		beq	.L64
 815:../libraries/STM32F10x_StdPeriph_Driver/src/stm32f10x_i2c.c ****   {
 816:../libraries/STM32F10x_StdPeriph_Driver/src/stm32f10x_i2c.c ****     /* Enable the selected I2C PEC calculation */
 817:../libraries/STM32F10x_StdPeriph_Driver/src/stm32f10x_i2c.c ****     I2Cx->CR1 |= CR1_ENPEC_Set;
 1441              		.loc 1 817 0
 1442 0012 7B68     		ldr	r3, [r7, #4]
 1443 0014 1B88     		ldrh	r3, [r3, #0]	@ movhi
 1444 0016 9BB2     		uxth	r3, r3
 1445 0018 43F02003 		orr	r3, r3, #32
 1446 001c 9AB2     		uxth	r2, r3
 1447 001e 7B68     		ldr	r3, [r7, #4]
 1448 0020 1A80     		strh	r2, [r3, #0]	@ movhi
 1449 0022 07E0     		b	.L63
 1450              	.L64:
 818:../libraries/STM32F10x_StdPeriph_Driver/src/stm32f10x_i2c.c ****   }
 819:../libraries/STM32F10x_StdPeriph_Driver/src/stm32f10x_i2c.c ****   else
 820:../libraries/STM32F10x_StdPeriph_Driver/src/stm32f10x_i2c.c ****   {
 821:../libraries/STM32F10x_StdPeriph_Driver/src/stm32f10x_i2c.c ****     /* Disable the selected I2C PEC calculation */
 822:../libraries/STM32F10x_StdPeriph_Driver/src/stm32f10x_i2c.c ****     I2Cx->CR1 &= CR1_ENPEC_Reset;
 1451              		.loc 1 822 0
 1452 0024 7B68     		ldr	r3, [r7, #4]
 1453 0026 1B88     		ldrh	r3, [r3, #0]	@ movhi
 1454 0028 9BB2     		uxth	r3, r3
 1455 002a 23F02003 		bic	r3, r3, #32
 1456 002e 9AB2     		uxth	r2, r3
 1457 0030 7B68     		ldr	r3, [r7, #4]
 1458 0032 1A80     		strh	r2, [r3, #0]	@ movhi
 1459              	.L63:
 823:../libraries/STM32F10x_StdPeriph_Driver/src/stm32f10x_i2c.c ****   }
 824:../libraries/STM32F10x_StdPeriph_Driver/src/stm32f10x_i2c.c **** }
 1460              		.loc 1 824 0
 1461 0034 07F10C07 		add	r7, r7, #12
 1462 0038 BD46     		mov	sp, r7
 1463 003a 80BC     		pop	{r7}
 1464 003c 7047     		bx	lr
 1465              		.cfi_endproc
 1466              	.LFE78:
 1468 003e 00BF     		.section	.text.I2C_GetPEC,"ax",%progbits
 1469              		.align	2
 1470              		.global	I2C_GetPEC
 1471              		.thumb
 1472              		.thumb_func
 1474              	I2C_GetPEC:
 1475              	.LFB79:
 825:../libraries/STM32F10x_StdPeriph_Driver/src/stm32f10x_i2c.c **** 
 826:../libraries/STM32F10x_StdPeriph_Driver/src/stm32f10x_i2c.c **** /**
 827:../libraries/STM32F10x_StdPeriph_Driver/src/stm32f10x_i2c.c ****   * @brief  Returns the PEC value for the specified I2C.
 828:../libraries/STM32F10x_StdPeriph_Driver/src/stm32f10x_i2c.c ****   * @param  I2Cx: where x can be 1 or 2 to select the I2C peripheral.
 829:../libraries/STM32F10x_StdPeriph_Driver/src/stm32f10x_i2c.c ****   * @retval The PEC value.
 830:../libraries/STM32F10x_StdPeriph_Driver/src/stm32f10x_i2c.c ****   */
 831:../libraries/STM32F10x_StdPeriph_Driver/src/stm32f10x_i2c.c **** uint8_t I2C_GetPEC(I2C_TypeDef* I2Cx)
 832:../libraries/STM32F10x_StdPeriph_Driver/src/stm32f10x_i2c.c **** {
 1476              		.loc 1 832 0
 1477              		.cfi_startproc
 1478              		@ args = 0, pretend = 0, frame = 8
 1479              		@ frame_needed = 1, uses_anonymous_args = 0
 1480              		@ link register save eliminated.
 1481 0000 80B4     		push	{r7}
 1482              	.LCFI69:
 1483              		.cfi_def_cfa_offset 4
 1484              		.cfi_offset 7, -4
 1485 0002 83B0     		sub	sp, sp, #12
 1486              	.LCFI70:
 1487              		.cfi_def_cfa_offset 16
 1488 0004 00AF     		add	r7, sp, #0
 1489              	.LCFI71:
 1490              		.cfi_def_cfa_register 7
 1491 0006 7860     		str	r0, [r7, #4]
 833:../libraries/STM32F10x_StdPeriph_Driver/src/stm32f10x_i2c.c ****   /* Check the parameters */
 834:../libraries/STM32F10x_StdPeriph_Driver/src/stm32f10x_i2c.c ****   assert_param(IS_I2C_ALL_PERIPH(I2Cx));
 835:../libraries/STM32F10x_StdPeriph_Driver/src/stm32f10x_i2c.c ****   /* Return the selected I2C PEC value */
 836:../libraries/STM32F10x_StdPeriph_Driver/src/stm32f10x_i2c.c ****   return ((I2Cx->SR2) >> 8);
 1492              		.loc 1 836 0
 1493 0008 7B68     		ldr	r3, [r7, #4]
 1494 000a 1B8B     		ldrh	r3, [r3, #24]	@ movhi
 1495 000c 9BB2     		uxth	r3, r3
 1496 000e 4FEA1323 		lsr	r3, r3, #8
 1497 0012 9BB2     		uxth	r3, r3
 1498 0014 DBB2     		uxtb	r3, r3
 837:../libraries/STM32F10x_StdPeriph_Driver/src/stm32f10x_i2c.c **** }
 1499              		.loc 1 837 0
 1500 0016 1846     		mov	r0, r3
 1501 0018 07F10C07 		add	r7, r7, #12
 1502 001c BD46     		mov	sp, r7
 1503 001e 80BC     		pop	{r7}
 1504 0020 7047     		bx	lr
 1505              		.cfi_endproc
 1506              	.LFE79:
 1508              		.section	.text.I2C_ARPCmd,"ax",%progbits
 1509              		.align	2
 1510              		.global	I2C_ARPCmd
 1511              		.thumb
 1512              		.thumb_func
 1514              	I2C_ARPCmd:
 1515              	.LFB80:
 838:../libraries/STM32F10x_StdPeriph_Driver/src/stm32f10x_i2c.c **** 
 839:../libraries/STM32F10x_StdPeriph_Driver/src/stm32f10x_i2c.c **** /**
 840:../libraries/STM32F10x_StdPeriph_Driver/src/stm32f10x_i2c.c ****   * @brief  Enables or disables the specified I2C ARP.
 841:../libraries/STM32F10x_StdPeriph_Driver/src/stm32f10x_i2c.c ****   * @param  I2Cx: where x can be 1 or 2 to select the I2C peripheral.
 842:../libraries/STM32F10x_StdPeriph_Driver/src/stm32f10x_i2c.c ****   * @param  NewState: new state of the I2Cx ARP. 
 843:../libraries/STM32F10x_StdPeriph_Driver/src/stm32f10x_i2c.c ****   *   This parameter can be: ENABLE or DISABLE.
 844:../libraries/STM32F10x_StdPeriph_Driver/src/stm32f10x_i2c.c ****   * @retval None
 845:../libraries/STM32F10x_StdPeriph_Driver/src/stm32f10x_i2c.c ****   */
 846:../libraries/STM32F10x_StdPeriph_Driver/src/stm32f10x_i2c.c **** void I2C_ARPCmd(I2C_TypeDef* I2Cx, FunctionalState NewState)
 847:../libraries/STM32F10x_StdPeriph_Driver/src/stm32f10x_i2c.c **** {
 1516              		.loc 1 847 0
 1517              		.cfi_startproc
 1518              		@ args = 0, pretend = 0, frame = 8
 1519              		@ frame_needed = 1, uses_anonymous_args = 0
 1520              		@ link register save eliminated.
 1521 0000 80B4     		push	{r7}
 1522              	.LCFI72:
 1523              		.cfi_def_cfa_offset 4
 1524              		.cfi_offset 7, -4
 1525 0002 83B0     		sub	sp, sp, #12
 1526              	.LCFI73:
 1527              		.cfi_def_cfa_offset 16
 1528 0004 00AF     		add	r7, sp, #0
 1529              	.LCFI74:
 1530              		.cfi_def_cfa_register 7
 1531 0006 7860     		str	r0, [r7, #4]
 1532 0008 0B46     		mov	r3, r1
 1533 000a FB70     		strb	r3, [r7, #3]
 848:../libraries/STM32F10x_StdPeriph_Driver/src/stm32f10x_i2c.c ****   /* Check the parameters */
 849:../libraries/STM32F10x_StdPeriph_Driver/src/stm32f10x_i2c.c ****   assert_param(IS_I2C_ALL_PERIPH(I2Cx));
 850:../libraries/STM32F10x_StdPeriph_Driver/src/stm32f10x_i2c.c ****   assert_param(IS_FUNCTIONAL_STATE(NewState));
 851:../libraries/STM32F10x_StdPeriph_Driver/src/stm32f10x_i2c.c ****   if (NewState != DISABLE)
 1534              		.loc 1 851 0
 1535 000c FB78     		ldrb	r3, [r7, #3]	@ zero_extendqisi2
 1536 000e 002B     		cmp	r3, #0
 1537 0010 08D0     		beq	.L69
 852:../libraries/STM32F10x_StdPeriph_Driver/src/stm32f10x_i2c.c ****   {
 853:../libraries/STM32F10x_StdPeriph_Driver/src/stm32f10x_i2c.c ****     /* Enable the selected I2C ARP */
 854:../libraries/STM32F10x_StdPeriph_Driver/src/stm32f10x_i2c.c ****     I2Cx->CR1 |= CR1_ENARP_Set;
 1538              		.loc 1 854 0
 1539 0012 7B68     		ldr	r3, [r7, #4]
 1540 0014 1B88     		ldrh	r3, [r3, #0]	@ movhi
 1541 0016 9BB2     		uxth	r3, r3
 1542 0018 43F01003 		orr	r3, r3, #16
 1543 001c 9AB2     		uxth	r2, r3
 1544 001e 7B68     		ldr	r3, [r7, #4]
 1545 0020 1A80     		strh	r2, [r3, #0]	@ movhi
 1546 0022 07E0     		b	.L68
 1547              	.L69:
 855:../libraries/STM32F10x_StdPeriph_Driver/src/stm32f10x_i2c.c ****   }
 856:../libraries/STM32F10x_StdPeriph_Driver/src/stm32f10x_i2c.c ****   else
 857:../libraries/STM32F10x_StdPeriph_Driver/src/stm32f10x_i2c.c ****   {
 858:../libraries/STM32F10x_StdPeriph_Driver/src/stm32f10x_i2c.c ****     /* Disable the selected I2C ARP */
 859:../libraries/STM32F10x_StdPeriph_Driver/src/stm32f10x_i2c.c ****     I2Cx->CR1 &= CR1_ENARP_Reset;
 1548              		.loc 1 859 0
 1549 0024 7B68     		ldr	r3, [r7, #4]
 1550 0026 1B88     		ldrh	r3, [r3, #0]	@ movhi
 1551 0028 9BB2     		uxth	r3, r3
 1552 002a 23F01003 		bic	r3, r3, #16
 1553 002e 9AB2     		uxth	r2, r3
 1554 0030 7B68     		ldr	r3, [r7, #4]
 1555 0032 1A80     		strh	r2, [r3, #0]	@ movhi
 1556              	.L68:
 860:../libraries/STM32F10x_StdPeriph_Driver/src/stm32f10x_i2c.c ****   }
 861:../libraries/STM32F10x_StdPeriph_Driver/src/stm32f10x_i2c.c **** }
 1557              		.loc 1 861 0
 1558 0034 07F10C07 		add	r7, r7, #12
 1559 0038 BD46     		mov	sp, r7
 1560 003a 80BC     		pop	{r7}
 1561 003c 7047     		bx	lr
 1562              		.cfi_endproc
 1563              	.LFE80:
 1565 003e 00BF     		.section	.text.I2C_StretchClockCmd,"ax",%progbits
 1566              		.align	2
 1567              		.global	I2C_StretchClockCmd
 1568              		.thumb
 1569              		.thumb_func
 1571              	I2C_StretchClockCmd:
 1572              	.LFB81:
 862:../libraries/STM32F10x_StdPeriph_Driver/src/stm32f10x_i2c.c **** 
 863:../libraries/STM32F10x_StdPeriph_Driver/src/stm32f10x_i2c.c **** /**
 864:../libraries/STM32F10x_StdPeriph_Driver/src/stm32f10x_i2c.c ****   * @brief  Enables or disables the specified I2C Clock stretching.
 865:../libraries/STM32F10x_StdPeriph_Driver/src/stm32f10x_i2c.c ****   * @param  I2Cx: where x can be 1 or 2 to select the I2C peripheral.
 866:../libraries/STM32F10x_StdPeriph_Driver/src/stm32f10x_i2c.c ****   * @param  NewState: new state of the I2Cx Clock stretching.
 867:../libraries/STM32F10x_StdPeriph_Driver/src/stm32f10x_i2c.c ****   *   This parameter can be: ENABLE or DISABLE.
 868:../libraries/STM32F10x_StdPeriph_Driver/src/stm32f10x_i2c.c ****   * @retval None
 869:../libraries/STM32F10x_StdPeriph_Driver/src/stm32f10x_i2c.c ****   */
 870:../libraries/STM32F10x_StdPeriph_Driver/src/stm32f10x_i2c.c **** void I2C_StretchClockCmd(I2C_TypeDef* I2Cx, FunctionalState NewState)
 871:../libraries/STM32F10x_StdPeriph_Driver/src/stm32f10x_i2c.c **** {
 1573              		.loc 1 871 0
 1574              		.cfi_startproc
 1575              		@ args = 0, pretend = 0, frame = 8
 1576              		@ frame_needed = 1, uses_anonymous_args = 0
 1577              		@ link register save eliminated.
 1578 0000 80B4     		push	{r7}
 1579              	.LCFI75:
 1580              		.cfi_def_cfa_offset 4
 1581              		.cfi_offset 7, -4
 1582 0002 83B0     		sub	sp, sp, #12
 1583              	.LCFI76:
 1584              		.cfi_def_cfa_offset 16
 1585 0004 00AF     		add	r7, sp, #0
 1586              	.LCFI77:
 1587              		.cfi_def_cfa_register 7
 1588 0006 7860     		str	r0, [r7, #4]
 1589 0008 0B46     		mov	r3, r1
 1590 000a FB70     		strb	r3, [r7, #3]
 872:../libraries/STM32F10x_StdPeriph_Driver/src/stm32f10x_i2c.c ****   /* Check the parameters */
 873:../libraries/STM32F10x_StdPeriph_Driver/src/stm32f10x_i2c.c ****   assert_param(IS_I2C_ALL_PERIPH(I2Cx));
 874:../libraries/STM32F10x_StdPeriph_Driver/src/stm32f10x_i2c.c ****   assert_param(IS_FUNCTIONAL_STATE(NewState));
 875:../libraries/STM32F10x_StdPeriph_Driver/src/stm32f10x_i2c.c ****   if (NewState == DISABLE)
 1591              		.loc 1 875 0
 1592 000c FB78     		ldrb	r3, [r7, #3]	@ zero_extendqisi2
 1593 000e 002B     		cmp	r3, #0
 1594 0010 08D1     		bne	.L72
 876:../libraries/STM32F10x_StdPeriph_Driver/src/stm32f10x_i2c.c ****   {
 877:../libraries/STM32F10x_StdPeriph_Driver/src/stm32f10x_i2c.c ****     /* Enable the selected I2C Clock stretching */
 878:../libraries/STM32F10x_StdPeriph_Driver/src/stm32f10x_i2c.c ****     I2Cx->CR1 |= CR1_NOSTRETCH_Set;
 1595              		.loc 1 878 0
 1596 0012 7B68     		ldr	r3, [r7, #4]
 1597 0014 1B88     		ldrh	r3, [r3, #0]	@ movhi
 1598 0016 9BB2     		uxth	r3, r3
 1599 0018 43F08003 		orr	r3, r3, #128
 1600 001c 9AB2     		uxth	r2, r3
 1601 001e 7B68     		ldr	r3, [r7, #4]
 1602 0020 1A80     		strh	r2, [r3, #0]	@ movhi
 1603 0022 07E0     		b	.L71
 1604              	.L72:
 879:../libraries/STM32F10x_StdPeriph_Driver/src/stm32f10x_i2c.c ****   }
 880:../libraries/STM32F10x_StdPeriph_Driver/src/stm32f10x_i2c.c ****   else
 881:../libraries/STM32F10x_StdPeriph_Driver/src/stm32f10x_i2c.c ****   {
 882:../libraries/STM32F10x_StdPeriph_Driver/src/stm32f10x_i2c.c ****     /* Disable the selected I2C Clock stretching */
 883:../libraries/STM32F10x_StdPeriph_Driver/src/stm32f10x_i2c.c ****     I2Cx->CR1 &= CR1_NOSTRETCH_Reset;
 1605              		.loc 1 883 0
 1606 0024 7B68     		ldr	r3, [r7, #4]
 1607 0026 1B88     		ldrh	r3, [r3, #0]	@ movhi
 1608 0028 9BB2     		uxth	r3, r3
 1609 002a 23F08003 		bic	r3, r3, #128
 1610 002e 9AB2     		uxth	r2, r3
 1611 0030 7B68     		ldr	r3, [r7, #4]
 1612 0032 1A80     		strh	r2, [r3, #0]	@ movhi
 1613              	.L71:
 884:../libraries/STM32F10x_StdPeriph_Driver/src/stm32f10x_i2c.c ****   }
 885:../libraries/STM32F10x_StdPeriph_Driver/src/stm32f10x_i2c.c **** }
 1614              		.loc 1 885 0
 1615 0034 07F10C07 		add	r7, r7, #12
 1616 0038 BD46     		mov	sp, r7
 1617 003a 80BC     		pop	{r7}
 1618 003c 7047     		bx	lr
 1619              		.cfi_endproc
 1620              	.LFE81:
 1622 003e 00BF     		.section	.text.I2C_FastModeDutyCycleConfig,"ax",%progbits
 1623              		.align	2
 1624              		.global	I2C_FastModeDutyCycleConfig
 1625              		.thumb
 1626              		.thumb_func
 1628              	I2C_FastModeDutyCycleConfig:
 1629              	.LFB82:
 886:../libraries/STM32F10x_StdPeriph_Driver/src/stm32f10x_i2c.c **** 
 887:../libraries/STM32F10x_StdPeriph_Driver/src/stm32f10x_i2c.c **** /**
 888:../libraries/STM32F10x_StdPeriph_Driver/src/stm32f10x_i2c.c ****   * @brief  Selects the specified I2C fast mode duty cycle.
 889:../libraries/STM32F10x_StdPeriph_Driver/src/stm32f10x_i2c.c ****   * @param  I2Cx: where x can be 1 or 2 to select the I2C peripheral.
 890:../libraries/STM32F10x_StdPeriph_Driver/src/stm32f10x_i2c.c ****   * @param  I2C_DutyCycle: specifies the fast mode duty cycle.
 891:../libraries/STM32F10x_StdPeriph_Driver/src/stm32f10x_i2c.c ****   *   This parameter can be one of the following values:
 892:../libraries/STM32F10x_StdPeriph_Driver/src/stm32f10x_i2c.c ****   *     @arg I2C_DutyCycle_2: I2C fast mode Tlow/Thigh = 2
 893:../libraries/STM32F10x_StdPeriph_Driver/src/stm32f10x_i2c.c ****   *     @arg I2C_DutyCycle_16_9: I2C fast mode Tlow/Thigh = 16/9
 894:../libraries/STM32F10x_StdPeriph_Driver/src/stm32f10x_i2c.c ****   * @retval None
 895:../libraries/STM32F10x_StdPeriph_Driver/src/stm32f10x_i2c.c ****   */
 896:../libraries/STM32F10x_StdPeriph_Driver/src/stm32f10x_i2c.c **** void I2C_FastModeDutyCycleConfig(I2C_TypeDef* I2Cx, uint16_t I2C_DutyCycle)
 897:../libraries/STM32F10x_StdPeriph_Driver/src/stm32f10x_i2c.c **** {
 1630              		.loc 1 897 0
 1631              		.cfi_startproc
 1632              		@ args = 0, pretend = 0, frame = 8
 1633              		@ frame_needed = 1, uses_anonymous_args = 0
 1634              		@ link register save eliminated.
 1635 0000 80B4     		push	{r7}
 1636              	.LCFI78:
 1637              		.cfi_def_cfa_offset 4
 1638              		.cfi_offset 7, -4
 1639 0002 83B0     		sub	sp, sp, #12
 1640              	.LCFI79:
 1641              		.cfi_def_cfa_offset 16
 1642 0004 00AF     		add	r7, sp, #0
 1643              	.LCFI80:
 1644              		.cfi_def_cfa_register 7
 1645 0006 7860     		str	r0, [r7, #4]
 1646 0008 0B46     		mov	r3, r1
 1647 000a 7B80     		strh	r3, [r7, #2]	@ movhi
 898:../libraries/STM32F10x_StdPeriph_Driver/src/stm32f10x_i2c.c ****   /* Check the parameters */
 899:../libraries/STM32F10x_StdPeriph_Driver/src/stm32f10x_i2c.c ****   assert_param(IS_I2C_ALL_PERIPH(I2Cx));
 900:../libraries/STM32F10x_StdPeriph_Driver/src/stm32f10x_i2c.c ****   assert_param(IS_I2C_DUTY_CYCLE(I2C_DutyCycle));
 901:../libraries/STM32F10x_StdPeriph_Driver/src/stm32f10x_i2c.c ****   if (I2C_DutyCycle != I2C_DutyCycle_16_9)
 1648              		.loc 1 901 0
 1649 000c 7B88     		ldrh	r3, [r7, #2]
 1650 000e B3F5804F 		cmp	r3, #16384
 1651 0012 08D0     		beq	.L75
 902:../libraries/STM32F10x_StdPeriph_Driver/src/stm32f10x_i2c.c ****   {
 903:../libraries/STM32F10x_StdPeriph_Driver/src/stm32f10x_i2c.c ****     /* I2C fast mode Tlow/Thigh=2 */
 904:../libraries/STM32F10x_StdPeriph_Driver/src/stm32f10x_i2c.c ****     I2Cx->CCR &= I2C_DutyCycle_2;
 1652              		.loc 1 904 0
 1653 0014 7B68     		ldr	r3, [r7, #4]
 1654 0016 9B8B     		ldrh	r3, [r3, #28]	@ movhi
 1655 0018 9BB2     		uxth	r3, r3
 1656 001a 23F48043 		bic	r3, r3, #16384
 1657 001e 9AB2     		uxth	r2, r3
 1658 0020 7B68     		ldr	r3, [r7, #4]
 1659 0022 9A83     		strh	r2, [r3, #28]	@ movhi
 1660 0024 07E0     		b	.L74
 1661              	.L75:
 905:../libraries/STM32F10x_StdPeriph_Driver/src/stm32f10x_i2c.c ****   }
 906:../libraries/STM32F10x_StdPeriph_Driver/src/stm32f10x_i2c.c ****   else
 907:../libraries/STM32F10x_StdPeriph_Driver/src/stm32f10x_i2c.c ****   {
 908:../libraries/STM32F10x_StdPeriph_Driver/src/stm32f10x_i2c.c ****     /* I2C fast mode Tlow/Thigh=16/9 */
 909:../libraries/STM32F10x_StdPeriph_Driver/src/stm32f10x_i2c.c ****     I2Cx->CCR |= I2C_DutyCycle_16_9;
 1662              		.loc 1 909 0
 1663 0026 7B68     		ldr	r3, [r7, #4]
 1664 0028 9B8B     		ldrh	r3, [r3, #28]	@ movhi
 1665 002a 9BB2     		uxth	r3, r3
 1666 002c 43F48043 		orr	r3, r3, #16384
 1667 0030 9AB2     		uxth	r2, r3
 1668 0032 7B68     		ldr	r3, [r7, #4]
 1669 0034 9A83     		strh	r2, [r3, #28]	@ movhi
 1670              	.L74:
 910:../libraries/STM32F10x_StdPeriph_Driver/src/stm32f10x_i2c.c ****   }
 911:../libraries/STM32F10x_StdPeriph_Driver/src/stm32f10x_i2c.c **** }
 1671              		.loc 1 911 0
 1672 0036 07F10C07 		add	r7, r7, #12
 1673 003a BD46     		mov	sp, r7
 1674 003c 80BC     		pop	{r7}
 1675 003e 7047     		bx	lr
 1676              		.cfi_endproc
 1677              	.LFE82:
 1679              		.section	.text.I2C_CheckEvent,"ax",%progbits
 1680              		.align	2
 1681              		.global	I2C_CheckEvent
 1682              		.thumb
 1683              		.thumb_func
 1685              	I2C_CheckEvent:
 1686              	.LFB83:
 912:../libraries/STM32F10x_StdPeriph_Driver/src/stm32f10x_i2c.c **** 
 913:../libraries/STM32F10x_StdPeriph_Driver/src/stm32f10x_i2c.c **** 
 914:../libraries/STM32F10x_StdPeriph_Driver/src/stm32f10x_i2c.c **** 
 915:../libraries/STM32F10x_StdPeriph_Driver/src/stm32f10x_i2c.c **** /**
 916:../libraries/STM32F10x_StdPeriph_Driver/src/stm32f10x_i2c.c ****  * @brief
 917:../libraries/STM32F10x_StdPeriph_Driver/src/stm32f10x_i2c.c ****  ****************************************************************************************
 918:../libraries/STM32F10x_StdPeriph_Driver/src/stm32f10x_i2c.c ****  *
 919:../libraries/STM32F10x_StdPeriph_Driver/src/stm32f10x_i2c.c ****  *                         I2C State Monitoring Functions
 920:../libraries/STM32F10x_StdPeriph_Driver/src/stm32f10x_i2c.c ****  *                       
 921:../libraries/STM32F10x_StdPeriph_Driver/src/stm32f10x_i2c.c ****  ****************************************************************************************   
 922:../libraries/STM32F10x_StdPeriph_Driver/src/stm32f10x_i2c.c ****  * This I2C driver provides three different ways for I2C state monitoring
 923:../libraries/STM32F10x_StdPeriph_Driver/src/stm32f10x_i2c.c ****  *  depending on the application requirements and constraints:
 924:../libraries/STM32F10x_StdPeriph_Driver/src/stm32f10x_i2c.c ****  *        
 925:../libraries/STM32F10x_StdPeriph_Driver/src/stm32f10x_i2c.c ****  *  
 926:../libraries/STM32F10x_StdPeriph_Driver/src/stm32f10x_i2c.c ****  * 1) Basic state monitoring:
 927:../libraries/STM32F10x_StdPeriph_Driver/src/stm32f10x_i2c.c ****  *    Using I2C_CheckEvent() function:
 928:../libraries/STM32F10x_StdPeriph_Driver/src/stm32f10x_i2c.c ****  *    It compares the status registers (SR1 and SR2) content to a given event
 929:../libraries/STM32F10x_StdPeriph_Driver/src/stm32f10x_i2c.c ****  *    (can be the combination of one or more flags).
 930:../libraries/STM32F10x_StdPeriph_Driver/src/stm32f10x_i2c.c ****  *    It returns SUCCESS if the current status includes the given flags 
 931:../libraries/STM32F10x_StdPeriph_Driver/src/stm32f10x_i2c.c ****  *    and returns ERROR if one or more flags are missing in the current status.
 932:../libraries/STM32F10x_StdPeriph_Driver/src/stm32f10x_i2c.c ****  *    - When to use:
 933:../libraries/STM32F10x_StdPeriph_Driver/src/stm32f10x_i2c.c ****  *      - This function is suitable for most applications as well as for startup 
 934:../libraries/STM32F10x_StdPeriph_Driver/src/stm32f10x_i2c.c ****  *      activity since the events are fully described in the product reference manual 
 935:../libraries/STM32F10x_StdPeriph_Driver/src/stm32f10x_i2c.c ****  *      (RM0008).
 936:../libraries/STM32F10x_StdPeriph_Driver/src/stm32f10x_i2c.c ****  *      - It is also suitable for users who need to define their own events.
 937:../libraries/STM32F10x_StdPeriph_Driver/src/stm32f10x_i2c.c ****  *    - Limitations:
 938:../libraries/STM32F10x_StdPeriph_Driver/src/stm32f10x_i2c.c ****  *      - If an error occurs (ie. error flags are set besides to the monitored flags),
 939:../libraries/STM32F10x_StdPeriph_Driver/src/stm32f10x_i2c.c ****  *        the I2C_CheckEvent() function may return SUCCESS despite the communication
 940:../libraries/STM32F10x_StdPeriph_Driver/src/stm32f10x_i2c.c ****  *        hold or corrupted real state. 
 941:../libraries/STM32F10x_StdPeriph_Driver/src/stm32f10x_i2c.c ****  *        In this case, it is advised to use error interrupts to monitor the error
 942:../libraries/STM32F10x_StdPeriph_Driver/src/stm32f10x_i2c.c ****  *        events and handle them in the interrupt IRQ handler.
 943:../libraries/STM32F10x_StdPeriph_Driver/src/stm32f10x_i2c.c ****  *        
 944:../libraries/STM32F10x_StdPeriph_Driver/src/stm32f10x_i2c.c ****  *        @note 
 945:../libraries/STM32F10x_StdPeriph_Driver/src/stm32f10x_i2c.c ****  *        For error management, it is advised to use the following functions:
 946:../libraries/STM32F10x_StdPeriph_Driver/src/stm32f10x_i2c.c ****  *          - I2C_ITConfig() to configure and enable the error interrupts (I2C_IT_ERR).
 947:../libraries/STM32F10x_StdPeriph_Driver/src/stm32f10x_i2c.c ****  *          - I2Cx_ER_IRQHandler() which is called when the error interrupt occurs.
 948:../libraries/STM32F10x_StdPeriph_Driver/src/stm32f10x_i2c.c ****  *            Where x is the peripheral instance (I2C1, I2C2 ...)
 949:../libraries/STM32F10x_StdPeriph_Driver/src/stm32f10x_i2c.c ****  *          - I2C_GetFlagStatus() or I2C_GetITStatus() to be called into I2Cx_ER_IRQHandler() 
 950:../libraries/STM32F10x_StdPeriph_Driver/src/stm32f10x_i2c.c ****  *            in order to determine which error occured.
 951:../libraries/STM32F10x_StdPeriph_Driver/src/stm32f10x_i2c.c ****  *          - I2C_ClearFlag() or I2C_ClearITPendingBit() and/or I2C_SoftwareResetCmd()
 952:../libraries/STM32F10x_StdPeriph_Driver/src/stm32f10x_i2c.c ****  *            and/or I2C_GenerateStop() in order to clear the error flag and source,
 953:../libraries/STM32F10x_StdPeriph_Driver/src/stm32f10x_i2c.c ****  *            and return to correct communication status.
 954:../libraries/STM32F10x_StdPeriph_Driver/src/stm32f10x_i2c.c ****  *            
 955:../libraries/STM32F10x_StdPeriph_Driver/src/stm32f10x_i2c.c ****  *
 956:../libraries/STM32F10x_StdPeriph_Driver/src/stm32f10x_i2c.c ****  *  2) Advanced state monitoring:
 957:../libraries/STM32F10x_StdPeriph_Driver/src/stm32f10x_i2c.c ****  *     Using the function I2C_GetLastEvent() which returns the image of both status 
 958:../libraries/STM32F10x_StdPeriph_Driver/src/stm32f10x_i2c.c ****  *     registers in a single word (uint32_t) (Status Register 2 value is shifted left 
 959:../libraries/STM32F10x_StdPeriph_Driver/src/stm32f10x_i2c.c ****  *     by 16 bits and concatenated to Status Register 1).
 960:../libraries/STM32F10x_StdPeriph_Driver/src/stm32f10x_i2c.c ****  *     - When to use:
 961:../libraries/STM32F10x_StdPeriph_Driver/src/stm32f10x_i2c.c ****  *       - This function is suitable for the same applications above but it allows to
 962:../libraries/STM32F10x_StdPeriph_Driver/src/stm32f10x_i2c.c ****  *         overcome the mentioned limitation of I2C_GetFlagStatus() function.
 963:../libraries/STM32F10x_StdPeriph_Driver/src/stm32f10x_i2c.c ****  *         The returned value could be compared to events already defined in the 
 964:../libraries/STM32F10x_StdPeriph_Driver/src/stm32f10x_i2c.c ****  *         library (stm32f10x_i2c.h) or to custom values defined by user.
 965:../libraries/STM32F10x_StdPeriph_Driver/src/stm32f10x_i2c.c ****  *       - This function is suitable when multiple flags are monitored at the same time.
 966:../libraries/STM32F10x_StdPeriph_Driver/src/stm32f10x_i2c.c ****  *       - At the opposite of I2C_CheckEvent() function, this function allows user to
 967:../libraries/STM32F10x_StdPeriph_Driver/src/stm32f10x_i2c.c ****  *         choose when an event is accepted (when all events flags are set and no 
 968:../libraries/STM32F10x_StdPeriph_Driver/src/stm32f10x_i2c.c ****  *         other flags are set or just when the needed flags are set like 
 969:../libraries/STM32F10x_StdPeriph_Driver/src/stm32f10x_i2c.c ****  *         I2C_CheckEvent() function).
 970:../libraries/STM32F10x_StdPeriph_Driver/src/stm32f10x_i2c.c ****  *     - Limitations:
 971:../libraries/STM32F10x_StdPeriph_Driver/src/stm32f10x_i2c.c ****  *       - User may need to define his own events.
 972:../libraries/STM32F10x_StdPeriph_Driver/src/stm32f10x_i2c.c ****  *       - Same remark concerning the error management is applicable for this 
 973:../libraries/STM32F10x_StdPeriph_Driver/src/stm32f10x_i2c.c ****  *         function if user decides to check only regular communication flags (and 
 974:../libraries/STM32F10x_StdPeriph_Driver/src/stm32f10x_i2c.c ****  *         ignores error flags).
 975:../libraries/STM32F10x_StdPeriph_Driver/src/stm32f10x_i2c.c ****  *     
 976:../libraries/STM32F10x_StdPeriph_Driver/src/stm32f10x_i2c.c ****  *
 977:../libraries/STM32F10x_StdPeriph_Driver/src/stm32f10x_i2c.c ****  *  3) Flag-based state monitoring:
 978:../libraries/STM32F10x_StdPeriph_Driver/src/stm32f10x_i2c.c ****  *     Using the function I2C_GetFlagStatus() which simply returns the status of 
 979:../libraries/STM32F10x_StdPeriph_Driver/src/stm32f10x_i2c.c ****  *     one single flag (ie. I2C_FLAG_RXNE ...). 
 980:../libraries/STM32F10x_StdPeriph_Driver/src/stm32f10x_i2c.c ****  *     - When to use:
 981:../libraries/STM32F10x_StdPeriph_Driver/src/stm32f10x_i2c.c ****  *        - This function could be used for specific applications or in debug phase.
 982:../libraries/STM32F10x_StdPeriph_Driver/src/stm32f10x_i2c.c ****  *        - It is suitable when only one flag checking is needed (most I2C events 
 983:../libraries/STM32F10x_StdPeriph_Driver/src/stm32f10x_i2c.c ****  *          are monitored through multiple flags).
 984:../libraries/STM32F10x_StdPeriph_Driver/src/stm32f10x_i2c.c ****  *     - Limitations: 
 985:../libraries/STM32F10x_StdPeriph_Driver/src/stm32f10x_i2c.c ****  *        - When calling this function, the Status register is accessed. Some flags are
 986:../libraries/STM32F10x_StdPeriph_Driver/src/stm32f10x_i2c.c ****  *          cleared when the status register is accessed. So checking the status
 987:../libraries/STM32F10x_StdPeriph_Driver/src/stm32f10x_i2c.c ****  *          of one Flag, may clear other ones.
 988:../libraries/STM32F10x_StdPeriph_Driver/src/stm32f10x_i2c.c ****  *        - Function may need to be called twice or more in order to monitor one 
 989:../libraries/STM32F10x_StdPeriph_Driver/src/stm32f10x_i2c.c ****  *          single event.
 990:../libraries/STM32F10x_StdPeriph_Driver/src/stm32f10x_i2c.c ****  *
 991:../libraries/STM32F10x_StdPeriph_Driver/src/stm32f10x_i2c.c ****  *  For detailed description of Events, please refer to section I2C_Events in 
 992:../libraries/STM32F10x_StdPeriph_Driver/src/stm32f10x_i2c.c ****  *  stm32f10x_i2c.h file.
 993:../libraries/STM32F10x_StdPeriph_Driver/src/stm32f10x_i2c.c ****  *  
 994:../libraries/STM32F10x_StdPeriph_Driver/src/stm32f10x_i2c.c ****  */
 995:../libraries/STM32F10x_StdPeriph_Driver/src/stm32f10x_i2c.c **** 
 996:../libraries/STM32F10x_StdPeriph_Driver/src/stm32f10x_i2c.c **** /**
 997:../libraries/STM32F10x_StdPeriph_Driver/src/stm32f10x_i2c.c ****  * 
 998:../libraries/STM32F10x_StdPeriph_Driver/src/stm32f10x_i2c.c ****  *  1) Basic state monitoring
 999:../libraries/STM32F10x_StdPeriph_Driver/src/stm32f10x_i2c.c ****  *******************************************************************************
1000:../libraries/STM32F10x_StdPeriph_Driver/src/stm32f10x_i2c.c ****  */
1001:../libraries/STM32F10x_StdPeriph_Driver/src/stm32f10x_i2c.c **** 
1002:../libraries/STM32F10x_StdPeriph_Driver/src/stm32f10x_i2c.c **** /**
1003:../libraries/STM32F10x_StdPeriph_Driver/src/stm32f10x_i2c.c ****   * @brief  Checks whether the last I2Cx Event is equal to the one passed
1004:../libraries/STM32F10x_StdPeriph_Driver/src/stm32f10x_i2c.c ****   *   as parameter.
1005:../libraries/STM32F10x_StdPeriph_Driver/src/stm32f10x_i2c.c ****   * @param  I2Cx: where x can be 1 or 2 to select the I2C peripheral.
1006:../libraries/STM32F10x_StdPeriph_Driver/src/stm32f10x_i2c.c ****   * @param  I2C_EVENT: specifies the event to be checked. 
1007:../libraries/STM32F10x_StdPeriph_Driver/src/stm32f10x_i2c.c ****   *   This parameter can be one of the following values:
1008:../libraries/STM32F10x_StdPeriph_Driver/src/stm32f10x_i2c.c ****   *     @arg I2C_EVENT_SLAVE_TRANSMITTER_ADDRESS_MATCHED           : EV1
1009:../libraries/STM32F10x_StdPeriph_Driver/src/stm32f10x_i2c.c ****   *     @arg I2C_EVENT_SLAVE_RECEIVER_ADDRESS_MATCHED              : EV1
1010:../libraries/STM32F10x_StdPeriph_Driver/src/stm32f10x_i2c.c ****   *     @arg I2C_EVENT_SLAVE_TRANSMITTER_SECONDADDRESS_MATCHED     : EV1
1011:../libraries/STM32F10x_StdPeriph_Driver/src/stm32f10x_i2c.c ****   *     @arg I2C_EVENT_SLAVE_RECEIVER_SECONDADDRESS_MATCHED        : EV1
1012:../libraries/STM32F10x_StdPeriph_Driver/src/stm32f10x_i2c.c ****   *     @arg I2C_EVENT_SLAVE_GENERALCALLADDRESS_MATCHED            : EV1
1013:../libraries/STM32F10x_StdPeriph_Driver/src/stm32f10x_i2c.c ****   *     @arg I2C_EVENT_SLAVE_BYTE_RECEIVED                         : EV2
1014:../libraries/STM32F10x_StdPeriph_Driver/src/stm32f10x_i2c.c ****   *     @arg (I2C_EVENT_SLAVE_BYTE_RECEIVED | I2C_FLAG_DUALF)      : EV2
1015:../libraries/STM32F10x_StdPeriph_Driver/src/stm32f10x_i2c.c ****   *     @arg (I2C_EVENT_SLAVE_BYTE_RECEIVED | I2C_FLAG_GENCALL)    : EV2
1016:../libraries/STM32F10x_StdPeriph_Driver/src/stm32f10x_i2c.c ****   *     @arg I2C_EVENT_SLAVE_BYTE_TRANSMITTED                      : EV3
1017:../libraries/STM32F10x_StdPeriph_Driver/src/stm32f10x_i2c.c ****   *     @arg (I2C_EVENT_SLAVE_BYTE_TRANSMITTED | I2C_FLAG_DUALF)   : EV3
1018:../libraries/STM32F10x_StdPeriph_Driver/src/stm32f10x_i2c.c ****   *     @arg (I2C_EVENT_SLAVE_BYTE_TRANSMITTED | I2C_FLAG_GENCALL) : EV3
1019:../libraries/STM32F10x_StdPeriph_Driver/src/stm32f10x_i2c.c ****   *     @arg I2C_EVENT_SLAVE_ACK_FAILURE                           : EV3_2
1020:../libraries/STM32F10x_StdPeriph_Driver/src/stm32f10x_i2c.c ****   *     @arg I2C_EVENT_SLAVE_STOP_DETECTED                         : EV4
1021:../libraries/STM32F10x_StdPeriph_Driver/src/stm32f10x_i2c.c ****   *     @arg I2C_EVENT_MASTER_MODE_SELECT                          : EV5
1022:../libraries/STM32F10x_StdPeriph_Driver/src/stm32f10x_i2c.c ****   *     @arg I2C_EVENT_MASTER_TRANSMITTER_MODE_SELECTED            : EV6     
1023:../libraries/STM32F10x_StdPeriph_Driver/src/stm32f10x_i2c.c ****   *     @arg I2C_EVENT_MASTER_RECEIVER_MODE_SELECTED               : EV6
1024:../libraries/STM32F10x_StdPeriph_Driver/src/stm32f10x_i2c.c ****   *     @arg I2C_EVENT_MASTER_BYTE_RECEIVED                        : EV7
1025:../libraries/STM32F10x_StdPeriph_Driver/src/stm32f10x_i2c.c ****   *     @arg I2C_EVENT_MASTER_BYTE_TRANSMITTING                    : EV8
1026:../libraries/STM32F10x_StdPeriph_Driver/src/stm32f10x_i2c.c ****   *     @arg I2C_EVENT_MASTER_BYTE_TRANSMITTED                     : EV8_2
1027:../libraries/STM32F10x_StdPeriph_Driver/src/stm32f10x_i2c.c ****   *     @arg I2C_EVENT_MASTER_MODE_ADDRESS10                       : EV9
1028:../libraries/STM32F10x_StdPeriph_Driver/src/stm32f10x_i2c.c ****   *     
1029:../libraries/STM32F10x_StdPeriph_Driver/src/stm32f10x_i2c.c ****   * @note: For detailed description of Events, please refer to section 
1030:../libraries/STM32F10x_StdPeriph_Driver/src/stm32f10x_i2c.c ****   *    I2C_Events in stm32f10x_i2c.h file.
1031:../libraries/STM32F10x_StdPeriph_Driver/src/stm32f10x_i2c.c ****   *    
1032:../libraries/STM32F10x_StdPeriph_Driver/src/stm32f10x_i2c.c ****   * @retval An ErrorStatus enumeration value:
1033:../libraries/STM32F10x_StdPeriph_Driver/src/stm32f10x_i2c.c ****   * - SUCCESS: Last event is equal to the I2C_EVENT
1034:../libraries/STM32F10x_StdPeriph_Driver/src/stm32f10x_i2c.c ****   * - ERROR: Last event is different from the I2C_EVENT
1035:../libraries/STM32F10x_StdPeriph_Driver/src/stm32f10x_i2c.c ****   */
1036:../libraries/STM32F10x_StdPeriph_Driver/src/stm32f10x_i2c.c **** ErrorStatus I2C_CheckEvent(I2C_TypeDef* I2Cx, uint32_t I2C_EVENT)
1037:../libraries/STM32F10x_StdPeriph_Driver/src/stm32f10x_i2c.c **** {
 1687              		.loc 1 1037 0
 1688              		.cfi_startproc
 1689              		@ args = 0, pretend = 0, frame = 24
 1690              		@ frame_needed = 1, uses_anonymous_args = 0
 1691              		@ link register save eliminated.
 1692 0000 80B4     		push	{r7}
 1693              	.LCFI81:
 1694              		.cfi_def_cfa_offset 4
 1695              		.cfi_offset 7, -4
 1696 0002 87B0     		sub	sp, sp, #28
 1697              	.LCFI82:
 1698              		.cfi_def_cfa_offset 32
 1699 0004 00AF     		add	r7, sp, #0
 1700              	.LCFI83:
 1701              		.cfi_def_cfa_register 7
 1702 0006 7860     		str	r0, [r7, #4]
 1703 0008 3960     		str	r1, [r7, #0]
1038:../libraries/STM32F10x_StdPeriph_Driver/src/stm32f10x_i2c.c ****   uint32_t lastevent = 0;
 1704              		.loc 1 1038 0
 1705 000a 4FF00003 		mov	r3, #0
 1706 000e 3B61     		str	r3, [r7, #16]
1039:../libraries/STM32F10x_StdPeriph_Driver/src/stm32f10x_i2c.c ****   uint32_t flag1 = 0, flag2 = 0;
 1707              		.loc 1 1039 0
 1708 0010 4FF00003 		mov	r3, #0
 1709 0014 FB60     		str	r3, [r7, #12]
 1710 0016 4FF00003 		mov	r3, #0
 1711 001a BB60     		str	r3, [r7, #8]
1040:../libraries/STM32F10x_StdPeriph_Driver/src/stm32f10x_i2c.c ****   ErrorStatus status = ERROR;
 1712              		.loc 1 1040 0
 1713 001c 4FF00003 		mov	r3, #0
 1714 0020 FB75     		strb	r3, [r7, #23]
1041:../libraries/STM32F10x_StdPeriph_Driver/src/stm32f10x_i2c.c **** 
1042:../libraries/STM32F10x_StdPeriph_Driver/src/stm32f10x_i2c.c ****   /* Check the parameters */
1043:../libraries/STM32F10x_StdPeriph_Driver/src/stm32f10x_i2c.c ****   assert_param(IS_I2C_ALL_PERIPH(I2Cx));
1044:../libraries/STM32F10x_StdPeriph_Driver/src/stm32f10x_i2c.c ****   assert_param(IS_I2C_EVENT(I2C_EVENT));
1045:../libraries/STM32F10x_StdPeriph_Driver/src/stm32f10x_i2c.c **** 
1046:../libraries/STM32F10x_StdPeriph_Driver/src/stm32f10x_i2c.c ****   /* Read the I2Cx status register */
1047:../libraries/STM32F10x_StdPeriph_Driver/src/stm32f10x_i2c.c ****   flag1 = I2Cx->SR1;
 1715              		.loc 1 1047 0
 1716 0022 7B68     		ldr	r3, [r7, #4]
 1717 0024 9B8A     		ldrh	r3, [r3, #20]	@ movhi
 1718 0026 9BB2     		uxth	r3, r3
 1719 0028 FB60     		str	r3, [r7, #12]
1048:../libraries/STM32F10x_StdPeriph_Driver/src/stm32f10x_i2c.c ****   flag2 = I2Cx->SR2;
 1720              		.loc 1 1048 0
 1721 002a 7B68     		ldr	r3, [r7, #4]
 1722 002c 1B8B     		ldrh	r3, [r3, #24]	@ movhi
 1723 002e 9BB2     		uxth	r3, r3
 1724 0030 BB60     		str	r3, [r7, #8]
1049:../libraries/STM32F10x_StdPeriph_Driver/src/stm32f10x_i2c.c ****   flag2 = flag2 << 16;
 1725              		.loc 1 1049 0
 1726 0032 BB68     		ldr	r3, [r7, #8]
 1727 0034 4FEA0343 		lsl	r3, r3, #16
 1728 0038 BB60     		str	r3, [r7, #8]
1050:../libraries/STM32F10x_StdPeriph_Driver/src/stm32f10x_i2c.c **** 
1051:../libraries/STM32F10x_StdPeriph_Driver/src/stm32f10x_i2c.c ****   /* Get the last event value from I2C status register */
1052:../libraries/STM32F10x_StdPeriph_Driver/src/stm32f10x_i2c.c ****   lastevent = (flag1 | flag2) & FLAG_Mask;
 1729              		.loc 1 1052 0
 1730 003a FA68     		ldr	r2, [r7, #12]
 1731 003c BB68     		ldr	r3, [r7, #8]
 1732 003e 1343     		orrs	r3, r3, r2
 1733 0040 23F07F43 		bic	r3, r3, #-16777216
 1734 0044 3B61     		str	r3, [r7, #16]
1053:../libraries/STM32F10x_StdPeriph_Driver/src/stm32f10x_i2c.c **** 
1054:../libraries/STM32F10x_StdPeriph_Driver/src/stm32f10x_i2c.c ****   /* Check whether the last event contains the I2C_EVENT */
1055:../libraries/STM32F10x_StdPeriph_Driver/src/stm32f10x_i2c.c ****   if ((lastevent & I2C_EVENT) == I2C_EVENT)
 1735              		.loc 1 1055 0
 1736 0046 3A69     		ldr	r2, [r7, #16]
 1737 0048 3B68     		ldr	r3, [r7, #0]
 1738 004a 1A40     		ands	r2, r2, r3
 1739 004c 3B68     		ldr	r3, [r7, #0]
 1740 004e 9A42     		cmp	r2, r3
 1741 0050 03D1     		bne	.L78
1056:../libraries/STM32F10x_StdPeriph_Driver/src/stm32f10x_i2c.c ****   {
1057:../libraries/STM32F10x_StdPeriph_Driver/src/stm32f10x_i2c.c ****     /* SUCCESS: last event is equal to I2C_EVENT */
1058:../libraries/STM32F10x_StdPeriph_Driver/src/stm32f10x_i2c.c ****     status = SUCCESS;
 1742              		.loc 1 1058 0
 1743 0052 4FF00103 		mov	r3, #1
 1744 0056 FB75     		strb	r3, [r7, #23]
 1745 0058 02E0     		b	.L79
 1746              	.L78:
1059:../libraries/STM32F10x_StdPeriph_Driver/src/stm32f10x_i2c.c ****   }
1060:../libraries/STM32F10x_StdPeriph_Driver/src/stm32f10x_i2c.c ****   else
1061:../libraries/STM32F10x_StdPeriph_Driver/src/stm32f10x_i2c.c ****   {
1062:../libraries/STM32F10x_StdPeriph_Driver/src/stm32f10x_i2c.c ****     /* ERROR: last event is different from I2C_EVENT */
1063:../libraries/STM32F10x_StdPeriph_Driver/src/stm32f10x_i2c.c ****     status = ERROR;
 1747              		.loc 1 1063 0
 1748 005a 4FF00003 		mov	r3, #0
 1749 005e FB75     		strb	r3, [r7, #23]
 1750              	.L79:
1064:../libraries/STM32F10x_StdPeriph_Driver/src/stm32f10x_i2c.c ****   }
1065:../libraries/STM32F10x_StdPeriph_Driver/src/stm32f10x_i2c.c ****   /* Return status */
1066:../libraries/STM32F10x_StdPeriph_Driver/src/stm32f10x_i2c.c ****   return status;
 1751              		.loc 1 1066 0
 1752 0060 FB7D     		ldrb	r3, [r7, #23]	@ zero_extendqisi2
1067:../libraries/STM32F10x_StdPeriph_Driver/src/stm32f10x_i2c.c **** }
 1753              		.loc 1 1067 0
 1754 0062 1846     		mov	r0, r3
 1755 0064 07F11C07 		add	r7, r7, #28
 1756 0068 BD46     		mov	sp, r7
 1757 006a 80BC     		pop	{r7}
 1758 006c 7047     		bx	lr
 1759              		.cfi_endproc
 1760              	.LFE83:
 1762 006e 00BF     		.section	.text.I2C_GetLastEvent,"ax",%progbits
 1763              		.align	2
 1764              		.global	I2C_GetLastEvent
 1765              		.thumb
 1766              		.thumb_func
 1768              	I2C_GetLastEvent:
 1769              	.LFB84:
1068:../libraries/STM32F10x_StdPeriph_Driver/src/stm32f10x_i2c.c **** 
1069:../libraries/STM32F10x_StdPeriph_Driver/src/stm32f10x_i2c.c **** /**
1070:../libraries/STM32F10x_StdPeriph_Driver/src/stm32f10x_i2c.c ****  * 
1071:../libraries/STM32F10x_StdPeriph_Driver/src/stm32f10x_i2c.c ****  *  2) Advanced state monitoring
1072:../libraries/STM32F10x_StdPeriph_Driver/src/stm32f10x_i2c.c ****  *******************************************************************************
1073:../libraries/STM32F10x_StdPeriph_Driver/src/stm32f10x_i2c.c ****  */
1074:../libraries/STM32F10x_StdPeriph_Driver/src/stm32f10x_i2c.c **** 
1075:../libraries/STM32F10x_StdPeriph_Driver/src/stm32f10x_i2c.c **** /**
1076:../libraries/STM32F10x_StdPeriph_Driver/src/stm32f10x_i2c.c ****   * @brief  Returns the last I2Cx Event.
1077:../libraries/STM32F10x_StdPeriph_Driver/src/stm32f10x_i2c.c ****   * @param  I2Cx: where x can be 1 or 2 to select the I2C peripheral.
1078:../libraries/STM32F10x_StdPeriph_Driver/src/stm32f10x_i2c.c ****   *     
1079:../libraries/STM32F10x_StdPeriph_Driver/src/stm32f10x_i2c.c ****   * @note: For detailed description of Events, please refer to section 
1080:../libraries/STM32F10x_StdPeriph_Driver/src/stm32f10x_i2c.c ****   *    I2C_Events in stm32f10x_i2c.h file.
1081:../libraries/STM32F10x_StdPeriph_Driver/src/stm32f10x_i2c.c ****   *    
1082:../libraries/STM32F10x_StdPeriph_Driver/src/stm32f10x_i2c.c ****   * @retval The last event
1083:../libraries/STM32F10x_StdPeriph_Driver/src/stm32f10x_i2c.c ****   */
1084:../libraries/STM32F10x_StdPeriph_Driver/src/stm32f10x_i2c.c **** uint32_t I2C_GetLastEvent(I2C_TypeDef* I2Cx)
1085:../libraries/STM32F10x_StdPeriph_Driver/src/stm32f10x_i2c.c **** {
 1770              		.loc 1 1085 0
 1771              		.cfi_startproc
 1772              		@ args = 0, pretend = 0, frame = 24
 1773              		@ frame_needed = 1, uses_anonymous_args = 0
 1774              		@ link register save eliminated.
 1775 0000 80B4     		push	{r7}
 1776              	.LCFI84:
 1777              		.cfi_def_cfa_offset 4
 1778              		.cfi_offset 7, -4
 1779 0002 87B0     		sub	sp, sp, #28
 1780              	.LCFI85:
 1781              		.cfi_def_cfa_offset 32
 1782 0004 00AF     		add	r7, sp, #0
 1783              	.LCFI86:
 1784              		.cfi_def_cfa_register 7
 1785 0006 7860     		str	r0, [r7, #4]
1086:../libraries/STM32F10x_StdPeriph_Driver/src/stm32f10x_i2c.c ****   uint32_t lastevent = 0;
 1786              		.loc 1 1086 0
 1787 0008 4FF00003 		mov	r3, #0
 1788 000c 7B61     		str	r3, [r7, #20]
1087:../libraries/STM32F10x_StdPeriph_Driver/src/stm32f10x_i2c.c ****   uint32_t flag1 = 0, flag2 = 0;
 1789              		.loc 1 1087 0
 1790 000e 4FF00003 		mov	r3, #0
 1791 0012 3B61     		str	r3, [r7, #16]
 1792 0014 4FF00003 		mov	r3, #0
 1793 0018 FB60     		str	r3, [r7, #12]
1088:../libraries/STM32F10x_StdPeriph_Driver/src/stm32f10x_i2c.c **** 
1089:../libraries/STM32F10x_StdPeriph_Driver/src/stm32f10x_i2c.c ****   /* Check the parameters */
1090:../libraries/STM32F10x_StdPeriph_Driver/src/stm32f10x_i2c.c ****   assert_param(IS_I2C_ALL_PERIPH(I2Cx));
1091:../libraries/STM32F10x_StdPeriph_Driver/src/stm32f10x_i2c.c **** 
1092:../libraries/STM32F10x_StdPeriph_Driver/src/stm32f10x_i2c.c ****   /* Read the I2Cx status register */
1093:../libraries/STM32F10x_StdPeriph_Driver/src/stm32f10x_i2c.c ****   flag1 = I2Cx->SR1;
 1794              		.loc 1 1093 0
 1795 001a 7B68     		ldr	r3, [r7, #4]
 1796 001c 9B8A     		ldrh	r3, [r3, #20]	@ movhi
 1797 001e 9BB2     		uxth	r3, r3
 1798 0020 3B61     		str	r3, [r7, #16]
1094:../libraries/STM32F10x_StdPeriph_Driver/src/stm32f10x_i2c.c ****   flag2 = I2Cx->SR2;
 1799              		.loc 1 1094 0
 1800 0022 7B68     		ldr	r3, [r7, #4]
 1801 0024 1B8B     		ldrh	r3, [r3, #24]	@ movhi
 1802 0026 9BB2     		uxth	r3, r3
 1803 0028 FB60     		str	r3, [r7, #12]
1095:../libraries/STM32F10x_StdPeriph_Driver/src/stm32f10x_i2c.c ****   flag2 = flag2 << 16;
 1804              		.loc 1 1095 0
 1805 002a FB68     		ldr	r3, [r7, #12]
 1806 002c 4FEA0343 		lsl	r3, r3, #16
 1807 0030 FB60     		str	r3, [r7, #12]
1096:../libraries/STM32F10x_StdPeriph_Driver/src/stm32f10x_i2c.c **** 
1097:../libraries/STM32F10x_StdPeriph_Driver/src/stm32f10x_i2c.c ****   /* Get the last event value from I2C status register */
1098:../libraries/STM32F10x_StdPeriph_Driver/src/stm32f10x_i2c.c ****   lastevent = (flag1 | flag2) & FLAG_Mask;
 1808              		.loc 1 1098 0
 1809 0032 3A69     		ldr	r2, [r7, #16]
 1810 0034 FB68     		ldr	r3, [r7, #12]
 1811 0036 1343     		orrs	r3, r3, r2
 1812 0038 23F07F43 		bic	r3, r3, #-16777216
 1813 003c 7B61     		str	r3, [r7, #20]
1099:../libraries/STM32F10x_StdPeriph_Driver/src/stm32f10x_i2c.c **** 
1100:../libraries/STM32F10x_StdPeriph_Driver/src/stm32f10x_i2c.c ****   /* Return status */
1101:../libraries/STM32F10x_StdPeriph_Driver/src/stm32f10x_i2c.c ****   return lastevent;
 1814              		.loc 1 1101 0
 1815 003e 7B69     		ldr	r3, [r7, #20]
1102:../libraries/STM32F10x_StdPeriph_Driver/src/stm32f10x_i2c.c **** }
 1816              		.loc 1 1102 0
 1817 0040 1846     		mov	r0, r3
 1818 0042 07F11C07 		add	r7, r7, #28
 1819 0046 BD46     		mov	sp, r7
 1820 0048 80BC     		pop	{r7}
 1821 004a 7047     		bx	lr
 1822              		.cfi_endproc
 1823              	.LFE84:
 1825              		.section	.text.I2C_GetFlagStatus,"ax",%progbits
 1826              		.align	2
 1827              		.global	I2C_GetFlagStatus
 1828              		.thumb
 1829              		.thumb_func
 1831              	I2C_GetFlagStatus:
 1832              	.LFB85:
1103:../libraries/STM32F10x_StdPeriph_Driver/src/stm32f10x_i2c.c **** 
1104:../libraries/STM32F10x_StdPeriph_Driver/src/stm32f10x_i2c.c **** /**
1105:../libraries/STM32F10x_StdPeriph_Driver/src/stm32f10x_i2c.c ****  * 
1106:../libraries/STM32F10x_StdPeriph_Driver/src/stm32f10x_i2c.c ****  *  3) Flag-based state monitoring
1107:../libraries/STM32F10x_StdPeriph_Driver/src/stm32f10x_i2c.c ****  *******************************************************************************
1108:../libraries/STM32F10x_StdPeriph_Driver/src/stm32f10x_i2c.c ****  */
1109:../libraries/STM32F10x_StdPeriph_Driver/src/stm32f10x_i2c.c **** 
1110:../libraries/STM32F10x_StdPeriph_Driver/src/stm32f10x_i2c.c **** /**
1111:../libraries/STM32F10x_StdPeriph_Driver/src/stm32f10x_i2c.c ****   * @brief  Checks whether the specified I2C flag is set or not.
1112:../libraries/STM32F10x_StdPeriph_Driver/src/stm32f10x_i2c.c ****   * @param  I2Cx: where x can be 1 or 2 to select the I2C peripheral.
1113:../libraries/STM32F10x_StdPeriph_Driver/src/stm32f10x_i2c.c ****   * @param  I2C_FLAG: specifies the flag to check. 
1114:../libraries/STM32F10x_StdPeriph_Driver/src/stm32f10x_i2c.c ****   *   This parameter can be one of the following values:
1115:../libraries/STM32F10x_StdPeriph_Driver/src/stm32f10x_i2c.c ****   *     @arg I2C_FLAG_DUALF: Dual flag (Slave mode)
1116:../libraries/STM32F10x_StdPeriph_Driver/src/stm32f10x_i2c.c ****   *     @arg I2C_FLAG_SMBHOST: SMBus host header (Slave mode)
1117:../libraries/STM32F10x_StdPeriph_Driver/src/stm32f10x_i2c.c ****   *     @arg I2C_FLAG_SMBDEFAULT: SMBus default header (Slave mode)
1118:../libraries/STM32F10x_StdPeriph_Driver/src/stm32f10x_i2c.c ****   *     @arg I2C_FLAG_GENCALL: General call header flag (Slave mode)
1119:../libraries/STM32F10x_StdPeriph_Driver/src/stm32f10x_i2c.c ****   *     @arg I2C_FLAG_TRA: Transmitter/Receiver flag
1120:../libraries/STM32F10x_StdPeriph_Driver/src/stm32f10x_i2c.c ****   *     @arg I2C_FLAG_BUSY: Bus busy flag
1121:../libraries/STM32F10x_StdPeriph_Driver/src/stm32f10x_i2c.c ****   *     @arg I2C_FLAG_MSL: Master/Slave flag
1122:../libraries/STM32F10x_StdPeriph_Driver/src/stm32f10x_i2c.c ****   *     @arg I2C_FLAG_SMBALERT: SMBus Alert flag
1123:../libraries/STM32F10x_StdPeriph_Driver/src/stm32f10x_i2c.c ****   *     @arg I2C_FLAG_TIMEOUT: Timeout or Tlow error flag
1124:../libraries/STM32F10x_StdPeriph_Driver/src/stm32f10x_i2c.c ****   *     @arg I2C_FLAG_PECERR: PEC error in reception flag
1125:../libraries/STM32F10x_StdPeriph_Driver/src/stm32f10x_i2c.c ****   *     @arg I2C_FLAG_OVR: Overrun/Underrun flag (Slave mode)
1126:../libraries/STM32F10x_StdPeriph_Driver/src/stm32f10x_i2c.c ****   *     @arg I2C_FLAG_AF: Acknowledge failure flag
1127:../libraries/STM32F10x_StdPeriph_Driver/src/stm32f10x_i2c.c ****   *     @arg I2C_FLAG_ARLO: Arbitration lost flag (Master mode)
1128:../libraries/STM32F10x_StdPeriph_Driver/src/stm32f10x_i2c.c ****   *     @arg I2C_FLAG_BERR: Bus error flag
1129:../libraries/STM32F10x_StdPeriph_Driver/src/stm32f10x_i2c.c ****   *     @arg I2C_FLAG_TXE: Data register empty flag (Transmitter)
1130:../libraries/STM32F10x_StdPeriph_Driver/src/stm32f10x_i2c.c ****   *     @arg I2C_FLAG_RXNE: Data register not empty (Receiver) flag
1131:../libraries/STM32F10x_StdPeriph_Driver/src/stm32f10x_i2c.c ****   *     @arg I2C_FLAG_STOPF: Stop detection flag (Slave mode)
1132:../libraries/STM32F10x_StdPeriph_Driver/src/stm32f10x_i2c.c ****   *     @arg I2C_FLAG_ADD10: 10-bit header sent flag (Master mode)
1133:../libraries/STM32F10x_StdPeriph_Driver/src/stm32f10x_i2c.c ****   *     @arg I2C_FLAG_BTF: Byte transfer finished flag
1134:../libraries/STM32F10x_StdPeriph_Driver/src/stm32f10x_i2c.c ****   *     @arg I2C_FLAG_ADDR: Address sent flag (Master mode) "ADSL"
1135:../libraries/STM32F10x_StdPeriph_Driver/src/stm32f10x_i2c.c ****   *   Address matched flag (Slave mode)"ENDA"
1136:../libraries/STM32F10x_StdPeriph_Driver/src/stm32f10x_i2c.c ****   *     @arg I2C_FLAG_SB: Start bit flag (Master mode)
1137:../libraries/STM32F10x_StdPeriph_Driver/src/stm32f10x_i2c.c ****   * @retval The new state of I2C_FLAG (SET or RESET).
1138:../libraries/STM32F10x_StdPeriph_Driver/src/stm32f10x_i2c.c ****   */
1139:../libraries/STM32F10x_StdPeriph_Driver/src/stm32f10x_i2c.c **** FlagStatus I2C_GetFlagStatus(I2C_TypeDef* I2Cx, uint32_t I2C_FLAG)
1140:../libraries/STM32F10x_StdPeriph_Driver/src/stm32f10x_i2c.c **** {
 1833              		.loc 1 1140 0
 1834              		.cfi_startproc
 1835              		@ args = 0, pretend = 0, frame = 24
 1836              		@ frame_needed = 1, uses_anonymous_args = 0
 1837              		@ link register save eliminated.
 1838 0000 80B4     		push	{r7}
 1839              	.LCFI87:
 1840              		.cfi_def_cfa_offset 4
 1841              		.cfi_offset 7, -4
 1842 0002 87B0     		sub	sp, sp, #28
 1843              	.LCFI88:
 1844              		.cfi_def_cfa_offset 32
 1845 0004 00AF     		add	r7, sp, #0
 1846              	.LCFI89:
 1847              		.cfi_def_cfa_register 7
 1848 0006 7860     		str	r0, [r7, #4]
 1849 0008 3960     		str	r1, [r7, #0]
1141:../libraries/STM32F10x_StdPeriph_Driver/src/stm32f10x_i2c.c ****   FlagStatus bitstatus = RESET;
 1850              		.loc 1 1141 0
 1851 000a 4FF00003 		mov	r3, #0
 1852 000e FB75     		strb	r3, [r7, #23]
1142:../libraries/STM32F10x_StdPeriph_Driver/src/stm32f10x_i2c.c ****   __IO uint32_t i2creg = 0, i2cxbase = 0;
 1853              		.loc 1 1142 0
 1854 0010 4FF00003 		mov	r3, #0
 1855 0014 3B61     		str	r3, [r7, #16]
 1856 0016 4FF00003 		mov	r3, #0
 1857 001a FB60     		str	r3, [r7, #12]
1143:../libraries/STM32F10x_StdPeriph_Driver/src/stm32f10x_i2c.c **** 
1144:../libraries/STM32F10x_StdPeriph_Driver/src/stm32f10x_i2c.c ****   /* Check the parameters */
1145:../libraries/STM32F10x_StdPeriph_Driver/src/stm32f10x_i2c.c ****   assert_param(IS_I2C_ALL_PERIPH(I2Cx));
1146:../libraries/STM32F10x_StdPeriph_Driver/src/stm32f10x_i2c.c ****   assert_param(IS_I2C_GET_FLAG(I2C_FLAG));
1147:../libraries/STM32F10x_StdPeriph_Driver/src/stm32f10x_i2c.c **** 
1148:../libraries/STM32F10x_StdPeriph_Driver/src/stm32f10x_i2c.c ****   /* Get the I2Cx peripheral base address */
1149:../libraries/STM32F10x_StdPeriph_Driver/src/stm32f10x_i2c.c ****   i2cxbase = (uint32_t)I2Cx;
 1858              		.loc 1 1149 0
 1859 001c 7B68     		ldr	r3, [r7, #4]
 1860 001e FB60     		str	r3, [r7, #12]
1150:../libraries/STM32F10x_StdPeriph_Driver/src/stm32f10x_i2c.c ****   
1151:../libraries/STM32F10x_StdPeriph_Driver/src/stm32f10x_i2c.c ****   /* Read flag register index */
1152:../libraries/STM32F10x_StdPeriph_Driver/src/stm32f10x_i2c.c ****   i2creg = I2C_FLAG >> 28;
 1861              		.loc 1 1152 0
 1862 0020 3B68     		ldr	r3, [r7, #0]
 1863 0022 4FEA1373 		lsr	r3, r3, #28
 1864 0026 3B61     		str	r3, [r7, #16]
1153:../libraries/STM32F10x_StdPeriph_Driver/src/stm32f10x_i2c.c ****   
1154:../libraries/STM32F10x_StdPeriph_Driver/src/stm32f10x_i2c.c ****   /* Get bit[23:0] of the flag */
1155:../libraries/STM32F10x_StdPeriph_Driver/src/stm32f10x_i2c.c ****   I2C_FLAG &= FLAG_Mask;
 1865              		.loc 1 1155 0
 1866 0028 3B68     		ldr	r3, [r7, #0]
 1867 002a 23F07F43 		bic	r3, r3, #-16777216
 1868 002e 3B60     		str	r3, [r7, #0]
1156:../libraries/STM32F10x_StdPeriph_Driver/src/stm32f10x_i2c.c ****   
1157:../libraries/STM32F10x_StdPeriph_Driver/src/stm32f10x_i2c.c ****   if(i2creg != 0)
 1869              		.loc 1 1157 0
 1870 0030 3B69     		ldr	r3, [r7, #16]
 1871 0032 002B     		cmp	r3, #0
 1872 0034 04D0     		beq	.L84
1158:../libraries/STM32F10x_StdPeriph_Driver/src/stm32f10x_i2c.c ****   {
1159:../libraries/STM32F10x_StdPeriph_Driver/src/stm32f10x_i2c.c ****     /* Get the I2Cx SR1 register address */
1160:../libraries/STM32F10x_StdPeriph_Driver/src/stm32f10x_i2c.c ****     i2cxbase += 0x14;
 1873              		.loc 1 1160 0
 1874 0036 FB68     		ldr	r3, [r7, #12]
 1875 0038 03F11403 		add	r3, r3, #20
 1876 003c FB60     		str	r3, [r7, #12]
 1877 003e 07E0     		b	.L85
 1878              	.L84:
1161:../libraries/STM32F10x_StdPeriph_Driver/src/stm32f10x_i2c.c ****   }
1162:../libraries/STM32F10x_StdPeriph_Driver/src/stm32f10x_i2c.c ****   else
1163:../libraries/STM32F10x_StdPeriph_Driver/src/stm32f10x_i2c.c ****   {
1164:../libraries/STM32F10x_StdPeriph_Driver/src/stm32f10x_i2c.c ****     /* Flag in I2Cx SR2 Register */
1165:../libraries/STM32F10x_StdPeriph_Driver/src/stm32f10x_i2c.c ****     I2C_FLAG = (uint32_t)(I2C_FLAG >> 16);
 1879              		.loc 1 1165 0
 1880 0040 3B68     		ldr	r3, [r7, #0]
 1881 0042 4FEA1343 		lsr	r3, r3, #16
 1882 0046 3B60     		str	r3, [r7, #0]
1166:../libraries/STM32F10x_StdPeriph_Driver/src/stm32f10x_i2c.c ****     /* Get the I2Cx SR2 register address */
1167:../libraries/STM32F10x_StdPeriph_Driver/src/stm32f10x_i2c.c ****     i2cxbase += 0x18;
 1883              		.loc 1 1167 0
 1884 0048 FB68     		ldr	r3, [r7, #12]
 1885 004a 03F11803 		add	r3, r3, #24
 1886 004e FB60     		str	r3, [r7, #12]
 1887              	.L85:
1168:../libraries/STM32F10x_StdPeriph_Driver/src/stm32f10x_i2c.c ****   }
1169:../libraries/STM32F10x_StdPeriph_Driver/src/stm32f10x_i2c.c ****   
1170:../libraries/STM32F10x_StdPeriph_Driver/src/stm32f10x_i2c.c ****   if(((*(__IO uint32_t *)i2cxbase) & I2C_FLAG) != (uint32_t)RESET)
 1888              		.loc 1 1170 0
 1889 0050 FB68     		ldr	r3, [r7, #12]
 1890 0052 1A68     		ldr	r2, [r3, #0]
 1891 0054 3B68     		ldr	r3, [r7, #0]
 1892 0056 1340     		ands	r3, r3, r2
 1893 0058 002B     		cmp	r3, #0
 1894 005a 03D0     		beq	.L86
1171:../libraries/STM32F10x_StdPeriph_Driver/src/stm32f10x_i2c.c ****   {
1172:../libraries/STM32F10x_StdPeriph_Driver/src/stm32f10x_i2c.c ****     /* I2C_FLAG is set */
1173:../libraries/STM32F10x_StdPeriph_Driver/src/stm32f10x_i2c.c ****     bitstatus = SET;
 1895              		.loc 1 1173 0
 1896 005c 4FF00103 		mov	r3, #1
 1897 0060 FB75     		strb	r3, [r7, #23]
 1898 0062 02E0     		b	.L87
 1899              	.L86:
1174:../libraries/STM32F10x_StdPeriph_Driver/src/stm32f10x_i2c.c ****   }
1175:../libraries/STM32F10x_StdPeriph_Driver/src/stm32f10x_i2c.c ****   else
1176:../libraries/STM32F10x_StdPeriph_Driver/src/stm32f10x_i2c.c ****   {
1177:../libraries/STM32F10x_StdPeriph_Driver/src/stm32f10x_i2c.c ****     /* I2C_FLAG is reset */
1178:../libraries/STM32F10x_StdPeriph_Driver/src/stm32f10x_i2c.c ****     bitstatus = RESET;
 1900              		.loc 1 1178 0
 1901 0064 4FF00003 		mov	r3, #0
 1902 0068 FB75     		strb	r3, [r7, #23]
 1903              	.L87:
1179:../libraries/STM32F10x_StdPeriph_Driver/src/stm32f10x_i2c.c ****   }
1180:../libraries/STM32F10x_StdPeriph_Driver/src/stm32f10x_i2c.c ****   
1181:../libraries/STM32F10x_StdPeriph_Driver/src/stm32f10x_i2c.c ****   /* Return the I2C_FLAG status */
1182:../libraries/STM32F10x_StdPeriph_Driver/src/stm32f10x_i2c.c ****   return  bitstatus;
 1904              		.loc 1 1182 0
 1905 006a FB7D     		ldrb	r3, [r7, #23]	@ zero_extendqisi2
1183:../libraries/STM32F10x_StdPeriph_Driver/src/stm32f10x_i2c.c **** }
 1906              		.loc 1 1183 0
 1907 006c 1846     		mov	r0, r3
 1908 006e 07F11C07 		add	r7, r7, #28
 1909 0072 BD46     		mov	sp, r7
 1910 0074 80BC     		pop	{r7}
 1911 0076 7047     		bx	lr
 1912              		.cfi_endproc
 1913              	.LFE85:
 1915              		.section	.text.I2C_ClearFlag,"ax",%progbits
 1916              		.align	2
 1917              		.global	I2C_ClearFlag
 1918              		.thumb
 1919              		.thumb_func
 1921              	I2C_ClearFlag:
 1922              	.LFB86:
1184:../libraries/STM32F10x_StdPeriph_Driver/src/stm32f10x_i2c.c **** 
1185:../libraries/STM32F10x_StdPeriph_Driver/src/stm32f10x_i2c.c **** 
1186:../libraries/STM32F10x_StdPeriph_Driver/src/stm32f10x_i2c.c **** 
1187:../libraries/STM32F10x_StdPeriph_Driver/src/stm32f10x_i2c.c **** /**
1188:../libraries/STM32F10x_StdPeriph_Driver/src/stm32f10x_i2c.c ****   * @brief  Clears the I2Cx's pending flags.
1189:../libraries/STM32F10x_StdPeriph_Driver/src/stm32f10x_i2c.c ****   * @param  I2Cx: where x can be 1 or 2 to select the I2C peripheral.
1190:../libraries/STM32F10x_StdPeriph_Driver/src/stm32f10x_i2c.c ****   * @param  I2C_FLAG: specifies the flag to clear. 
1191:../libraries/STM32F10x_StdPeriph_Driver/src/stm32f10x_i2c.c ****   *   This parameter can be any combination of the following values:
1192:../libraries/STM32F10x_StdPeriph_Driver/src/stm32f10x_i2c.c ****   *     @arg I2C_FLAG_SMBALERT: SMBus Alert flag
1193:../libraries/STM32F10x_StdPeriph_Driver/src/stm32f10x_i2c.c ****   *     @arg I2C_FLAG_TIMEOUT: Timeout or Tlow error flag
1194:../libraries/STM32F10x_StdPeriph_Driver/src/stm32f10x_i2c.c ****   *     @arg I2C_FLAG_PECERR: PEC error in reception flag
1195:../libraries/STM32F10x_StdPeriph_Driver/src/stm32f10x_i2c.c ****   *     @arg I2C_FLAG_OVR: Overrun/Underrun flag (Slave mode)
1196:../libraries/STM32F10x_StdPeriph_Driver/src/stm32f10x_i2c.c ****   *     @arg I2C_FLAG_AF: Acknowledge failure flag
1197:../libraries/STM32F10x_StdPeriph_Driver/src/stm32f10x_i2c.c ****   *     @arg I2C_FLAG_ARLO: Arbitration lost flag (Master mode)
1198:../libraries/STM32F10x_StdPeriph_Driver/src/stm32f10x_i2c.c ****   *     @arg I2C_FLAG_BERR: Bus error flag
1199:../libraries/STM32F10x_StdPeriph_Driver/src/stm32f10x_i2c.c ****   *   
1200:../libraries/STM32F10x_StdPeriph_Driver/src/stm32f10x_i2c.c ****   * @note
1201:../libraries/STM32F10x_StdPeriph_Driver/src/stm32f10x_i2c.c ****   *   - STOPF (STOP detection) is cleared by software sequence: a read operation 
1202:../libraries/STM32F10x_StdPeriph_Driver/src/stm32f10x_i2c.c ****   *     to I2C_SR1 register (I2C_GetFlagStatus()) followed by a write operation 
1203:../libraries/STM32F10x_StdPeriph_Driver/src/stm32f10x_i2c.c ****   *     to I2C_CR1 register (I2C_Cmd() to re-enable the I2C peripheral).
1204:../libraries/STM32F10x_StdPeriph_Driver/src/stm32f10x_i2c.c ****   *   - ADD10 (10-bit header sent) is cleared by software sequence: a read 
1205:../libraries/STM32F10x_StdPeriph_Driver/src/stm32f10x_i2c.c ****   *     operation to I2C_SR1 (I2C_GetFlagStatus()) followed by writing the 
1206:../libraries/STM32F10x_StdPeriph_Driver/src/stm32f10x_i2c.c ****   *     second byte of the address in DR register.
1207:../libraries/STM32F10x_StdPeriph_Driver/src/stm32f10x_i2c.c ****   *   - BTF (Byte Transfer Finished) is cleared by software sequence: a read 
1208:../libraries/STM32F10x_StdPeriph_Driver/src/stm32f10x_i2c.c ****   *     operation to I2C_SR1 register (I2C_GetFlagStatus()) followed by a 
1209:../libraries/STM32F10x_StdPeriph_Driver/src/stm32f10x_i2c.c ****   *     read/write to I2C_DR register (I2C_SendData()).
1210:../libraries/STM32F10x_StdPeriph_Driver/src/stm32f10x_i2c.c ****   *   - ADDR (Address sent) is cleared by software sequence: a read operation to 
1211:../libraries/STM32F10x_StdPeriph_Driver/src/stm32f10x_i2c.c ****   *     I2C_SR1 register (I2C_GetFlagStatus()) followed by a read operation to 
1212:../libraries/STM32F10x_StdPeriph_Driver/src/stm32f10x_i2c.c ****   *     I2C_SR2 register ((void)(I2Cx->SR2)).
1213:../libraries/STM32F10x_StdPeriph_Driver/src/stm32f10x_i2c.c ****   *   - SB (Start Bit) is cleared software sequence: a read operation to I2C_SR1
1214:../libraries/STM32F10x_StdPeriph_Driver/src/stm32f10x_i2c.c ****   *     register (I2C_GetFlagStatus()) followed by a write operation to I2C_DR
1215:../libraries/STM32F10x_StdPeriph_Driver/src/stm32f10x_i2c.c ****   *     register  (I2C_SendData()).
1216:../libraries/STM32F10x_StdPeriph_Driver/src/stm32f10x_i2c.c ****   * @retval None
1217:../libraries/STM32F10x_StdPeriph_Driver/src/stm32f10x_i2c.c ****   */
1218:../libraries/STM32F10x_StdPeriph_Driver/src/stm32f10x_i2c.c **** void I2C_ClearFlag(I2C_TypeDef* I2Cx, uint32_t I2C_FLAG)
1219:../libraries/STM32F10x_StdPeriph_Driver/src/stm32f10x_i2c.c **** {
 1923              		.loc 1 1219 0
 1924              		.cfi_startproc
 1925              		@ args = 0, pretend = 0, frame = 16
 1926              		@ frame_needed = 1, uses_anonymous_args = 0
 1927              		@ link register save eliminated.
 1928 0000 80B4     		push	{r7}
 1929              	.LCFI90:
 1930              		.cfi_def_cfa_offset 4
 1931              		.cfi_offset 7, -4
 1932 0002 85B0     		sub	sp, sp, #20
 1933              	.LCFI91:
 1934              		.cfi_def_cfa_offset 24
 1935 0004 00AF     		add	r7, sp, #0
 1936              	.LCFI92:
 1937              		.cfi_def_cfa_register 7
 1938 0006 7860     		str	r0, [r7, #4]
 1939 0008 3960     		str	r1, [r7, #0]
1220:../libraries/STM32F10x_StdPeriph_Driver/src/stm32f10x_i2c.c ****   uint32_t flagpos = 0;
 1940              		.loc 1 1220 0
 1941 000a 4FF00003 		mov	r3, #0
 1942 000e FB60     		str	r3, [r7, #12]
1221:../libraries/STM32F10x_StdPeriph_Driver/src/stm32f10x_i2c.c ****   /* Check the parameters */
1222:../libraries/STM32F10x_StdPeriph_Driver/src/stm32f10x_i2c.c ****   assert_param(IS_I2C_ALL_PERIPH(I2Cx));
1223:../libraries/STM32F10x_StdPeriph_Driver/src/stm32f10x_i2c.c ****   assert_param(IS_I2C_CLEAR_FLAG(I2C_FLAG));
1224:../libraries/STM32F10x_StdPeriph_Driver/src/stm32f10x_i2c.c ****   /* Get the I2C flag position */
1225:../libraries/STM32F10x_StdPeriph_Driver/src/stm32f10x_i2c.c ****   flagpos = I2C_FLAG & FLAG_Mask;
 1943              		.loc 1 1225 0
 1944 0010 3B68     		ldr	r3, [r7, #0]
 1945 0012 23F07F43 		bic	r3, r3, #-16777216
 1946 0016 FB60     		str	r3, [r7, #12]
1226:../libraries/STM32F10x_StdPeriph_Driver/src/stm32f10x_i2c.c ****   /* Clear the selected I2C flag */
1227:../libraries/STM32F10x_StdPeriph_Driver/src/stm32f10x_i2c.c ****   I2Cx->SR1 = (uint16_t)~flagpos;
 1947              		.loc 1 1227 0
 1948 0018 FB68     		ldr	r3, [r7, #12]
 1949 001a 9BB2     		uxth	r3, r3
 1950 001c 6FEA0303 		mvn	r3, r3
 1951 0020 9AB2     		uxth	r2, r3
 1952 0022 7B68     		ldr	r3, [r7, #4]
 1953 0024 9A82     		strh	r2, [r3, #20]	@ movhi
1228:../libraries/STM32F10x_StdPeriph_Driver/src/stm32f10x_i2c.c **** }
 1954              		.loc 1 1228 0
 1955 0026 07F11407 		add	r7, r7, #20
 1956 002a BD46     		mov	sp, r7
 1957 002c 80BC     		pop	{r7}
 1958 002e 7047     		bx	lr
 1959              		.cfi_endproc
 1960              	.LFE86:
 1962              		.section	.text.I2C_GetITStatus,"ax",%progbits
 1963              		.align	2
 1964              		.global	I2C_GetITStatus
 1965              		.thumb
 1966              		.thumb_func
 1968              	I2C_GetITStatus:
 1969              	.LFB87:
1229:../libraries/STM32F10x_StdPeriph_Driver/src/stm32f10x_i2c.c **** 
1230:../libraries/STM32F10x_StdPeriph_Driver/src/stm32f10x_i2c.c **** /**
1231:../libraries/STM32F10x_StdPeriph_Driver/src/stm32f10x_i2c.c ****   * @brief  Checks whether the specified I2C interrupt has occurred or not.
1232:../libraries/STM32F10x_StdPeriph_Driver/src/stm32f10x_i2c.c ****   * @param  I2Cx: where x can be 1 or 2 to select the I2C peripheral.
1233:../libraries/STM32F10x_StdPeriph_Driver/src/stm32f10x_i2c.c ****   * @param  I2C_IT: specifies the interrupt source to check. 
1234:../libraries/STM32F10x_StdPeriph_Driver/src/stm32f10x_i2c.c ****   *   This parameter can be one of the following values:
1235:../libraries/STM32F10x_StdPeriph_Driver/src/stm32f10x_i2c.c ****   *     @arg I2C_IT_SMBALERT: SMBus Alert flag
1236:../libraries/STM32F10x_StdPeriph_Driver/src/stm32f10x_i2c.c ****   *     @arg I2C_IT_TIMEOUT: Timeout or Tlow error flag
1237:../libraries/STM32F10x_StdPeriph_Driver/src/stm32f10x_i2c.c ****   *     @arg I2C_IT_PECERR: PEC error in reception flag
1238:../libraries/STM32F10x_StdPeriph_Driver/src/stm32f10x_i2c.c ****   *     @arg I2C_IT_OVR: Overrun/Underrun flag (Slave mode)
1239:../libraries/STM32F10x_StdPeriph_Driver/src/stm32f10x_i2c.c ****   *     @arg I2C_IT_AF: Acknowledge failure flag
1240:../libraries/STM32F10x_StdPeriph_Driver/src/stm32f10x_i2c.c ****   *     @arg I2C_IT_ARLO: Arbitration lost flag (Master mode)
1241:../libraries/STM32F10x_StdPeriph_Driver/src/stm32f10x_i2c.c ****   *     @arg I2C_IT_BERR: Bus error flag
1242:../libraries/STM32F10x_StdPeriph_Driver/src/stm32f10x_i2c.c ****   *     @arg I2C_IT_TXE: Data register empty flag (Transmitter)
1243:../libraries/STM32F10x_StdPeriph_Driver/src/stm32f10x_i2c.c ****   *     @arg I2C_IT_RXNE: Data register not empty (Receiver) flag
1244:../libraries/STM32F10x_StdPeriph_Driver/src/stm32f10x_i2c.c ****   *     @arg I2C_IT_STOPF: Stop detection flag (Slave mode)
1245:../libraries/STM32F10x_StdPeriph_Driver/src/stm32f10x_i2c.c ****   *     @arg I2C_IT_ADD10: 10-bit header sent flag (Master mode)
1246:../libraries/STM32F10x_StdPeriph_Driver/src/stm32f10x_i2c.c ****   *     @arg I2C_IT_BTF: Byte transfer finished flag
1247:../libraries/STM32F10x_StdPeriph_Driver/src/stm32f10x_i2c.c ****   *     @arg I2C_IT_ADDR: Address sent flag (Master mode) "ADSL"
1248:../libraries/STM32F10x_StdPeriph_Driver/src/stm32f10x_i2c.c ****   *                       Address matched flag (Slave mode)"ENDAD"
1249:../libraries/STM32F10x_StdPeriph_Driver/src/stm32f10x_i2c.c ****   *     @arg I2C_IT_SB: Start bit flag (Master mode)
1250:../libraries/STM32F10x_StdPeriph_Driver/src/stm32f10x_i2c.c ****   * @retval The new state of I2C_IT (SET or RESET).
1251:../libraries/STM32F10x_StdPeriph_Driver/src/stm32f10x_i2c.c ****   */
1252:../libraries/STM32F10x_StdPeriph_Driver/src/stm32f10x_i2c.c **** ITStatus I2C_GetITStatus(I2C_TypeDef* I2Cx, uint32_t I2C_IT)
1253:../libraries/STM32F10x_StdPeriph_Driver/src/stm32f10x_i2c.c **** {
 1970              		.loc 1 1253 0
 1971              		.cfi_startproc
 1972              		@ args = 0, pretend = 0, frame = 16
 1973              		@ frame_needed = 1, uses_anonymous_args = 0
 1974              		@ link register save eliminated.
 1975 0000 80B4     		push	{r7}
 1976              	.LCFI93:
 1977              		.cfi_def_cfa_offset 4
 1978              		.cfi_offset 7, -4
 1979 0002 85B0     		sub	sp, sp, #20
 1980              	.LCFI94:
 1981              		.cfi_def_cfa_offset 24
 1982 0004 00AF     		add	r7, sp, #0
 1983              	.LCFI95:
 1984              		.cfi_def_cfa_register 7
 1985 0006 7860     		str	r0, [r7, #4]
 1986 0008 3960     		str	r1, [r7, #0]
1254:../libraries/STM32F10x_StdPeriph_Driver/src/stm32f10x_i2c.c ****   ITStatus bitstatus = RESET;
 1987              		.loc 1 1254 0
 1988 000a 4FF00003 		mov	r3, #0
 1989 000e FB73     		strb	r3, [r7, #15]
1255:../libraries/STM32F10x_StdPeriph_Driver/src/stm32f10x_i2c.c ****   uint32_t enablestatus = 0;
 1990              		.loc 1 1255 0
 1991 0010 4FF00003 		mov	r3, #0
 1992 0014 BB60     		str	r3, [r7, #8]
1256:../libraries/STM32F10x_StdPeriph_Driver/src/stm32f10x_i2c.c **** 
1257:../libraries/STM32F10x_StdPeriph_Driver/src/stm32f10x_i2c.c ****   /* Check the parameters */
1258:../libraries/STM32F10x_StdPeriph_Driver/src/stm32f10x_i2c.c ****   assert_param(IS_I2C_ALL_PERIPH(I2Cx));
1259:../libraries/STM32F10x_StdPeriph_Driver/src/stm32f10x_i2c.c ****   assert_param(IS_I2C_GET_IT(I2C_IT));
1260:../libraries/STM32F10x_StdPeriph_Driver/src/stm32f10x_i2c.c **** 
1261:../libraries/STM32F10x_StdPeriph_Driver/src/stm32f10x_i2c.c ****   /* Check if the interrupt source is enabled or not */
1262:../libraries/STM32F10x_StdPeriph_Driver/src/stm32f10x_i2c.c ****   enablestatus = (uint32_t)(((I2C_IT & ITEN_Mask) >> 16) & (I2Cx->CR2)) ;
 1993              		.loc 1 1262 0
 1994 0016 3B68     		ldr	r3, [r7, #0]
 1995 0018 03F0E063 		and	r3, r3, #117440512
 1996 001c 4FEA1342 		lsr	r2, r3, #16
 1997 0020 7B68     		ldr	r3, [r7, #4]
 1998 0022 9B88     		ldrh	r3, [r3, #4]	@ movhi
 1999 0024 9BB2     		uxth	r3, r3
 2000 0026 1340     		ands	r3, r3, r2
 2001 0028 BB60     		str	r3, [r7, #8]
1263:../libraries/STM32F10x_StdPeriph_Driver/src/stm32f10x_i2c.c ****   
1264:../libraries/STM32F10x_StdPeriph_Driver/src/stm32f10x_i2c.c ****   /* Get bit[23:0] of the flag */
1265:../libraries/STM32F10x_StdPeriph_Driver/src/stm32f10x_i2c.c ****   I2C_IT &= FLAG_Mask;
 2002              		.loc 1 1265 0
 2003 002a 3B68     		ldr	r3, [r7, #0]
 2004 002c 23F07F43 		bic	r3, r3, #-16777216
 2005 0030 3B60     		str	r3, [r7, #0]
1266:../libraries/STM32F10x_StdPeriph_Driver/src/stm32f10x_i2c.c **** 
1267:../libraries/STM32F10x_StdPeriph_Driver/src/stm32f10x_i2c.c ****   /* Check the status of the specified I2C flag */
1268:../libraries/STM32F10x_StdPeriph_Driver/src/stm32f10x_i2c.c ****   if (((I2Cx->SR1 & I2C_IT) != (uint32_t)RESET) && enablestatus)
 2006              		.loc 1 1268 0
 2007 0032 7B68     		ldr	r3, [r7, #4]
 2008 0034 9B8A     		ldrh	r3, [r3, #20]	@ movhi
 2009 0036 9BB2     		uxth	r3, r3
 2010 0038 1A46     		mov	r2, r3
 2011 003a 3B68     		ldr	r3, [r7, #0]
 2012 003c 1340     		ands	r3, r3, r2
 2013 003e 002B     		cmp	r3, #0
 2014 0040 06D0     		beq	.L91
 2015              		.loc 1 1268 0 is_stmt 0 discriminator 1
 2016 0042 BB68     		ldr	r3, [r7, #8]
 2017 0044 002B     		cmp	r3, #0
 2018 0046 03D0     		beq	.L91
1269:../libraries/STM32F10x_StdPeriph_Driver/src/stm32f10x_i2c.c ****   {
1270:../libraries/STM32F10x_StdPeriph_Driver/src/stm32f10x_i2c.c ****     /* I2C_IT is set */
1271:../libraries/STM32F10x_StdPeriph_Driver/src/stm32f10x_i2c.c ****     bitstatus = SET;
 2019              		.loc 1 1271 0 is_stmt 1
 2020 0048 4FF00103 		mov	r3, #1
 2021 004c FB73     		strb	r3, [r7, #15]
 2022 004e 02E0     		b	.L92
 2023              	.L91:
1272:../libraries/STM32F10x_StdPeriph_Driver/src/stm32f10x_i2c.c ****   }
1273:../libraries/STM32F10x_StdPeriph_Driver/src/stm32f10x_i2c.c ****   else
1274:../libraries/STM32F10x_StdPeriph_Driver/src/stm32f10x_i2c.c ****   {
1275:../libraries/STM32F10x_StdPeriph_Driver/src/stm32f10x_i2c.c ****     /* I2C_IT is reset */
1276:../libraries/STM32F10x_StdPeriph_Driver/src/stm32f10x_i2c.c ****     bitstatus = RESET;
 2024              		.loc 1 1276 0
 2025 0050 4FF00003 		mov	r3, #0
 2026 0054 FB73     		strb	r3, [r7, #15]
 2027              	.L92:
1277:../libraries/STM32F10x_StdPeriph_Driver/src/stm32f10x_i2c.c ****   }
1278:../libraries/STM32F10x_StdPeriph_Driver/src/stm32f10x_i2c.c ****   /* Return the I2C_IT status */
1279:../libraries/STM32F10x_StdPeriph_Driver/src/stm32f10x_i2c.c ****   return  bitstatus;
 2028              		.loc 1 1279 0
 2029 0056 FB7B     		ldrb	r3, [r7, #15]	@ zero_extendqisi2
1280:../libraries/STM32F10x_StdPeriph_Driver/src/stm32f10x_i2c.c **** }
 2030              		.loc 1 1280 0
 2031 0058 1846     		mov	r0, r3
 2032 005a 07F11407 		add	r7, r7, #20
 2033 005e BD46     		mov	sp, r7
 2034 0060 80BC     		pop	{r7}
 2035 0062 7047     		bx	lr
 2036              		.cfi_endproc
 2037              	.LFE87:
 2039              		.section	.text.I2C_ClearITPendingBit,"ax",%progbits
 2040              		.align	2
 2041              		.global	I2C_ClearITPendingBit
 2042              		.thumb
 2043              		.thumb_func
 2045              	I2C_ClearITPendingBit:
 2046              	.LFB88:
1281:../libraries/STM32F10x_StdPeriph_Driver/src/stm32f10x_i2c.c **** 
1282:../libraries/STM32F10x_StdPeriph_Driver/src/stm32f10x_i2c.c **** /**
1283:../libraries/STM32F10x_StdPeriph_Driver/src/stm32f10x_i2c.c ****   * @brief  Clears the I2Cxs interrupt pending bits.
1284:../libraries/STM32F10x_StdPeriph_Driver/src/stm32f10x_i2c.c ****   * @param  I2Cx: where x can be 1 or 2 to select the I2C peripheral.
1285:../libraries/STM32F10x_StdPeriph_Driver/src/stm32f10x_i2c.c ****   * @param  I2C_IT: specifies the interrupt pending bit to clear. 
1286:../libraries/STM32F10x_StdPeriph_Driver/src/stm32f10x_i2c.c ****   *   This parameter can be any combination of the following values:
1287:../libraries/STM32F10x_StdPeriph_Driver/src/stm32f10x_i2c.c ****   *     @arg I2C_IT_SMBALERT: SMBus Alert interrupt
1288:../libraries/STM32F10x_StdPeriph_Driver/src/stm32f10x_i2c.c ****   *     @arg I2C_IT_TIMEOUT: Timeout or Tlow error interrupt
1289:../libraries/STM32F10x_StdPeriph_Driver/src/stm32f10x_i2c.c ****   *     @arg I2C_IT_PECERR: PEC error in reception  interrupt
1290:../libraries/STM32F10x_StdPeriph_Driver/src/stm32f10x_i2c.c ****   *     @arg I2C_IT_OVR: Overrun/Underrun interrupt (Slave mode)
1291:../libraries/STM32F10x_StdPeriph_Driver/src/stm32f10x_i2c.c ****   *     @arg I2C_IT_AF: Acknowledge failure interrupt
1292:../libraries/STM32F10x_StdPeriph_Driver/src/stm32f10x_i2c.c ****   *     @arg I2C_IT_ARLO: Arbitration lost interrupt (Master mode)
1293:../libraries/STM32F10x_StdPeriph_Driver/src/stm32f10x_i2c.c ****   *     @arg I2C_IT_BERR: Bus error interrupt
1294:../libraries/STM32F10x_StdPeriph_Driver/src/stm32f10x_i2c.c ****   *   
1295:../libraries/STM32F10x_StdPeriph_Driver/src/stm32f10x_i2c.c ****   * @note
1296:../libraries/STM32F10x_StdPeriph_Driver/src/stm32f10x_i2c.c ****   *   - STOPF (STOP detection) is cleared by software sequence: a read operation 
1297:../libraries/STM32F10x_StdPeriph_Driver/src/stm32f10x_i2c.c ****   *     to I2C_SR1 register (I2C_GetITStatus()) followed by a write operation to 
1298:../libraries/STM32F10x_StdPeriph_Driver/src/stm32f10x_i2c.c ****   *     I2C_CR1 register (I2C_Cmd() to re-enable the I2C peripheral).
1299:../libraries/STM32F10x_StdPeriph_Driver/src/stm32f10x_i2c.c ****   *   - ADD10 (10-bit header sent) is cleared by software sequence: a read 
1300:../libraries/STM32F10x_StdPeriph_Driver/src/stm32f10x_i2c.c ****   *     operation to I2C_SR1 (I2C_GetITStatus()) followed by writing the second 
1301:../libraries/STM32F10x_StdPeriph_Driver/src/stm32f10x_i2c.c ****   *     byte of the address in I2C_DR register.
1302:../libraries/STM32F10x_StdPeriph_Driver/src/stm32f10x_i2c.c ****   *   - BTF (Byte Transfer Finished) is cleared by software sequence: a read 
1303:../libraries/STM32F10x_StdPeriph_Driver/src/stm32f10x_i2c.c ****   *     operation to I2C_SR1 register (I2C_GetITStatus()) followed by a 
1304:../libraries/STM32F10x_StdPeriph_Driver/src/stm32f10x_i2c.c ****   *     read/write to I2C_DR register (I2C_SendData()).
1305:../libraries/STM32F10x_StdPeriph_Driver/src/stm32f10x_i2c.c ****   *   - ADDR (Address sent) is cleared by software sequence: a read operation to 
1306:../libraries/STM32F10x_StdPeriph_Driver/src/stm32f10x_i2c.c ****   *     I2C_SR1 register (I2C_GetITStatus()) followed by a read operation to 
1307:../libraries/STM32F10x_StdPeriph_Driver/src/stm32f10x_i2c.c ****   *     I2C_SR2 register ((void)(I2Cx->SR2)).
1308:../libraries/STM32F10x_StdPeriph_Driver/src/stm32f10x_i2c.c ****   *   - SB (Start Bit) is cleared by software sequence: a read operation to 
1309:../libraries/STM32F10x_StdPeriph_Driver/src/stm32f10x_i2c.c ****   *     I2C_SR1 register (I2C_GetITStatus()) followed by a write operation to 
1310:../libraries/STM32F10x_StdPeriph_Driver/src/stm32f10x_i2c.c ****   *     I2C_DR register (I2C_SendData()).
1311:../libraries/STM32F10x_StdPeriph_Driver/src/stm32f10x_i2c.c ****   * @retval None
1312:../libraries/STM32F10x_StdPeriph_Driver/src/stm32f10x_i2c.c ****   */
1313:../libraries/STM32F10x_StdPeriph_Driver/src/stm32f10x_i2c.c **** void I2C_ClearITPendingBit(I2C_TypeDef* I2Cx, uint32_t I2C_IT)
1314:../libraries/STM32F10x_StdPeriph_Driver/src/stm32f10x_i2c.c **** {
 2047              		.loc 1 1314 0
 2048              		.cfi_startproc
 2049              		@ args = 0, pretend = 0, frame = 16
 2050              		@ frame_needed = 1, uses_anonymous_args = 0
 2051              		@ link register save eliminated.
 2052 0000 80B4     		push	{r7}
 2053              	.LCFI96:
 2054              		.cfi_def_cfa_offset 4
 2055              		.cfi_offset 7, -4
 2056 0002 85B0     		sub	sp, sp, #20
 2057              	.LCFI97:
 2058              		.cfi_def_cfa_offset 24
 2059 0004 00AF     		add	r7, sp, #0
 2060              	.LCFI98:
 2061              		.cfi_def_cfa_register 7
 2062 0006 7860     		str	r0, [r7, #4]
 2063 0008 3960     		str	r1, [r7, #0]
1315:../libraries/STM32F10x_StdPeriph_Driver/src/stm32f10x_i2c.c ****   uint32_t flagpos = 0;
 2064              		.loc 1 1315 0
 2065 000a 4FF00003 		mov	r3, #0
 2066 000e FB60     		str	r3, [r7, #12]
1316:../libraries/STM32F10x_StdPeriph_Driver/src/stm32f10x_i2c.c ****   /* Check the parameters */
1317:../libraries/STM32F10x_StdPeriph_Driver/src/stm32f10x_i2c.c ****   assert_param(IS_I2C_ALL_PERIPH(I2Cx));
1318:../libraries/STM32F10x_StdPeriph_Driver/src/stm32f10x_i2c.c ****   assert_param(IS_I2C_CLEAR_IT(I2C_IT));
1319:../libraries/STM32F10x_StdPeriph_Driver/src/stm32f10x_i2c.c ****   /* Get the I2C flag position */
1320:../libraries/STM32F10x_StdPeriph_Driver/src/stm32f10x_i2c.c ****   flagpos = I2C_IT & FLAG_Mask;
 2067              		.loc 1 1320 0
 2068 0010 3B68     		ldr	r3, [r7, #0]
 2069 0012 23F07F43 		bic	r3, r3, #-16777216
 2070 0016 FB60     		str	r3, [r7, #12]
1321:../libraries/STM32F10x_StdPeriph_Driver/src/stm32f10x_i2c.c ****   /* Clear the selected I2C flag */
1322:../libraries/STM32F10x_StdPeriph_Driver/src/stm32f10x_i2c.c ****   I2Cx->SR1 = (uint16_t)~flagpos;
 2071              		.loc 1 1322 0
 2072 0018 FB68     		ldr	r3, [r7, #12]
 2073 001a 9BB2     		uxth	r3, r3
 2074 001c 6FEA0303 		mvn	r3, r3
 2075 0020 9AB2     		uxth	r2, r3
 2076 0022 7B68     		ldr	r3, [r7, #4]
 2077 0024 9A82     		strh	r2, [r3, #20]	@ movhi
1323:../libraries/STM32F10x_StdPeriph_Driver/src/stm32f10x_i2c.c **** }
 2078              		.loc 1 1323 0
 2079 0026 07F11407 		add	r7, r7, #20
 2080 002a BD46     		mov	sp, r7
 2081 002c 80BC     		pop	{r7}
 2082 002e 7047     		bx	lr
 2083              		.cfi_endproc
 2084              	.LFE88:
 2086              		.text
 2087              	.Letext0:
 2088              		.file 2 "/usr/local/gcc-arm-none-eabi-4_7-2013q1/bin/../lib/gcc/arm-none-eabi/4.7.3/../../../../ar
 2089              		.file 3 "/Users/zac/code/spark/marvin/libraries/CMSIS/Device/ST/STM32F10x/Include/stm32f10x.h"
 2090              		.file 4 "/Users/zac/code/spark/marvin/libraries/STM32F10x_StdPeriph_Driver/inc/stm32f10x_rcc.h"
 2091              		.file 5 "/Users/zac/code/spark/marvin/libraries/STM32F10x_StdPeriph_Driver/inc/stm32f10x_i2c.h"
 2092              		.file 6 "/Users/zac/code/spark/marvin/libraries/CMSIS/Include/core_cm3.h"
DEFINED SYMBOLS
                            *ABS*:0000000000000000 stm32f10x_i2c.c
/var/folders/d1/846xqcps64v4wybnmd7kk8540000gn/T//ccRsTp3q.s:19     .text.I2C_DeInit:0000000000000000 $t
/var/folders/d1/846xqcps64v4wybnmd7kk8540000gn/T//ccRsTp3q.s:24     .text.I2C_DeInit:0000000000000000 I2C_DeInit
/var/folders/d1/846xqcps64v4wybnmd7kk8540000gn/T//ccRsTp3q.s:76     .text.I2C_Init:0000000000000000 $t
/var/folders/d1/846xqcps64v4wybnmd7kk8540000gn/T//ccRsTp3q.s:81     .text.I2C_Init:0000000000000000 I2C_Init
/var/folders/d1/846xqcps64v4wybnmd7kk8540000gn/T//ccRsTp3q.s:309    .text.I2C_StructInit:0000000000000000 $t
/var/folders/d1/846xqcps64v4wybnmd7kk8540000gn/T//ccRsTp3q.s:314    .text.I2C_StructInit:0000000000000000 I2C_StructInit
/var/folders/d1/846xqcps64v4wybnmd7kk8540000gn/T//ccRsTp3q.s:365    .text.I2C_Cmd:0000000000000000 $t
/var/folders/d1/846xqcps64v4wybnmd7kk8540000gn/T//ccRsTp3q.s:370    .text.I2C_Cmd:0000000000000000 I2C_Cmd
/var/folders/d1/846xqcps64v4wybnmd7kk8540000gn/T//ccRsTp3q.s:422    .text.I2C_DMACmd:0000000000000000 $t
/var/folders/d1/846xqcps64v4wybnmd7kk8540000gn/T//ccRsTp3q.s:427    .text.I2C_DMACmd:0000000000000000 I2C_DMACmd
/var/folders/d1/846xqcps64v4wybnmd7kk8540000gn/T//ccRsTp3q.s:479    .text.I2C_DMALastTransferCmd:0000000000000000 $t
/var/folders/d1/846xqcps64v4wybnmd7kk8540000gn/T//ccRsTp3q.s:484    .text.I2C_DMALastTransferCmd:0000000000000000 I2C_DMALastTransferCmd
/var/folders/d1/846xqcps64v4wybnmd7kk8540000gn/T//ccRsTp3q.s:536    .text.I2C_GenerateSTART:0000000000000000 $t
/var/folders/d1/846xqcps64v4wybnmd7kk8540000gn/T//ccRsTp3q.s:541    .text.I2C_GenerateSTART:0000000000000000 I2C_GenerateSTART
/var/folders/d1/846xqcps64v4wybnmd7kk8540000gn/T//ccRsTp3q.s:593    .text.I2C_GenerateSTOP:0000000000000000 $t
/var/folders/d1/846xqcps64v4wybnmd7kk8540000gn/T//ccRsTp3q.s:598    .text.I2C_GenerateSTOP:0000000000000000 I2C_GenerateSTOP
/var/folders/d1/846xqcps64v4wybnmd7kk8540000gn/T//ccRsTp3q.s:650    .text.I2C_AcknowledgeConfig:0000000000000000 $t
/var/folders/d1/846xqcps64v4wybnmd7kk8540000gn/T//ccRsTp3q.s:655    .text.I2C_AcknowledgeConfig:0000000000000000 I2C_AcknowledgeConfig
/var/folders/d1/846xqcps64v4wybnmd7kk8540000gn/T//ccRsTp3q.s:707    .text.I2C_OwnAddress2Config:0000000000000000 $t
/var/folders/d1/846xqcps64v4wybnmd7kk8540000gn/T//ccRsTp3q.s:712    .text.I2C_OwnAddress2Config:0000000000000000 I2C_OwnAddress2Config
/var/folders/d1/846xqcps64v4wybnmd7kk8540000gn/T//ccRsTp3q.s:765    .text.I2C_DualAddressCmd:0000000000000000 $t
/var/folders/d1/846xqcps64v4wybnmd7kk8540000gn/T//ccRsTp3q.s:770    .text.I2C_DualAddressCmd:0000000000000000 I2C_DualAddressCmd
/var/folders/d1/846xqcps64v4wybnmd7kk8540000gn/T//ccRsTp3q.s:822    .text.I2C_GeneralCallCmd:0000000000000000 $t
/var/folders/d1/846xqcps64v4wybnmd7kk8540000gn/T//ccRsTp3q.s:827    .text.I2C_GeneralCallCmd:0000000000000000 I2C_GeneralCallCmd
/var/folders/d1/846xqcps64v4wybnmd7kk8540000gn/T//ccRsTp3q.s:879    .text.I2C_ITConfig:0000000000000000 $t
/var/folders/d1/846xqcps64v4wybnmd7kk8540000gn/T//ccRsTp3q.s:884    .text.I2C_ITConfig:0000000000000000 I2C_ITConfig
/var/folders/d1/846xqcps64v4wybnmd7kk8540000gn/T//ccRsTp3q.s:942    .text.I2C_SendData:0000000000000000 $t
/var/folders/d1/846xqcps64v4wybnmd7kk8540000gn/T//ccRsTp3q.s:947    .text.I2C_SendData:0000000000000000 I2C_SendData
/var/folders/d1/846xqcps64v4wybnmd7kk8540000gn/T//ccRsTp3q.s:981    .text.I2C_ReceiveData:0000000000000000 $t
/var/folders/d1/846xqcps64v4wybnmd7kk8540000gn/T//ccRsTp3q.s:986    .text.I2C_ReceiveData:0000000000000000 I2C_ReceiveData
/var/folders/d1/846xqcps64v4wybnmd7kk8540000gn/T//ccRsTp3q.s:1019   .text.I2C_Send7bitAddress:0000000000000000 $t
/var/folders/d1/846xqcps64v4wybnmd7kk8540000gn/T//ccRsTp3q.s:1024   .text.I2C_Send7bitAddress:0000000000000000 I2C_Send7bitAddress
/var/folders/d1/846xqcps64v4wybnmd7kk8540000gn/T//ccRsTp3q.s:1075   .text.I2C_ReadRegister:0000000000000000 $t
/var/folders/d1/846xqcps64v4wybnmd7kk8540000gn/T//ccRsTp3q.s:1080   .text.I2C_ReadRegister:0000000000000000 I2C_ReadRegister
/var/folders/d1/846xqcps64v4wybnmd7kk8540000gn/T//ccRsTp3q.s:1125   .text.I2C_SoftwareResetCmd:0000000000000000 $t
/var/folders/d1/846xqcps64v4wybnmd7kk8540000gn/T//ccRsTp3q.s:1130   .text.I2C_SoftwareResetCmd:0000000000000000 I2C_SoftwareResetCmd
/var/folders/d1/846xqcps64v4wybnmd7kk8540000gn/T//ccRsTp3q.s:1184   .text.I2C_NACKPositionConfig:0000000000000000 $t
/var/folders/d1/846xqcps64v4wybnmd7kk8540000gn/T//ccRsTp3q.s:1189   .text.I2C_NACKPositionConfig:0000000000000000 I2C_NACKPositionConfig
/var/folders/d1/846xqcps64v4wybnmd7kk8540000gn/T//ccRsTp3q.s:1241   .text.I2C_SMBusAlertConfig:0000000000000000 $t
/var/folders/d1/846xqcps64v4wybnmd7kk8540000gn/T//ccRsTp3q.s:1246   .text.I2C_SMBusAlertConfig:0000000000000000 I2C_SMBusAlertConfig
/var/folders/d1/846xqcps64v4wybnmd7kk8540000gn/T//ccRsTp3q.s:1298   .text.I2C_TransmitPEC:0000000000000000 $t
/var/folders/d1/846xqcps64v4wybnmd7kk8540000gn/T//ccRsTp3q.s:1303   .text.I2C_TransmitPEC:0000000000000000 I2C_TransmitPEC
/var/folders/d1/846xqcps64v4wybnmd7kk8540000gn/T//ccRsTp3q.s:1355   .text.I2C_PECPositionConfig:0000000000000000 $t
/var/folders/d1/846xqcps64v4wybnmd7kk8540000gn/T//ccRsTp3q.s:1360   .text.I2C_PECPositionConfig:0000000000000000 I2C_PECPositionConfig
/var/folders/d1/846xqcps64v4wybnmd7kk8540000gn/T//ccRsTp3q.s:1412   .text.I2C_CalculatePEC:0000000000000000 $t
/var/folders/d1/846xqcps64v4wybnmd7kk8540000gn/T//ccRsTp3q.s:1417   .text.I2C_CalculatePEC:0000000000000000 I2C_CalculatePEC
/var/folders/d1/846xqcps64v4wybnmd7kk8540000gn/T//ccRsTp3q.s:1469   .text.I2C_GetPEC:0000000000000000 $t
/var/folders/d1/846xqcps64v4wybnmd7kk8540000gn/T//ccRsTp3q.s:1474   .text.I2C_GetPEC:0000000000000000 I2C_GetPEC
/var/folders/d1/846xqcps64v4wybnmd7kk8540000gn/T//ccRsTp3q.s:1509   .text.I2C_ARPCmd:0000000000000000 $t
/var/folders/d1/846xqcps64v4wybnmd7kk8540000gn/T//ccRsTp3q.s:1514   .text.I2C_ARPCmd:0000000000000000 I2C_ARPCmd
/var/folders/d1/846xqcps64v4wybnmd7kk8540000gn/T//ccRsTp3q.s:1566   .text.I2C_StretchClockCmd:0000000000000000 $t
/var/folders/d1/846xqcps64v4wybnmd7kk8540000gn/T//ccRsTp3q.s:1571   .text.I2C_StretchClockCmd:0000000000000000 I2C_StretchClockCmd
/var/folders/d1/846xqcps64v4wybnmd7kk8540000gn/T//ccRsTp3q.s:1623   .text.I2C_FastModeDutyCycleConfig:0000000000000000 $t
/var/folders/d1/846xqcps64v4wybnmd7kk8540000gn/T//ccRsTp3q.s:1628   .text.I2C_FastModeDutyCycleConfig:0000000000000000 I2C_FastModeDutyCycleConfig
/var/folders/d1/846xqcps64v4wybnmd7kk8540000gn/T//ccRsTp3q.s:1680   .text.I2C_CheckEvent:0000000000000000 $t
/var/folders/d1/846xqcps64v4wybnmd7kk8540000gn/T//ccRsTp3q.s:1685   .text.I2C_CheckEvent:0000000000000000 I2C_CheckEvent
/var/folders/d1/846xqcps64v4wybnmd7kk8540000gn/T//ccRsTp3q.s:1763   .text.I2C_GetLastEvent:0000000000000000 $t
/var/folders/d1/846xqcps64v4wybnmd7kk8540000gn/T//ccRsTp3q.s:1768   .text.I2C_GetLastEvent:0000000000000000 I2C_GetLastEvent
/var/folders/d1/846xqcps64v4wybnmd7kk8540000gn/T//ccRsTp3q.s:1826   .text.I2C_GetFlagStatus:0000000000000000 $t
/var/folders/d1/846xqcps64v4wybnmd7kk8540000gn/T//ccRsTp3q.s:1831   .text.I2C_GetFlagStatus:0000000000000000 I2C_GetFlagStatus
/var/folders/d1/846xqcps64v4wybnmd7kk8540000gn/T//ccRsTp3q.s:1916   .text.I2C_ClearFlag:0000000000000000 $t
/var/folders/d1/846xqcps64v4wybnmd7kk8540000gn/T//ccRsTp3q.s:1921   .text.I2C_ClearFlag:0000000000000000 I2C_ClearFlag
/var/folders/d1/846xqcps64v4wybnmd7kk8540000gn/T//ccRsTp3q.s:1963   .text.I2C_GetITStatus:0000000000000000 $t
/var/folders/d1/846xqcps64v4wybnmd7kk8540000gn/T//ccRsTp3q.s:1968   .text.I2C_GetITStatus:0000000000000000 I2C_GetITStatus
/var/folders/d1/846xqcps64v4wybnmd7kk8540000gn/T//ccRsTp3q.s:2040   .text.I2C_ClearITPendingBit:0000000000000000 $t
/var/folders/d1/846xqcps64v4wybnmd7kk8540000gn/T//ccRsTp3q.s:2045   .text.I2C_ClearITPendingBit:0000000000000000 I2C_ClearITPendingBit
                     .debug_frame:0000000000000010 $d
                           .group:0000000000000000 wm4.1.8991b0b359e9e91a82acb66692cb6642
                           .group:0000000000000000 wm4.stm32f10x.h.57.69ab29c83f735418a543aa508b559235
                           .group:0000000000000000 wm4.core_cm3.h.32.8e21fbd14bb96c2b40e026c4d2c8fe1f
                           .group:0000000000000000 wm4.newlib.h.8.a9901dc52d1357e3e94003403d43f8b5
                           .group:0000000000000000 wm4.features.h.22.b72b3baab2bb2eab3661375590100b6b
                           .group:0000000000000000 wm4.config.h.193.5fb8ef056cdff92dec3dee9552839d8c
                           .group:0000000000000000 wm4._ansi.h.23.b5bb84d7ba97d82b5b1dc1826a7ae811
                           .group:0000000000000000 wm4.stdint.h.20.54ad762faa59e3c05491630641c8d8bf
                           .group:0000000000000000 wm4.core_cmInstr.h.25.d8165482ef3061013a2fc83e2d85f3d9
                           .group:0000000000000000 wm4.core_cm3.h.129.e08b7204181ea22e6a9fa84cb9ad0924
                           .group:0000000000000000 wm4.stm32f10x.h.532.91bd57525f6c583f00129a351847d405
                           .group:0000000000000000 wm4.stm32f10x_adc.h.89.9f2b285fa0070185d48a05b61a05798c
                           .group:0000000000000000 wm4.stm32f10x_bkp.h.31.74a586c036c8ee5d9205c6728cc8d6ab
                           .group:0000000000000000 wm4.stm32f10x_dma.h.31.ef16218235edc52b414c0353f44b4bf0
                           .group:0000000000000000 wm4.stm32f10x_exti.h.31.b25bcb4f1a2daad39d2d7dfa4e901646
                           .group:0000000000000000 wm4.stm32f10x_flash.h.31.0203bc95b65c5396b67991e07a675efb
                           .group:0000000000000000 wm4.stm32f10x_gpio.h.31.0a32659dbac1fc1055c7cbdc248963be
                           .group:0000000000000000 wm4.stm32f10x_pwr.h.31.9168b6921e0cf03b467c7ed90861c701
                           .group:0000000000000000 wm4.stm32f10x_rcc.h.31.2ee3219a25ef4ced658f2fe9d8cd94aa
                           .group:0000000000000000 wm4.stm32f10x_rtc.h.31.00ba78fc0dbb06b6e6783a1e7fccf5a0
                           .group:0000000000000000 wm4.stm32f10x_spi.h.31.d2f6e4626887cabe8c98f3a185590a36
                           .group:0000000000000000 wm4.stm32f10x_tim.h.31.6c06f7f26e0864f9cd59597f46ca2c7c
                           .group:0000000000000000 wm4.stm32f10x_usart.h.31.28d75d6af05cefbbfa00cf30a7c8a335
                           .group:0000000000000000 wm4.misc.h.31.a89fba2040036f6f8c835a78a213e0cd
                           .group:0000000000000000 wm4.stm32f10x.h.8356.9fd2fa84655112ac7dfc5c88beeb383d
                           .group:0000000000000000 wm4.stm32f10x_i2c.h.86.f453153d810c3f3b14238fd9616dd51f

UNDEFINED SYMBOLS
RCC_APB1PeriphResetCmd
RCC_GetClocksFreq
