   1              		.syntax unified
   2              		.cpu cortex-m3
   3              		.fpu softvfp
   4              		.eabi_attribute 20, 1
   5              		.eabi_attribute 21, 1
   6              		.eabi_attribute 23, 3
   7              		.eabi_attribute 24, 1
   8              		.eabi_attribute 25, 1
   9              		.eabi_attribute 26, 1
  10              		.eabi_attribute 30, 4
  11              		.eabi_attribute 34, 1
  12              		.eabi_attribute 18, 4
  13              		.thumb
  14              		.file	"stm32f10x_i2c.c"
  15              		.text
  16              	.Ltext0:
  17              		.cfi_sections	.debug_frame
  18              		.section	.text.I2C_DeInit,"ax",%progbits
  19              		.align	1
  20              		.global	I2C_DeInit
  21              		.thumb
  22              		.thumb_func
  24              	I2C_DeInit:
  25              	.LFB56:
  26              		.file 1 "../libraries/STM32F10x_StdPeriph_Driver/src/stm32f10x_i2c.c"
   1:../libraries/STM32F10x_StdPeriph_Driver/src/stm32f10x_i2c.c **** /**
   2:../libraries/STM32F10x_StdPeriph_Driver/src/stm32f10x_i2c.c ****   ******************************************************************************
   3:../libraries/STM32F10x_StdPeriph_Driver/src/stm32f10x_i2c.c ****   * @file    stm32f10x_i2c.c
   4:../libraries/STM32F10x_StdPeriph_Driver/src/stm32f10x_i2c.c ****   * @author  MCD Application Team
   5:../libraries/STM32F10x_StdPeriph_Driver/src/stm32f10x_i2c.c ****   * @version V3.6.1
   6:../libraries/STM32F10x_StdPeriph_Driver/src/stm32f10x_i2c.c ****   * @date    05-March-2012
   7:../libraries/STM32F10x_StdPeriph_Driver/src/stm32f10x_i2c.c ****   * @brief   This file provides all the I2C firmware functions.
   8:../libraries/STM32F10x_StdPeriph_Driver/src/stm32f10x_i2c.c ****   ******************************************************************************
   9:../libraries/STM32F10x_StdPeriph_Driver/src/stm32f10x_i2c.c ****   * @attention
  10:../libraries/STM32F10x_StdPeriph_Driver/src/stm32f10x_i2c.c ****   *
  11:../libraries/STM32F10x_StdPeriph_Driver/src/stm32f10x_i2c.c ****   * <h2><center>&copy; COPYRIGHT 2012 STMicroelectronics</center></h2>
  12:../libraries/STM32F10x_StdPeriph_Driver/src/stm32f10x_i2c.c ****   *
  13:../libraries/STM32F10x_StdPeriph_Driver/src/stm32f10x_i2c.c ****   * Licensed under MCD-ST Liberty SW License Agreement V2, (the "License");
  14:../libraries/STM32F10x_StdPeriph_Driver/src/stm32f10x_i2c.c ****   * You may not use this file except in compliance with the License.
  15:../libraries/STM32F10x_StdPeriph_Driver/src/stm32f10x_i2c.c ****   * You may obtain a copy of the License at:
  16:../libraries/STM32F10x_StdPeriph_Driver/src/stm32f10x_i2c.c ****   *
  17:../libraries/STM32F10x_StdPeriph_Driver/src/stm32f10x_i2c.c ****   *        http://www.st.com/software_license_agreement_liberty_v2
  18:../libraries/STM32F10x_StdPeriph_Driver/src/stm32f10x_i2c.c ****   *
  19:../libraries/STM32F10x_StdPeriph_Driver/src/stm32f10x_i2c.c ****   * Unless required by applicable law or agreed to in writing, software 
  20:../libraries/STM32F10x_StdPeriph_Driver/src/stm32f10x_i2c.c ****   * distributed under the License is distributed on an "AS IS" BASIS, 
  21:../libraries/STM32F10x_StdPeriph_Driver/src/stm32f10x_i2c.c ****   * WITHOUT WARRANTIES OR CONDITIONS OF ANY KIND, either express or implied.
  22:../libraries/STM32F10x_StdPeriph_Driver/src/stm32f10x_i2c.c ****   * See the License for the specific language governing permissions and
  23:../libraries/STM32F10x_StdPeriph_Driver/src/stm32f10x_i2c.c ****   * limitations under the License.
  24:../libraries/STM32F10x_StdPeriph_Driver/src/stm32f10x_i2c.c ****   *
  25:../libraries/STM32F10x_StdPeriph_Driver/src/stm32f10x_i2c.c ****   ******************************************************************************
  26:../libraries/STM32F10x_StdPeriph_Driver/src/stm32f10x_i2c.c ****   */
  27:../libraries/STM32F10x_StdPeriph_Driver/src/stm32f10x_i2c.c **** 
  28:../libraries/STM32F10x_StdPeriph_Driver/src/stm32f10x_i2c.c **** /* Includes ------------------------------------------------------------------*/
  29:../libraries/STM32F10x_StdPeriph_Driver/src/stm32f10x_i2c.c **** #include "stm32f10x_i2c.h"
  30:../libraries/STM32F10x_StdPeriph_Driver/src/stm32f10x_i2c.c **** #include "stm32f10x_rcc.h"
  31:../libraries/STM32F10x_StdPeriph_Driver/src/stm32f10x_i2c.c **** 
  32:../libraries/STM32F10x_StdPeriph_Driver/src/stm32f10x_i2c.c **** 
  33:../libraries/STM32F10x_StdPeriph_Driver/src/stm32f10x_i2c.c **** /** @addtogroup STM32F10x_StdPeriph_Driver
  34:../libraries/STM32F10x_StdPeriph_Driver/src/stm32f10x_i2c.c ****   * @{
  35:../libraries/STM32F10x_StdPeriph_Driver/src/stm32f10x_i2c.c ****   */
  36:../libraries/STM32F10x_StdPeriph_Driver/src/stm32f10x_i2c.c **** 
  37:../libraries/STM32F10x_StdPeriph_Driver/src/stm32f10x_i2c.c **** /** @defgroup I2C 
  38:../libraries/STM32F10x_StdPeriph_Driver/src/stm32f10x_i2c.c ****   * @brief I2C driver modules
  39:../libraries/STM32F10x_StdPeriph_Driver/src/stm32f10x_i2c.c ****   * @{
  40:../libraries/STM32F10x_StdPeriph_Driver/src/stm32f10x_i2c.c ****   */ 
  41:../libraries/STM32F10x_StdPeriph_Driver/src/stm32f10x_i2c.c **** 
  42:../libraries/STM32F10x_StdPeriph_Driver/src/stm32f10x_i2c.c **** /** @defgroup I2C_Private_TypesDefinitions
  43:../libraries/STM32F10x_StdPeriph_Driver/src/stm32f10x_i2c.c ****   * @{
  44:../libraries/STM32F10x_StdPeriph_Driver/src/stm32f10x_i2c.c ****   */
  45:../libraries/STM32F10x_StdPeriph_Driver/src/stm32f10x_i2c.c **** 
  46:../libraries/STM32F10x_StdPeriph_Driver/src/stm32f10x_i2c.c **** /**
  47:../libraries/STM32F10x_StdPeriph_Driver/src/stm32f10x_i2c.c ****   * @}
  48:../libraries/STM32F10x_StdPeriph_Driver/src/stm32f10x_i2c.c ****   */
  49:../libraries/STM32F10x_StdPeriph_Driver/src/stm32f10x_i2c.c **** 
  50:../libraries/STM32F10x_StdPeriph_Driver/src/stm32f10x_i2c.c **** /** @defgroup I2C_Private_Defines
  51:../libraries/STM32F10x_StdPeriph_Driver/src/stm32f10x_i2c.c ****   * @{
  52:../libraries/STM32F10x_StdPeriph_Driver/src/stm32f10x_i2c.c ****   */
  53:../libraries/STM32F10x_StdPeriph_Driver/src/stm32f10x_i2c.c **** 
  54:../libraries/STM32F10x_StdPeriph_Driver/src/stm32f10x_i2c.c **** /* I2C SPE mask */
  55:../libraries/STM32F10x_StdPeriph_Driver/src/stm32f10x_i2c.c **** #define CR1_PE_Set              ((uint16_t)0x0001)
  56:../libraries/STM32F10x_StdPeriph_Driver/src/stm32f10x_i2c.c **** #define CR1_PE_Reset            ((uint16_t)0xFFFE)
  57:../libraries/STM32F10x_StdPeriph_Driver/src/stm32f10x_i2c.c **** 
  58:../libraries/STM32F10x_StdPeriph_Driver/src/stm32f10x_i2c.c **** /* I2C START mask */
  59:../libraries/STM32F10x_StdPeriph_Driver/src/stm32f10x_i2c.c **** #define CR1_START_Set           ((uint16_t)0x0100)
  60:../libraries/STM32F10x_StdPeriph_Driver/src/stm32f10x_i2c.c **** #define CR1_START_Reset         ((uint16_t)0xFEFF)
  61:../libraries/STM32F10x_StdPeriph_Driver/src/stm32f10x_i2c.c **** 
  62:../libraries/STM32F10x_StdPeriph_Driver/src/stm32f10x_i2c.c **** /* I2C STOP mask */
  63:../libraries/STM32F10x_StdPeriph_Driver/src/stm32f10x_i2c.c **** #define CR1_STOP_Set            ((uint16_t)0x0200)
  64:../libraries/STM32F10x_StdPeriph_Driver/src/stm32f10x_i2c.c **** #define CR1_STOP_Reset          ((uint16_t)0xFDFF)
  65:../libraries/STM32F10x_StdPeriph_Driver/src/stm32f10x_i2c.c **** 
  66:../libraries/STM32F10x_StdPeriph_Driver/src/stm32f10x_i2c.c **** /* I2C ACK mask */
  67:../libraries/STM32F10x_StdPeriph_Driver/src/stm32f10x_i2c.c **** #define CR1_ACK_Set             ((uint16_t)0x0400)
  68:../libraries/STM32F10x_StdPeriph_Driver/src/stm32f10x_i2c.c **** #define CR1_ACK_Reset           ((uint16_t)0xFBFF)
  69:../libraries/STM32F10x_StdPeriph_Driver/src/stm32f10x_i2c.c **** 
  70:../libraries/STM32F10x_StdPeriph_Driver/src/stm32f10x_i2c.c **** /* I2C ENGC mask */
  71:../libraries/STM32F10x_StdPeriph_Driver/src/stm32f10x_i2c.c **** #define CR1_ENGC_Set            ((uint16_t)0x0040)
  72:../libraries/STM32F10x_StdPeriph_Driver/src/stm32f10x_i2c.c **** #define CR1_ENGC_Reset          ((uint16_t)0xFFBF)
  73:../libraries/STM32F10x_StdPeriph_Driver/src/stm32f10x_i2c.c **** 
  74:../libraries/STM32F10x_StdPeriph_Driver/src/stm32f10x_i2c.c **** /* I2C SWRST mask */
  75:../libraries/STM32F10x_StdPeriph_Driver/src/stm32f10x_i2c.c **** #define CR1_SWRST_Set           ((uint16_t)0x8000)
  76:../libraries/STM32F10x_StdPeriph_Driver/src/stm32f10x_i2c.c **** #define CR1_SWRST_Reset         ((uint16_t)0x7FFF)
  77:../libraries/STM32F10x_StdPeriph_Driver/src/stm32f10x_i2c.c **** 
  78:../libraries/STM32F10x_StdPeriph_Driver/src/stm32f10x_i2c.c **** /* I2C PEC mask */
  79:../libraries/STM32F10x_StdPeriph_Driver/src/stm32f10x_i2c.c **** #define CR1_PEC_Set             ((uint16_t)0x1000)
  80:../libraries/STM32F10x_StdPeriph_Driver/src/stm32f10x_i2c.c **** #define CR1_PEC_Reset           ((uint16_t)0xEFFF)
  81:../libraries/STM32F10x_StdPeriph_Driver/src/stm32f10x_i2c.c **** 
  82:../libraries/STM32F10x_StdPeriph_Driver/src/stm32f10x_i2c.c **** /* I2C ENPEC mask */
  83:../libraries/STM32F10x_StdPeriph_Driver/src/stm32f10x_i2c.c **** #define CR1_ENPEC_Set           ((uint16_t)0x0020)
  84:../libraries/STM32F10x_StdPeriph_Driver/src/stm32f10x_i2c.c **** #define CR1_ENPEC_Reset         ((uint16_t)0xFFDF)
  85:../libraries/STM32F10x_StdPeriph_Driver/src/stm32f10x_i2c.c **** 
  86:../libraries/STM32F10x_StdPeriph_Driver/src/stm32f10x_i2c.c **** /* I2C ENARP mask */
  87:../libraries/STM32F10x_StdPeriph_Driver/src/stm32f10x_i2c.c **** #define CR1_ENARP_Set           ((uint16_t)0x0010)
  88:../libraries/STM32F10x_StdPeriph_Driver/src/stm32f10x_i2c.c **** #define CR1_ENARP_Reset         ((uint16_t)0xFFEF)
  89:../libraries/STM32F10x_StdPeriph_Driver/src/stm32f10x_i2c.c **** 
  90:../libraries/STM32F10x_StdPeriph_Driver/src/stm32f10x_i2c.c **** /* I2C NOSTRETCH mask */
  91:../libraries/STM32F10x_StdPeriph_Driver/src/stm32f10x_i2c.c **** #define CR1_NOSTRETCH_Set       ((uint16_t)0x0080)
  92:../libraries/STM32F10x_StdPeriph_Driver/src/stm32f10x_i2c.c **** #define CR1_NOSTRETCH_Reset     ((uint16_t)0xFF7F)
  93:../libraries/STM32F10x_StdPeriph_Driver/src/stm32f10x_i2c.c **** 
  94:../libraries/STM32F10x_StdPeriph_Driver/src/stm32f10x_i2c.c **** /* I2C registers Masks */
  95:../libraries/STM32F10x_StdPeriph_Driver/src/stm32f10x_i2c.c **** #define CR1_CLEAR_Mask          ((uint16_t)0xFBF5)
  96:../libraries/STM32F10x_StdPeriph_Driver/src/stm32f10x_i2c.c **** 
  97:../libraries/STM32F10x_StdPeriph_Driver/src/stm32f10x_i2c.c **** /* I2C DMAEN mask */
  98:../libraries/STM32F10x_StdPeriph_Driver/src/stm32f10x_i2c.c **** #define CR2_DMAEN_Set           ((uint16_t)0x0800)
  99:../libraries/STM32F10x_StdPeriph_Driver/src/stm32f10x_i2c.c **** #define CR2_DMAEN_Reset         ((uint16_t)0xF7FF)
 100:../libraries/STM32F10x_StdPeriph_Driver/src/stm32f10x_i2c.c **** 
 101:../libraries/STM32F10x_StdPeriph_Driver/src/stm32f10x_i2c.c **** /* I2C LAST mask */
 102:../libraries/STM32F10x_StdPeriph_Driver/src/stm32f10x_i2c.c **** #define CR2_LAST_Set            ((uint16_t)0x1000)
 103:../libraries/STM32F10x_StdPeriph_Driver/src/stm32f10x_i2c.c **** #define CR2_LAST_Reset          ((uint16_t)0xEFFF)
 104:../libraries/STM32F10x_StdPeriph_Driver/src/stm32f10x_i2c.c **** 
 105:../libraries/STM32F10x_StdPeriph_Driver/src/stm32f10x_i2c.c **** /* I2C FREQ mask */
 106:../libraries/STM32F10x_StdPeriph_Driver/src/stm32f10x_i2c.c **** #define CR2_FREQ_Reset          ((uint16_t)0xFFC0)
 107:../libraries/STM32F10x_StdPeriph_Driver/src/stm32f10x_i2c.c **** 
 108:../libraries/STM32F10x_StdPeriph_Driver/src/stm32f10x_i2c.c **** /* I2C ADD0 mask */
 109:../libraries/STM32F10x_StdPeriph_Driver/src/stm32f10x_i2c.c **** #define OAR1_ADD0_Set           ((uint16_t)0x0001)
 110:../libraries/STM32F10x_StdPeriph_Driver/src/stm32f10x_i2c.c **** #define OAR1_ADD0_Reset         ((uint16_t)0xFFFE)
 111:../libraries/STM32F10x_StdPeriph_Driver/src/stm32f10x_i2c.c **** 
 112:../libraries/STM32F10x_StdPeriph_Driver/src/stm32f10x_i2c.c **** /* I2C ENDUAL mask */
 113:../libraries/STM32F10x_StdPeriph_Driver/src/stm32f10x_i2c.c **** #define OAR2_ENDUAL_Set         ((uint16_t)0x0001)
 114:../libraries/STM32F10x_StdPeriph_Driver/src/stm32f10x_i2c.c **** #define OAR2_ENDUAL_Reset       ((uint16_t)0xFFFE)
 115:../libraries/STM32F10x_StdPeriph_Driver/src/stm32f10x_i2c.c **** 
 116:../libraries/STM32F10x_StdPeriph_Driver/src/stm32f10x_i2c.c **** /* I2C ADD2 mask */
 117:../libraries/STM32F10x_StdPeriph_Driver/src/stm32f10x_i2c.c **** #define OAR2_ADD2_Reset         ((uint16_t)0xFF01)
 118:../libraries/STM32F10x_StdPeriph_Driver/src/stm32f10x_i2c.c **** 
 119:../libraries/STM32F10x_StdPeriph_Driver/src/stm32f10x_i2c.c **** /* I2C F/S mask */
 120:../libraries/STM32F10x_StdPeriph_Driver/src/stm32f10x_i2c.c **** #define CCR_FS_Set              ((uint16_t)0x8000)
 121:../libraries/STM32F10x_StdPeriph_Driver/src/stm32f10x_i2c.c **** 
 122:../libraries/STM32F10x_StdPeriph_Driver/src/stm32f10x_i2c.c **** /* I2C CCR mask */
 123:../libraries/STM32F10x_StdPeriph_Driver/src/stm32f10x_i2c.c **** #define CCR_CCR_Set             ((uint16_t)0x0FFF)
 124:../libraries/STM32F10x_StdPeriph_Driver/src/stm32f10x_i2c.c **** 
 125:../libraries/STM32F10x_StdPeriph_Driver/src/stm32f10x_i2c.c **** /* I2C FLAG mask */
 126:../libraries/STM32F10x_StdPeriph_Driver/src/stm32f10x_i2c.c **** #define FLAG_Mask               ((uint32_t)0x00FFFFFF)
 127:../libraries/STM32F10x_StdPeriph_Driver/src/stm32f10x_i2c.c **** 
 128:../libraries/STM32F10x_StdPeriph_Driver/src/stm32f10x_i2c.c **** /* I2C Interrupt Enable mask */
 129:../libraries/STM32F10x_StdPeriph_Driver/src/stm32f10x_i2c.c **** #define ITEN_Mask               ((uint32_t)0x07000000)
 130:../libraries/STM32F10x_StdPeriph_Driver/src/stm32f10x_i2c.c **** 
 131:../libraries/STM32F10x_StdPeriph_Driver/src/stm32f10x_i2c.c **** /**
 132:../libraries/STM32F10x_StdPeriph_Driver/src/stm32f10x_i2c.c ****   * @}
 133:../libraries/STM32F10x_StdPeriph_Driver/src/stm32f10x_i2c.c ****   */
 134:../libraries/STM32F10x_StdPeriph_Driver/src/stm32f10x_i2c.c **** 
 135:../libraries/STM32F10x_StdPeriph_Driver/src/stm32f10x_i2c.c **** /** @defgroup I2C_Private_Macros
 136:../libraries/STM32F10x_StdPeriph_Driver/src/stm32f10x_i2c.c ****   * @{
 137:../libraries/STM32F10x_StdPeriph_Driver/src/stm32f10x_i2c.c ****   */
 138:../libraries/STM32F10x_StdPeriph_Driver/src/stm32f10x_i2c.c **** 
 139:../libraries/STM32F10x_StdPeriph_Driver/src/stm32f10x_i2c.c **** /**
 140:../libraries/STM32F10x_StdPeriph_Driver/src/stm32f10x_i2c.c ****   * @}
 141:../libraries/STM32F10x_StdPeriph_Driver/src/stm32f10x_i2c.c ****   */
 142:../libraries/STM32F10x_StdPeriph_Driver/src/stm32f10x_i2c.c **** 
 143:../libraries/STM32F10x_StdPeriph_Driver/src/stm32f10x_i2c.c **** /** @defgroup I2C_Private_Variables
 144:../libraries/STM32F10x_StdPeriph_Driver/src/stm32f10x_i2c.c ****   * @{
 145:../libraries/STM32F10x_StdPeriph_Driver/src/stm32f10x_i2c.c ****   */
 146:../libraries/STM32F10x_StdPeriph_Driver/src/stm32f10x_i2c.c **** 
 147:../libraries/STM32F10x_StdPeriph_Driver/src/stm32f10x_i2c.c **** /**
 148:../libraries/STM32F10x_StdPeriph_Driver/src/stm32f10x_i2c.c ****   * @}
 149:../libraries/STM32F10x_StdPeriph_Driver/src/stm32f10x_i2c.c ****   */
 150:../libraries/STM32F10x_StdPeriph_Driver/src/stm32f10x_i2c.c **** 
 151:../libraries/STM32F10x_StdPeriph_Driver/src/stm32f10x_i2c.c **** /** @defgroup I2C_Private_FunctionPrototypes
 152:../libraries/STM32F10x_StdPeriph_Driver/src/stm32f10x_i2c.c ****   * @{
 153:../libraries/STM32F10x_StdPeriph_Driver/src/stm32f10x_i2c.c ****   */
 154:../libraries/STM32F10x_StdPeriph_Driver/src/stm32f10x_i2c.c **** 
 155:../libraries/STM32F10x_StdPeriph_Driver/src/stm32f10x_i2c.c **** /**
 156:../libraries/STM32F10x_StdPeriph_Driver/src/stm32f10x_i2c.c ****   * @}
 157:../libraries/STM32F10x_StdPeriph_Driver/src/stm32f10x_i2c.c ****   */
 158:../libraries/STM32F10x_StdPeriph_Driver/src/stm32f10x_i2c.c **** 
 159:../libraries/STM32F10x_StdPeriph_Driver/src/stm32f10x_i2c.c **** /** @defgroup I2C_Private_Functions
 160:../libraries/STM32F10x_StdPeriph_Driver/src/stm32f10x_i2c.c ****   * @{
 161:../libraries/STM32F10x_StdPeriph_Driver/src/stm32f10x_i2c.c ****   */
 162:../libraries/STM32F10x_StdPeriph_Driver/src/stm32f10x_i2c.c **** 
 163:../libraries/STM32F10x_StdPeriph_Driver/src/stm32f10x_i2c.c **** /**
 164:../libraries/STM32F10x_StdPeriph_Driver/src/stm32f10x_i2c.c ****   * @brief  Deinitializes the I2Cx peripheral registers to their default reset values.
 165:../libraries/STM32F10x_StdPeriph_Driver/src/stm32f10x_i2c.c ****   * @param  I2Cx: where x can be 1 or 2 to select the I2C peripheral.
 166:../libraries/STM32F10x_StdPeriph_Driver/src/stm32f10x_i2c.c ****   * @retval None
 167:../libraries/STM32F10x_StdPeriph_Driver/src/stm32f10x_i2c.c ****   */
 168:../libraries/STM32F10x_StdPeriph_Driver/src/stm32f10x_i2c.c **** void I2C_DeInit(I2C_TypeDef* I2Cx)
 169:../libraries/STM32F10x_StdPeriph_Driver/src/stm32f10x_i2c.c **** {
  27              		.loc 1 169 0
  28              		.cfi_startproc
  29              		@ args = 0, pretend = 0, frame = 0
  30              		@ frame_needed = 0, uses_anonymous_args = 0
  31              	.LVL0:
  32 0000 08B5     		push	{r3, lr}
  33              	.LCFI0:
  34              		.cfi_def_cfa_offset 8
  35              		.cfi_offset 3, -8
  36              		.cfi_offset 14, -4
 170:../libraries/STM32F10x_StdPeriph_Driver/src/stm32f10x_i2c.c ****   /* Check the parameters */
 171:../libraries/STM32F10x_StdPeriph_Driver/src/stm32f10x_i2c.c ****   assert_param(IS_I2C_ALL_PERIPH(I2Cx));
 172:../libraries/STM32F10x_StdPeriph_Driver/src/stm32f10x_i2c.c **** 
 173:../libraries/STM32F10x_StdPeriph_Driver/src/stm32f10x_i2c.c ****   if (I2Cx == I2C1)
  37              		.loc 1 173 0
  38 0002 0B4B     		ldr	r3, .L5
  39 0004 9842     		cmp	r0, r3
  40 0006 07D1     		bne	.L2
 174:../libraries/STM32F10x_StdPeriph_Driver/src/stm32f10x_i2c.c ****   {
 175:../libraries/STM32F10x_StdPeriph_Driver/src/stm32f10x_i2c.c ****     /* Enable I2C1 reset state */
 176:../libraries/STM32F10x_StdPeriph_Driver/src/stm32f10x_i2c.c ****     RCC_APB1PeriphResetCmd(RCC_APB1Periph_I2C1, ENABLE);
  41              		.loc 1 176 0
  42 0008 4FF40010 		mov	r0, #2097152
  43              	.LVL1:
  44 000c 0121     		movs	r1, #1
  45 000e FFF7FEFF 		bl	RCC_APB1PeriphResetCmd
  46              	.LVL2:
 177:../libraries/STM32F10x_StdPeriph_Driver/src/stm32f10x_i2c.c ****     /* Release I2C1 from reset state */
 178:../libraries/STM32F10x_StdPeriph_Driver/src/stm32f10x_i2c.c ****     RCC_APB1PeriphResetCmd(RCC_APB1Periph_I2C1, DISABLE);
  47              		.loc 1 178 0
  48 0012 4FF40010 		mov	r0, #2097152
  49 0016 06E0     		b	.L3
  50              	.LVL3:
  51              	.L2:
 179:../libraries/STM32F10x_StdPeriph_Driver/src/stm32f10x_i2c.c ****   }
 180:../libraries/STM32F10x_StdPeriph_Driver/src/stm32f10x_i2c.c ****   else
 181:../libraries/STM32F10x_StdPeriph_Driver/src/stm32f10x_i2c.c ****   {
 182:../libraries/STM32F10x_StdPeriph_Driver/src/stm32f10x_i2c.c ****     /* Enable I2C2 reset state */
 183:../libraries/STM32F10x_StdPeriph_Driver/src/stm32f10x_i2c.c ****     RCC_APB1PeriphResetCmd(RCC_APB1Periph_I2C2, ENABLE);
  52              		.loc 1 183 0
  53 0018 4FF48000 		mov	r0, #4194304
  54              	.LVL4:
  55 001c 0121     		movs	r1, #1
  56 001e FFF7FEFF 		bl	RCC_APB1PeriphResetCmd
  57              	.LVL5:
 184:../libraries/STM32F10x_StdPeriph_Driver/src/stm32f10x_i2c.c ****     /* Release I2C2 from reset state */
 185:../libraries/STM32F10x_StdPeriph_Driver/src/stm32f10x_i2c.c ****     RCC_APB1PeriphResetCmd(RCC_APB1Periph_I2C2, DISABLE);
  58              		.loc 1 185 0
  59 0022 4FF48000 		mov	r0, #4194304
  60              	.L3:
  61 0026 0021     		movs	r1, #0
 186:../libraries/STM32F10x_StdPeriph_Driver/src/stm32f10x_i2c.c ****   }
 187:../libraries/STM32F10x_StdPeriph_Driver/src/stm32f10x_i2c.c **** }
  62              		.loc 1 187 0
  63 0028 BDE80840 		pop	{r3, lr}
 185:../libraries/STM32F10x_StdPeriph_Driver/src/stm32f10x_i2c.c ****     RCC_APB1PeriphResetCmd(RCC_APB1Periph_I2C2, DISABLE);
  64              		.loc 1 185 0
  65 002c FFF7FEBF 		b	RCC_APB1PeriphResetCmd
  66              	.LVL6:
  67              	.L6:
  68              		.align	2
  69              	.L5:
  70 0030 00540040 		.word	1073763328
  71              		.cfi_endproc
  72              	.LFE56:
  74              		.section	.text.I2C_Init,"ax",%progbits
  75              		.align	1
  76              		.global	I2C_Init
  77              		.thumb
  78              		.thumb_func
  80              	I2C_Init:
  81              	.LFB57:
 188:../libraries/STM32F10x_StdPeriph_Driver/src/stm32f10x_i2c.c **** 
 189:../libraries/STM32F10x_StdPeriph_Driver/src/stm32f10x_i2c.c **** /**
 190:../libraries/STM32F10x_StdPeriph_Driver/src/stm32f10x_i2c.c ****   * @brief  Initializes the I2Cx peripheral according to the specified 
 191:../libraries/STM32F10x_StdPeriph_Driver/src/stm32f10x_i2c.c ****   *   parameters in the I2C_InitStruct.
 192:../libraries/STM32F10x_StdPeriph_Driver/src/stm32f10x_i2c.c ****   * @param  I2Cx: where x can be 1 or 2 to select the I2C peripheral.
 193:../libraries/STM32F10x_StdPeriph_Driver/src/stm32f10x_i2c.c ****   * @param  I2C_InitStruct: pointer to a I2C_InitTypeDef structure that
 194:../libraries/STM32F10x_StdPeriph_Driver/src/stm32f10x_i2c.c ****   *   contains the configuration information for the specified I2C peripheral.
 195:../libraries/STM32F10x_StdPeriph_Driver/src/stm32f10x_i2c.c ****   * @retval None
 196:../libraries/STM32F10x_StdPeriph_Driver/src/stm32f10x_i2c.c ****   */
 197:../libraries/STM32F10x_StdPeriph_Driver/src/stm32f10x_i2c.c **** void I2C_Init(I2C_TypeDef* I2Cx, I2C_InitTypeDef* I2C_InitStruct)
 198:../libraries/STM32F10x_StdPeriph_Driver/src/stm32f10x_i2c.c **** {
  82              		.loc 1 198 0
  83              		.cfi_startproc
  84              		@ args = 0, pretend = 0, frame = 24
  85              		@ frame_needed = 0, uses_anonymous_args = 0
  86              	.LVL7:
  87 0000 F0B5     		push	{r4, r5, r6, r7, lr}
  88              	.LCFI1:
  89              		.cfi_def_cfa_offset 20
  90              		.cfi_offset 4, -20
  91              		.cfi_offset 5, -16
  92              		.cfi_offset 6, -12
  93              		.cfi_offset 7, -8
  94              		.cfi_offset 14, -4
 199:../libraries/STM32F10x_StdPeriph_Driver/src/stm32f10x_i2c.c ****   uint16_t tmpreg = 0, freqrange = 0;
 200:../libraries/STM32F10x_StdPeriph_Driver/src/stm32f10x_i2c.c ****   uint16_t result = 0x04;
 201:../libraries/STM32F10x_StdPeriph_Driver/src/stm32f10x_i2c.c ****   uint32_t pclk1 = 8000000;
 202:../libraries/STM32F10x_StdPeriph_Driver/src/stm32f10x_i2c.c ****   RCC_ClocksTypeDef  rcc_clocks;
 203:../libraries/STM32F10x_StdPeriph_Driver/src/stm32f10x_i2c.c ****   /* Check the parameters */
 204:../libraries/STM32F10x_StdPeriph_Driver/src/stm32f10x_i2c.c ****   assert_param(IS_I2C_ALL_PERIPH(I2Cx));
 205:../libraries/STM32F10x_StdPeriph_Driver/src/stm32f10x_i2c.c ****   assert_param(IS_I2C_CLOCK_SPEED(I2C_InitStruct->I2C_ClockSpeed));
 206:../libraries/STM32F10x_StdPeriph_Driver/src/stm32f10x_i2c.c ****   assert_param(IS_I2C_MODE(I2C_InitStruct->I2C_Mode));
 207:../libraries/STM32F10x_StdPeriph_Driver/src/stm32f10x_i2c.c ****   assert_param(IS_I2C_DUTY_CYCLE(I2C_InitStruct->I2C_DutyCycle));
 208:../libraries/STM32F10x_StdPeriph_Driver/src/stm32f10x_i2c.c ****   assert_param(IS_I2C_OWN_ADDRESS1(I2C_InitStruct->I2C_OwnAddress1));
 209:../libraries/STM32F10x_StdPeriph_Driver/src/stm32f10x_i2c.c ****   assert_param(IS_I2C_ACK_STATE(I2C_InitStruct->I2C_Ack));
 210:../libraries/STM32F10x_StdPeriph_Driver/src/stm32f10x_i2c.c ****   assert_param(IS_I2C_ACKNOWLEDGE_ADDRESS(I2C_InitStruct->I2C_AcknowledgedAddress));
 211:../libraries/STM32F10x_StdPeriph_Driver/src/stm32f10x_i2c.c **** 
 212:../libraries/STM32F10x_StdPeriph_Driver/src/stm32f10x_i2c.c **** /*---------------------------- I2Cx CR2 Configuration ------------------------*/
 213:../libraries/STM32F10x_StdPeriph_Driver/src/stm32f10x_i2c.c ****   /* Get the I2Cx CR2 value */
 214:../libraries/STM32F10x_StdPeriph_Driver/src/stm32f10x_i2c.c ****   tmpreg = I2Cx->CR2;
  95              		.loc 1 214 0
  96 0002 8688     		ldrh	r6, [r0, #4]
  97              	.LVL8:
 198:../libraries/STM32F10x_StdPeriph_Driver/src/stm32f10x_i2c.c **** {
  98              		.loc 1 198 0
  99 0004 0446     		mov	r4, r0
 100 0006 87B0     		sub	sp, sp, #28
 101              	.LCFI2:
 102              		.cfi_def_cfa_offset 48
 215:../libraries/STM32F10x_StdPeriph_Driver/src/stm32f10x_i2c.c ****   /* Clear frequency FREQ[5:0] bits */
 216:../libraries/STM32F10x_StdPeriph_Driver/src/stm32f10x_i2c.c ****   tmpreg &= CR2_FREQ_Reset;
 103              		.loc 1 216 0
 104 0008 26F03F00 		bic	r0, r6, #63
 105              	.LVL9:
 198:../libraries/STM32F10x_StdPeriph_Driver/src/stm32f10x_i2c.c **** {
 106              		.loc 1 198 0
 107 000c 0D46     		mov	r5, r1
 108              		.loc 1 216 0
 109 000e 0104     		lsls	r1, r0, #16
 110              	.LVL10:
 217:../libraries/STM32F10x_StdPeriph_Driver/src/stm32f10x_i2c.c ****   /* Get pclk1 frequency value */
 218:../libraries/STM32F10x_StdPeriph_Driver/src/stm32f10x_i2c.c ****   RCC_GetClocksFreq(&rcc_clocks);
 111              		.loc 1 218 0
 112 0010 01A8     		add	r0, sp, #4
 216:../libraries/STM32F10x_StdPeriph_Driver/src/stm32f10x_i2c.c ****   tmpreg &= CR2_FREQ_Reset;
 113              		.loc 1 216 0
 114 0012 0E0C     		lsrs	r6, r1, #16
 115              	.LVL11:
 116              		.loc 1 218 0
 117 0014 FFF7FEFF 		bl	RCC_GetClocksFreq
 118              	.LVL12:
 219:../libraries/STM32F10x_StdPeriph_Driver/src/stm32f10x_i2c.c ****   pclk1 = rcc_clocks.PCLK1_Frequency;
 220:../libraries/STM32F10x_StdPeriph_Driver/src/stm32f10x_i2c.c ****   /* Set frequency bits depending on pclk1 value */
 221:../libraries/STM32F10x_StdPeriph_Driver/src/stm32f10x_i2c.c ****   freqrange = (uint16_t)(pclk1 / 1000000);
 119              		.loc 1 221 0
 120 0018 2C4A     		ldr	r2, .L16
 219:../libraries/STM32F10x_StdPeriph_Driver/src/stm32f10x_i2c.c ****   pclk1 = rcc_clocks.PCLK1_Frequency;
 121              		.loc 1 219 0
 122 001a 0399     		ldr	r1, [sp, #12]
 123              	.LVL13:
 124              		.loc 1 221 0
 125 001c B1FBF2F0 		udiv	r0, r1, r2
 126 0020 87B2     		uxth	r7, r0
 127              	.LVL14:
 222:../libraries/STM32F10x_StdPeriph_Driver/src/stm32f10x_i2c.c ****   tmpreg |= freqrange;
 128              		.loc 1 222 0
 129 0022 3E43     		orrs	r6, r6, r7
 130              	.LVL15:
 223:../libraries/STM32F10x_StdPeriph_Driver/src/stm32f10x_i2c.c ****   /* Write to I2Cx CR2 */
 224:../libraries/STM32F10x_StdPeriph_Driver/src/stm32f10x_i2c.c ****   I2Cx->CR2 = tmpreg;
 131              		.loc 1 224 0
 132 0024 A680     		strh	r6, [r4, #4]	@ movhi
 225:../libraries/STM32F10x_StdPeriph_Driver/src/stm32f10x_i2c.c **** 
 226:../libraries/STM32F10x_StdPeriph_Driver/src/stm32f10x_i2c.c **** /*---------------------------- I2Cx CCR Configuration ------------------------*/
 227:../libraries/STM32F10x_StdPeriph_Driver/src/stm32f10x_i2c.c ****   /* Disable the selected I2C peripheral to configure TRISE */
 228:../libraries/STM32F10x_StdPeriph_Driver/src/stm32f10x_i2c.c ****   I2Cx->CR1 &= CR1_PE_Reset;
 133              		.loc 1 228 0
 134 0026 2388     		ldrh	r3, [r4, #0]
 135 0028 23F00102 		bic	r2, r3, #1
 136 002c 1304     		lsls	r3, r2, #16
 137 002e 1A0C     		lsrs	r2, r3, #16
 138 0030 2280     		strh	r2, [r4, #0]	@ movhi
 139              	.LVL16:
 229:../libraries/STM32F10x_StdPeriph_Driver/src/stm32f10x_i2c.c ****   /* Reset tmpreg value */
 230:../libraries/STM32F10x_StdPeriph_Driver/src/stm32f10x_i2c.c ****   /* Clear F/S, DUTY and CCR[11:0] bits */
 231:../libraries/STM32F10x_StdPeriph_Driver/src/stm32f10x_i2c.c ****   tmpreg = 0;
 232:../libraries/STM32F10x_StdPeriph_Driver/src/stm32f10x_i2c.c **** 
 233:../libraries/STM32F10x_StdPeriph_Driver/src/stm32f10x_i2c.c ****   /* Configure speed in standard mode */
 234:../libraries/STM32F10x_StdPeriph_Driver/src/stm32f10x_i2c.c ****   if (I2C_InitStruct->I2C_ClockSpeed <= 100000)
 140              		.loc 1 234 0
 141 0032 2B68     		ldr	r3, [r5, #0]
 142 0034 264A     		ldr	r2, .L16+4
 143 0036 9342     		cmp	r3, r2
 144 0038 0AD8     		bhi	.L8
 235:../libraries/STM32F10x_StdPeriph_Driver/src/stm32f10x_i2c.c ****   {
 236:../libraries/STM32F10x_StdPeriph_Driver/src/stm32f10x_i2c.c ****     /* Standard mode speed calculate */
 237:../libraries/STM32F10x_StdPeriph_Driver/src/stm32f10x_i2c.c ****     result = (uint16_t)(pclk1 / (I2C_InitStruct->I2C_ClockSpeed << 1));
 145              		.loc 1 237 0
 146 003a 5B00     		lsls	r3, r3, #1
 147 003c B1FBF3F0 		udiv	r0, r1, r3
 148              	.LVL17:
 238:../libraries/STM32F10x_StdPeriph_Driver/src/stm32f10x_i2c.c ****     /* Test if CCR value is under 0x4*/
 239:../libraries/STM32F10x_StdPeriph_Driver/src/stm32f10x_i2c.c ****     if (result < 0x04)
 240:../libraries/STM32F10x_StdPeriph_Driver/src/stm32f10x_i2c.c ****     {
 241:../libraries/STM32F10x_StdPeriph_Driver/src/stm32f10x_i2c.c ****       /* Set minimum allowed value */
 242:../libraries/STM32F10x_StdPeriph_Driver/src/stm32f10x_i2c.c ****       result = 0x04;  
 243:../libraries/STM32F10x_StdPeriph_Driver/src/stm32f10x_i2c.c ****     }
 244:../libraries/STM32F10x_StdPeriph_Driver/src/stm32f10x_i2c.c ****     /* Set speed value for standard mode */
 245:../libraries/STM32F10x_StdPeriph_Driver/src/stm32f10x_i2c.c ****     tmpreg |= result;	  
 246:../libraries/STM32F10x_StdPeriph_Driver/src/stm32f10x_i2c.c ****     /* Set Maximum Rise Time for standard mode */
 247:../libraries/STM32F10x_StdPeriph_Driver/src/stm32f10x_i2c.c ****     I2Cx->TRISE = freqrange + 1; 
 149              		.loc 1 247 0
 150 0040 0137     		adds	r7, r7, #1
 151              	.LVL18:
 237:../libraries/STM32F10x_StdPeriph_Driver/src/stm32f10x_i2c.c ****     result = (uint16_t)(pclk1 / (I2C_InitStruct->I2C_ClockSpeed << 1));
 152              		.loc 1 237 0
 153 0042 83B2     		uxth	r3, r0
 154              	.LVL19:
 155              		.loc 1 247 0
 156 0044 BFB2     		uxth	r7, r7
 157              	.LVL20:
 158 0046 2784     		strh	r7, [r4, #32]	@ movhi
 245:../libraries/STM32F10x_StdPeriph_Driver/src/stm32f10x_i2c.c ****     tmpreg |= result;	  
 159              		.loc 1 245 0
 160 0048 032B     		cmp	r3, #3
 161 004a 98BF     		it	ls
 162 004c 0423     		movls	r3, #4
 163              	.LVL21:
 164 004e 20E0     		b	.L10
 165              	.LVL22:
 166              	.L8:
 248:../libraries/STM32F10x_StdPeriph_Driver/src/stm32f10x_i2c.c ****   }
 249:../libraries/STM32F10x_StdPeriph_Driver/src/stm32f10x_i2c.c ****   /* Configure speed in fast mode */
 250:../libraries/STM32F10x_StdPeriph_Driver/src/stm32f10x_i2c.c ****   else /*(I2C_InitStruct->I2C_ClockSpeed <= 400000)*/
 251:../libraries/STM32F10x_StdPeriph_Driver/src/stm32f10x_i2c.c ****   {
 252:../libraries/STM32F10x_StdPeriph_Driver/src/stm32f10x_i2c.c ****     if (I2C_InitStruct->I2C_DutyCycle == I2C_DutyCycle_2)
 167              		.loc 1 252 0
 168 0050 EE88     		ldrh	r6, [r5, #6]
 169 0052 4BF6FF72 		movw	r2, #49151
 170 0056 9642     		cmp	r6, r2
 171 0058 04D1     		bne	.L11
 253:../libraries/STM32F10x_StdPeriph_Driver/src/stm32f10x_i2c.c ****     {
 254:../libraries/STM32F10x_StdPeriph_Driver/src/stm32f10x_i2c.c ****       /* Fast mode speed calculate: Tlow/Thigh = 2 */
 255:../libraries/STM32F10x_StdPeriph_Driver/src/stm32f10x_i2c.c ****       result = (uint16_t)(pclk1 / (I2C_InitStruct->I2C_ClockSpeed * 3));
 172              		.loc 1 255 0
 173 005a 0322     		movs	r2, #3
 174 005c 5343     		muls	r3, r2, r3
 175 005e B1FBF3F3 		udiv	r3, r1, r3
 176 0062 05E0     		b	.L15
 177              	.L11:
 178              	.LVL23:
 256:../libraries/STM32F10x_StdPeriph_Driver/src/stm32f10x_i2c.c ****     }
 257:../libraries/STM32F10x_StdPeriph_Driver/src/stm32f10x_i2c.c ****     else /*I2C_InitStruct->I2C_DutyCycle == I2C_DutyCycle_16_9*/
 258:../libraries/STM32F10x_StdPeriph_Driver/src/stm32f10x_i2c.c ****     {
 259:../libraries/STM32F10x_StdPeriph_Driver/src/stm32f10x_i2c.c ****       /* Fast mode speed calculate: Tlow/Thigh = 16/9 */
 260:../libraries/STM32F10x_StdPeriph_Driver/src/stm32f10x_i2c.c ****       result = (uint16_t)(pclk1 / (I2C_InitStruct->I2C_ClockSpeed * 25));
 179              		.loc 1 260 0
 180 0064 1922     		movs	r2, #25
 181 0066 5343     		muls	r3, r2, r3
 182              	.LVL24:
 183 0068 B1FBF3F1 		udiv	r1, r1, r3
 184              	.LVL25:
 261:../libraries/STM32F10x_StdPeriph_Driver/src/stm32f10x_i2c.c ****       /* Set DUTY bit */
 262:../libraries/STM32F10x_StdPeriph_Driver/src/stm32f10x_i2c.c ****       result |= I2C_DutyCycle_16_9;
 185              		.loc 1 262 0
 186 006c 41F48043 		orr	r3, r1, #16384
 187              	.LVL26:
 188              	.L15:
 189 0070 99B2     		uxth	r1, r3
 190              	.LVL27:
 263:../libraries/STM32F10x_StdPeriph_Driver/src/stm32f10x_i2c.c ****     }
 264:../libraries/STM32F10x_StdPeriph_Driver/src/stm32f10x_i2c.c **** 
 265:../libraries/STM32F10x_StdPeriph_Driver/src/stm32f10x_i2c.c ****     /* Test if CCR value is under 0x1*/
 266:../libraries/STM32F10x_StdPeriph_Driver/src/stm32f10x_i2c.c ****     if ((result & CCR_CCR_Set) == 0)
 191              		.loc 1 266 0
 192 0072 0A05     		lsls	r2, r1, #20
 267:../libraries/STM32F10x_StdPeriph_Driver/src/stm32f10x_i2c.c ****     {
 268:../libraries/STM32F10x_StdPeriph_Driver/src/stm32f10x_i2c.c ****       /* Set minimum allowed value */
 269:../libraries/STM32F10x_StdPeriph_Driver/src/stm32f10x_i2c.c ****       result |= (uint16_t)0x0001;  
 270:../libraries/STM32F10x_StdPeriph_Driver/src/stm32f10x_i2c.c ****     }
 271:../libraries/STM32F10x_StdPeriph_Driver/src/stm32f10x_i2c.c ****     /* Set speed value and set F/S bit for fast mode */
 272:../libraries/STM32F10x_StdPeriph_Driver/src/stm32f10x_i2c.c ****     tmpreg |= (uint16_t)(result | CCR_FS_Set);
 273:../libraries/STM32F10x_StdPeriph_Driver/src/stm32f10x_i2c.c ****     /* Set Maximum Rise Time for fast mode */
 274:../libraries/STM32F10x_StdPeriph_Driver/src/stm32f10x_i2c.c ****     I2Cx->TRISE = (uint16_t)(((freqrange * (uint16_t)300) / (uint16_t)1000) + (uint16_t)1);  
 193              		.loc 1 274 0
 194 0074 4FF49672 		mov	r2, #300
 269:../libraries/STM32F10x_StdPeriph_Driver/src/stm32f10x_i2c.c ****       result |= (uint16_t)0x0001;  
 195              		.loc 1 269 0
 196 0078 08BF     		it	eq
 197 007a 41F00101 		orreq	r1, r1, #1
 198              	.LVL28:
 199              		.loc 1 274 0
 200 007e 5043     		muls	r0, r2, r0
 201              	.LVL29:
 272:../libraries/STM32F10x_StdPeriph_Driver/src/stm32f10x_i2c.c ****     tmpreg |= (uint16_t)(result | CCR_FS_Set);
 202              		.loc 1 272 0
 203 0080 41F40043 		orr	r3, r1, #32768
 204              	.LVL30:
 205              		.loc 1 274 0
 206 0084 4FF47A71 		mov	r1, #1000
 207              	.LVL31:
 208 0088 90FBF1F0 		sdiv	r0, r0, r1
 209 008c 421C     		adds	r2, r0, #1
 210 008e 91B2     		uxth	r1, r2
 211 0090 2184     		strh	r1, [r4, #32]	@ movhi
 212              	.LVL32:
 213              	.L10:
 275:../libraries/STM32F10x_StdPeriph_Driver/src/stm32f10x_i2c.c ****   }
 276:../libraries/STM32F10x_StdPeriph_Driver/src/stm32f10x_i2c.c **** 
 277:../libraries/STM32F10x_StdPeriph_Driver/src/stm32f10x_i2c.c ****   /* Write to I2Cx CCR */
 278:../libraries/STM32F10x_StdPeriph_Driver/src/stm32f10x_i2c.c ****   I2Cx->CCR = tmpreg;
 214              		.loc 1 278 0
 215 0092 A383     		strh	r3, [r4, #28]	@ movhi
 279:../libraries/STM32F10x_StdPeriph_Driver/src/stm32f10x_i2c.c ****   /* Enable the selected I2C peripheral */
 280:../libraries/STM32F10x_StdPeriph_Driver/src/stm32f10x_i2c.c ****   I2Cx->CR1 |= CR1_PE_Set;
 216              		.loc 1 280 0
 217 0094 2288     		ldrh	r2, [r4, #0]
 218 0096 91B2     		uxth	r1, r2
 219 0098 41F00103 		orr	r3, r1, #1
 220              	.LVL33:
 221 009c 2380     		strh	r3, [r4, #0]	@ movhi
 281:../libraries/STM32F10x_StdPeriph_Driver/src/stm32f10x_i2c.c **** 
 282:../libraries/STM32F10x_StdPeriph_Driver/src/stm32f10x_i2c.c **** /*---------------------------- I2Cx CR1 Configuration ------------------------*/
 283:../libraries/STM32F10x_StdPeriph_Driver/src/stm32f10x_i2c.c ****   /* Get the I2Cx CR1 value */
 284:../libraries/STM32F10x_StdPeriph_Driver/src/stm32f10x_i2c.c ****   tmpreg = I2Cx->CR1;
 222              		.loc 1 284 0
 223 009e 2088     		ldrh	r0, [r4, #0]
 224              	.LVL34:
 285:../libraries/STM32F10x_StdPeriph_Driver/src/stm32f10x_i2c.c ****   /* Clear ACK, SMBTYPE and  SMBUS bits */
 286:../libraries/STM32F10x_StdPeriph_Driver/src/stm32f10x_i2c.c ****   tmpreg &= CR1_CLEAR_Mask;
 225              		.loc 1 286 0
 226 00a0 20F48162 		bic	r2, r0, #1032
 227 00a4 22F00201 		bic	r1, r2, #2
 228 00a8 0B04     		lsls	r3, r1, #16
 287:../libraries/STM32F10x_StdPeriph_Driver/src/stm32f10x_i2c.c ****   /* Configure I2Cx: mode and acknowledgement */
 288:../libraries/STM32F10x_StdPeriph_Driver/src/stm32f10x_i2c.c ****   /* Set SMBTYPE and SMBUS bits according to I2C_Mode value */
 289:../libraries/STM32F10x_StdPeriph_Driver/src/stm32f10x_i2c.c ****   /* Set ACK bit according to I2C_Ack value */
 290:../libraries/STM32F10x_StdPeriph_Driver/src/stm32f10x_i2c.c ****   tmpreg |= (uint16_t)((uint32_t)I2C_InitStruct->I2C_Mode | I2C_InitStruct->I2C_Ack);
 229              		.loc 1 290 0
 230 00aa AA88     		ldrh	r2, [r5, #4]
 231 00ac 6989     		ldrh	r1, [r5, #10]
 286:../libraries/STM32F10x_StdPeriph_Driver/src/stm32f10x_i2c.c ****   tmpreg &= CR1_CLEAR_Mask;
 232              		.loc 1 286 0
 233 00ae 180C     		lsrs	r0, r3, #16
 234              	.LVL35:
 235              		.loc 1 290 0
 236 00b0 41EA0203 		orr	r3, r1, r2
 291:../libraries/STM32F10x_StdPeriph_Driver/src/stm32f10x_i2c.c ****   /* Write to I2Cx CR1 */
 292:../libraries/STM32F10x_StdPeriph_Driver/src/stm32f10x_i2c.c ****   I2Cx->CR1 = tmpreg;
 293:../libraries/STM32F10x_StdPeriph_Driver/src/stm32f10x_i2c.c **** 
 294:../libraries/STM32F10x_StdPeriph_Driver/src/stm32f10x_i2c.c **** /*---------------------------- I2Cx OAR1 Configuration -----------------------*/
 295:../libraries/STM32F10x_StdPeriph_Driver/src/stm32f10x_i2c.c ****   /* Set I2Cx Own Address1 and acknowledged address */
 296:../libraries/STM32F10x_StdPeriph_Driver/src/stm32f10x_i2c.c ****   I2Cx->OAR1 = (I2C_InitStruct->I2C_AcknowledgedAddress | I2C_InitStruct->I2C_OwnAddress1);
 237              		.loc 1 296 0
 238 00b4 2989     		ldrh	r1, [r5, #8]
 239 00b6 AA89     		ldrh	r2, [r5, #12]
 290:../libraries/STM32F10x_StdPeriph_Driver/src/stm32f10x_i2c.c ****   tmpreg |= (uint16_t)((uint32_t)I2C_InitStruct->I2C_Mode | I2C_InitStruct->I2C_Ack);
 240              		.loc 1 290 0
 241 00b8 1843     		orrs	r0, r0, r3
 242              	.LVL36:
 243 00ba 80B2     		uxth	r0, r0
 244              	.LVL37:
 245              		.loc 1 296 0
 246 00bc 41EA0203 		orr	r3, r1, r2
 292:../libraries/STM32F10x_StdPeriph_Driver/src/stm32f10x_i2c.c ****   I2Cx->CR1 = tmpreg;
 247              		.loc 1 292 0
 248 00c0 2080     		strh	r0, [r4, #0]	@ movhi
 249              		.loc 1 296 0
 250 00c2 98B2     		uxth	r0, r3
 251              	.LVL38:
 252 00c4 2081     		strh	r0, [r4, #8]	@ movhi
 297:../libraries/STM32F10x_StdPeriph_Driver/src/stm32f10x_i2c.c **** }
 253              		.loc 1 297 0
 254 00c6 07B0     		add	sp, sp, #28
 255 00c8 F0BD     		pop	{r4, r5, r6, r7, pc}
 256              	.L17:
 257 00ca 00BF     		.align	2
 258              	.L16:
 259 00cc 40420F00 		.word	1000000
 260 00d0 A0860100 		.word	100000
 261              		.cfi_endproc
 262              	.LFE57:
 264              		.section	.text.I2C_StructInit,"ax",%progbits
 265              		.align	1
 266              		.global	I2C_StructInit
 267              		.thumb
 268              		.thumb_func
 270              	I2C_StructInit:
 271              	.LFB58:
 298:../libraries/STM32F10x_StdPeriph_Driver/src/stm32f10x_i2c.c **** 
 299:../libraries/STM32F10x_StdPeriph_Driver/src/stm32f10x_i2c.c **** /**
 300:../libraries/STM32F10x_StdPeriph_Driver/src/stm32f10x_i2c.c ****   * @brief  Fills each I2C_InitStruct member with its default value.
 301:../libraries/STM32F10x_StdPeriph_Driver/src/stm32f10x_i2c.c ****   * @param  I2C_InitStruct: pointer to an I2C_InitTypeDef structure which will be initialized.
 302:../libraries/STM32F10x_StdPeriph_Driver/src/stm32f10x_i2c.c ****   * @retval None
 303:../libraries/STM32F10x_StdPeriph_Driver/src/stm32f10x_i2c.c ****   */
 304:../libraries/STM32F10x_StdPeriph_Driver/src/stm32f10x_i2c.c **** void I2C_StructInit(I2C_InitTypeDef* I2C_InitStruct)
 305:../libraries/STM32F10x_StdPeriph_Driver/src/stm32f10x_i2c.c **** {
 272              		.loc 1 305 0
 273              		.cfi_startproc
 274              		@ args = 0, pretend = 0, frame = 0
 275              		@ frame_needed = 0, uses_anonymous_args = 0
 276              		@ link register save eliminated.
 277              	.LVL39:
 306:../libraries/STM32F10x_StdPeriph_Driver/src/stm32f10x_i2c.c **** /*---------------- Reset I2C init structure parameters values ----------------*/
 307:../libraries/STM32F10x_StdPeriph_Driver/src/stm32f10x_i2c.c ****   /* initialize the I2C_ClockSpeed member */
 308:../libraries/STM32F10x_StdPeriph_Driver/src/stm32f10x_i2c.c ****   I2C_InitStruct->I2C_ClockSpeed = 5000;
 278              		.loc 1 308 0
 279 0000 41F28833 		movw	r3, #5000
 309:../libraries/STM32F10x_StdPeriph_Driver/src/stm32f10x_i2c.c ****   /* Initialize the I2C_Mode member */
 310:../libraries/STM32F10x_StdPeriph_Driver/src/stm32f10x_i2c.c ****   I2C_InitStruct->I2C_Mode = I2C_Mode_I2C;
 280              		.loc 1 310 0
 281 0004 0021     		movs	r1, #0
 308:../libraries/STM32F10x_StdPeriph_Driver/src/stm32f10x_i2c.c ****   I2C_InitStruct->I2C_ClockSpeed = 5000;
 282              		.loc 1 308 0
 283 0006 0360     		str	r3, [r0, #0]
 311:../libraries/STM32F10x_StdPeriph_Driver/src/stm32f10x_i2c.c ****   /* Initialize the I2C_DutyCycle member */
 312:../libraries/STM32F10x_StdPeriph_Driver/src/stm32f10x_i2c.c ****   I2C_InitStruct->I2C_DutyCycle = I2C_DutyCycle_2;
 284              		.loc 1 312 0
 285 0008 4BF6FF72 		movw	r2, #49151
 313:../libraries/STM32F10x_StdPeriph_Driver/src/stm32f10x_i2c.c ****   /* Initialize the I2C_OwnAddress1 member */
 314:../libraries/STM32F10x_StdPeriph_Driver/src/stm32f10x_i2c.c ****   I2C_InitStruct->I2C_OwnAddress1 = 0;
 315:../libraries/STM32F10x_StdPeriph_Driver/src/stm32f10x_i2c.c ****   /* Initialize the I2C_Ack member */
 316:../libraries/STM32F10x_StdPeriph_Driver/src/stm32f10x_i2c.c ****   I2C_InitStruct->I2C_Ack = I2C_Ack_Disable;
 317:../libraries/STM32F10x_StdPeriph_Driver/src/stm32f10x_i2c.c ****   /* Initialize the I2C_AcknowledgedAddress member */
 318:../libraries/STM32F10x_StdPeriph_Driver/src/stm32f10x_i2c.c ****   I2C_InitStruct->I2C_AcknowledgedAddress = I2C_AcknowledgedAddress_7bit;
 286              		.loc 1 318 0
 287 000c 4FF48043 		mov	r3, #16384
 310:../libraries/STM32F10x_StdPeriph_Driver/src/stm32f10x_i2c.c ****   I2C_InitStruct->I2C_Mode = I2C_Mode_I2C;
 288              		.loc 1 310 0
 289 0010 8180     		strh	r1, [r0, #4]	@ movhi
 312:../libraries/STM32F10x_StdPeriph_Driver/src/stm32f10x_i2c.c ****   I2C_InitStruct->I2C_DutyCycle = I2C_DutyCycle_2;
 290              		.loc 1 312 0
 291 0012 C280     		strh	r2, [r0, #6]	@ movhi
 314:../libraries/STM32F10x_StdPeriph_Driver/src/stm32f10x_i2c.c ****   I2C_InitStruct->I2C_OwnAddress1 = 0;
 292              		.loc 1 314 0
 293 0014 0181     		strh	r1, [r0, #8]	@ movhi
 316:../libraries/STM32F10x_StdPeriph_Driver/src/stm32f10x_i2c.c ****   I2C_InitStruct->I2C_Ack = I2C_Ack_Disable;
 294              		.loc 1 316 0
 295 0016 4181     		strh	r1, [r0, #10]	@ movhi
 296              		.loc 1 318 0
 297 0018 8381     		strh	r3, [r0, #12]	@ movhi
 298 001a 7047     		bx	lr
 299              		.cfi_endproc
 300              	.LFE58:
 302              		.section	.text.I2C_Cmd,"ax",%progbits
 303              		.align	1
 304              		.global	I2C_Cmd
 305              		.thumb
 306              		.thumb_func
 308              	I2C_Cmd:
 309              	.LFB59:
 319:../libraries/STM32F10x_StdPeriph_Driver/src/stm32f10x_i2c.c **** }
 320:../libraries/STM32F10x_StdPeriph_Driver/src/stm32f10x_i2c.c **** 
 321:../libraries/STM32F10x_StdPeriph_Driver/src/stm32f10x_i2c.c **** /**
 322:../libraries/STM32F10x_StdPeriph_Driver/src/stm32f10x_i2c.c ****   * @brief  Enables or disables the specified I2C peripheral.
 323:../libraries/STM32F10x_StdPeriph_Driver/src/stm32f10x_i2c.c ****   * @param  I2Cx: where x can be 1 or 2 to select the I2C peripheral.
 324:../libraries/STM32F10x_StdPeriph_Driver/src/stm32f10x_i2c.c ****   * @param  NewState: new state of the I2Cx peripheral. 
 325:../libraries/STM32F10x_StdPeriph_Driver/src/stm32f10x_i2c.c ****   *   This parameter can be: ENABLE or DISABLE.
 326:../libraries/STM32F10x_StdPeriph_Driver/src/stm32f10x_i2c.c ****   * @retval None
 327:../libraries/STM32F10x_StdPeriph_Driver/src/stm32f10x_i2c.c ****   */
 328:../libraries/STM32F10x_StdPeriph_Driver/src/stm32f10x_i2c.c **** void I2C_Cmd(I2C_TypeDef* I2Cx, FunctionalState NewState)
 329:../libraries/STM32F10x_StdPeriph_Driver/src/stm32f10x_i2c.c **** {
 310              		.loc 1 329 0
 311              		.cfi_startproc
 312              		@ args = 0, pretend = 0, frame = 0
 313              		@ frame_needed = 0, uses_anonymous_args = 0
 314              		@ link register save eliminated.
 315              	.LVL40:
 330:../libraries/STM32F10x_StdPeriph_Driver/src/stm32f10x_i2c.c ****   /* Check the parameters */
 331:../libraries/STM32F10x_StdPeriph_Driver/src/stm32f10x_i2c.c ****   assert_param(IS_I2C_ALL_PERIPH(I2Cx));
 332:../libraries/STM32F10x_StdPeriph_Driver/src/stm32f10x_i2c.c ****   assert_param(IS_FUNCTIONAL_STATE(NewState));
 333:../libraries/STM32F10x_StdPeriph_Driver/src/stm32f10x_i2c.c ****   if (NewState != DISABLE)
 334:../libraries/STM32F10x_StdPeriph_Driver/src/stm32f10x_i2c.c ****   {
 335:../libraries/STM32F10x_StdPeriph_Driver/src/stm32f10x_i2c.c ****     /* Enable the selected I2C peripheral */
 336:../libraries/STM32F10x_StdPeriph_Driver/src/stm32f10x_i2c.c ****     I2Cx->CR1 |= CR1_PE_Set;
 316              		.loc 1 336 0
 317 0000 0388     		ldrh	r3, [r0, #0]
 333:../libraries/STM32F10x_StdPeriph_Driver/src/stm32f10x_i2c.c ****   if (NewState != DISABLE)
 318              		.loc 1 333 0
 319 0002 19B1     		cbz	r1, .L20
 320              		.loc 1 336 0
 321 0004 99B2     		uxth	r1, r3
 322              	.LVL41:
 323 0006 41F00103 		orr	r3, r1, #1
 324 000a 03E0     		b	.L22
 325              	.LVL42:
 326              	.L20:
 337:../libraries/STM32F10x_StdPeriph_Driver/src/stm32f10x_i2c.c ****   }
 338:../libraries/STM32F10x_StdPeriph_Driver/src/stm32f10x_i2c.c ****   else
 339:../libraries/STM32F10x_StdPeriph_Driver/src/stm32f10x_i2c.c ****   {
 340:../libraries/STM32F10x_StdPeriph_Driver/src/stm32f10x_i2c.c ****     /* Disable the selected I2C peripheral */
 341:../libraries/STM32F10x_StdPeriph_Driver/src/stm32f10x_i2c.c ****     I2Cx->CR1 &= CR1_PE_Reset;
 327              		.loc 1 341 0
 328 000c 23F00101 		bic	r1, r3, #1
 329              	.LVL43:
 330 0010 0A04     		lsls	r2, r1, #16
 331 0012 130C     		lsrs	r3, r2, #16
 332              	.L22:
 333 0014 0380     		strh	r3, [r0, #0]	@ movhi
 334 0016 7047     		bx	lr
 335              		.cfi_endproc
 336              	.LFE59:
 338              		.section	.text.I2C_DMACmd,"ax",%progbits
 339              		.align	1
 340              		.global	I2C_DMACmd
 341              		.thumb
 342              		.thumb_func
 344              	I2C_DMACmd:
 345              	.LFB60:
 342:../libraries/STM32F10x_StdPeriph_Driver/src/stm32f10x_i2c.c ****   }
 343:../libraries/STM32F10x_StdPeriph_Driver/src/stm32f10x_i2c.c **** }
 344:../libraries/STM32F10x_StdPeriph_Driver/src/stm32f10x_i2c.c **** 
 345:../libraries/STM32F10x_StdPeriph_Driver/src/stm32f10x_i2c.c **** /**
 346:../libraries/STM32F10x_StdPeriph_Driver/src/stm32f10x_i2c.c ****   * @brief  Enables or disables the specified I2C DMA requests.
 347:../libraries/STM32F10x_StdPeriph_Driver/src/stm32f10x_i2c.c ****   * @param  I2Cx: where x can be 1 or 2 to select the I2C peripheral.
 348:../libraries/STM32F10x_StdPeriph_Driver/src/stm32f10x_i2c.c ****   * @param  NewState: new state of the I2C DMA transfer.
 349:../libraries/STM32F10x_StdPeriph_Driver/src/stm32f10x_i2c.c ****   *   This parameter can be: ENABLE or DISABLE.
 350:../libraries/STM32F10x_StdPeriph_Driver/src/stm32f10x_i2c.c ****   * @retval None
 351:../libraries/STM32F10x_StdPeriph_Driver/src/stm32f10x_i2c.c ****   */
 352:../libraries/STM32F10x_StdPeriph_Driver/src/stm32f10x_i2c.c **** void I2C_DMACmd(I2C_TypeDef* I2Cx, FunctionalState NewState)
 353:../libraries/STM32F10x_StdPeriph_Driver/src/stm32f10x_i2c.c **** {
 346              		.loc 1 353 0
 347              		.cfi_startproc
 348              		@ args = 0, pretend = 0, frame = 0
 349              		@ frame_needed = 0, uses_anonymous_args = 0
 350              		@ link register save eliminated.
 351              	.LVL44:
 354:../libraries/STM32F10x_StdPeriph_Driver/src/stm32f10x_i2c.c ****   /* Check the parameters */
 355:../libraries/STM32F10x_StdPeriph_Driver/src/stm32f10x_i2c.c ****   assert_param(IS_I2C_ALL_PERIPH(I2Cx));
 356:../libraries/STM32F10x_StdPeriph_Driver/src/stm32f10x_i2c.c ****   assert_param(IS_FUNCTIONAL_STATE(NewState));
 357:../libraries/STM32F10x_StdPeriph_Driver/src/stm32f10x_i2c.c ****   if (NewState != DISABLE)
 358:../libraries/STM32F10x_StdPeriph_Driver/src/stm32f10x_i2c.c ****   {
 359:../libraries/STM32F10x_StdPeriph_Driver/src/stm32f10x_i2c.c ****     /* Enable the selected I2C DMA requests */
 360:../libraries/STM32F10x_StdPeriph_Driver/src/stm32f10x_i2c.c ****     I2Cx->CR2 |= CR2_DMAEN_Set;
 352              		.loc 1 360 0
 353 0000 8388     		ldrh	r3, [r0, #4]
 357:../libraries/STM32F10x_StdPeriph_Driver/src/stm32f10x_i2c.c ****   if (NewState != DISABLE)
 354              		.loc 1 357 0
 355 0002 19B1     		cbz	r1, .L24
 356              		.loc 1 360 0
 357 0004 99B2     		uxth	r1, r3
 358              	.LVL45:
 359 0006 41F40063 		orr	r3, r1, #2048
 360 000a 03E0     		b	.L26
 361              	.LVL46:
 362              	.L24:
 361:../libraries/STM32F10x_StdPeriph_Driver/src/stm32f10x_i2c.c ****   }
 362:../libraries/STM32F10x_StdPeriph_Driver/src/stm32f10x_i2c.c ****   else
 363:../libraries/STM32F10x_StdPeriph_Driver/src/stm32f10x_i2c.c ****   {
 364:../libraries/STM32F10x_StdPeriph_Driver/src/stm32f10x_i2c.c ****     /* Disable the selected I2C DMA requests */
 365:../libraries/STM32F10x_StdPeriph_Driver/src/stm32f10x_i2c.c ****     I2Cx->CR2 &= CR2_DMAEN_Reset;
 363              		.loc 1 365 0
 364 000c 23F40061 		bic	r1, r3, #2048
 365              	.LVL47:
 366 0010 0A04     		lsls	r2, r1, #16
 367 0012 130C     		lsrs	r3, r2, #16
 368              	.L26:
 369 0014 8380     		strh	r3, [r0, #4]	@ movhi
 370 0016 7047     		bx	lr
 371              		.cfi_endproc
 372              	.LFE60:
 374              		.section	.text.I2C_DMALastTransferCmd,"ax",%progbits
 375              		.align	1
 376              		.global	I2C_DMALastTransferCmd
 377              		.thumb
 378              		.thumb_func
 380              	I2C_DMALastTransferCmd:
 381              	.LFB61:
 366:../libraries/STM32F10x_StdPeriph_Driver/src/stm32f10x_i2c.c ****   }
 367:../libraries/STM32F10x_StdPeriph_Driver/src/stm32f10x_i2c.c **** }
 368:../libraries/STM32F10x_StdPeriph_Driver/src/stm32f10x_i2c.c **** 
 369:../libraries/STM32F10x_StdPeriph_Driver/src/stm32f10x_i2c.c **** /**
 370:../libraries/STM32F10x_StdPeriph_Driver/src/stm32f10x_i2c.c ****   * @brief  Specifies if the next DMA transfer will be the last one.
 371:../libraries/STM32F10x_StdPeriph_Driver/src/stm32f10x_i2c.c ****   * @param  I2Cx: where x can be 1 or 2 to select the I2C peripheral.
 372:../libraries/STM32F10x_StdPeriph_Driver/src/stm32f10x_i2c.c ****   * @param  NewState: new state of the I2C DMA last transfer.
 373:../libraries/STM32F10x_StdPeriph_Driver/src/stm32f10x_i2c.c ****   *   This parameter can be: ENABLE or DISABLE.
 374:../libraries/STM32F10x_StdPeriph_Driver/src/stm32f10x_i2c.c ****   * @retval None
 375:../libraries/STM32F10x_StdPeriph_Driver/src/stm32f10x_i2c.c ****   */
 376:../libraries/STM32F10x_StdPeriph_Driver/src/stm32f10x_i2c.c **** void I2C_DMALastTransferCmd(I2C_TypeDef* I2Cx, FunctionalState NewState)
 377:../libraries/STM32F10x_StdPeriph_Driver/src/stm32f10x_i2c.c **** {
 382              		.loc 1 377 0
 383              		.cfi_startproc
 384              		@ args = 0, pretend = 0, frame = 0
 385              		@ frame_needed = 0, uses_anonymous_args = 0
 386              		@ link register save eliminated.
 387              	.LVL48:
 378:../libraries/STM32F10x_StdPeriph_Driver/src/stm32f10x_i2c.c ****   /* Check the parameters */
 379:../libraries/STM32F10x_StdPeriph_Driver/src/stm32f10x_i2c.c ****   assert_param(IS_I2C_ALL_PERIPH(I2Cx));
 380:../libraries/STM32F10x_StdPeriph_Driver/src/stm32f10x_i2c.c ****   assert_param(IS_FUNCTIONAL_STATE(NewState));
 381:../libraries/STM32F10x_StdPeriph_Driver/src/stm32f10x_i2c.c ****   if (NewState != DISABLE)
 382:../libraries/STM32F10x_StdPeriph_Driver/src/stm32f10x_i2c.c ****   {
 383:../libraries/STM32F10x_StdPeriph_Driver/src/stm32f10x_i2c.c ****     /* Next DMA transfer is the last transfer */
 384:../libraries/STM32F10x_StdPeriph_Driver/src/stm32f10x_i2c.c ****     I2Cx->CR2 |= CR2_LAST_Set;
 388              		.loc 1 384 0
 389 0000 8388     		ldrh	r3, [r0, #4]
 381:../libraries/STM32F10x_StdPeriph_Driver/src/stm32f10x_i2c.c ****   if (NewState != DISABLE)
 390              		.loc 1 381 0
 391 0002 19B1     		cbz	r1, .L28
 392              		.loc 1 384 0
 393 0004 99B2     		uxth	r1, r3
 394              	.LVL49:
 395 0006 41F48053 		orr	r3, r1, #4096
 396 000a 03E0     		b	.L30
 397              	.LVL50:
 398              	.L28:
 385:../libraries/STM32F10x_StdPeriph_Driver/src/stm32f10x_i2c.c ****   }
 386:../libraries/STM32F10x_StdPeriph_Driver/src/stm32f10x_i2c.c ****   else
 387:../libraries/STM32F10x_StdPeriph_Driver/src/stm32f10x_i2c.c ****   {
 388:../libraries/STM32F10x_StdPeriph_Driver/src/stm32f10x_i2c.c ****     /* Next DMA transfer is not the last transfer */
 389:../libraries/STM32F10x_StdPeriph_Driver/src/stm32f10x_i2c.c ****     I2Cx->CR2 &= CR2_LAST_Reset;
 399              		.loc 1 389 0
 400 000c 23F48051 		bic	r1, r3, #4096
 401              	.LVL51:
 402 0010 0A04     		lsls	r2, r1, #16
 403 0012 130C     		lsrs	r3, r2, #16
 404              	.L30:
 405 0014 8380     		strh	r3, [r0, #4]	@ movhi
 406 0016 7047     		bx	lr
 407              		.cfi_endproc
 408              	.LFE61:
 410              		.section	.text.I2C_GenerateSTART,"ax",%progbits
 411              		.align	1
 412              		.global	I2C_GenerateSTART
 413              		.thumb
 414              		.thumb_func
 416              	I2C_GenerateSTART:
 417              	.LFB62:
 390:../libraries/STM32F10x_StdPeriph_Driver/src/stm32f10x_i2c.c ****   }
 391:../libraries/STM32F10x_StdPeriph_Driver/src/stm32f10x_i2c.c **** }
 392:../libraries/STM32F10x_StdPeriph_Driver/src/stm32f10x_i2c.c **** 
 393:../libraries/STM32F10x_StdPeriph_Driver/src/stm32f10x_i2c.c **** /**
 394:../libraries/STM32F10x_StdPeriph_Driver/src/stm32f10x_i2c.c ****   * @brief  Generates I2Cx communication START condition.
 395:../libraries/STM32F10x_StdPeriph_Driver/src/stm32f10x_i2c.c ****   * @param  I2Cx: where x can be 1 or 2 to select the I2C peripheral.
 396:../libraries/STM32F10x_StdPeriph_Driver/src/stm32f10x_i2c.c ****   * @param  NewState: new state of the I2C START condition generation.
 397:../libraries/STM32F10x_StdPeriph_Driver/src/stm32f10x_i2c.c ****   *   This parameter can be: ENABLE or DISABLE.
 398:../libraries/STM32F10x_StdPeriph_Driver/src/stm32f10x_i2c.c ****   * @retval None.
 399:../libraries/STM32F10x_StdPeriph_Driver/src/stm32f10x_i2c.c ****   */
 400:../libraries/STM32F10x_StdPeriph_Driver/src/stm32f10x_i2c.c **** void I2C_GenerateSTART(I2C_TypeDef* I2Cx, FunctionalState NewState)
 401:../libraries/STM32F10x_StdPeriph_Driver/src/stm32f10x_i2c.c **** {
 418              		.loc 1 401 0
 419              		.cfi_startproc
 420              		@ args = 0, pretend = 0, frame = 0
 421              		@ frame_needed = 0, uses_anonymous_args = 0
 422              		@ link register save eliminated.
 423              	.LVL52:
 402:../libraries/STM32F10x_StdPeriph_Driver/src/stm32f10x_i2c.c ****   /* Check the parameters */
 403:../libraries/STM32F10x_StdPeriph_Driver/src/stm32f10x_i2c.c ****   assert_param(IS_I2C_ALL_PERIPH(I2Cx));
 404:../libraries/STM32F10x_StdPeriph_Driver/src/stm32f10x_i2c.c ****   assert_param(IS_FUNCTIONAL_STATE(NewState));
 405:../libraries/STM32F10x_StdPeriph_Driver/src/stm32f10x_i2c.c ****   if (NewState != DISABLE)
 406:../libraries/STM32F10x_StdPeriph_Driver/src/stm32f10x_i2c.c ****   {
 407:../libraries/STM32F10x_StdPeriph_Driver/src/stm32f10x_i2c.c ****     /* Generate a START condition */
 408:../libraries/STM32F10x_StdPeriph_Driver/src/stm32f10x_i2c.c ****     I2Cx->CR1 |= CR1_START_Set;
 424              		.loc 1 408 0
 425 0000 0388     		ldrh	r3, [r0, #0]
 405:../libraries/STM32F10x_StdPeriph_Driver/src/stm32f10x_i2c.c ****   if (NewState != DISABLE)
 426              		.loc 1 405 0
 427 0002 19B1     		cbz	r1, .L32
 428              		.loc 1 408 0
 429 0004 99B2     		uxth	r1, r3
 430              	.LVL53:
 431 0006 41F48073 		orr	r3, r1, #256
 432 000a 03E0     		b	.L34
 433              	.LVL54:
 434              	.L32:
 409:../libraries/STM32F10x_StdPeriph_Driver/src/stm32f10x_i2c.c ****   }
 410:../libraries/STM32F10x_StdPeriph_Driver/src/stm32f10x_i2c.c ****   else
 411:../libraries/STM32F10x_StdPeriph_Driver/src/stm32f10x_i2c.c ****   {
 412:../libraries/STM32F10x_StdPeriph_Driver/src/stm32f10x_i2c.c ****     /* Disable the START condition generation */
 413:../libraries/STM32F10x_StdPeriph_Driver/src/stm32f10x_i2c.c ****     I2Cx->CR1 &= CR1_START_Reset;
 435              		.loc 1 413 0
 436 000c 23F48071 		bic	r1, r3, #256
 437              	.LVL55:
 438 0010 0A04     		lsls	r2, r1, #16
 439 0012 130C     		lsrs	r3, r2, #16
 440              	.L34:
 441 0014 0380     		strh	r3, [r0, #0]	@ movhi
 442 0016 7047     		bx	lr
 443              		.cfi_endproc
 444              	.LFE62:
 446              		.section	.text.I2C_GenerateSTOP,"ax",%progbits
 447              		.align	1
 448              		.global	I2C_GenerateSTOP
 449              		.thumb
 450              		.thumb_func
 452              	I2C_GenerateSTOP:
 453              	.LFB63:
 414:../libraries/STM32F10x_StdPeriph_Driver/src/stm32f10x_i2c.c ****   }
 415:../libraries/STM32F10x_StdPeriph_Driver/src/stm32f10x_i2c.c **** }
 416:../libraries/STM32F10x_StdPeriph_Driver/src/stm32f10x_i2c.c **** 
 417:../libraries/STM32F10x_StdPeriph_Driver/src/stm32f10x_i2c.c **** /**
 418:../libraries/STM32F10x_StdPeriph_Driver/src/stm32f10x_i2c.c ****   * @brief  Generates I2Cx communication STOP condition.
 419:../libraries/STM32F10x_StdPeriph_Driver/src/stm32f10x_i2c.c ****   * @param  I2Cx: where x can be 1 or 2 to select the I2C peripheral.
 420:../libraries/STM32F10x_StdPeriph_Driver/src/stm32f10x_i2c.c ****   * @param  NewState: new state of the I2C STOP condition generation.
 421:../libraries/STM32F10x_StdPeriph_Driver/src/stm32f10x_i2c.c ****   *   This parameter can be: ENABLE or DISABLE.
 422:../libraries/STM32F10x_StdPeriph_Driver/src/stm32f10x_i2c.c ****   * @retval None.
 423:../libraries/STM32F10x_StdPeriph_Driver/src/stm32f10x_i2c.c ****   */
 424:../libraries/STM32F10x_StdPeriph_Driver/src/stm32f10x_i2c.c **** void I2C_GenerateSTOP(I2C_TypeDef* I2Cx, FunctionalState NewState)
 425:../libraries/STM32F10x_StdPeriph_Driver/src/stm32f10x_i2c.c **** {
 454              		.loc 1 425 0
 455              		.cfi_startproc
 456              		@ args = 0, pretend = 0, frame = 0
 457              		@ frame_needed = 0, uses_anonymous_args = 0
 458              		@ link register save eliminated.
 459              	.LVL56:
 426:../libraries/STM32F10x_StdPeriph_Driver/src/stm32f10x_i2c.c ****   /* Check the parameters */
 427:../libraries/STM32F10x_StdPeriph_Driver/src/stm32f10x_i2c.c ****   assert_param(IS_I2C_ALL_PERIPH(I2Cx));
 428:../libraries/STM32F10x_StdPeriph_Driver/src/stm32f10x_i2c.c ****   assert_param(IS_FUNCTIONAL_STATE(NewState));
 429:../libraries/STM32F10x_StdPeriph_Driver/src/stm32f10x_i2c.c ****   if (NewState != DISABLE)
 430:../libraries/STM32F10x_StdPeriph_Driver/src/stm32f10x_i2c.c ****   {
 431:../libraries/STM32F10x_StdPeriph_Driver/src/stm32f10x_i2c.c ****     /* Generate a STOP condition */
 432:../libraries/STM32F10x_StdPeriph_Driver/src/stm32f10x_i2c.c ****     I2Cx->CR1 |= CR1_STOP_Set;
 460              		.loc 1 432 0
 461 0000 0388     		ldrh	r3, [r0, #0]
 429:../libraries/STM32F10x_StdPeriph_Driver/src/stm32f10x_i2c.c ****   if (NewState != DISABLE)
 462              		.loc 1 429 0
 463 0002 19B1     		cbz	r1, .L36
 464              		.loc 1 432 0
 465 0004 99B2     		uxth	r1, r3
 466              	.LVL57:
 467 0006 41F40073 		orr	r3, r1, #512
 468 000a 03E0     		b	.L38
 469              	.LVL58:
 470              	.L36:
 433:../libraries/STM32F10x_StdPeriph_Driver/src/stm32f10x_i2c.c ****   }
 434:../libraries/STM32F10x_StdPeriph_Driver/src/stm32f10x_i2c.c ****   else
 435:../libraries/STM32F10x_StdPeriph_Driver/src/stm32f10x_i2c.c ****   {
 436:../libraries/STM32F10x_StdPeriph_Driver/src/stm32f10x_i2c.c ****     /* Disable the STOP condition generation */
 437:../libraries/STM32F10x_StdPeriph_Driver/src/stm32f10x_i2c.c ****     I2Cx->CR1 &= CR1_STOP_Reset;
 471              		.loc 1 437 0
 472 000c 23F40071 		bic	r1, r3, #512
 473              	.LVL59:
 474 0010 0A04     		lsls	r2, r1, #16
 475 0012 130C     		lsrs	r3, r2, #16
 476              	.L38:
 477 0014 0380     		strh	r3, [r0, #0]	@ movhi
 478 0016 7047     		bx	lr
 479              		.cfi_endproc
 480              	.LFE63:
 482              		.section	.text.I2C_AcknowledgeConfig,"ax",%progbits
 483              		.align	1
 484              		.global	I2C_AcknowledgeConfig
 485              		.thumb
 486              		.thumb_func
 488              	I2C_AcknowledgeConfig:
 489              	.LFB64:
 438:../libraries/STM32F10x_StdPeriph_Driver/src/stm32f10x_i2c.c ****   }
 439:../libraries/STM32F10x_StdPeriph_Driver/src/stm32f10x_i2c.c **** }
 440:../libraries/STM32F10x_StdPeriph_Driver/src/stm32f10x_i2c.c **** 
 441:../libraries/STM32F10x_StdPeriph_Driver/src/stm32f10x_i2c.c **** /**
 442:../libraries/STM32F10x_StdPeriph_Driver/src/stm32f10x_i2c.c ****   * @brief  Enables or disables the specified I2C acknowledge feature.
 443:../libraries/STM32F10x_StdPeriph_Driver/src/stm32f10x_i2c.c ****   * @param  I2Cx: where x can be 1 or 2 to select the I2C peripheral.
 444:../libraries/STM32F10x_StdPeriph_Driver/src/stm32f10x_i2c.c ****   * @param  NewState: new state of the I2C Acknowledgement.
 445:../libraries/STM32F10x_StdPeriph_Driver/src/stm32f10x_i2c.c ****   *   This parameter can be: ENABLE or DISABLE.
 446:../libraries/STM32F10x_StdPeriph_Driver/src/stm32f10x_i2c.c ****   * @retval None.
 447:../libraries/STM32F10x_StdPeriph_Driver/src/stm32f10x_i2c.c ****   */
 448:../libraries/STM32F10x_StdPeriph_Driver/src/stm32f10x_i2c.c **** void I2C_AcknowledgeConfig(I2C_TypeDef* I2Cx, FunctionalState NewState)
 449:../libraries/STM32F10x_StdPeriph_Driver/src/stm32f10x_i2c.c **** {
 490              		.loc 1 449 0
 491              		.cfi_startproc
 492              		@ args = 0, pretend = 0, frame = 0
 493              		@ frame_needed = 0, uses_anonymous_args = 0
 494              		@ link register save eliminated.
 495              	.LVL60:
 450:../libraries/STM32F10x_StdPeriph_Driver/src/stm32f10x_i2c.c ****   /* Check the parameters */
 451:../libraries/STM32F10x_StdPeriph_Driver/src/stm32f10x_i2c.c ****   assert_param(IS_I2C_ALL_PERIPH(I2Cx));
 452:../libraries/STM32F10x_StdPeriph_Driver/src/stm32f10x_i2c.c ****   assert_param(IS_FUNCTIONAL_STATE(NewState));
 453:../libraries/STM32F10x_StdPeriph_Driver/src/stm32f10x_i2c.c ****   if (NewState != DISABLE)
 454:../libraries/STM32F10x_StdPeriph_Driver/src/stm32f10x_i2c.c ****   {
 455:../libraries/STM32F10x_StdPeriph_Driver/src/stm32f10x_i2c.c ****     /* Enable the acknowledgement */
 456:../libraries/STM32F10x_StdPeriph_Driver/src/stm32f10x_i2c.c ****     I2Cx->CR1 |= CR1_ACK_Set;
 496              		.loc 1 456 0
 497 0000 0388     		ldrh	r3, [r0, #0]
 453:../libraries/STM32F10x_StdPeriph_Driver/src/stm32f10x_i2c.c ****   if (NewState != DISABLE)
 498              		.loc 1 453 0
 499 0002 19B1     		cbz	r1, .L40
 500              		.loc 1 456 0
 501 0004 99B2     		uxth	r1, r3
 502              	.LVL61:
 503 0006 41F48063 		orr	r3, r1, #1024
 504 000a 03E0     		b	.L42
 505              	.LVL62:
 506              	.L40:
 457:../libraries/STM32F10x_StdPeriph_Driver/src/stm32f10x_i2c.c ****   }
 458:../libraries/STM32F10x_StdPeriph_Driver/src/stm32f10x_i2c.c ****   else
 459:../libraries/STM32F10x_StdPeriph_Driver/src/stm32f10x_i2c.c ****   {
 460:../libraries/STM32F10x_StdPeriph_Driver/src/stm32f10x_i2c.c ****     /* Disable the acknowledgement */
 461:../libraries/STM32F10x_StdPeriph_Driver/src/stm32f10x_i2c.c ****     I2Cx->CR1 &= CR1_ACK_Reset;
 507              		.loc 1 461 0
 508 000c 23F48061 		bic	r1, r3, #1024
 509              	.LVL63:
 510 0010 0A04     		lsls	r2, r1, #16
 511 0012 130C     		lsrs	r3, r2, #16
 512              	.L42:
 513 0014 0380     		strh	r3, [r0, #0]	@ movhi
 514 0016 7047     		bx	lr
 515              		.cfi_endproc
 516              	.LFE64:
 518              		.section	.text.I2C_OwnAddress2Config,"ax",%progbits
 519              		.align	1
 520              		.global	I2C_OwnAddress2Config
 521              		.thumb
 522              		.thumb_func
 524              	I2C_OwnAddress2Config:
 525              	.LFB65:
 462:../libraries/STM32F10x_StdPeriph_Driver/src/stm32f10x_i2c.c ****   }
 463:../libraries/STM32F10x_StdPeriph_Driver/src/stm32f10x_i2c.c **** }
 464:../libraries/STM32F10x_StdPeriph_Driver/src/stm32f10x_i2c.c **** 
 465:../libraries/STM32F10x_StdPeriph_Driver/src/stm32f10x_i2c.c **** /**
 466:../libraries/STM32F10x_StdPeriph_Driver/src/stm32f10x_i2c.c ****   * @brief  Configures the specified I2C own address2.
 467:../libraries/STM32F10x_StdPeriph_Driver/src/stm32f10x_i2c.c ****   * @param  I2Cx: where x can be 1 or 2 to select the I2C peripheral.
 468:../libraries/STM32F10x_StdPeriph_Driver/src/stm32f10x_i2c.c ****   * @param  Address: specifies the 7bit I2C own address2.
 469:../libraries/STM32F10x_StdPeriph_Driver/src/stm32f10x_i2c.c ****   * @retval None.
 470:../libraries/STM32F10x_StdPeriph_Driver/src/stm32f10x_i2c.c ****   */
 471:../libraries/STM32F10x_StdPeriph_Driver/src/stm32f10x_i2c.c **** void I2C_OwnAddress2Config(I2C_TypeDef* I2Cx, uint8_t Address)
 472:../libraries/STM32F10x_StdPeriph_Driver/src/stm32f10x_i2c.c **** {
 526              		.loc 1 472 0
 527              		.cfi_startproc
 528              		@ args = 0, pretend = 0, frame = 0
 529              		@ frame_needed = 0, uses_anonymous_args = 0
 530              		@ link register save eliminated.
 531              	.LVL64:
 473:../libraries/STM32F10x_StdPeriph_Driver/src/stm32f10x_i2c.c ****   uint16_t tmpreg = 0;
 474:../libraries/STM32F10x_StdPeriph_Driver/src/stm32f10x_i2c.c **** 
 475:../libraries/STM32F10x_StdPeriph_Driver/src/stm32f10x_i2c.c ****   /* Check the parameters */
 476:../libraries/STM32F10x_StdPeriph_Driver/src/stm32f10x_i2c.c ****   assert_param(IS_I2C_ALL_PERIPH(I2Cx));
 477:../libraries/STM32F10x_StdPeriph_Driver/src/stm32f10x_i2c.c **** 
 478:../libraries/STM32F10x_StdPeriph_Driver/src/stm32f10x_i2c.c ****   /* Get the old register value */
 479:../libraries/STM32F10x_StdPeriph_Driver/src/stm32f10x_i2c.c ****   tmpreg = I2Cx->OAR2;
 532              		.loc 1 479 0
 533 0000 8389     		ldrh	r3, [r0, #12]
 480:../libraries/STM32F10x_StdPeriph_Driver/src/stm32f10x_i2c.c **** 
 481:../libraries/STM32F10x_StdPeriph_Driver/src/stm32f10x_i2c.c ****   /* Reset I2Cx Own address2 bit [7:1] */
 482:../libraries/STM32F10x_StdPeriph_Driver/src/stm32f10x_i2c.c ****   tmpreg &= OAR2_ADD2_Reset;
 483:../libraries/STM32F10x_StdPeriph_Driver/src/stm32f10x_i2c.c **** 
 484:../libraries/STM32F10x_StdPeriph_Driver/src/stm32f10x_i2c.c ****   /* Set I2Cx Own address2 */
 485:../libraries/STM32F10x_StdPeriph_Driver/src/stm32f10x_i2c.c ****   tmpreg |= (uint16_t)((uint16_t)Address & (uint16_t)0x00FE);
 534              		.loc 1 485 0
 535 0002 01F0FE01 		and	r1, r1, #254
 536              	.LVL65:
 479:../libraries/STM32F10x_StdPeriph_Driver/src/stm32f10x_i2c.c ****   tmpreg = I2Cx->OAR2;
 537              		.loc 1 479 0
 538 0006 9AB2     		uxth	r2, r3
 539              	.LVL66:
 482:../libraries/STM32F10x_StdPeriph_Driver/src/stm32f10x_i2c.c ****   tmpreg &= OAR2_ADD2_Reset;
 540              		.loc 1 482 0
 541 0008 22F0FE03 		bic	r3, r2, #254
 542              		.loc 1 485 0
 543 000c 41EA0302 		orr	r2, r1, r3
 544              	.LVL67:
 486:../libraries/STM32F10x_StdPeriph_Driver/src/stm32f10x_i2c.c **** 
 487:../libraries/STM32F10x_StdPeriph_Driver/src/stm32f10x_i2c.c ****   /* Store the new register value */
 488:../libraries/STM32F10x_StdPeriph_Driver/src/stm32f10x_i2c.c ****   I2Cx->OAR2 = tmpreg;
 545              		.loc 1 488 0
 546 0010 8281     		strh	r2, [r0, #12]	@ movhi
 547 0012 7047     		bx	lr
 548              		.cfi_endproc
 549              	.LFE65:
 551              		.section	.text.I2C_DualAddressCmd,"ax",%progbits
 552              		.align	1
 553              		.global	I2C_DualAddressCmd
 554              		.thumb
 555              		.thumb_func
 557              	I2C_DualAddressCmd:
 558              	.LFB66:
 489:../libraries/STM32F10x_StdPeriph_Driver/src/stm32f10x_i2c.c **** }
 490:../libraries/STM32F10x_StdPeriph_Driver/src/stm32f10x_i2c.c **** 
 491:../libraries/STM32F10x_StdPeriph_Driver/src/stm32f10x_i2c.c **** /**
 492:../libraries/STM32F10x_StdPeriph_Driver/src/stm32f10x_i2c.c ****   * @brief  Enables or disables the specified I2C dual addressing mode.
 493:../libraries/STM32F10x_StdPeriph_Driver/src/stm32f10x_i2c.c ****   * @param  I2Cx: where x can be 1 or 2 to select the I2C peripheral.
 494:../libraries/STM32F10x_StdPeriph_Driver/src/stm32f10x_i2c.c ****   * @param  NewState: new state of the I2C dual addressing mode.
 495:../libraries/STM32F10x_StdPeriph_Driver/src/stm32f10x_i2c.c ****   *   This parameter can be: ENABLE or DISABLE.
 496:../libraries/STM32F10x_StdPeriph_Driver/src/stm32f10x_i2c.c ****   * @retval None
 497:../libraries/STM32F10x_StdPeriph_Driver/src/stm32f10x_i2c.c ****   */
 498:../libraries/STM32F10x_StdPeriph_Driver/src/stm32f10x_i2c.c **** void I2C_DualAddressCmd(I2C_TypeDef* I2Cx, FunctionalState NewState)
 499:../libraries/STM32F10x_StdPeriph_Driver/src/stm32f10x_i2c.c **** {
 559              		.loc 1 499 0
 560              		.cfi_startproc
 561              		@ args = 0, pretend = 0, frame = 0
 562              		@ frame_needed = 0, uses_anonymous_args = 0
 563              		@ link register save eliminated.
 564              	.LVL68:
 500:../libraries/STM32F10x_StdPeriph_Driver/src/stm32f10x_i2c.c ****   /* Check the parameters */
 501:../libraries/STM32F10x_StdPeriph_Driver/src/stm32f10x_i2c.c ****   assert_param(IS_I2C_ALL_PERIPH(I2Cx));
 502:../libraries/STM32F10x_StdPeriph_Driver/src/stm32f10x_i2c.c ****   assert_param(IS_FUNCTIONAL_STATE(NewState));
 503:../libraries/STM32F10x_StdPeriph_Driver/src/stm32f10x_i2c.c ****   if (NewState != DISABLE)
 504:../libraries/STM32F10x_StdPeriph_Driver/src/stm32f10x_i2c.c ****   {
 505:../libraries/STM32F10x_StdPeriph_Driver/src/stm32f10x_i2c.c ****     /* Enable dual addressing mode */
 506:../libraries/STM32F10x_StdPeriph_Driver/src/stm32f10x_i2c.c ****     I2Cx->OAR2 |= OAR2_ENDUAL_Set;
 565              		.loc 1 506 0
 566 0000 8389     		ldrh	r3, [r0, #12]
 503:../libraries/STM32F10x_StdPeriph_Driver/src/stm32f10x_i2c.c ****   if (NewState != DISABLE)
 567              		.loc 1 503 0
 568 0002 19B1     		cbz	r1, .L45
 569              		.loc 1 506 0
 570 0004 99B2     		uxth	r1, r3
 571              	.LVL69:
 572 0006 41F00103 		orr	r3, r1, #1
 573 000a 03E0     		b	.L47
 574              	.LVL70:
 575              	.L45:
 507:../libraries/STM32F10x_StdPeriph_Driver/src/stm32f10x_i2c.c ****   }
 508:../libraries/STM32F10x_StdPeriph_Driver/src/stm32f10x_i2c.c ****   else
 509:../libraries/STM32F10x_StdPeriph_Driver/src/stm32f10x_i2c.c ****   {
 510:../libraries/STM32F10x_StdPeriph_Driver/src/stm32f10x_i2c.c ****     /* Disable dual addressing mode */
 511:../libraries/STM32F10x_StdPeriph_Driver/src/stm32f10x_i2c.c ****     I2Cx->OAR2 &= OAR2_ENDUAL_Reset;
 576              		.loc 1 511 0
 577 000c 23F00101 		bic	r1, r3, #1
 578              	.LVL71:
 579 0010 0A04     		lsls	r2, r1, #16
 580 0012 130C     		lsrs	r3, r2, #16
 581              	.L47:
 582 0014 8381     		strh	r3, [r0, #12]	@ movhi
 583 0016 7047     		bx	lr
 584              		.cfi_endproc
 585              	.LFE66:
 587              		.section	.text.I2C_GeneralCallCmd,"ax",%progbits
 588              		.align	1
 589              		.global	I2C_GeneralCallCmd
 590              		.thumb
 591              		.thumb_func
 593              	I2C_GeneralCallCmd:
 594              	.LFB67:
 512:../libraries/STM32F10x_StdPeriph_Driver/src/stm32f10x_i2c.c ****   }
 513:../libraries/STM32F10x_StdPeriph_Driver/src/stm32f10x_i2c.c **** }
 514:../libraries/STM32F10x_StdPeriph_Driver/src/stm32f10x_i2c.c **** 
 515:../libraries/STM32F10x_StdPeriph_Driver/src/stm32f10x_i2c.c **** /**
 516:../libraries/STM32F10x_StdPeriph_Driver/src/stm32f10x_i2c.c ****   * @brief  Enables or disables the specified I2C general call feature.
 517:../libraries/STM32F10x_StdPeriph_Driver/src/stm32f10x_i2c.c ****   * @param  I2Cx: where x can be 1 or 2 to select the I2C peripheral.
 518:../libraries/STM32F10x_StdPeriph_Driver/src/stm32f10x_i2c.c ****   * @param  NewState: new state of the I2C General call.
 519:../libraries/STM32F10x_StdPeriph_Driver/src/stm32f10x_i2c.c ****   *   This parameter can be: ENABLE or DISABLE.
 520:../libraries/STM32F10x_StdPeriph_Driver/src/stm32f10x_i2c.c ****   * @retval None
 521:../libraries/STM32F10x_StdPeriph_Driver/src/stm32f10x_i2c.c ****   */
 522:../libraries/STM32F10x_StdPeriph_Driver/src/stm32f10x_i2c.c **** void I2C_GeneralCallCmd(I2C_TypeDef* I2Cx, FunctionalState NewState)
 523:../libraries/STM32F10x_StdPeriph_Driver/src/stm32f10x_i2c.c **** {
 595              		.loc 1 523 0
 596              		.cfi_startproc
 597              		@ args = 0, pretend = 0, frame = 0
 598              		@ frame_needed = 0, uses_anonymous_args = 0
 599              		@ link register save eliminated.
 600              	.LVL72:
 524:../libraries/STM32F10x_StdPeriph_Driver/src/stm32f10x_i2c.c ****   /* Check the parameters */
 525:../libraries/STM32F10x_StdPeriph_Driver/src/stm32f10x_i2c.c ****   assert_param(IS_I2C_ALL_PERIPH(I2Cx));
 526:../libraries/STM32F10x_StdPeriph_Driver/src/stm32f10x_i2c.c ****   assert_param(IS_FUNCTIONAL_STATE(NewState));
 527:../libraries/STM32F10x_StdPeriph_Driver/src/stm32f10x_i2c.c ****   if (NewState != DISABLE)
 528:../libraries/STM32F10x_StdPeriph_Driver/src/stm32f10x_i2c.c ****   {
 529:../libraries/STM32F10x_StdPeriph_Driver/src/stm32f10x_i2c.c ****     /* Enable generall call */
 530:../libraries/STM32F10x_StdPeriph_Driver/src/stm32f10x_i2c.c ****     I2Cx->CR1 |= CR1_ENGC_Set;
 601              		.loc 1 530 0
 602 0000 0388     		ldrh	r3, [r0, #0]
 527:../libraries/STM32F10x_StdPeriph_Driver/src/stm32f10x_i2c.c ****   if (NewState != DISABLE)
 603              		.loc 1 527 0
 604 0002 19B1     		cbz	r1, .L49
 605              		.loc 1 530 0
 606 0004 99B2     		uxth	r1, r3
 607              	.LVL73:
 608 0006 41F04003 		orr	r3, r1, #64
 609 000a 03E0     		b	.L51
 610              	.LVL74:
 611              	.L49:
 531:../libraries/STM32F10x_StdPeriph_Driver/src/stm32f10x_i2c.c ****   }
 532:../libraries/STM32F10x_StdPeriph_Driver/src/stm32f10x_i2c.c ****   else
 533:../libraries/STM32F10x_StdPeriph_Driver/src/stm32f10x_i2c.c ****   {
 534:../libraries/STM32F10x_StdPeriph_Driver/src/stm32f10x_i2c.c ****     /* Disable generall call */
 535:../libraries/STM32F10x_StdPeriph_Driver/src/stm32f10x_i2c.c ****     I2Cx->CR1 &= CR1_ENGC_Reset;
 612              		.loc 1 535 0
 613 000c 23F04001 		bic	r1, r3, #64
 614              	.LVL75:
 615 0010 0A04     		lsls	r2, r1, #16
 616 0012 130C     		lsrs	r3, r2, #16
 617              	.L51:
 618 0014 0380     		strh	r3, [r0, #0]	@ movhi
 619 0016 7047     		bx	lr
 620              		.cfi_endproc
 621              	.LFE67:
 623              		.section	.text.I2C_ITConfig,"ax",%progbits
 624              		.align	1
 625              		.global	I2C_ITConfig
 626              		.thumb
 627              		.thumb_func
 629              	I2C_ITConfig:
 630              	.LFB68:
 536:../libraries/STM32F10x_StdPeriph_Driver/src/stm32f10x_i2c.c ****   }
 537:../libraries/STM32F10x_StdPeriph_Driver/src/stm32f10x_i2c.c **** }
 538:../libraries/STM32F10x_StdPeriph_Driver/src/stm32f10x_i2c.c **** 
 539:../libraries/STM32F10x_StdPeriph_Driver/src/stm32f10x_i2c.c **** /**
 540:../libraries/STM32F10x_StdPeriph_Driver/src/stm32f10x_i2c.c ****   * @brief  Enables or disables the specified I2C interrupts.
 541:../libraries/STM32F10x_StdPeriph_Driver/src/stm32f10x_i2c.c ****   * @param  I2Cx: where x can be 1 or 2 to select the I2C peripheral.
 542:../libraries/STM32F10x_StdPeriph_Driver/src/stm32f10x_i2c.c ****   * @param  I2C_IT: specifies the I2C interrupts sources to be enabled or disabled. 
 543:../libraries/STM32F10x_StdPeriph_Driver/src/stm32f10x_i2c.c ****   *   This parameter can be any combination of the following values:
 544:../libraries/STM32F10x_StdPeriph_Driver/src/stm32f10x_i2c.c ****   *     @arg I2C_IT_BUF: Buffer interrupt mask
 545:../libraries/STM32F10x_StdPeriph_Driver/src/stm32f10x_i2c.c ****   *     @arg I2C_IT_EVT: Event interrupt mask
 546:../libraries/STM32F10x_StdPeriph_Driver/src/stm32f10x_i2c.c ****   *     @arg I2C_IT_ERR: Error interrupt mask
 547:../libraries/STM32F10x_StdPeriph_Driver/src/stm32f10x_i2c.c ****   * @param  NewState: new state of the specified I2C interrupts.
 548:../libraries/STM32F10x_StdPeriph_Driver/src/stm32f10x_i2c.c ****   *   This parameter can be: ENABLE or DISABLE.
 549:../libraries/STM32F10x_StdPeriph_Driver/src/stm32f10x_i2c.c ****   * @retval None
 550:../libraries/STM32F10x_StdPeriph_Driver/src/stm32f10x_i2c.c ****   */
 551:../libraries/STM32F10x_StdPeriph_Driver/src/stm32f10x_i2c.c **** void I2C_ITConfig(I2C_TypeDef* I2Cx, uint16_t I2C_IT, FunctionalState NewState)
 552:../libraries/STM32F10x_StdPeriph_Driver/src/stm32f10x_i2c.c **** {
 631              		.loc 1 552 0
 632              		.cfi_startproc
 633              		@ args = 0, pretend = 0, frame = 0
 634              		@ frame_needed = 0, uses_anonymous_args = 0
 635              		@ link register save eliminated.
 636              	.LVL76:
 553:../libraries/STM32F10x_StdPeriph_Driver/src/stm32f10x_i2c.c ****   /* Check the parameters */
 554:../libraries/STM32F10x_StdPeriph_Driver/src/stm32f10x_i2c.c ****   assert_param(IS_I2C_ALL_PERIPH(I2Cx));
 555:../libraries/STM32F10x_StdPeriph_Driver/src/stm32f10x_i2c.c ****   assert_param(IS_FUNCTIONAL_STATE(NewState));
 556:../libraries/STM32F10x_StdPeriph_Driver/src/stm32f10x_i2c.c ****   assert_param(IS_I2C_CONFIG_IT(I2C_IT));
 557:../libraries/STM32F10x_StdPeriph_Driver/src/stm32f10x_i2c.c ****   
 558:../libraries/STM32F10x_StdPeriph_Driver/src/stm32f10x_i2c.c ****   if (NewState != DISABLE)
 559:../libraries/STM32F10x_StdPeriph_Driver/src/stm32f10x_i2c.c ****   {
 560:../libraries/STM32F10x_StdPeriph_Driver/src/stm32f10x_i2c.c ****     /* Enable the selected I2C interrupts */
 561:../libraries/STM32F10x_StdPeriph_Driver/src/stm32f10x_i2c.c ****     I2Cx->CR2 |= I2C_IT;
 637              		.loc 1 561 0
 638 0000 8388     		ldrh	r3, [r0, #4]
 639 0002 9BB2     		uxth	r3, r3
 558:../libraries/STM32F10x_StdPeriph_Driver/src/stm32f10x_i2c.c ****   if (NewState != DISABLE)
 640              		.loc 1 558 0
 641 0004 0AB1     		cbz	r2, .L53
 642              		.loc 1 561 0
 643 0006 1943     		orrs	r1, r1, r3
 644              	.LVL77:
 645 0008 01E0     		b	.L55
 646              	.LVL78:
 647              	.L53:
 562:../libraries/STM32F10x_StdPeriph_Driver/src/stm32f10x_i2c.c ****   }
 563:../libraries/STM32F10x_StdPeriph_Driver/src/stm32f10x_i2c.c ****   else
 564:../libraries/STM32F10x_StdPeriph_Driver/src/stm32f10x_i2c.c ****   {
 565:../libraries/STM32F10x_StdPeriph_Driver/src/stm32f10x_i2c.c ****     /* Disable the selected I2C interrupts */
 566:../libraries/STM32F10x_StdPeriph_Driver/src/stm32f10x_i2c.c ****     I2Cx->CR2 &= (uint16_t)~I2C_IT;
 648              		.loc 1 566 0
 649 000a 23EA0101 		bic	r1, r3, r1
 650              	.LVL79:
 651              	.L55:
 652 000e 8180     		strh	r1, [r0, #4]	@ movhi
 653 0010 7047     		bx	lr
 654              		.cfi_endproc
 655              	.LFE68:
 657              		.section	.text.I2C_SendData,"ax",%progbits
 658              		.align	1
 659              		.global	I2C_SendData
 660              		.thumb
 661              		.thumb_func
 663              	I2C_SendData:
 664              	.LFB69:
 567:../libraries/STM32F10x_StdPeriph_Driver/src/stm32f10x_i2c.c ****   }
 568:../libraries/STM32F10x_StdPeriph_Driver/src/stm32f10x_i2c.c **** }
 569:../libraries/STM32F10x_StdPeriph_Driver/src/stm32f10x_i2c.c **** 
 570:../libraries/STM32F10x_StdPeriph_Driver/src/stm32f10x_i2c.c **** /**
 571:../libraries/STM32F10x_StdPeriph_Driver/src/stm32f10x_i2c.c ****   * @brief  Sends a data byte through the I2Cx peripheral.
 572:../libraries/STM32F10x_StdPeriph_Driver/src/stm32f10x_i2c.c ****   * @param  I2Cx: where x can be 1 or 2 to select the I2C peripheral.
 573:../libraries/STM32F10x_StdPeriph_Driver/src/stm32f10x_i2c.c ****   * @param  Data: Byte to be transmitted..
 574:../libraries/STM32F10x_StdPeriph_Driver/src/stm32f10x_i2c.c ****   * @retval None
 575:../libraries/STM32F10x_StdPeriph_Driver/src/stm32f10x_i2c.c ****   */
 576:../libraries/STM32F10x_StdPeriph_Driver/src/stm32f10x_i2c.c **** void I2C_SendData(I2C_TypeDef* I2Cx, uint8_t Data)
 577:../libraries/STM32F10x_StdPeriph_Driver/src/stm32f10x_i2c.c **** {
 665              		.loc 1 577 0
 666              		.cfi_startproc
 667              		@ args = 0, pretend = 0, frame = 0
 668              		@ frame_needed = 0, uses_anonymous_args = 0
 669              		@ link register save eliminated.
 670              	.LVL80:
 578:../libraries/STM32F10x_StdPeriph_Driver/src/stm32f10x_i2c.c ****   /* Check the parameters */
 579:../libraries/STM32F10x_StdPeriph_Driver/src/stm32f10x_i2c.c ****   assert_param(IS_I2C_ALL_PERIPH(I2Cx));
 580:../libraries/STM32F10x_StdPeriph_Driver/src/stm32f10x_i2c.c ****   /* Write in the DR register the data to be sent */
 581:../libraries/STM32F10x_StdPeriph_Driver/src/stm32f10x_i2c.c ****   I2Cx->DR = Data;
 671              		.loc 1 581 0
 672 0000 0182     		strh	r1, [r0, #16]	@ movhi
 673 0002 7047     		bx	lr
 674              		.cfi_endproc
 675              	.LFE69:
 677              		.section	.text.I2C_ReceiveData,"ax",%progbits
 678              		.align	1
 679              		.global	I2C_ReceiveData
 680              		.thumb
 681              		.thumb_func
 683              	I2C_ReceiveData:
 684              	.LFB70:
 582:../libraries/STM32F10x_StdPeriph_Driver/src/stm32f10x_i2c.c **** }
 583:../libraries/STM32F10x_StdPeriph_Driver/src/stm32f10x_i2c.c **** 
 584:../libraries/STM32F10x_StdPeriph_Driver/src/stm32f10x_i2c.c **** /**
 585:../libraries/STM32F10x_StdPeriph_Driver/src/stm32f10x_i2c.c ****   * @brief  Returns the most recent received data by the I2Cx peripheral.
 586:../libraries/STM32F10x_StdPeriph_Driver/src/stm32f10x_i2c.c ****   * @param  I2Cx: where x can be 1 or 2 to select the I2C peripheral.
 587:../libraries/STM32F10x_StdPeriph_Driver/src/stm32f10x_i2c.c ****   * @retval The value of the received data.
 588:../libraries/STM32F10x_StdPeriph_Driver/src/stm32f10x_i2c.c ****   */
 589:../libraries/STM32F10x_StdPeriph_Driver/src/stm32f10x_i2c.c **** uint8_t I2C_ReceiveData(I2C_TypeDef* I2Cx)
 590:../libraries/STM32F10x_StdPeriph_Driver/src/stm32f10x_i2c.c **** {
 685              		.loc 1 590 0
 686              		.cfi_startproc
 687              		@ args = 0, pretend = 0, frame = 0
 688              		@ frame_needed = 0, uses_anonymous_args = 0
 689              		@ link register save eliminated.
 690              	.LVL81:
 591:../libraries/STM32F10x_StdPeriph_Driver/src/stm32f10x_i2c.c ****   /* Check the parameters */
 592:../libraries/STM32F10x_StdPeriph_Driver/src/stm32f10x_i2c.c ****   assert_param(IS_I2C_ALL_PERIPH(I2Cx));
 593:../libraries/STM32F10x_StdPeriph_Driver/src/stm32f10x_i2c.c ****   /* Return the data in the DR register */
 594:../libraries/STM32F10x_StdPeriph_Driver/src/stm32f10x_i2c.c ****   return (uint8_t)I2Cx->DR;
 691              		.loc 1 594 0
 692 0000 008A     		ldrh	r0, [r0, #16]
 693              	.LVL82:
 595:../libraries/STM32F10x_StdPeriph_Driver/src/stm32f10x_i2c.c **** }
 694              		.loc 1 595 0
 695 0002 C0B2     		uxtb	r0, r0
 696 0004 7047     		bx	lr
 697              		.cfi_endproc
 698              	.LFE70:
 700              		.section	.text.I2C_Send7bitAddress,"ax",%progbits
 701              		.align	1
 702              		.global	I2C_Send7bitAddress
 703              		.thumb
 704              		.thumb_func
 706              	I2C_Send7bitAddress:
 707              	.LFB71:
 596:../libraries/STM32F10x_StdPeriph_Driver/src/stm32f10x_i2c.c **** 
 597:../libraries/STM32F10x_StdPeriph_Driver/src/stm32f10x_i2c.c **** /**
 598:../libraries/STM32F10x_StdPeriph_Driver/src/stm32f10x_i2c.c ****   * @brief  Transmits the address byte to select the slave device.
 599:../libraries/STM32F10x_StdPeriph_Driver/src/stm32f10x_i2c.c ****   * @param  I2Cx: where x can be 1 or 2 to select the I2C peripheral.
 600:../libraries/STM32F10x_StdPeriph_Driver/src/stm32f10x_i2c.c ****   * @param  Address: specifies the slave address which will be transmitted
 601:../libraries/STM32F10x_StdPeriph_Driver/src/stm32f10x_i2c.c ****   * @param  I2C_Direction: specifies whether the I2C device will be a
 602:../libraries/STM32F10x_StdPeriph_Driver/src/stm32f10x_i2c.c ****   *   Transmitter or a Receiver. This parameter can be one of the following values
 603:../libraries/STM32F10x_StdPeriph_Driver/src/stm32f10x_i2c.c ****   *     @arg I2C_Direction_Transmitter: Transmitter mode
 604:../libraries/STM32F10x_StdPeriph_Driver/src/stm32f10x_i2c.c ****   *     @arg I2C_Direction_Receiver: Receiver mode
 605:../libraries/STM32F10x_StdPeriph_Driver/src/stm32f10x_i2c.c ****   * @retval None.
 606:../libraries/STM32F10x_StdPeriph_Driver/src/stm32f10x_i2c.c ****   */
 607:../libraries/STM32F10x_StdPeriph_Driver/src/stm32f10x_i2c.c **** void I2C_Send7bitAddress(I2C_TypeDef* I2Cx, uint8_t Address, uint8_t I2C_Direction)
 608:../libraries/STM32F10x_StdPeriph_Driver/src/stm32f10x_i2c.c **** {
 708              		.loc 1 608 0
 709              		.cfi_startproc
 710              		@ args = 0, pretend = 0, frame = 0
 711              		@ frame_needed = 0, uses_anonymous_args = 0
 712              		@ link register save eliminated.
 713              	.LVL83:
 609:../libraries/STM32F10x_StdPeriph_Driver/src/stm32f10x_i2c.c ****   /* Check the parameters */
 610:../libraries/STM32F10x_StdPeriph_Driver/src/stm32f10x_i2c.c ****   assert_param(IS_I2C_ALL_PERIPH(I2Cx));
 611:../libraries/STM32F10x_StdPeriph_Driver/src/stm32f10x_i2c.c ****   assert_param(IS_I2C_DIRECTION(I2C_Direction));
 612:../libraries/STM32F10x_StdPeriph_Driver/src/stm32f10x_i2c.c ****   /* Test on the direction to set/reset the read/write bit */
 613:../libraries/STM32F10x_StdPeriph_Driver/src/stm32f10x_i2c.c ****   if (I2C_Direction != I2C_Direction_Transmitter)
 714              		.loc 1 613 0
 715 0000 12B1     		cbz	r2, .L59
 614:../libraries/STM32F10x_StdPeriph_Driver/src/stm32f10x_i2c.c ****   {
 615:../libraries/STM32F10x_StdPeriph_Driver/src/stm32f10x_i2c.c ****     /* Set the address bit0 for read */
 616:../libraries/STM32F10x_StdPeriph_Driver/src/stm32f10x_i2c.c ****     Address |= OAR1_ADD0_Set;
 716              		.loc 1 616 0
 717 0002 41F00101 		orr	r1, r1, #1
 718              	.LVL84:
 719 0006 01E0     		b	.L60
 720              	.L59:
 617:../libraries/STM32F10x_StdPeriph_Driver/src/stm32f10x_i2c.c ****   }
 618:../libraries/STM32F10x_StdPeriph_Driver/src/stm32f10x_i2c.c ****   else
 619:../libraries/STM32F10x_StdPeriph_Driver/src/stm32f10x_i2c.c ****   {
 620:../libraries/STM32F10x_StdPeriph_Driver/src/stm32f10x_i2c.c ****     /* Reset the address bit0 for write */
 621:../libraries/STM32F10x_StdPeriph_Driver/src/stm32f10x_i2c.c ****     Address &= OAR1_ADD0_Reset;
 721              		.loc 1 621 0
 722 0008 01F0FE01 		and	r1, r1, #254
 723              	.LVL85:
 724              	.L60:
 622:../libraries/STM32F10x_StdPeriph_Driver/src/stm32f10x_i2c.c ****   }
 623:../libraries/STM32F10x_StdPeriph_Driver/src/stm32f10x_i2c.c ****   /* Send the address */
 624:../libraries/STM32F10x_StdPeriph_Driver/src/stm32f10x_i2c.c ****   I2Cx->DR = Address;
 725              		.loc 1 624 0
 726 000c 0182     		strh	r1, [r0, #16]	@ movhi
 727 000e 7047     		bx	lr
 728              		.cfi_endproc
 729              	.LFE71:
 731              		.section	.text.I2C_ReadRegister,"ax",%progbits
 732              		.align	1
 733              		.global	I2C_ReadRegister
 734              		.thumb
 735              		.thumb_func
 737              	I2C_ReadRegister:
 738              	.LFB72:
 625:../libraries/STM32F10x_StdPeriph_Driver/src/stm32f10x_i2c.c **** }
 626:../libraries/STM32F10x_StdPeriph_Driver/src/stm32f10x_i2c.c **** 
 627:../libraries/STM32F10x_StdPeriph_Driver/src/stm32f10x_i2c.c **** /**
 628:../libraries/STM32F10x_StdPeriph_Driver/src/stm32f10x_i2c.c ****   * @brief  Reads the specified I2C register and returns its value.
 629:../libraries/STM32F10x_StdPeriph_Driver/src/stm32f10x_i2c.c ****   * @param  I2C_Register: specifies the register to read.
 630:../libraries/STM32F10x_StdPeriph_Driver/src/stm32f10x_i2c.c ****   *   This parameter can be one of the following values:
 631:../libraries/STM32F10x_StdPeriph_Driver/src/stm32f10x_i2c.c ****   *     @arg I2C_Register_CR1:  CR1 register.
 632:../libraries/STM32F10x_StdPeriph_Driver/src/stm32f10x_i2c.c ****   *     @arg I2C_Register_CR2:   CR2 register.
 633:../libraries/STM32F10x_StdPeriph_Driver/src/stm32f10x_i2c.c ****   *     @arg I2C_Register_OAR1:  OAR1 register.
 634:../libraries/STM32F10x_StdPeriph_Driver/src/stm32f10x_i2c.c ****   *     @arg I2C_Register_OAR2:  OAR2 register.
 635:../libraries/STM32F10x_StdPeriph_Driver/src/stm32f10x_i2c.c ****   *     @arg I2C_Register_DR:    DR register.
 636:../libraries/STM32F10x_StdPeriph_Driver/src/stm32f10x_i2c.c ****   *     @arg I2C_Register_SR1:   SR1 register.
 637:../libraries/STM32F10x_StdPeriph_Driver/src/stm32f10x_i2c.c ****   *     @arg I2C_Register_SR2:   SR2 register.
 638:../libraries/STM32F10x_StdPeriph_Driver/src/stm32f10x_i2c.c ****   *     @arg I2C_Register_CCR:   CCR register.
 639:../libraries/STM32F10x_StdPeriph_Driver/src/stm32f10x_i2c.c ****   *     @arg I2C_Register_TRISE: TRISE register.
 640:../libraries/STM32F10x_StdPeriph_Driver/src/stm32f10x_i2c.c ****   * @retval The value of the read register.
 641:../libraries/STM32F10x_StdPeriph_Driver/src/stm32f10x_i2c.c ****   */
 642:../libraries/STM32F10x_StdPeriph_Driver/src/stm32f10x_i2c.c **** uint16_t I2C_ReadRegister(I2C_TypeDef* I2Cx, uint8_t I2C_Register)
 643:../libraries/STM32F10x_StdPeriph_Driver/src/stm32f10x_i2c.c **** {
 739              		.loc 1 643 0
 740              		.cfi_startproc
 741              		@ args = 0, pretend = 0, frame = 8
 742              		@ frame_needed = 0, uses_anonymous_args = 0
 743              		@ link register save eliminated.
 744              	.LVL86:
 745 0000 82B0     		sub	sp, sp, #8
 746              	.LCFI3:
 747              		.cfi_def_cfa_offset 8
 644:../libraries/STM32F10x_StdPeriph_Driver/src/stm32f10x_i2c.c ****   __IO uint32_t tmp = 0;
 748              		.loc 1 644 0
 749 0002 0023     		movs	r3, #0
 750 0004 0193     		str	r3, [sp, #4]
 751              	.LVL87:
 645:../libraries/STM32F10x_StdPeriph_Driver/src/stm32f10x_i2c.c **** 
 646:../libraries/STM32F10x_StdPeriph_Driver/src/stm32f10x_i2c.c ****   /* Check the parameters */
 647:../libraries/STM32F10x_StdPeriph_Driver/src/stm32f10x_i2c.c ****   assert_param(IS_I2C_ALL_PERIPH(I2Cx));
 648:../libraries/STM32F10x_StdPeriph_Driver/src/stm32f10x_i2c.c ****   assert_param(IS_I2C_REGISTER(I2C_Register));
 649:../libraries/STM32F10x_StdPeriph_Driver/src/stm32f10x_i2c.c **** 
 650:../libraries/STM32F10x_StdPeriph_Driver/src/stm32f10x_i2c.c ****   tmp = (uint32_t) I2Cx;
 752              		.loc 1 650 0
 753 0006 0190     		str	r0, [sp, #4]
 651:../libraries/STM32F10x_StdPeriph_Driver/src/stm32f10x_i2c.c ****   tmp += I2C_Register;
 754              		.loc 1 651 0
 755 0008 0198     		ldr	r0, [sp, #4]
 756              	.LVL88:
 757 000a 0918     		adds	r1, r1, r0
 758              	.LVL89:
 759 000c 0191     		str	r1, [sp, #4]
 760              	.LVL90:
 652:../libraries/STM32F10x_StdPeriph_Driver/src/stm32f10x_i2c.c **** 
 653:../libraries/STM32F10x_StdPeriph_Driver/src/stm32f10x_i2c.c ****   /* Return the selected register value */
 654:../libraries/STM32F10x_StdPeriph_Driver/src/stm32f10x_i2c.c ****   return (*(__IO uint16_t *) tmp);
 761              		.loc 1 654 0
 762 000e 019A     		ldr	r2, [sp, #4]
 763 0010 1388     		ldrh	r3, [r2, #0]
 655:../libraries/STM32F10x_StdPeriph_Driver/src/stm32f10x_i2c.c **** }
 764              		.loc 1 655 0
 765 0012 98B2     		uxth	r0, r3
 766 0014 02B0     		add	sp, sp, #8
 767 0016 7047     		bx	lr
 768              		.cfi_endproc
 769              	.LFE72:
 771              		.section	.text.I2C_SoftwareResetCmd,"ax",%progbits
 772              		.align	1
 773              		.global	I2C_SoftwareResetCmd
 774              		.thumb
 775              		.thumb_func
 777              	I2C_SoftwareResetCmd:
 778              	.LFB73:
 656:../libraries/STM32F10x_StdPeriph_Driver/src/stm32f10x_i2c.c **** 
 657:../libraries/STM32F10x_StdPeriph_Driver/src/stm32f10x_i2c.c **** /**
 658:../libraries/STM32F10x_StdPeriph_Driver/src/stm32f10x_i2c.c ****   * @brief  Enables or disables the specified I2C software reset.
 659:../libraries/STM32F10x_StdPeriph_Driver/src/stm32f10x_i2c.c ****   * @param  I2Cx: where x can be 1 or 2 to select the I2C peripheral.
 660:../libraries/STM32F10x_StdPeriph_Driver/src/stm32f10x_i2c.c ****   * @param  NewState: new state of the I2C software reset.
 661:../libraries/STM32F10x_StdPeriph_Driver/src/stm32f10x_i2c.c ****   *   This parameter can be: ENABLE or DISABLE.
 662:../libraries/STM32F10x_StdPeriph_Driver/src/stm32f10x_i2c.c ****   * @retval None
 663:../libraries/STM32F10x_StdPeriph_Driver/src/stm32f10x_i2c.c ****   */
 664:../libraries/STM32F10x_StdPeriph_Driver/src/stm32f10x_i2c.c **** void I2C_SoftwareResetCmd(I2C_TypeDef* I2Cx, FunctionalState NewState)
 665:../libraries/STM32F10x_StdPeriph_Driver/src/stm32f10x_i2c.c **** {
 779              		.loc 1 665 0
 780              		.cfi_startproc
 781              		@ args = 0, pretend = 0, frame = 0
 782              		@ frame_needed = 0, uses_anonymous_args = 0
 783              		@ link register save eliminated.
 784              	.LVL91:
 666:../libraries/STM32F10x_StdPeriph_Driver/src/stm32f10x_i2c.c ****   /* Check the parameters */
 667:../libraries/STM32F10x_StdPeriph_Driver/src/stm32f10x_i2c.c ****   assert_param(IS_I2C_ALL_PERIPH(I2Cx));
 668:../libraries/STM32F10x_StdPeriph_Driver/src/stm32f10x_i2c.c ****   assert_param(IS_FUNCTIONAL_STATE(NewState));
 669:../libraries/STM32F10x_StdPeriph_Driver/src/stm32f10x_i2c.c ****   if (NewState != DISABLE)
 670:../libraries/STM32F10x_StdPeriph_Driver/src/stm32f10x_i2c.c ****   {
 671:../libraries/STM32F10x_StdPeriph_Driver/src/stm32f10x_i2c.c ****     /* Peripheral under reset */
 672:../libraries/STM32F10x_StdPeriph_Driver/src/stm32f10x_i2c.c ****     I2Cx->CR1 |= CR1_SWRST_Set;
 785              		.loc 1 672 0
 786 0000 0388     		ldrh	r3, [r0, #0]
 669:../libraries/STM32F10x_StdPeriph_Driver/src/stm32f10x_i2c.c ****   if (NewState != DISABLE)
 787              		.loc 1 669 0
 788 0002 29B1     		cbz	r1, .L63
 789              		.loc 1 672 0
 790 0004 6FEA4343 		mvn	r3, r3, lsl #17
 791 0008 6FEA5341 		mvn	r1, r3, lsr #17
 792              	.LVL92:
 793 000c 8AB2     		uxth	r2, r1
 794 000e 01E0     		b	.L65
 795              	.LVL93:
 796              	.L63:
 673:../libraries/STM32F10x_StdPeriph_Driver/src/stm32f10x_i2c.c ****   }
 674:../libraries/STM32F10x_StdPeriph_Driver/src/stm32f10x_i2c.c ****   else
 675:../libraries/STM32F10x_StdPeriph_Driver/src/stm32f10x_i2c.c ****   {
 676:../libraries/STM32F10x_StdPeriph_Driver/src/stm32f10x_i2c.c ****     /* Peripheral not under reset */
 677:../libraries/STM32F10x_StdPeriph_Driver/src/stm32f10x_i2c.c ****     I2Cx->CR1 &= CR1_SWRST_Reset;
 797              		.loc 1 677 0
 798 0010 5904     		lsls	r1, r3, #17
 799              	.LVL94:
 800 0012 4A0C     		lsrs	r2, r1, #17
 801              	.L65:
 802 0014 0280     		strh	r2, [r0, #0]	@ movhi
 803 0016 7047     		bx	lr
 804              		.cfi_endproc
 805              	.LFE73:
 807              		.section	.text.I2C_NACKPositionConfig,"ax",%progbits
 808              		.align	1
 809              		.global	I2C_NACKPositionConfig
 810              		.thumb
 811              		.thumb_func
 813              	I2C_NACKPositionConfig:
 814              	.LFB74:
 678:../libraries/STM32F10x_StdPeriph_Driver/src/stm32f10x_i2c.c ****   }
 679:../libraries/STM32F10x_StdPeriph_Driver/src/stm32f10x_i2c.c **** }
 680:../libraries/STM32F10x_StdPeriph_Driver/src/stm32f10x_i2c.c **** 
 681:../libraries/STM32F10x_StdPeriph_Driver/src/stm32f10x_i2c.c **** /**
 682:../libraries/STM32F10x_StdPeriph_Driver/src/stm32f10x_i2c.c ****   * @brief  Selects the specified I2C NACK position in master receiver mode.
 683:../libraries/STM32F10x_StdPeriph_Driver/src/stm32f10x_i2c.c ****   *         This function is useful in I2C Master Receiver mode when the number
 684:../libraries/STM32F10x_StdPeriph_Driver/src/stm32f10x_i2c.c ****   *         of data to be received is equal to 2. In this case, this function 
 685:../libraries/STM32F10x_StdPeriph_Driver/src/stm32f10x_i2c.c ****   *         should be called (with parameter I2C_NACKPosition_Next) before data 
 686:../libraries/STM32F10x_StdPeriph_Driver/src/stm32f10x_i2c.c ****   *         reception starts,as described in the 2-byte reception procedure 
 687:../libraries/STM32F10x_StdPeriph_Driver/src/stm32f10x_i2c.c ****   *         recommended in Reference Manual in Section: Master receiver.                
 688:../libraries/STM32F10x_StdPeriph_Driver/src/stm32f10x_i2c.c ****   * @param  I2Cx: where x can be 1 or 2 to select the I2C peripheral.
 689:../libraries/STM32F10x_StdPeriph_Driver/src/stm32f10x_i2c.c ****   * @param  I2C_NACKPosition: specifies the NACK position. 
 690:../libraries/STM32F10x_StdPeriph_Driver/src/stm32f10x_i2c.c ****   *   This parameter can be one of the following values:
 691:../libraries/STM32F10x_StdPeriph_Driver/src/stm32f10x_i2c.c ****   *     @arg I2C_NACKPosition_Next: indicates that the next byte will be the last
 692:../libraries/STM32F10x_StdPeriph_Driver/src/stm32f10x_i2c.c ****   *          received byte.  
 693:../libraries/STM32F10x_StdPeriph_Driver/src/stm32f10x_i2c.c ****   *     @arg I2C_NACKPosition_Current: indicates that current byte is the last 
 694:../libraries/STM32F10x_StdPeriph_Driver/src/stm32f10x_i2c.c ****   *          received byte.
 695:../libraries/STM32F10x_StdPeriph_Driver/src/stm32f10x_i2c.c ****   *            
 696:../libraries/STM32F10x_StdPeriph_Driver/src/stm32f10x_i2c.c ****   * @note    This function configures the same bit (POS) as I2C_PECPositionConfig() 
 697:../libraries/STM32F10x_StdPeriph_Driver/src/stm32f10x_i2c.c ****   *          but is intended to be used in I2C mode while I2C_PECPositionConfig() 
 698:../libraries/STM32F10x_StdPeriph_Driver/src/stm32f10x_i2c.c ****   *          is intended to used in SMBUS mode. 
 699:../libraries/STM32F10x_StdPeriph_Driver/src/stm32f10x_i2c.c ****   *            
 700:../libraries/STM32F10x_StdPeriph_Driver/src/stm32f10x_i2c.c ****   * @retval None
 701:../libraries/STM32F10x_StdPeriph_Driver/src/stm32f10x_i2c.c ****   */
 702:../libraries/STM32F10x_StdPeriph_Driver/src/stm32f10x_i2c.c **** void I2C_NACKPositionConfig(I2C_TypeDef* I2Cx, uint16_t I2C_NACKPosition)
 703:../libraries/STM32F10x_StdPeriph_Driver/src/stm32f10x_i2c.c **** {
 815              		.loc 1 703 0
 816              		.cfi_startproc
 817              		@ args = 0, pretend = 0, frame = 0
 818              		@ frame_needed = 0, uses_anonymous_args = 0
 819              		@ link register save eliminated.
 820              	.LVL95:
 704:../libraries/STM32F10x_StdPeriph_Driver/src/stm32f10x_i2c.c ****   /* Check the parameters */
 705:../libraries/STM32F10x_StdPeriph_Driver/src/stm32f10x_i2c.c ****   assert_param(IS_I2C_ALL_PERIPH(I2Cx));
 706:../libraries/STM32F10x_StdPeriph_Driver/src/stm32f10x_i2c.c ****   assert_param(IS_I2C_NACK_POSITION(I2C_NACKPosition));
 707:../libraries/STM32F10x_StdPeriph_Driver/src/stm32f10x_i2c.c ****   
 708:../libraries/STM32F10x_StdPeriph_Driver/src/stm32f10x_i2c.c ****   /* Check the input parameter */
 709:../libraries/STM32F10x_StdPeriph_Driver/src/stm32f10x_i2c.c ****   if (I2C_NACKPosition == I2C_NACKPosition_Next)
 821              		.loc 1 709 0
 822 0000 B1F5006F 		cmp	r1, #2048
 710:../libraries/STM32F10x_StdPeriph_Driver/src/stm32f10x_i2c.c ****   {
 711:../libraries/STM32F10x_StdPeriph_Driver/src/stm32f10x_i2c.c ****     /* Next byte in shift register is the last received byte */
 712:../libraries/STM32F10x_StdPeriph_Driver/src/stm32f10x_i2c.c ****     I2Cx->CR1 |= I2C_NACKPosition_Next;
 823              		.loc 1 712 0
 824 0004 0388     		ldrh	r3, [r0, #0]
 709:../libraries/STM32F10x_StdPeriph_Driver/src/stm32f10x_i2c.c ****   if (I2C_NACKPosition == I2C_NACKPosition_Next)
 825              		.loc 1 709 0
 826 0006 03D1     		bne	.L67
 827              		.loc 1 712 0
 828 0008 99B2     		uxth	r1, r3
 829              	.LVL96:
 830 000a 41F40063 		orr	r3, r1, #2048
 831 000e 03E0     		b	.L69
 832              	.LVL97:
 833              	.L67:
 713:../libraries/STM32F10x_StdPeriph_Driver/src/stm32f10x_i2c.c ****   }
 714:../libraries/STM32F10x_StdPeriph_Driver/src/stm32f10x_i2c.c ****   else
 715:../libraries/STM32F10x_StdPeriph_Driver/src/stm32f10x_i2c.c ****   {
 716:../libraries/STM32F10x_StdPeriph_Driver/src/stm32f10x_i2c.c ****     /* Current byte in shift register is the last received byte */
 717:../libraries/STM32F10x_StdPeriph_Driver/src/stm32f10x_i2c.c ****     I2Cx->CR1 &= I2C_NACKPosition_Current;
 834              		.loc 1 717 0
 835 0010 23F40061 		bic	r1, r3, #2048
 836              	.LVL98:
 837 0014 0A04     		lsls	r2, r1, #16
 838 0016 130C     		lsrs	r3, r2, #16
 839              	.L69:
 840 0018 0380     		strh	r3, [r0, #0]	@ movhi
 841 001a 7047     		bx	lr
 842              		.cfi_endproc
 843              	.LFE74:
 845              		.section	.text.I2C_SMBusAlertConfig,"ax",%progbits
 846              		.align	1
 847              		.global	I2C_SMBusAlertConfig
 848              		.thumb
 849              		.thumb_func
 851              	I2C_SMBusAlertConfig:
 852              	.LFB75:
 718:../libraries/STM32F10x_StdPeriph_Driver/src/stm32f10x_i2c.c ****   }
 719:../libraries/STM32F10x_StdPeriph_Driver/src/stm32f10x_i2c.c **** }
 720:../libraries/STM32F10x_StdPeriph_Driver/src/stm32f10x_i2c.c **** 
 721:../libraries/STM32F10x_StdPeriph_Driver/src/stm32f10x_i2c.c **** /**
 722:../libraries/STM32F10x_StdPeriph_Driver/src/stm32f10x_i2c.c ****   * @brief  Drives the SMBusAlert pin high or low for the specified I2C.
 723:../libraries/STM32F10x_StdPeriph_Driver/src/stm32f10x_i2c.c ****   * @param  I2Cx: where x can be 1 or 2 to select the I2C peripheral.
 724:../libraries/STM32F10x_StdPeriph_Driver/src/stm32f10x_i2c.c ****   * @param  I2C_SMBusAlert: specifies SMBAlert pin level. 
 725:../libraries/STM32F10x_StdPeriph_Driver/src/stm32f10x_i2c.c ****   *   This parameter can be one of the following values:
 726:../libraries/STM32F10x_StdPeriph_Driver/src/stm32f10x_i2c.c ****   *     @arg I2C_SMBusAlert_Low: SMBAlert pin driven low
 727:../libraries/STM32F10x_StdPeriph_Driver/src/stm32f10x_i2c.c ****   *     @arg I2C_SMBusAlert_High: SMBAlert pin driven high
 728:../libraries/STM32F10x_StdPeriph_Driver/src/stm32f10x_i2c.c ****   * @retval None
 729:../libraries/STM32F10x_StdPeriph_Driver/src/stm32f10x_i2c.c ****   */
 730:../libraries/STM32F10x_StdPeriph_Driver/src/stm32f10x_i2c.c **** void I2C_SMBusAlertConfig(I2C_TypeDef* I2Cx, uint16_t I2C_SMBusAlert)
 731:../libraries/STM32F10x_StdPeriph_Driver/src/stm32f10x_i2c.c **** {
 853              		.loc 1 731 0
 854              		.cfi_startproc
 855              		@ args = 0, pretend = 0, frame = 0
 856              		@ frame_needed = 0, uses_anonymous_args = 0
 857              		@ link register save eliminated.
 858              	.LVL99:
 732:../libraries/STM32F10x_StdPeriph_Driver/src/stm32f10x_i2c.c ****   /* Check the parameters */
 733:../libraries/STM32F10x_StdPeriph_Driver/src/stm32f10x_i2c.c ****   assert_param(IS_I2C_ALL_PERIPH(I2Cx));
 734:../libraries/STM32F10x_StdPeriph_Driver/src/stm32f10x_i2c.c ****   assert_param(IS_I2C_SMBUS_ALERT(I2C_SMBusAlert));
 735:../libraries/STM32F10x_StdPeriph_Driver/src/stm32f10x_i2c.c ****   if (I2C_SMBusAlert == I2C_SMBusAlert_Low)
 859              		.loc 1 735 0
 860 0000 B1F5005F 		cmp	r1, #8192
 736:../libraries/STM32F10x_StdPeriph_Driver/src/stm32f10x_i2c.c ****   {
 737:../libraries/STM32F10x_StdPeriph_Driver/src/stm32f10x_i2c.c ****     /* Drive the SMBusAlert pin Low */
 738:../libraries/STM32F10x_StdPeriph_Driver/src/stm32f10x_i2c.c ****     I2Cx->CR1 |= I2C_SMBusAlert_Low;
 861              		.loc 1 738 0
 862 0004 0388     		ldrh	r3, [r0, #0]
 735:../libraries/STM32F10x_StdPeriph_Driver/src/stm32f10x_i2c.c ****   if (I2C_SMBusAlert == I2C_SMBusAlert_Low)
 863              		.loc 1 735 0
 864 0006 03D1     		bne	.L71
 865              		.loc 1 738 0
 866 0008 99B2     		uxth	r1, r3
 867              	.LVL100:
 868 000a 41F40053 		orr	r3, r1, #8192
 869 000e 03E0     		b	.L73
 870              	.LVL101:
 871              	.L71:
 739:../libraries/STM32F10x_StdPeriph_Driver/src/stm32f10x_i2c.c ****   }
 740:../libraries/STM32F10x_StdPeriph_Driver/src/stm32f10x_i2c.c ****   else
 741:../libraries/STM32F10x_StdPeriph_Driver/src/stm32f10x_i2c.c ****   {
 742:../libraries/STM32F10x_StdPeriph_Driver/src/stm32f10x_i2c.c ****     /* Drive the SMBusAlert pin High  */
 743:../libraries/STM32F10x_StdPeriph_Driver/src/stm32f10x_i2c.c ****     I2Cx->CR1 &= I2C_SMBusAlert_High;
 872              		.loc 1 743 0
 873 0010 23F40051 		bic	r1, r3, #8192
 874              	.LVL102:
 875 0014 0A04     		lsls	r2, r1, #16
 876 0016 130C     		lsrs	r3, r2, #16
 877              	.L73:
 878 0018 0380     		strh	r3, [r0, #0]	@ movhi
 879 001a 7047     		bx	lr
 880              		.cfi_endproc
 881              	.LFE75:
 883              		.section	.text.I2C_TransmitPEC,"ax",%progbits
 884              		.align	1
 885              		.global	I2C_TransmitPEC
 886              		.thumb
 887              		.thumb_func
 889              	I2C_TransmitPEC:
 890              	.LFB76:
 744:../libraries/STM32F10x_StdPeriph_Driver/src/stm32f10x_i2c.c ****   }
 745:../libraries/STM32F10x_StdPeriph_Driver/src/stm32f10x_i2c.c **** }
 746:../libraries/STM32F10x_StdPeriph_Driver/src/stm32f10x_i2c.c **** 
 747:../libraries/STM32F10x_StdPeriph_Driver/src/stm32f10x_i2c.c **** /**
 748:../libraries/STM32F10x_StdPeriph_Driver/src/stm32f10x_i2c.c ****   * @brief  Enables or disables the specified I2C PEC transfer.
 749:../libraries/STM32F10x_StdPeriph_Driver/src/stm32f10x_i2c.c ****   * @param  I2Cx: where x can be 1 or 2 to select the I2C peripheral.
 750:../libraries/STM32F10x_StdPeriph_Driver/src/stm32f10x_i2c.c ****   * @param  NewState: new state of the I2C PEC transmission.
 751:../libraries/STM32F10x_StdPeriph_Driver/src/stm32f10x_i2c.c ****   *   This parameter can be: ENABLE or DISABLE.
 752:../libraries/STM32F10x_StdPeriph_Driver/src/stm32f10x_i2c.c ****   * @retval None
 753:../libraries/STM32F10x_StdPeriph_Driver/src/stm32f10x_i2c.c ****   */
 754:../libraries/STM32F10x_StdPeriph_Driver/src/stm32f10x_i2c.c **** void I2C_TransmitPEC(I2C_TypeDef* I2Cx, FunctionalState NewState)
 755:../libraries/STM32F10x_StdPeriph_Driver/src/stm32f10x_i2c.c **** {
 891              		.loc 1 755 0
 892              		.cfi_startproc
 893              		@ args = 0, pretend = 0, frame = 0
 894              		@ frame_needed = 0, uses_anonymous_args = 0
 895              		@ link register save eliminated.
 896              	.LVL103:
 756:../libraries/STM32F10x_StdPeriph_Driver/src/stm32f10x_i2c.c ****   /* Check the parameters */
 757:../libraries/STM32F10x_StdPeriph_Driver/src/stm32f10x_i2c.c ****   assert_param(IS_I2C_ALL_PERIPH(I2Cx));
 758:../libraries/STM32F10x_StdPeriph_Driver/src/stm32f10x_i2c.c ****   assert_param(IS_FUNCTIONAL_STATE(NewState));
 759:../libraries/STM32F10x_StdPeriph_Driver/src/stm32f10x_i2c.c ****   if (NewState != DISABLE)
 760:../libraries/STM32F10x_StdPeriph_Driver/src/stm32f10x_i2c.c ****   {
 761:../libraries/STM32F10x_StdPeriph_Driver/src/stm32f10x_i2c.c ****     /* Enable the selected I2C PEC transmission */
 762:../libraries/STM32F10x_StdPeriph_Driver/src/stm32f10x_i2c.c ****     I2Cx->CR1 |= CR1_PEC_Set;
 897              		.loc 1 762 0
 898 0000 0388     		ldrh	r3, [r0, #0]
 759:../libraries/STM32F10x_StdPeriph_Driver/src/stm32f10x_i2c.c ****   if (NewState != DISABLE)
 899              		.loc 1 759 0
 900 0002 19B1     		cbz	r1, .L75
 901              		.loc 1 762 0
 902 0004 99B2     		uxth	r1, r3
 903              	.LVL104:
 904 0006 41F48053 		orr	r3, r1, #4096
 905 000a 03E0     		b	.L77
 906              	.LVL105:
 907              	.L75:
 763:../libraries/STM32F10x_StdPeriph_Driver/src/stm32f10x_i2c.c ****   }
 764:../libraries/STM32F10x_StdPeriph_Driver/src/stm32f10x_i2c.c ****   else
 765:../libraries/STM32F10x_StdPeriph_Driver/src/stm32f10x_i2c.c ****   {
 766:../libraries/STM32F10x_StdPeriph_Driver/src/stm32f10x_i2c.c ****     /* Disable the selected I2C PEC transmission */
 767:../libraries/STM32F10x_StdPeriph_Driver/src/stm32f10x_i2c.c ****     I2Cx->CR1 &= CR1_PEC_Reset;
 908              		.loc 1 767 0
 909 000c 23F48051 		bic	r1, r3, #4096
 910              	.LVL106:
 911 0010 0A04     		lsls	r2, r1, #16
 912 0012 130C     		lsrs	r3, r2, #16
 913              	.L77:
 914 0014 0380     		strh	r3, [r0, #0]	@ movhi
 915 0016 7047     		bx	lr
 916              		.cfi_endproc
 917              	.LFE76:
 919              		.section	.text.I2C_PECPositionConfig,"ax",%progbits
 920              		.align	1
 921              		.global	I2C_PECPositionConfig
 922              		.thumb
 923              		.thumb_func
 925              	I2C_PECPositionConfig:
 926              	.LFB77:
 768:../libraries/STM32F10x_StdPeriph_Driver/src/stm32f10x_i2c.c ****   }
 769:../libraries/STM32F10x_StdPeriph_Driver/src/stm32f10x_i2c.c **** }
 770:../libraries/STM32F10x_StdPeriph_Driver/src/stm32f10x_i2c.c **** 
 771:../libraries/STM32F10x_StdPeriph_Driver/src/stm32f10x_i2c.c **** /**
 772:../libraries/STM32F10x_StdPeriph_Driver/src/stm32f10x_i2c.c ****   * @brief  Selects the specified I2C PEC position.
 773:../libraries/STM32F10x_StdPeriph_Driver/src/stm32f10x_i2c.c ****   * @param  I2Cx: where x can be 1 or 2 to select the I2C peripheral.
 774:../libraries/STM32F10x_StdPeriph_Driver/src/stm32f10x_i2c.c ****   * @param  I2C_PECPosition: specifies the PEC position. 
 775:../libraries/STM32F10x_StdPeriph_Driver/src/stm32f10x_i2c.c ****   *   This parameter can be one of the following values:
 776:../libraries/STM32F10x_StdPeriph_Driver/src/stm32f10x_i2c.c ****   *     @arg I2C_PECPosition_Next: indicates that the next byte is PEC
 777:../libraries/STM32F10x_StdPeriph_Driver/src/stm32f10x_i2c.c ****   *     @arg I2C_PECPosition_Current: indicates that current byte is PEC
 778:../libraries/STM32F10x_StdPeriph_Driver/src/stm32f10x_i2c.c ****   *       
 779:../libraries/STM32F10x_StdPeriph_Driver/src/stm32f10x_i2c.c ****   * @note    This function configures the same bit (POS) as I2C_NACKPositionConfig()
 780:../libraries/STM32F10x_StdPeriph_Driver/src/stm32f10x_i2c.c ****   *          but is intended to be used in SMBUS mode while I2C_NACKPositionConfig() 
 781:../libraries/STM32F10x_StdPeriph_Driver/src/stm32f10x_i2c.c ****   *          is intended to used in I2C mode.
 782:../libraries/STM32F10x_StdPeriph_Driver/src/stm32f10x_i2c.c ****   *               
 783:../libraries/STM32F10x_StdPeriph_Driver/src/stm32f10x_i2c.c ****   * @retval None
 784:../libraries/STM32F10x_StdPeriph_Driver/src/stm32f10x_i2c.c ****   */
 785:../libraries/STM32F10x_StdPeriph_Driver/src/stm32f10x_i2c.c **** void I2C_PECPositionConfig(I2C_TypeDef* I2Cx, uint16_t I2C_PECPosition)
 786:../libraries/STM32F10x_StdPeriph_Driver/src/stm32f10x_i2c.c **** {
 927              		.loc 1 786 0
 928              		.cfi_startproc
 929              		@ args = 0, pretend = 0, frame = 0
 930              		@ frame_needed = 0, uses_anonymous_args = 0
 931              		@ link register save eliminated.
 932              	.LVL107:
 787:../libraries/STM32F10x_StdPeriph_Driver/src/stm32f10x_i2c.c ****   /* Check the parameters */
 788:../libraries/STM32F10x_StdPeriph_Driver/src/stm32f10x_i2c.c ****   assert_param(IS_I2C_ALL_PERIPH(I2Cx));
 789:../libraries/STM32F10x_StdPeriph_Driver/src/stm32f10x_i2c.c ****   assert_param(IS_I2C_PEC_POSITION(I2C_PECPosition));
 790:../libraries/STM32F10x_StdPeriph_Driver/src/stm32f10x_i2c.c ****   if (I2C_PECPosition == I2C_PECPosition_Next)
 933              		.loc 1 790 0
 934 0000 B1F5006F 		cmp	r1, #2048
 791:../libraries/STM32F10x_StdPeriph_Driver/src/stm32f10x_i2c.c ****   {
 792:../libraries/STM32F10x_StdPeriph_Driver/src/stm32f10x_i2c.c ****     /* Next byte in shift register is PEC */
 793:../libraries/STM32F10x_StdPeriph_Driver/src/stm32f10x_i2c.c ****     I2Cx->CR1 |= I2C_PECPosition_Next;
 935              		.loc 1 793 0
 936 0004 0388     		ldrh	r3, [r0, #0]
 790:../libraries/STM32F10x_StdPeriph_Driver/src/stm32f10x_i2c.c ****   if (I2C_PECPosition == I2C_PECPosition_Next)
 937              		.loc 1 790 0
 938 0006 03D1     		bne	.L79
 939              		.loc 1 793 0
 940 0008 99B2     		uxth	r1, r3
 941              	.LVL108:
 942 000a 41F40063 		orr	r3, r1, #2048
 943 000e 03E0     		b	.L81
 944              	.LVL109:
 945              	.L79:
 794:../libraries/STM32F10x_StdPeriph_Driver/src/stm32f10x_i2c.c ****   }
 795:../libraries/STM32F10x_StdPeriph_Driver/src/stm32f10x_i2c.c ****   else
 796:../libraries/STM32F10x_StdPeriph_Driver/src/stm32f10x_i2c.c ****   {
 797:../libraries/STM32F10x_StdPeriph_Driver/src/stm32f10x_i2c.c ****     /* Current byte in shift register is PEC */
 798:../libraries/STM32F10x_StdPeriph_Driver/src/stm32f10x_i2c.c ****     I2Cx->CR1 &= I2C_PECPosition_Current;
 946              		.loc 1 798 0
 947 0010 23F40061 		bic	r1, r3, #2048
 948              	.LVL110:
 949 0014 0A04     		lsls	r2, r1, #16
 950 0016 130C     		lsrs	r3, r2, #16
 951              	.L81:
 952 0018 0380     		strh	r3, [r0, #0]	@ movhi
 953 001a 7047     		bx	lr
 954              		.cfi_endproc
 955              	.LFE77:
 957              		.section	.text.I2C_CalculatePEC,"ax",%progbits
 958              		.align	1
 959              		.global	I2C_CalculatePEC
 960              		.thumb
 961              		.thumb_func
 963              	I2C_CalculatePEC:
 964              	.LFB78:
 799:../libraries/STM32F10x_StdPeriph_Driver/src/stm32f10x_i2c.c ****   }
 800:../libraries/STM32F10x_StdPeriph_Driver/src/stm32f10x_i2c.c **** }
 801:../libraries/STM32F10x_StdPeriph_Driver/src/stm32f10x_i2c.c **** 
 802:../libraries/STM32F10x_StdPeriph_Driver/src/stm32f10x_i2c.c **** /**
 803:../libraries/STM32F10x_StdPeriph_Driver/src/stm32f10x_i2c.c ****   * @brief  Enables or disables the PEC value calculation of the transferred bytes.
 804:../libraries/STM32F10x_StdPeriph_Driver/src/stm32f10x_i2c.c ****   * @param  I2Cx: where x can be 1 or 2 to select the I2C peripheral.
 805:../libraries/STM32F10x_StdPeriph_Driver/src/stm32f10x_i2c.c ****   * @param  NewState: new state of the I2Cx PEC value calculation.
 806:../libraries/STM32F10x_StdPeriph_Driver/src/stm32f10x_i2c.c ****   *   This parameter can be: ENABLE or DISABLE.
 807:../libraries/STM32F10x_StdPeriph_Driver/src/stm32f10x_i2c.c ****   * @retval None
 808:../libraries/STM32F10x_StdPeriph_Driver/src/stm32f10x_i2c.c ****   */
 809:../libraries/STM32F10x_StdPeriph_Driver/src/stm32f10x_i2c.c **** void I2C_CalculatePEC(I2C_TypeDef* I2Cx, FunctionalState NewState)
 810:../libraries/STM32F10x_StdPeriph_Driver/src/stm32f10x_i2c.c **** {
 965              		.loc 1 810 0
 966              		.cfi_startproc
 967              		@ args = 0, pretend = 0, frame = 0
 968              		@ frame_needed = 0, uses_anonymous_args = 0
 969              		@ link register save eliminated.
 970              	.LVL111:
 811:../libraries/STM32F10x_StdPeriph_Driver/src/stm32f10x_i2c.c ****   /* Check the parameters */
 812:../libraries/STM32F10x_StdPeriph_Driver/src/stm32f10x_i2c.c ****   assert_param(IS_I2C_ALL_PERIPH(I2Cx));
 813:../libraries/STM32F10x_StdPeriph_Driver/src/stm32f10x_i2c.c ****   assert_param(IS_FUNCTIONAL_STATE(NewState));
 814:../libraries/STM32F10x_StdPeriph_Driver/src/stm32f10x_i2c.c ****   if (NewState != DISABLE)
 815:../libraries/STM32F10x_StdPeriph_Driver/src/stm32f10x_i2c.c ****   {
 816:../libraries/STM32F10x_StdPeriph_Driver/src/stm32f10x_i2c.c ****     /* Enable the selected I2C PEC calculation */
 817:../libraries/STM32F10x_StdPeriph_Driver/src/stm32f10x_i2c.c ****     I2Cx->CR1 |= CR1_ENPEC_Set;
 971              		.loc 1 817 0
 972 0000 0388     		ldrh	r3, [r0, #0]
 814:../libraries/STM32F10x_StdPeriph_Driver/src/stm32f10x_i2c.c ****   if (NewState != DISABLE)
 973              		.loc 1 814 0
 974 0002 19B1     		cbz	r1, .L83
 975              		.loc 1 817 0
 976 0004 99B2     		uxth	r1, r3
 977              	.LVL112:
 978 0006 41F02003 		orr	r3, r1, #32
 979 000a 03E0     		b	.L85
 980              	.LVL113:
 981              	.L83:
 818:../libraries/STM32F10x_StdPeriph_Driver/src/stm32f10x_i2c.c ****   }
 819:../libraries/STM32F10x_StdPeriph_Driver/src/stm32f10x_i2c.c ****   else
 820:../libraries/STM32F10x_StdPeriph_Driver/src/stm32f10x_i2c.c ****   {
 821:../libraries/STM32F10x_StdPeriph_Driver/src/stm32f10x_i2c.c ****     /* Disable the selected I2C PEC calculation */
 822:../libraries/STM32F10x_StdPeriph_Driver/src/stm32f10x_i2c.c ****     I2Cx->CR1 &= CR1_ENPEC_Reset;
 982              		.loc 1 822 0
 983 000c 23F02001 		bic	r1, r3, #32
 984              	.LVL114:
 985 0010 0A04     		lsls	r2, r1, #16
 986 0012 130C     		lsrs	r3, r2, #16
 987              	.L85:
 988 0014 0380     		strh	r3, [r0, #0]	@ movhi
 989 0016 7047     		bx	lr
 990              		.cfi_endproc
 991              	.LFE78:
 993              		.section	.text.I2C_GetPEC,"ax",%progbits
 994              		.align	1
 995              		.global	I2C_GetPEC
 996              		.thumb
 997              		.thumb_func
 999              	I2C_GetPEC:
 1000              	.LFB79:
 823:../libraries/STM32F10x_StdPeriph_Driver/src/stm32f10x_i2c.c ****   }
 824:../libraries/STM32F10x_StdPeriph_Driver/src/stm32f10x_i2c.c **** }
 825:../libraries/STM32F10x_StdPeriph_Driver/src/stm32f10x_i2c.c **** 
 826:../libraries/STM32F10x_StdPeriph_Driver/src/stm32f10x_i2c.c **** /**
 827:../libraries/STM32F10x_StdPeriph_Driver/src/stm32f10x_i2c.c ****   * @brief  Returns the PEC value for the specified I2C.
 828:../libraries/STM32F10x_StdPeriph_Driver/src/stm32f10x_i2c.c ****   * @param  I2Cx: where x can be 1 or 2 to select the I2C peripheral.
 829:../libraries/STM32F10x_StdPeriph_Driver/src/stm32f10x_i2c.c ****   * @retval The PEC value.
 830:../libraries/STM32F10x_StdPeriph_Driver/src/stm32f10x_i2c.c ****   */
 831:../libraries/STM32F10x_StdPeriph_Driver/src/stm32f10x_i2c.c **** uint8_t I2C_GetPEC(I2C_TypeDef* I2Cx)
 832:../libraries/STM32F10x_StdPeriph_Driver/src/stm32f10x_i2c.c **** {
 1001              		.loc 1 832 0
 1002              		.cfi_startproc
 1003              		@ args = 0, pretend = 0, frame = 0
 1004              		@ frame_needed = 0, uses_anonymous_args = 0
 1005              		@ link register save eliminated.
 1006              	.LVL115:
 833:../libraries/STM32F10x_StdPeriph_Driver/src/stm32f10x_i2c.c ****   /* Check the parameters */
 834:../libraries/STM32F10x_StdPeriph_Driver/src/stm32f10x_i2c.c ****   assert_param(IS_I2C_ALL_PERIPH(I2Cx));
 835:../libraries/STM32F10x_StdPeriph_Driver/src/stm32f10x_i2c.c ****   /* Return the selected I2C PEC value */
 836:../libraries/STM32F10x_StdPeriph_Driver/src/stm32f10x_i2c.c ****   return ((I2Cx->SR2) >> 8);
 1007              		.loc 1 836 0
 1008 0000 008B     		ldrh	r0, [r0, #24]
 1009              	.LVL116:
 837:../libraries/STM32F10x_StdPeriph_Driver/src/stm32f10x_i2c.c **** }
 1010              		.loc 1 837 0
 1011 0002 C0F30720 		ubfx	r0, r0, #8, #8
 1012 0006 7047     		bx	lr
 1013              		.cfi_endproc
 1014              	.LFE79:
 1016              		.section	.text.I2C_ARPCmd,"ax",%progbits
 1017              		.align	1
 1018              		.global	I2C_ARPCmd
 1019              		.thumb
 1020              		.thumb_func
 1022              	I2C_ARPCmd:
 1023              	.LFB80:
 838:../libraries/STM32F10x_StdPeriph_Driver/src/stm32f10x_i2c.c **** 
 839:../libraries/STM32F10x_StdPeriph_Driver/src/stm32f10x_i2c.c **** /**
 840:../libraries/STM32F10x_StdPeriph_Driver/src/stm32f10x_i2c.c ****   * @brief  Enables or disables the specified I2C ARP.
 841:../libraries/STM32F10x_StdPeriph_Driver/src/stm32f10x_i2c.c ****   * @param  I2Cx: where x can be 1 or 2 to select the I2C peripheral.
 842:../libraries/STM32F10x_StdPeriph_Driver/src/stm32f10x_i2c.c ****   * @param  NewState: new state of the I2Cx ARP. 
 843:../libraries/STM32F10x_StdPeriph_Driver/src/stm32f10x_i2c.c ****   *   This parameter can be: ENABLE or DISABLE.
 844:../libraries/STM32F10x_StdPeriph_Driver/src/stm32f10x_i2c.c ****   * @retval None
 845:../libraries/STM32F10x_StdPeriph_Driver/src/stm32f10x_i2c.c ****   */
 846:../libraries/STM32F10x_StdPeriph_Driver/src/stm32f10x_i2c.c **** void I2C_ARPCmd(I2C_TypeDef* I2Cx, FunctionalState NewState)
 847:../libraries/STM32F10x_StdPeriph_Driver/src/stm32f10x_i2c.c **** {
 1024              		.loc 1 847 0
 1025              		.cfi_startproc
 1026              		@ args = 0, pretend = 0, frame = 0
 1027              		@ frame_needed = 0, uses_anonymous_args = 0
 1028              		@ link register save eliminated.
 1029              	.LVL117:
 848:../libraries/STM32F10x_StdPeriph_Driver/src/stm32f10x_i2c.c ****   /* Check the parameters */
 849:../libraries/STM32F10x_StdPeriph_Driver/src/stm32f10x_i2c.c ****   assert_param(IS_I2C_ALL_PERIPH(I2Cx));
 850:../libraries/STM32F10x_StdPeriph_Driver/src/stm32f10x_i2c.c ****   assert_param(IS_FUNCTIONAL_STATE(NewState));
 851:../libraries/STM32F10x_StdPeriph_Driver/src/stm32f10x_i2c.c ****   if (NewState != DISABLE)
 852:../libraries/STM32F10x_StdPeriph_Driver/src/stm32f10x_i2c.c ****   {
 853:../libraries/STM32F10x_StdPeriph_Driver/src/stm32f10x_i2c.c ****     /* Enable the selected I2C ARP */
 854:../libraries/STM32F10x_StdPeriph_Driver/src/stm32f10x_i2c.c ****     I2Cx->CR1 |= CR1_ENARP_Set;
 1030              		.loc 1 854 0
 1031 0000 0388     		ldrh	r3, [r0, #0]
 851:../libraries/STM32F10x_StdPeriph_Driver/src/stm32f10x_i2c.c ****   if (NewState != DISABLE)
 1032              		.loc 1 851 0
 1033 0002 19B1     		cbz	r1, .L88
 1034              		.loc 1 854 0
 1035 0004 99B2     		uxth	r1, r3
 1036              	.LVL118:
 1037 0006 41F01003 		orr	r3, r1, #16
 1038 000a 03E0     		b	.L90
 1039              	.LVL119:
 1040              	.L88:
 855:../libraries/STM32F10x_StdPeriph_Driver/src/stm32f10x_i2c.c ****   }
 856:../libraries/STM32F10x_StdPeriph_Driver/src/stm32f10x_i2c.c ****   else
 857:../libraries/STM32F10x_StdPeriph_Driver/src/stm32f10x_i2c.c ****   {
 858:../libraries/STM32F10x_StdPeriph_Driver/src/stm32f10x_i2c.c ****     /* Disable the selected I2C ARP */
 859:../libraries/STM32F10x_StdPeriph_Driver/src/stm32f10x_i2c.c ****     I2Cx->CR1 &= CR1_ENARP_Reset;
 1041              		.loc 1 859 0
 1042 000c 23F01001 		bic	r1, r3, #16
 1043              	.LVL120:
 1044 0010 0A04     		lsls	r2, r1, #16
 1045 0012 130C     		lsrs	r3, r2, #16
 1046              	.L90:
 1047 0014 0380     		strh	r3, [r0, #0]	@ movhi
 1048 0016 7047     		bx	lr
 1049              		.cfi_endproc
 1050              	.LFE80:
 1052              		.section	.text.I2C_StretchClockCmd,"ax",%progbits
 1053              		.align	1
 1054              		.global	I2C_StretchClockCmd
 1055              		.thumb
 1056              		.thumb_func
 1058              	I2C_StretchClockCmd:
 1059              	.LFB81:
 860:../libraries/STM32F10x_StdPeriph_Driver/src/stm32f10x_i2c.c ****   }
 861:../libraries/STM32F10x_StdPeriph_Driver/src/stm32f10x_i2c.c **** }
 862:../libraries/STM32F10x_StdPeriph_Driver/src/stm32f10x_i2c.c **** 
 863:../libraries/STM32F10x_StdPeriph_Driver/src/stm32f10x_i2c.c **** /**
 864:../libraries/STM32F10x_StdPeriph_Driver/src/stm32f10x_i2c.c ****   * @brief  Enables or disables the specified I2C Clock stretching.
 865:../libraries/STM32F10x_StdPeriph_Driver/src/stm32f10x_i2c.c ****   * @param  I2Cx: where x can be 1 or 2 to select the I2C peripheral.
 866:../libraries/STM32F10x_StdPeriph_Driver/src/stm32f10x_i2c.c ****   * @param  NewState: new state of the I2Cx Clock stretching.
 867:../libraries/STM32F10x_StdPeriph_Driver/src/stm32f10x_i2c.c ****   *   This parameter can be: ENABLE or DISABLE.
 868:../libraries/STM32F10x_StdPeriph_Driver/src/stm32f10x_i2c.c ****   * @retval None
 869:../libraries/STM32F10x_StdPeriph_Driver/src/stm32f10x_i2c.c ****   */
 870:../libraries/STM32F10x_StdPeriph_Driver/src/stm32f10x_i2c.c **** void I2C_StretchClockCmd(I2C_TypeDef* I2Cx, FunctionalState NewState)
 871:../libraries/STM32F10x_StdPeriph_Driver/src/stm32f10x_i2c.c **** {
 1060              		.loc 1 871 0
 1061              		.cfi_startproc
 1062              		@ args = 0, pretend = 0, frame = 0
 1063              		@ frame_needed = 0, uses_anonymous_args = 0
 1064              		@ link register save eliminated.
 1065              	.LVL121:
 872:../libraries/STM32F10x_StdPeriph_Driver/src/stm32f10x_i2c.c ****   /* Check the parameters */
 873:../libraries/STM32F10x_StdPeriph_Driver/src/stm32f10x_i2c.c ****   assert_param(IS_I2C_ALL_PERIPH(I2Cx));
 874:../libraries/STM32F10x_StdPeriph_Driver/src/stm32f10x_i2c.c ****   assert_param(IS_FUNCTIONAL_STATE(NewState));
 875:../libraries/STM32F10x_StdPeriph_Driver/src/stm32f10x_i2c.c ****   if (NewState == DISABLE)
 876:../libraries/STM32F10x_StdPeriph_Driver/src/stm32f10x_i2c.c ****   {
 877:../libraries/STM32F10x_StdPeriph_Driver/src/stm32f10x_i2c.c ****     /* Enable the selected I2C Clock stretching */
 878:../libraries/STM32F10x_StdPeriph_Driver/src/stm32f10x_i2c.c ****     I2Cx->CR1 |= CR1_NOSTRETCH_Set;
 1066              		.loc 1 878 0
 1067 0000 0388     		ldrh	r3, [r0, #0]
 875:../libraries/STM32F10x_StdPeriph_Driver/src/stm32f10x_i2c.c ****   if (NewState == DISABLE)
 1068              		.loc 1 875 0
 1069 0002 19B9     		cbnz	r1, .L92
 1070              		.loc 1 878 0
 1071 0004 99B2     		uxth	r1, r3
 1072              	.LVL122:
 1073 0006 41F08003 		orr	r3, r1, #128
 1074 000a 03E0     		b	.L94
 1075              	.LVL123:
 1076              	.L92:
 879:../libraries/STM32F10x_StdPeriph_Driver/src/stm32f10x_i2c.c ****   }
 880:../libraries/STM32F10x_StdPeriph_Driver/src/stm32f10x_i2c.c ****   else
 881:../libraries/STM32F10x_StdPeriph_Driver/src/stm32f10x_i2c.c ****   {
 882:../libraries/STM32F10x_StdPeriph_Driver/src/stm32f10x_i2c.c ****     /* Disable the selected I2C Clock stretching */
 883:../libraries/STM32F10x_StdPeriph_Driver/src/stm32f10x_i2c.c ****     I2Cx->CR1 &= CR1_NOSTRETCH_Reset;
 1077              		.loc 1 883 0
 1078 000c 23F08001 		bic	r1, r3, #128
 1079              	.LVL124:
 1080 0010 0A04     		lsls	r2, r1, #16
 1081 0012 130C     		lsrs	r3, r2, #16
 1082              	.L94:
 1083 0014 0380     		strh	r3, [r0, #0]	@ movhi
 1084 0016 7047     		bx	lr
 1085              		.cfi_endproc
 1086              	.LFE81:
 1088              		.section	.text.I2C_FastModeDutyCycleConfig,"ax",%progbits
 1089              		.align	1
 1090              		.global	I2C_FastModeDutyCycleConfig
 1091              		.thumb
 1092              		.thumb_func
 1094              	I2C_FastModeDutyCycleConfig:
 1095              	.LFB82:
 884:../libraries/STM32F10x_StdPeriph_Driver/src/stm32f10x_i2c.c ****   }
 885:../libraries/STM32F10x_StdPeriph_Driver/src/stm32f10x_i2c.c **** }
 886:../libraries/STM32F10x_StdPeriph_Driver/src/stm32f10x_i2c.c **** 
 887:../libraries/STM32F10x_StdPeriph_Driver/src/stm32f10x_i2c.c **** /**
 888:../libraries/STM32F10x_StdPeriph_Driver/src/stm32f10x_i2c.c ****   * @brief  Selects the specified I2C fast mode duty cycle.
 889:../libraries/STM32F10x_StdPeriph_Driver/src/stm32f10x_i2c.c ****   * @param  I2Cx: where x can be 1 or 2 to select the I2C peripheral.
 890:../libraries/STM32F10x_StdPeriph_Driver/src/stm32f10x_i2c.c ****   * @param  I2C_DutyCycle: specifies the fast mode duty cycle.
 891:../libraries/STM32F10x_StdPeriph_Driver/src/stm32f10x_i2c.c ****   *   This parameter can be one of the following values:
 892:../libraries/STM32F10x_StdPeriph_Driver/src/stm32f10x_i2c.c ****   *     @arg I2C_DutyCycle_2: I2C fast mode Tlow/Thigh = 2
 893:../libraries/STM32F10x_StdPeriph_Driver/src/stm32f10x_i2c.c ****   *     @arg I2C_DutyCycle_16_9: I2C fast mode Tlow/Thigh = 16/9
 894:../libraries/STM32F10x_StdPeriph_Driver/src/stm32f10x_i2c.c ****   * @retval None
 895:../libraries/STM32F10x_StdPeriph_Driver/src/stm32f10x_i2c.c ****   */
 896:../libraries/STM32F10x_StdPeriph_Driver/src/stm32f10x_i2c.c **** void I2C_FastModeDutyCycleConfig(I2C_TypeDef* I2Cx, uint16_t I2C_DutyCycle)
 897:../libraries/STM32F10x_StdPeriph_Driver/src/stm32f10x_i2c.c **** {
 1096              		.loc 1 897 0
 1097              		.cfi_startproc
 1098              		@ args = 0, pretend = 0, frame = 0
 1099              		@ frame_needed = 0, uses_anonymous_args = 0
 1100              		@ link register save eliminated.
 1101              	.LVL125:
 898:../libraries/STM32F10x_StdPeriph_Driver/src/stm32f10x_i2c.c ****   /* Check the parameters */
 899:../libraries/STM32F10x_StdPeriph_Driver/src/stm32f10x_i2c.c ****   assert_param(IS_I2C_ALL_PERIPH(I2Cx));
 900:../libraries/STM32F10x_StdPeriph_Driver/src/stm32f10x_i2c.c ****   assert_param(IS_I2C_DUTY_CYCLE(I2C_DutyCycle));
 901:../libraries/STM32F10x_StdPeriph_Driver/src/stm32f10x_i2c.c ****   if (I2C_DutyCycle != I2C_DutyCycle_16_9)
 1102              		.loc 1 901 0
 1103 0000 B1F5804F 		cmp	r1, #16384
 902:../libraries/STM32F10x_StdPeriph_Driver/src/stm32f10x_i2c.c ****   {
 903:../libraries/STM32F10x_StdPeriph_Driver/src/stm32f10x_i2c.c ****     /* I2C fast mode Tlow/Thigh=2 */
 904:../libraries/STM32F10x_StdPeriph_Driver/src/stm32f10x_i2c.c ****     I2Cx->CCR &= I2C_DutyCycle_2;
 1104              		.loc 1 904 0
 1105 0004 838B     		ldrh	r3, [r0, #28]
 901:../libraries/STM32F10x_StdPeriph_Driver/src/stm32f10x_i2c.c ****   if (I2C_DutyCycle != I2C_DutyCycle_16_9)
 1106              		.loc 1 901 0
 1107 0006 04D0     		beq	.L96
 1108              		.loc 1 904 0
 1109 0008 23F48043 		bic	r3, r3, #16384
 1110 000c 1904     		lsls	r1, r3, #16
 1111              	.LVL126:
 1112 000e 0A0C     		lsrs	r2, r1, #16
 1113 0010 02E0     		b	.L98
 1114              	.LVL127:
 1115              	.L96:
 905:../libraries/STM32F10x_StdPeriph_Driver/src/stm32f10x_i2c.c ****   }
 906:../libraries/STM32F10x_StdPeriph_Driver/src/stm32f10x_i2c.c ****   else
 907:../libraries/STM32F10x_StdPeriph_Driver/src/stm32f10x_i2c.c ****   {
 908:../libraries/STM32F10x_StdPeriph_Driver/src/stm32f10x_i2c.c ****     /* I2C fast mode Tlow/Thigh=16/9 */
 909:../libraries/STM32F10x_StdPeriph_Driver/src/stm32f10x_i2c.c ****     I2Cx->CCR |= I2C_DutyCycle_16_9;
 1116              		.loc 1 909 0
 1117 0012 99B2     		uxth	r1, r3
 1118              	.LVL128:
 1119 0014 41F48042 		orr	r2, r1, #16384
 1120              	.L98:
 1121 0018 8283     		strh	r2, [r0, #28]	@ movhi
 1122 001a 7047     		bx	lr
 1123              		.cfi_endproc
 1124              	.LFE82:
 1126              		.section	.text.I2C_CheckEvent,"ax",%progbits
 1127              		.align	1
 1128              		.global	I2C_CheckEvent
 1129              		.thumb
 1130              		.thumb_func
 1132              	I2C_CheckEvent:
 1133              	.LFB83:
 910:../libraries/STM32F10x_StdPeriph_Driver/src/stm32f10x_i2c.c ****   }
 911:../libraries/STM32F10x_StdPeriph_Driver/src/stm32f10x_i2c.c **** }
 912:../libraries/STM32F10x_StdPeriph_Driver/src/stm32f10x_i2c.c **** 
 913:../libraries/STM32F10x_StdPeriph_Driver/src/stm32f10x_i2c.c **** 
 914:../libraries/STM32F10x_StdPeriph_Driver/src/stm32f10x_i2c.c **** 
 915:../libraries/STM32F10x_StdPeriph_Driver/src/stm32f10x_i2c.c **** /**
 916:../libraries/STM32F10x_StdPeriph_Driver/src/stm32f10x_i2c.c ****  * @brief
 917:../libraries/STM32F10x_StdPeriph_Driver/src/stm32f10x_i2c.c ****  ****************************************************************************************
 918:../libraries/STM32F10x_StdPeriph_Driver/src/stm32f10x_i2c.c ****  *
 919:../libraries/STM32F10x_StdPeriph_Driver/src/stm32f10x_i2c.c ****  *                         I2C State Monitoring Functions
 920:../libraries/STM32F10x_StdPeriph_Driver/src/stm32f10x_i2c.c ****  *                       
 921:../libraries/STM32F10x_StdPeriph_Driver/src/stm32f10x_i2c.c ****  ****************************************************************************************   
 922:../libraries/STM32F10x_StdPeriph_Driver/src/stm32f10x_i2c.c ****  * This I2C driver provides three different ways for I2C state monitoring
 923:../libraries/STM32F10x_StdPeriph_Driver/src/stm32f10x_i2c.c ****  *  depending on the application requirements and constraints:
 924:../libraries/STM32F10x_StdPeriph_Driver/src/stm32f10x_i2c.c ****  *        
 925:../libraries/STM32F10x_StdPeriph_Driver/src/stm32f10x_i2c.c ****  *  
 926:../libraries/STM32F10x_StdPeriph_Driver/src/stm32f10x_i2c.c ****  * 1) Basic state monitoring:
 927:../libraries/STM32F10x_StdPeriph_Driver/src/stm32f10x_i2c.c ****  *    Using I2C_CheckEvent() function:
 928:../libraries/STM32F10x_StdPeriph_Driver/src/stm32f10x_i2c.c ****  *    It compares the status registers (SR1 and SR2) content to a given event
 929:../libraries/STM32F10x_StdPeriph_Driver/src/stm32f10x_i2c.c ****  *    (can be the combination of one or more flags).
 930:../libraries/STM32F10x_StdPeriph_Driver/src/stm32f10x_i2c.c ****  *    It returns SUCCESS if the current status includes the given flags 
 931:../libraries/STM32F10x_StdPeriph_Driver/src/stm32f10x_i2c.c ****  *    and returns ERROR if one or more flags are missing in the current status.
 932:../libraries/STM32F10x_StdPeriph_Driver/src/stm32f10x_i2c.c ****  *    - When to use:
 933:../libraries/STM32F10x_StdPeriph_Driver/src/stm32f10x_i2c.c ****  *      - This function is suitable for most applications as well as for startup 
 934:../libraries/STM32F10x_StdPeriph_Driver/src/stm32f10x_i2c.c ****  *      activity since the events are fully described in the product reference manual 
 935:../libraries/STM32F10x_StdPeriph_Driver/src/stm32f10x_i2c.c ****  *      (RM0008).
 936:../libraries/STM32F10x_StdPeriph_Driver/src/stm32f10x_i2c.c ****  *      - It is also suitable for users who need to define their own events.
 937:../libraries/STM32F10x_StdPeriph_Driver/src/stm32f10x_i2c.c ****  *    - Limitations:
 938:../libraries/STM32F10x_StdPeriph_Driver/src/stm32f10x_i2c.c ****  *      - If an error occurs (ie. error flags are set besides to the monitored flags),
 939:../libraries/STM32F10x_StdPeriph_Driver/src/stm32f10x_i2c.c ****  *        the I2C_CheckEvent() function may return SUCCESS despite the communication
 940:../libraries/STM32F10x_StdPeriph_Driver/src/stm32f10x_i2c.c ****  *        hold or corrupted real state. 
 941:../libraries/STM32F10x_StdPeriph_Driver/src/stm32f10x_i2c.c ****  *        In this case, it is advised to use error interrupts to monitor the error
 942:../libraries/STM32F10x_StdPeriph_Driver/src/stm32f10x_i2c.c ****  *        events and handle them in the interrupt IRQ handler.
 943:../libraries/STM32F10x_StdPeriph_Driver/src/stm32f10x_i2c.c ****  *        
 944:../libraries/STM32F10x_StdPeriph_Driver/src/stm32f10x_i2c.c ****  *        @note 
 945:../libraries/STM32F10x_StdPeriph_Driver/src/stm32f10x_i2c.c ****  *        For error management, it is advised to use the following functions:
 946:../libraries/STM32F10x_StdPeriph_Driver/src/stm32f10x_i2c.c ****  *          - I2C_ITConfig() to configure and enable the error interrupts (I2C_IT_ERR).
 947:../libraries/STM32F10x_StdPeriph_Driver/src/stm32f10x_i2c.c ****  *          - I2Cx_ER_IRQHandler() which is called when the error interrupt occurs.
 948:../libraries/STM32F10x_StdPeriph_Driver/src/stm32f10x_i2c.c ****  *            Where x is the peripheral instance (I2C1, I2C2 ...)
 949:../libraries/STM32F10x_StdPeriph_Driver/src/stm32f10x_i2c.c ****  *          - I2C_GetFlagStatus() or I2C_GetITStatus() to be called into I2Cx_ER_IRQHandler() 
 950:../libraries/STM32F10x_StdPeriph_Driver/src/stm32f10x_i2c.c ****  *            in order to determine which error occured.
 951:../libraries/STM32F10x_StdPeriph_Driver/src/stm32f10x_i2c.c ****  *          - I2C_ClearFlag() or I2C_ClearITPendingBit() and/or I2C_SoftwareResetCmd()
 952:../libraries/STM32F10x_StdPeriph_Driver/src/stm32f10x_i2c.c ****  *            and/or I2C_GenerateStop() in order to clear the error flag and source,
 953:../libraries/STM32F10x_StdPeriph_Driver/src/stm32f10x_i2c.c ****  *            and return to correct communication status.
 954:../libraries/STM32F10x_StdPeriph_Driver/src/stm32f10x_i2c.c ****  *            
 955:../libraries/STM32F10x_StdPeriph_Driver/src/stm32f10x_i2c.c ****  *
 956:../libraries/STM32F10x_StdPeriph_Driver/src/stm32f10x_i2c.c ****  *  2) Advanced state monitoring:
 957:../libraries/STM32F10x_StdPeriph_Driver/src/stm32f10x_i2c.c ****  *     Using the function I2C_GetLastEvent() which returns the image of both status 
 958:../libraries/STM32F10x_StdPeriph_Driver/src/stm32f10x_i2c.c ****  *     registers in a single word (uint32_t) (Status Register 2 value is shifted left 
 959:../libraries/STM32F10x_StdPeriph_Driver/src/stm32f10x_i2c.c ****  *     by 16 bits and concatenated to Status Register 1).
 960:../libraries/STM32F10x_StdPeriph_Driver/src/stm32f10x_i2c.c ****  *     - When to use:
 961:../libraries/STM32F10x_StdPeriph_Driver/src/stm32f10x_i2c.c ****  *       - This function is suitable for the same applications above but it allows to
 962:../libraries/STM32F10x_StdPeriph_Driver/src/stm32f10x_i2c.c ****  *         overcome the mentioned limitation of I2C_GetFlagStatus() function.
 963:../libraries/STM32F10x_StdPeriph_Driver/src/stm32f10x_i2c.c ****  *         The returned value could be compared to events already defined in the 
 964:../libraries/STM32F10x_StdPeriph_Driver/src/stm32f10x_i2c.c ****  *         library (stm32f10x_i2c.h) or to custom values defined by user.
 965:../libraries/STM32F10x_StdPeriph_Driver/src/stm32f10x_i2c.c ****  *       - This function is suitable when multiple flags are monitored at the same time.
 966:../libraries/STM32F10x_StdPeriph_Driver/src/stm32f10x_i2c.c ****  *       - At the opposite of I2C_CheckEvent() function, this function allows user to
 967:../libraries/STM32F10x_StdPeriph_Driver/src/stm32f10x_i2c.c ****  *         choose when an event is accepted (when all events flags are set and no 
 968:../libraries/STM32F10x_StdPeriph_Driver/src/stm32f10x_i2c.c ****  *         other flags are set or just when the needed flags are set like 
 969:../libraries/STM32F10x_StdPeriph_Driver/src/stm32f10x_i2c.c ****  *         I2C_CheckEvent() function).
 970:../libraries/STM32F10x_StdPeriph_Driver/src/stm32f10x_i2c.c ****  *     - Limitations:
 971:../libraries/STM32F10x_StdPeriph_Driver/src/stm32f10x_i2c.c ****  *       - User may need to define his own events.
 972:../libraries/STM32F10x_StdPeriph_Driver/src/stm32f10x_i2c.c ****  *       - Same remark concerning the error management is applicable for this 
 973:../libraries/STM32F10x_StdPeriph_Driver/src/stm32f10x_i2c.c ****  *         function if user decides to check only regular communication flags (and 
 974:../libraries/STM32F10x_StdPeriph_Driver/src/stm32f10x_i2c.c ****  *         ignores error flags).
 975:../libraries/STM32F10x_StdPeriph_Driver/src/stm32f10x_i2c.c ****  *     
 976:../libraries/STM32F10x_StdPeriph_Driver/src/stm32f10x_i2c.c ****  *
 977:../libraries/STM32F10x_StdPeriph_Driver/src/stm32f10x_i2c.c ****  *  3) Flag-based state monitoring:
 978:../libraries/STM32F10x_StdPeriph_Driver/src/stm32f10x_i2c.c ****  *     Using the function I2C_GetFlagStatus() which simply returns the status of 
 979:../libraries/STM32F10x_StdPeriph_Driver/src/stm32f10x_i2c.c ****  *     one single flag (ie. I2C_FLAG_RXNE ...). 
 980:../libraries/STM32F10x_StdPeriph_Driver/src/stm32f10x_i2c.c ****  *     - When to use:
 981:../libraries/STM32F10x_StdPeriph_Driver/src/stm32f10x_i2c.c ****  *        - This function could be used for specific applications or in debug phase.
 982:../libraries/STM32F10x_StdPeriph_Driver/src/stm32f10x_i2c.c ****  *        - It is suitable when only one flag checking is needed (most I2C events 
 983:../libraries/STM32F10x_StdPeriph_Driver/src/stm32f10x_i2c.c ****  *          are monitored through multiple flags).
 984:../libraries/STM32F10x_StdPeriph_Driver/src/stm32f10x_i2c.c ****  *     - Limitations: 
 985:../libraries/STM32F10x_StdPeriph_Driver/src/stm32f10x_i2c.c ****  *        - When calling this function, the Status register is accessed. Some flags are
 986:../libraries/STM32F10x_StdPeriph_Driver/src/stm32f10x_i2c.c ****  *          cleared when the status register is accessed. So checking the status
 987:../libraries/STM32F10x_StdPeriph_Driver/src/stm32f10x_i2c.c ****  *          of one Flag, may clear other ones.
 988:../libraries/STM32F10x_StdPeriph_Driver/src/stm32f10x_i2c.c ****  *        - Function may need to be called twice or more in order to monitor one 
 989:../libraries/STM32F10x_StdPeriph_Driver/src/stm32f10x_i2c.c ****  *          single event.
 990:../libraries/STM32F10x_StdPeriph_Driver/src/stm32f10x_i2c.c ****  *
 991:../libraries/STM32F10x_StdPeriph_Driver/src/stm32f10x_i2c.c ****  *  For detailed description of Events, please refer to section I2C_Events in 
 992:../libraries/STM32F10x_StdPeriph_Driver/src/stm32f10x_i2c.c ****  *  stm32f10x_i2c.h file.
 993:../libraries/STM32F10x_StdPeriph_Driver/src/stm32f10x_i2c.c ****  *  
 994:../libraries/STM32F10x_StdPeriph_Driver/src/stm32f10x_i2c.c ****  */
 995:../libraries/STM32F10x_StdPeriph_Driver/src/stm32f10x_i2c.c **** 
 996:../libraries/STM32F10x_StdPeriph_Driver/src/stm32f10x_i2c.c **** /**
 997:../libraries/STM32F10x_StdPeriph_Driver/src/stm32f10x_i2c.c ****  * 
 998:../libraries/STM32F10x_StdPeriph_Driver/src/stm32f10x_i2c.c ****  *  1) Basic state monitoring
 999:../libraries/STM32F10x_StdPeriph_Driver/src/stm32f10x_i2c.c ****  *******************************************************************************
1000:../libraries/STM32F10x_StdPeriph_Driver/src/stm32f10x_i2c.c ****  */
1001:../libraries/STM32F10x_StdPeriph_Driver/src/stm32f10x_i2c.c **** 
1002:../libraries/STM32F10x_StdPeriph_Driver/src/stm32f10x_i2c.c **** /**
1003:../libraries/STM32F10x_StdPeriph_Driver/src/stm32f10x_i2c.c ****   * @brief  Checks whether the last I2Cx Event is equal to the one passed
1004:../libraries/STM32F10x_StdPeriph_Driver/src/stm32f10x_i2c.c ****   *   as parameter.
1005:../libraries/STM32F10x_StdPeriph_Driver/src/stm32f10x_i2c.c ****   * @param  I2Cx: where x can be 1 or 2 to select the I2C peripheral.
1006:../libraries/STM32F10x_StdPeriph_Driver/src/stm32f10x_i2c.c ****   * @param  I2C_EVENT: specifies the event to be checked. 
1007:../libraries/STM32F10x_StdPeriph_Driver/src/stm32f10x_i2c.c ****   *   This parameter can be one of the following values:
1008:../libraries/STM32F10x_StdPeriph_Driver/src/stm32f10x_i2c.c ****   *     @arg I2C_EVENT_SLAVE_TRANSMITTER_ADDRESS_MATCHED           : EV1
1009:../libraries/STM32F10x_StdPeriph_Driver/src/stm32f10x_i2c.c ****   *     @arg I2C_EVENT_SLAVE_RECEIVER_ADDRESS_MATCHED              : EV1
1010:../libraries/STM32F10x_StdPeriph_Driver/src/stm32f10x_i2c.c ****   *     @arg I2C_EVENT_SLAVE_TRANSMITTER_SECONDADDRESS_MATCHED     : EV1
1011:../libraries/STM32F10x_StdPeriph_Driver/src/stm32f10x_i2c.c ****   *     @arg I2C_EVENT_SLAVE_RECEIVER_SECONDADDRESS_MATCHED        : EV1
1012:../libraries/STM32F10x_StdPeriph_Driver/src/stm32f10x_i2c.c ****   *     @arg I2C_EVENT_SLAVE_GENERALCALLADDRESS_MATCHED            : EV1
1013:../libraries/STM32F10x_StdPeriph_Driver/src/stm32f10x_i2c.c ****   *     @arg I2C_EVENT_SLAVE_BYTE_RECEIVED                         : EV2
1014:../libraries/STM32F10x_StdPeriph_Driver/src/stm32f10x_i2c.c ****   *     @arg (I2C_EVENT_SLAVE_BYTE_RECEIVED | I2C_FLAG_DUALF)      : EV2
1015:../libraries/STM32F10x_StdPeriph_Driver/src/stm32f10x_i2c.c ****   *     @arg (I2C_EVENT_SLAVE_BYTE_RECEIVED | I2C_FLAG_GENCALL)    : EV2
1016:../libraries/STM32F10x_StdPeriph_Driver/src/stm32f10x_i2c.c ****   *     @arg I2C_EVENT_SLAVE_BYTE_TRANSMITTED                      : EV3
1017:../libraries/STM32F10x_StdPeriph_Driver/src/stm32f10x_i2c.c ****   *     @arg (I2C_EVENT_SLAVE_BYTE_TRANSMITTED | I2C_FLAG_DUALF)   : EV3
1018:../libraries/STM32F10x_StdPeriph_Driver/src/stm32f10x_i2c.c ****   *     @arg (I2C_EVENT_SLAVE_BYTE_TRANSMITTED | I2C_FLAG_GENCALL) : EV3
1019:../libraries/STM32F10x_StdPeriph_Driver/src/stm32f10x_i2c.c ****   *     @arg I2C_EVENT_SLAVE_ACK_FAILURE                           : EV3_2
1020:../libraries/STM32F10x_StdPeriph_Driver/src/stm32f10x_i2c.c ****   *     @arg I2C_EVENT_SLAVE_STOP_DETECTED                         : EV4
1021:../libraries/STM32F10x_StdPeriph_Driver/src/stm32f10x_i2c.c ****   *     @arg I2C_EVENT_MASTER_MODE_SELECT                          : EV5
1022:../libraries/STM32F10x_StdPeriph_Driver/src/stm32f10x_i2c.c ****   *     @arg I2C_EVENT_MASTER_TRANSMITTER_MODE_SELECTED            : EV6     
1023:../libraries/STM32F10x_StdPeriph_Driver/src/stm32f10x_i2c.c ****   *     @arg I2C_EVENT_MASTER_RECEIVER_MODE_SELECTED               : EV6
1024:../libraries/STM32F10x_StdPeriph_Driver/src/stm32f10x_i2c.c ****   *     @arg I2C_EVENT_MASTER_BYTE_RECEIVED                        : EV7
1025:../libraries/STM32F10x_StdPeriph_Driver/src/stm32f10x_i2c.c ****   *     @arg I2C_EVENT_MASTER_BYTE_TRANSMITTING                    : EV8
1026:../libraries/STM32F10x_StdPeriph_Driver/src/stm32f10x_i2c.c ****   *     @arg I2C_EVENT_MASTER_BYTE_TRANSMITTED                     : EV8_2
1027:../libraries/STM32F10x_StdPeriph_Driver/src/stm32f10x_i2c.c ****   *     @arg I2C_EVENT_MASTER_MODE_ADDRESS10                       : EV9
1028:../libraries/STM32F10x_StdPeriph_Driver/src/stm32f10x_i2c.c ****   *     
1029:../libraries/STM32F10x_StdPeriph_Driver/src/stm32f10x_i2c.c ****   * @note: For detailed description of Events, please refer to section 
1030:../libraries/STM32F10x_StdPeriph_Driver/src/stm32f10x_i2c.c ****   *    I2C_Events in stm32f10x_i2c.h file.
1031:../libraries/STM32F10x_StdPeriph_Driver/src/stm32f10x_i2c.c ****   *    
1032:../libraries/STM32F10x_StdPeriph_Driver/src/stm32f10x_i2c.c ****   * @retval An ErrorStatus enumeration value:
1033:../libraries/STM32F10x_StdPeriph_Driver/src/stm32f10x_i2c.c ****   * - SUCCESS: Last event is equal to the I2C_EVENT
1034:../libraries/STM32F10x_StdPeriph_Driver/src/stm32f10x_i2c.c ****   * - ERROR: Last event is different from the I2C_EVENT
1035:../libraries/STM32F10x_StdPeriph_Driver/src/stm32f10x_i2c.c ****   */
1036:../libraries/STM32F10x_StdPeriph_Driver/src/stm32f10x_i2c.c **** ErrorStatus I2C_CheckEvent(I2C_TypeDef* I2Cx, uint32_t I2C_EVENT)
1037:../libraries/STM32F10x_StdPeriph_Driver/src/stm32f10x_i2c.c **** {
 1134              		.loc 1 1037 0
 1135              		.cfi_startproc
 1136              		@ args = 0, pretend = 0, frame = 0
 1137              		@ frame_needed = 0, uses_anonymous_args = 0
 1138              		@ link register save eliminated.
 1139              	.LVL129:
1038:../libraries/STM32F10x_StdPeriph_Driver/src/stm32f10x_i2c.c ****   uint32_t lastevent = 0;
1039:../libraries/STM32F10x_StdPeriph_Driver/src/stm32f10x_i2c.c ****   uint32_t flag1 = 0, flag2 = 0;
1040:../libraries/STM32F10x_StdPeriph_Driver/src/stm32f10x_i2c.c ****   ErrorStatus status = ERROR;
1041:../libraries/STM32F10x_StdPeriph_Driver/src/stm32f10x_i2c.c **** 
1042:../libraries/STM32F10x_StdPeriph_Driver/src/stm32f10x_i2c.c ****   /* Check the parameters */
1043:../libraries/STM32F10x_StdPeriph_Driver/src/stm32f10x_i2c.c ****   assert_param(IS_I2C_ALL_PERIPH(I2Cx));
1044:../libraries/STM32F10x_StdPeriph_Driver/src/stm32f10x_i2c.c ****   assert_param(IS_I2C_EVENT(I2C_EVENT));
1045:../libraries/STM32F10x_StdPeriph_Driver/src/stm32f10x_i2c.c **** 
1046:../libraries/STM32F10x_StdPeriph_Driver/src/stm32f10x_i2c.c ****   /* Read the I2Cx status register */
1047:../libraries/STM32F10x_StdPeriph_Driver/src/stm32f10x_i2c.c ****   flag1 = I2Cx->SR1;
 1140              		.loc 1 1047 0
 1141 0000 838A     		ldrh	r3, [r0, #20]
1048:../libraries/STM32F10x_StdPeriph_Driver/src/stm32f10x_i2c.c ****   flag2 = I2Cx->SR2;
 1142              		.loc 1 1048 0
 1143 0002 008B     		ldrh	r0, [r0, #24]
 1144              	.LVL130:
1047:../libraries/STM32F10x_StdPeriph_Driver/src/stm32f10x_i2c.c ****   flag1 = I2Cx->SR1;
 1145              		.loc 1 1047 0
 1146 0004 9AB2     		uxth	r2, r3
 1147              	.LVL131:
1049:../libraries/STM32F10x_StdPeriph_Driver/src/stm32f10x_i2c.c ****   flag2 = flag2 << 16;
1050:../libraries/STM32F10x_StdPeriph_Driver/src/stm32f10x_i2c.c **** 
1051:../libraries/STM32F10x_StdPeriph_Driver/src/stm32f10x_i2c.c ****   /* Get the last event value from I2C status register */
1052:../libraries/STM32F10x_StdPeriph_Driver/src/stm32f10x_i2c.c ****   lastevent = (flag1 | flag2) & FLAG_Mask;
 1148              		.loc 1 1052 0
 1149 0006 42EA0043 		orr	r3, r2, r0, lsl #16
 1150 000a 0B40     		ands	r3, r3, r1
1053:../libraries/STM32F10x_StdPeriph_Driver/src/stm32f10x_i2c.c **** 
1054:../libraries/STM32F10x_StdPeriph_Driver/src/stm32f10x_i2c.c ****   /* Check whether the last event contains the I2C_EVENT */
1055:../libraries/STM32F10x_StdPeriph_Driver/src/stm32f10x_i2c.c ****   if ((lastevent & I2C_EVENT) == I2C_EVENT)
 1151              		.loc 1 1055 0
 1152 000c 23F07F42 		bic	r2, r3, #-16777216
 1153              	.LVL132:
1056:../libraries/STM32F10x_StdPeriph_Driver/src/stm32f10x_i2c.c ****   {
1057:../libraries/STM32F10x_StdPeriph_Driver/src/stm32f10x_i2c.c ****     /* SUCCESS: last event is equal to I2C_EVENT */
1058:../libraries/STM32F10x_StdPeriph_Driver/src/stm32f10x_i2c.c ****     status = SUCCESS;
1059:../libraries/STM32F10x_StdPeriph_Driver/src/stm32f10x_i2c.c ****   }
1060:../libraries/STM32F10x_StdPeriph_Driver/src/stm32f10x_i2c.c ****   else
1061:../libraries/STM32F10x_StdPeriph_Driver/src/stm32f10x_i2c.c ****   {
1062:../libraries/STM32F10x_StdPeriph_Driver/src/stm32f10x_i2c.c ****     /* ERROR: last event is different from I2C_EVENT */
1063:../libraries/STM32F10x_StdPeriph_Driver/src/stm32f10x_i2c.c ****     status = ERROR;
1064:../libraries/STM32F10x_StdPeriph_Driver/src/stm32f10x_i2c.c ****   }
1065:../libraries/STM32F10x_StdPeriph_Driver/src/stm32f10x_i2c.c ****   /* Return status */
1066:../libraries/STM32F10x_StdPeriph_Driver/src/stm32f10x_i2c.c ****   return status;
1067:../libraries/STM32F10x_StdPeriph_Driver/src/stm32f10x_i2c.c **** }
 1154              		.loc 1 1067 0
 1155 0010 511A     		subs	r1, r2, r1
 1156              	.LVL133:
 1157 0012 4842     		rsbs	r0, r1, #0
 1158              	.LVL134:
 1159 0014 4841     		adcs	r0, r0, r1
 1160 0016 7047     		bx	lr
 1161              		.cfi_endproc
 1162              	.LFE83:
 1164              		.section	.text.I2C_GetLastEvent,"ax",%progbits
 1165              		.align	1
 1166              		.global	I2C_GetLastEvent
 1167              		.thumb
 1168              		.thumb_func
 1170              	I2C_GetLastEvent:
 1171              	.LFB84:
1068:../libraries/STM32F10x_StdPeriph_Driver/src/stm32f10x_i2c.c **** 
1069:../libraries/STM32F10x_StdPeriph_Driver/src/stm32f10x_i2c.c **** /**
1070:../libraries/STM32F10x_StdPeriph_Driver/src/stm32f10x_i2c.c ****  * 
1071:../libraries/STM32F10x_StdPeriph_Driver/src/stm32f10x_i2c.c ****  *  2) Advanced state monitoring
1072:../libraries/STM32F10x_StdPeriph_Driver/src/stm32f10x_i2c.c ****  *******************************************************************************
1073:../libraries/STM32F10x_StdPeriph_Driver/src/stm32f10x_i2c.c ****  */
1074:../libraries/STM32F10x_StdPeriph_Driver/src/stm32f10x_i2c.c **** 
1075:../libraries/STM32F10x_StdPeriph_Driver/src/stm32f10x_i2c.c **** /**
1076:../libraries/STM32F10x_StdPeriph_Driver/src/stm32f10x_i2c.c ****   * @brief  Returns the last I2Cx Event.
1077:../libraries/STM32F10x_StdPeriph_Driver/src/stm32f10x_i2c.c ****   * @param  I2Cx: where x can be 1 or 2 to select the I2C peripheral.
1078:../libraries/STM32F10x_StdPeriph_Driver/src/stm32f10x_i2c.c ****   *     
1079:../libraries/STM32F10x_StdPeriph_Driver/src/stm32f10x_i2c.c ****   * @note: For detailed description of Events, please refer to section 
1080:../libraries/STM32F10x_StdPeriph_Driver/src/stm32f10x_i2c.c ****   *    I2C_Events in stm32f10x_i2c.h file.
1081:../libraries/STM32F10x_StdPeriph_Driver/src/stm32f10x_i2c.c ****   *    
1082:../libraries/STM32F10x_StdPeriph_Driver/src/stm32f10x_i2c.c ****   * @retval The last event
1083:../libraries/STM32F10x_StdPeriph_Driver/src/stm32f10x_i2c.c ****   */
1084:../libraries/STM32F10x_StdPeriph_Driver/src/stm32f10x_i2c.c **** uint32_t I2C_GetLastEvent(I2C_TypeDef* I2Cx)
1085:../libraries/STM32F10x_StdPeriph_Driver/src/stm32f10x_i2c.c **** {
 1172              		.loc 1 1085 0
 1173              		.cfi_startproc
 1174              		@ args = 0, pretend = 0, frame = 0
 1175              		@ frame_needed = 0, uses_anonymous_args = 0
 1176              		@ link register save eliminated.
 1177              	.LVL135:
1086:../libraries/STM32F10x_StdPeriph_Driver/src/stm32f10x_i2c.c ****   uint32_t lastevent = 0;
1087:../libraries/STM32F10x_StdPeriph_Driver/src/stm32f10x_i2c.c ****   uint32_t flag1 = 0, flag2 = 0;
1088:../libraries/STM32F10x_StdPeriph_Driver/src/stm32f10x_i2c.c **** 
1089:../libraries/STM32F10x_StdPeriph_Driver/src/stm32f10x_i2c.c ****   /* Check the parameters */
1090:../libraries/STM32F10x_StdPeriph_Driver/src/stm32f10x_i2c.c ****   assert_param(IS_I2C_ALL_PERIPH(I2Cx));
1091:../libraries/STM32F10x_StdPeriph_Driver/src/stm32f10x_i2c.c **** 
1092:../libraries/STM32F10x_StdPeriph_Driver/src/stm32f10x_i2c.c ****   /* Read the I2Cx status register */
1093:../libraries/STM32F10x_StdPeriph_Driver/src/stm32f10x_i2c.c ****   flag1 = I2Cx->SR1;
 1178              		.loc 1 1093 0
 1179 0000 838A     		ldrh	r3, [r0, #20]
1094:../libraries/STM32F10x_StdPeriph_Driver/src/stm32f10x_i2c.c ****   flag2 = I2Cx->SR2;
 1180              		.loc 1 1094 0
 1181 0002 008B     		ldrh	r0, [r0, #24]
 1182              	.LVL136:
1093:../libraries/STM32F10x_StdPeriph_Driver/src/stm32f10x_i2c.c ****   flag1 = I2Cx->SR1;
 1183              		.loc 1 1093 0
 1184 0004 99B2     		uxth	r1, r3
 1185              	.LVL137:
1095:../libraries/STM32F10x_StdPeriph_Driver/src/stm32f10x_i2c.c ****   flag2 = flag2 << 16;
1096:../libraries/STM32F10x_StdPeriph_Driver/src/stm32f10x_i2c.c **** 
1097:../libraries/STM32F10x_StdPeriph_Driver/src/stm32f10x_i2c.c ****   /* Get the last event value from I2C status register */
1098:../libraries/STM32F10x_StdPeriph_Driver/src/stm32f10x_i2c.c ****   lastevent = (flag1 | flag2) & FLAG_Mask;
 1186              		.loc 1 1098 0
 1187 0006 41EA0042 		orr	r2, r1, r0, lsl #16
1099:../libraries/STM32F10x_StdPeriph_Driver/src/stm32f10x_i2c.c **** 
1100:../libraries/STM32F10x_StdPeriph_Driver/src/stm32f10x_i2c.c ****   /* Return status */
1101:../libraries/STM32F10x_StdPeriph_Driver/src/stm32f10x_i2c.c ****   return lastevent;
1102:../libraries/STM32F10x_StdPeriph_Driver/src/stm32f10x_i2c.c **** }
 1188              		.loc 1 1102 0
 1189 000a 22F07F40 		bic	r0, r2, #-16777216
 1190              	.LVL138:
 1191 000e 7047     		bx	lr
 1192              		.cfi_endproc
 1193              	.LFE84:
 1195              		.section	.text.I2C_GetFlagStatus,"ax",%progbits
 1196              		.align	1
 1197              		.global	I2C_GetFlagStatus
 1198              		.thumb
 1199              		.thumb_func
 1201              	I2C_GetFlagStatus:
 1202              	.LFB85:
1103:../libraries/STM32F10x_StdPeriph_Driver/src/stm32f10x_i2c.c **** 
1104:../libraries/STM32F10x_StdPeriph_Driver/src/stm32f10x_i2c.c **** /**
1105:../libraries/STM32F10x_StdPeriph_Driver/src/stm32f10x_i2c.c ****  * 
1106:../libraries/STM32F10x_StdPeriph_Driver/src/stm32f10x_i2c.c ****  *  3) Flag-based state monitoring
1107:../libraries/STM32F10x_StdPeriph_Driver/src/stm32f10x_i2c.c ****  *******************************************************************************
1108:../libraries/STM32F10x_StdPeriph_Driver/src/stm32f10x_i2c.c ****  */
1109:../libraries/STM32F10x_StdPeriph_Driver/src/stm32f10x_i2c.c **** 
1110:../libraries/STM32F10x_StdPeriph_Driver/src/stm32f10x_i2c.c **** /**
1111:../libraries/STM32F10x_StdPeriph_Driver/src/stm32f10x_i2c.c ****   * @brief  Checks whether the specified I2C flag is set or not.
1112:../libraries/STM32F10x_StdPeriph_Driver/src/stm32f10x_i2c.c ****   * @param  I2Cx: where x can be 1 or 2 to select the I2C peripheral.
1113:../libraries/STM32F10x_StdPeriph_Driver/src/stm32f10x_i2c.c ****   * @param  I2C_FLAG: specifies the flag to check. 
1114:../libraries/STM32F10x_StdPeriph_Driver/src/stm32f10x_i2c.c ****   *   This parameter can be one of the following values:
1115:../libraries/STM32F10x_StdPeriph_Driver/src/stm32f10x_i2c.c ****   *     @arg I2C_FLAG_DUALF: Dual flag (Slave mode)
1116:../libraries/STM32F10x_StdPeriph_Driver/src/stm32f10x_i2c.c ****   *     @arg I2C_FLAG_SMBHOST: SMBus host header (Slave mode)
1117:../libraries/STM32F10x_StdPeriph_Driver/src/stm32f10x_i2c.c ****   *     @arg I2C_FLAG_SMBDEFAULT: SMBus default header (Slave mode)
1118:../libraries/STM32F10x_StdPeriph_Driver/src/stm32f10x_i2c.c ****   *     @arg I2C_FLAG_GENCALL: General call header flag (Slave mode)
1119:../libraries/STM32F10x_StdPeriph_Driver/src/stm32f10x_i2c.c ****   *     @arg I2C_FLAG_TRA: Transmitter/Receiver flag
1120:../libraries/STM32F10x_StdPeriph_Driver/src/stm32f10x_i2c.c ****   *     @arg I2C_FLAG_BUSY: Bus busy flag
1121:../libraries/STM32F10x_StdPeriph_Driver/src/stm32f10x_i2c.c ****   *     @arg I2C_FLAG_MSL: Master/Slave flag
1122:../libraries/STM32F10x_StdPeriph_Driver/src/stm32f10x_i2c.c ****   *     @arg I2C_FLAG_SMBALERT: SMBus Alert flag
1123:../libraries/STM32F10x_StdPeriph_Driver/src/stm32f10x_i2c.c ****   *     @arg I2C_FLAG_TIMEOUT: Timeout or Tlow error flag
1124:../libraries/STM32F10x_StdPeriph_Driver/src/stm32f10x_i2c.c ****   *     @arg I2C_FLAG_PECERR: PEC error in reception flag
1125:../libraries/STM32F10x_StdPeriph_Driver/src/stm32f10x_i2c.c ****   *     @arg I2C_FLAG_OVR: Overrun/Underrun flag (Slave mode)
1126:../libraries/STM32F10x_StdPeriph_Driver/src/stm32f10x_i2c.c ****   *     @arg I2C_FLAG_AF: Acknowledge failure flag
1127:../libraries/STM32F10x_StdPeriph_Driver/src/stm32f10x_i2c.c ****   *     @arg I2C_FLAG_ARLO: Arbitration lost flag (Master mode)
1128:../libraries/STM32F10x_StdPeriph_Driver/src/stm32f10x_i2c.c ****   *     @arg I2C_FLAG_BERR: Bus error flag
1129:../libraries/STM32F10x_StdPeriph_Driver/src/stm32f10x_i2c.c ****   *     @arg I2C_FLAG_TXE: Data register empty flag (Transmitter)
1130:../libraries/STM32F10x_StdPeriph_Driver/src/stm32f10x_i2c.c ****   *     @arg I2C_FLAG_RXNE: Data register not empty (Receiver) flag
1131:../libraries/STM32F10x_StdPeriph_Driver/src/stm32f10x_i2c.c ****   *     @arg I2C_FLAG_STOPF: Stop detection flag (Slave mode)
1132:../libraries/STM32F10x_StdPeriph_Driver/src/stm32f10x_i2c.c ****   *     @arg I2C_FLAG_ADD10: 10-bit header sent flag (Master mode)
1133:../libraries/STM32F10x_StdPeriph_Driver/src/stm32f10x_i2c.c ****   *     @arg I2C_FLAG_BTF: Byte transfer finished flag
1134:../libraries/STM32F10x_StdPeriph_Driver/src/stm32f10x_i2c.c ****   *     @arg I2C_FLAG_ADDR: Address sent flag (Master mode) "ADSL"
1135:../libraries/STM32F10x_StdPeriph_Driver/src/stm32f10x_i2c.c ****   *   Address matched flag (Slave mode)"ENDA"
1136:../libraries/STM32F10x_StdPeriph_Driver/src/stm32f10x_i2c.c ****   *     @arg I2C_FLAG_SB: Start bit flag (Master mode)
1137:../libraries/STM32F10x_StdPeriph_Driver/src/stm32f10x_i2c.c ****   * @retval The new state of I2C_FLAG (SET or RESET).
1138:../libraries/STM32F10x_StdPeriph_Driver/src/stm32f10x_i2c.c ****   */
1139:../libraries/STM32F10x_StdPeriph_Driver/src/stm32f10x_i2c.c **** FlagStatus I2C_GetFlagStatus(I2C_TypeDef* I2Cx, uint32_t I2C_FLAG)
1140:../libraries/STM32F10x_StdPeriph_Driver/src/stm32f10x_i2c.c **** {
 1203              		.loc 1 1140 0
 1204              		.cfi_startproc
 1205              		@ args = 0, pretend = 0, frame = 8
 1206              		@ frame_needed = 0, uses_anonymous_args = 0
 1207              		@ link register save eliminated.
 1208              	.LVL139:
 1209 0000 82B0     		sub	sp, sp, #8
 1210              	.LCFI4:
 1211              		.cfi_def_cfa_offset 8
1141:../libraries/STM32F10x_StdPeriph_Driver/src/stm32f10x_i2c.c ****   FlagStatus bitstatus = RESET;
1142:../libraries/STM32F10x_StdPeriph_Driver/src/stm32f10x_i2c.c ****   __IO uint32_t i2creg = 0, i2cxbase = 0;
 1212              		.loc 1 1142 0
 1213 0002 0023     		movs	r3, #0
 1214 0004 0093     		str	r3, [sp, #0]
 1215              	.LVL140:
 1216 0006 0193     		str	r3, [sp, #4]
 1217              	.LVL141:
1143:../libraries/STM32F10x_StdPeriph_Driver/src/stm32f10x_i2c.c **** 
1144:../libraries/STM32F10x_StdPeriph_Driver/src/stm32f10x_i2c.c ****   /* Check the parameters */
1145:../libraries/STM32F10x_StdPeriph_Driver/src/stm32f10x_i2c.c ****   assert_param(IS_I2C_ALL_PERIPH(I2Cx));
1146:../libraries/STM32F10x_StdPeriph_Driver/src/stm32f10x_i2c.c ****   assert_param(IS_I2C_GET_FLAG(I2C_FLAG));
1147:../libraries/STM32F10x_StdPeriph_Driver/src/stm32f10x_i2c.c **** 
1148:../libraries/STM32F10x_StdPeriph_Driver/src/stm32f10x_i2c.c ****   /* Get the I2Cx peripheral base address */
1149:../libraries/STM32F10x_StdPeriph_Driver/src/stm32f10x_i2c.c ****   i2cxbase = (uint32_t)I2Cx;
 1218              		.loc 1 1149 0
 1219 0008 0190     		str	r0, [sp, #4]
1150:../libraries/STM32F10x_StdPeriph_Driver/src/stm32f10x_i2c.c ****   
1151:../libraries/STM32F10x_StdPeriph_Driver/src/stm32f10x_i2c.c ****   /* Read flag register index */
1152:../libraries/STM32F10x_StdPeriph_Driver/src/stm32f10x_i2c.c ****   i2creg = I2C_FLAG >> 28;
 1220              		.loc 1 1152 0
 1221 000a 080F     		lsrs	r0, r1, #28
 1222              	.LVL142:
 1223 000c 0090     		str	r0, [sp, #0]
 1224              	.LVL143:
1153:../libraries/STM32F10x_StdPeriph_Driver/src/stm32f10x_i2c.c ****   
1154:../libraries/STM32F10x_StdPeriph_Driver/src/stm32f10x_i2c.c ****   /* Get bit[23:0] of the flag */
1155:../libraries/STM32F10x_StdPeriph_Driver/src/stm32f10x_i2c.c ****   I2C_FLAG &= FLAG_Mask;
1156:../libraries/STM32F10x_StdPeriph_Driver/src/stm32f10x_i2c.c ****   
1157:../libraries/STM32F10x_StdPeriph_Driver/src/stm32f10x_i2c.c ****   if(i2creg != 0)
 1225              		.loc 1 1157 0
 1226 000e 009A     		ldr	r2, [sp, #0]
1155:../libraries/STM32F10x_StdPeriph_Driver/src/stm32f10x_i2c.c ****   I2C_FLAG &= FLAG_Mask;
 1227              		.loc 1 1155 0
 1228 0010 21F07F41 		bic	r1, r1, #-16777216
 1229              	.LVL144:
 1230              		.loc 1 1157 0
 1231 0014 12B1     		cbz	r2, .L102
1158:../libraries/STM32F10x_StdPeriph_Driver/src/stm32f10x_i2c.c ****   {
1159:../libraries/STM32F10x_StdPeriph_Driver/src/stm32f10x_i2c.c ****     /* Get the I2Cx SR1 register address */
1160:../libraries/STM32F10x_StdPeriph_Driver/src/stm32f10x_i2c.c ****     i2cxbase += 0x14;
 1232              		.loc 1 1160 0
 1233 0016 019B     		ldr	r3, [sp, #4]
 1234 0018 1433     		adds	r3, r3, #20
 1235              	.LVL145:
 1236 001a 02E0     		b	.L104
 1237              	.LVL146:
 1238              	.L102:
1161:../libraries/STM32F10x_StdPeriph_Driver/src/stm32f10x_i2c.c ****   }
1162:../libraries/STM32F10x_StdPeriph_Driver/src/stm32f10x_i2c.c ****   else
1163:../libraries/STM32F10x_StdPeriph_Driver/src/stm32f10x_i2c.c ****   {
1164:../libraries/STM32F10x_StdPeriph_Driver/src/stm32f10x_i2c.c ****     /* Flag in I2Cx SR2 Register */
1165:../libraries/STM32F10x_StdPeriph_Driver/src/stm32f10x_i2c.c ****     I2C_FLAG = (uint32_t)(I2C_FLAG >> 16);
1166:../libraries/STM32F10x_StdPeriph_Driver/src/stm32f10x_i2c.c ****     /* Get the I2Cx SR2 register address */
1167:../libraries/STM32F10x_StdPeriph_Driver/src/stm32f10x_i2c.c ****     i2cxbase += 0x18;
 1239              		.loc 1 1167 0
 1240 001c 019B     		ldr	r3, [sp, #4]
1165:../libraries/STM32F10x_StdPeriph_Driver/src/stm32f10x_i2c.c ****     I2C_FLAG = (uint32_t)(I2C_FLAG >> 16);
 1241              		.loc 1 1165 0
 1242 001e 090C     		lsrs	r1, r1, #16
 1243              	.LVL147:
 1244              		.loc 1 1167 0
 1245 0020 1833     		adds	r3, r3, #24
 1246              	.LVL148:
 1247              	.L104:
 1248 0022 0193     		str	r3, [sp, #4]
1168:../libraries/STM32F10x_StdPeriph_Driver/src/stm32f10x_i2c.c ****   }
1169:../libraries/STM32F10x_StdPeriph_Driver/src/stm32f10x_i2c.c ****   
1170:../libraries/STM32F10x_StdPeriph_Driver/src/stm32f10x_i2c.c ****   if(((*(__IO uint32_t *)i2cxbase) & I2C_FLAG) != (uint32_t)RESET)
 1249              		.loc 1 1170 0
 1250 0024 0198     		ldr	r0, [sp, #4]
 1251 0026 0268     		ldr	r2, [r0, #0]
 1252              	.LVL149:
 1253 0028 1142     		tst	r1, r2
1171:../libraries/STM32F10x_StdPeriph_Driver/src/stm32f10x_i2c.c ****   {
1172:../libraries/STM32F10x_StdPeriph_Driver/src/stm32f10x_i2c.c ****     /* I2C_FLAG is set */
1173:../libraries/STM32F10x_StdPeriph_Driver/src/stm32f10x_i2c.c ****     bitstatus = SET;
1174:../libraries/STM32F10x_StdPeriph_Driver/src/stm32f10x_i2c.c ****   }
1175:../libraries/STM32F10x_StdPeriph_Driver/src/stm32f10x_i2c.c ****   else
1176:../libraries/STM32F10x_StdPeriph_Driver/src/stm32f10x_i2c.c ****   {
1177:../libraries/STM32F10x_StdPeriph_Driver/src/stm32f10x_i2c.c ****     /* I2C_FLAG is reset */
1178:../libraries/STM32F10x_StdPeriph_Driver/src/stm32f10x_i2c.c ****     bitstatus = RESET;
1179:../libraries/STM32F10x_StdPeriph_Driver/src/stm32f10x_i2c.c ****   }
1180:../libraries/STM32F10x_StdPeriph_Driver/src/stm32f10x_i2c.c ****   
1181:../libraries/STM32F10x_StdPeriph_Driver/src/stm32f10x_i2c.c ****   /* Return the I2C_FLAG status */
1182:../libraries/STM32F10x_StdPeriph_Driver/src/stm32f10x_i2c.c ****   return  bitstatus;
1183:../libraries/STM32F10x_StdPeriph_Driver/src/stm32f10x_i2c.c **** }
 1254              		.loc 1 1183 0
 1255 002a 0CBF     		ite	eq
 1256 002c 0020     		moveq	r0, #0
 1257 002e 0120     		movne	r0, #1
 1258 0030 02B0     		add	sp, sp, #8
 1259 0032 7047     		bx	lr
 1260              		.cfi_endproc
 1261              	.LFE85:
 1263              		.section	.text.I2C_ClearFlag,"ax",%progbits
 1264              		.align	1
 1265              		.global	I2C_ClearFlag
 1266              		.thumb
 1267              		.thumb_func
 1269              	I2C_ClearFlag:
 1270              	.LFB86:
1184:../libraries/STM32F10x_StdPeriph_Driver/src/stm32f10x_i2c.c **** 
1185:../libraries/STM32F10x_StdPeriph_Driver/src/stm32f10x_i2c.c **** 
1186:../libraries/STM32F10x_StdPeriph_Driver/src/stm32f10x_i2c.c **** 
1187:../libraries/STM32F10x_StdPeriph_Driver/src/stm32f10x_i2c.c **** /**
1188:../libraries/STM32F10x_StdPeriph_Driver/src/stm32f10x_i2c.c ****   * @brief  Clears the I2Cx's pending flags.
1189:../libraries/STM32F10x_StdPeriph_Driver/src/stm32f10x_i2c.c ****   * @param  I2Cx: where x can be 1 or 2 to select the I2C peripheral.
1190:../libraries/STM32F10x_StdPeriph_Driver/src/stm32f10x_i2c.c ****   * @param  I2C_FLAG: specifies the flag to clear. 
1191:../libraries/STM32F10x_StdPeriph_Driver/src/stm32f10x_i2c.c ****   *   This parameter can be any combination of the following values:
1192:../libraries/STM32F10x_StdPeriph_Driver/src/stm32f10x_i2c.c ****   *     @arg I2C_FLAG_SMBALERT: SMBus Alert flag
1193:../libraries/STM32F10x_StdPeriph_Driver/src/stm32f10x_i2c.c ****   *     @arg I2C_FLAG_TIMEOUT: Timeout or Tlow error flag
1194:../libraries/STM32F10x_StdPeriph_Driver/src/stm32f10x_i2c.c ****   *     @arg I2C_FLAG_PECERR: PEC error in reception flag
1195:../libraries/STM32F10x_StdPeriph_Driver/src/stm32f10x_i2c.c ****   *     @arg I2C_FLAG_OVR: Overrun/Underrun flag (Slave mode)
1196:../libraries/STM32F10x_StdPeriph_Driver/src/stm32f10x_i2c.c ****   *     @arg I2C_FLAG_AF: Acknowledge failure flag
1197:../libraries/STM32F10x_StdPeriph_Driver/src/stm32f10x_i2c.c ****   *     @arg I2C_FLAG_ARLO: Arbitration lost flag (Master mode)
1198:../libraries/STM32F10x_StdPeriph_Driver/src/stm32f10x_i2c.c ****   *     @arg I2C_FLAG_BERR: Bus error flag
1199:../libraries/STM32F10x_StdPeriph_Driver/src/stm32f10x_i2c.c ****   *   
1200:../libraries/STM32F10x_StdPeriph_Driver/src/stm32f10x_i2c.c ****   * @note
1201:../libraries/STM32F10x_StdPeriph_Driver/src/stm32f10x_i2c.c ****   *   - STOPF (STOP detection) is cleared by software sequence: a read operation 
1202:../libraries/STM32F10x_StdPeriph_Driver/src/stm32f10x_i2c.c ****   *     to I2C_SR1 register (I2C_GetFlagStatus()) followed by a write operation 
1203:../libraries/STM32F10x_StdPeriph_Driver/src/stm32f10x_i2c.c ****   *     to I2C_CR1 register (I2C_Cmd() to re-enable the I2C peripheral).
1204:../libraries/STM32F10x_StdPeriph_Driver/src/stm32f10x_i2c.c ****   *   - ADD10 (10-bit header sent) is cleared by software sequence: a read 
1205:../libraries/STM32F10x_StdPeriph_Driver/src/stm32f10x_i2c.c ****   *     operation to I2C_SR1 (I2C_GetFlagStatus()) followed by writing the 
1206:../libraries/STM32F10x_StdPeriph_Driver/src/stm32f10x_i2c.c ****   *     second byte of the address in DR register.
1207:../libraries/STM32F10x_StdPeriph_Driver/src/stm32f10x_i2c.c ****   *   - BTF (Byte Transfer Finished) is cleared by software sequence: a read 
1208:../libraries/STM32F10x_StdPeriph_Driver/src/stm32f10x_i2c.c ****   *     operation to I2C_SR1 register (I2C_GetFlagStatus()) followed by a 
1209:../libraries/STM32F10x_StdPeriph_Driver/src/stm32f10x_i2c.c ****   *     read/write to I2C_DR register (I2C_SendData()).
1210:../libraries/STM32F10x_StdPeriph_Driver/src/stm32f10x_i2c.c ****   *   - ADDR (Address sent) is cleared by software sequence: a read operation to 
1211:../libraries/STM32F10x_StdPeriph_Driver/src/stm32f10x_i2c.c ****   *     I2C_SR1 register (I2C_GetFlagStatus()) followed by a read operation to 
1212:../libraries/STM32F10x_StdPeriph_Driver/src/stm32f10x_i2c.c ****   *     I2C_SR2 register ((void)(I2Cx->SR2)).
1213:../libraries/STM32F10x_StdPeriph_Driver/src/stm32f10x_i2c.c ****   *   - SB (Start Bit) is cleared software sequence: a read operation to I2C_SR1
1214:../libraries/STM32F10x_StdPeriph_Driver/src/stm32f10x_i2c.c ****   *     register (I2C_GetFlagStatus()) followed by a write operation to I2C_DR
1215:../libraries/STM32F10x_StdPeriph_Driver/src/stm32f10x_i2c.c ****   *     register  (I2C_SendData()).
1216:../libraries/STM32F10x_StdPeriph_Driver/src/stm32f10x_i2c.c ****   * @retval None
1217:../libraries/STM32F10x_StdPeriph_Driver/src/stm32f10x_i2c.c ****   */
1218:../libraries/STM32F10x_StdPeriph_Driver/src/stm32f10x_i2c.c **** void I2C_ClearFlag(I2C_TypeDef* I2Cx, uint32_t I2C_FLAG)
1219:../libraries/STM32F10x_StdPeriph_Driver/src/stm32f10x_i2c.c **** {
 1271              		.loc 1 1219 0
 1272              		.cfi_startproc
 1273              		@ args = 0, pretend = 0, frame = 0
 1274              		@ frame_needed = 0, uses_anonymous_args = 0
 1275              		@ link register save eliminated.
 1276              	.LVL150:
1220:../libraries/STM32F10x_StdPeriph_Driver/src/stm32f10x_i2c.c ****   uint32_t flagpos = 0;
1221:../libraries/STM32F10x_StdPeriph_Driver/src/stm32f10x_i2c.c ****   /* Check the parameters */
1222:../libraries/STM32F10x_StdPeriph_Driver/src/stm32f10x_i2c.c ****   assert_param(IS_I2C_ALL_PERIPH(I2Cx));
1223:../libraries/STM32F10x_StdPeriph_Driver/src/stm32f10x_i2c.c ****   assert_param(IS_I2C_CLEAR_FLAG(I2C_FLAG));
1224:../libraries/STM32F10x_StdPeriph_Driver/src/stm32f10x_i2c.c ****   /* Get the I2C flag position */
1225:../libraries/STM32F10x_StdPeriph_Driver/src/stm32f10x_i2c.c ****   flagpos = I2C_FLAG & FLAG_Mask;
1226:../libraries/STM32F10x_StdPeriph_Driver/src/stm32f10x_i2c.c ****   /* Clear the selected I2C flag */
1227:../libraries/STM32F10x_StdPeriph_Driver/src/stm32f10x_i2c.c ****   I2Cx->SR1 = (uint16_t)~flagpos;
 1277              		.loc 1 1227 0
 1278 0000 C943     		mvns	r1, r1
 1279              	.LVL151:
 1280 0002 8AB2     		uxth	r2, r1
 1281 0004 8282     		strh	r2, [r0, #20]	@ movhi
 1282 0006 7047     		bx	lr
 1283              		.cfi_endproc
 1284              	.LFE86:
 1286              		.section	.text.I2C_GetITStatus,"ax",%progbits
 1287              		.align	1
 1288              		.global	I2C_GetITStatus
 1289              		.thumb
 1290              		.thumb_func
 1292              	I2C_GetITStatus:
 1293              	.LFB87:
1228:../libraries/STM32F10x_StdPeriph_Driver/src/stm32f10x_i2c.c **** }
1229:../libraries/STM32F10x_StdPeriph_Driver/src/stm32f10x_i2c.c **** 
1230:../libraries/STM32F10x_StdPeriph_Driver/src/stm32f10x_i2c.c **** /**
1231:../libraries/STM32F10x_StdPeriph_Driver/src/stm32f10x_i2c.c ****   * @brief  Checks whether the specified I2C interrupt has occurred or not.
1232:../libraries/STM32F10x_StdPeriph_Driver/src/stm32f10x_i2c.c ****   * @param  I2Cx: where x can be 1 or 2 to select the I2C peripheral.
1233:../libraries/STM32F10x_StdPeriph_Driver/src/stm32f10x_i2c.c ****   * @param  I2C_IT: specifies the interrupt source to check. 
1234:../libraries/STM32F10x_StdPeriph_Driver/src/stm32f10x_i2c.c ****   *   This parameter can be one of the following values:
1235:../libraries/STM32F10x_StdPeriph_Driver/src/stm32f10x_i2c.c ****   *     @arg I2C_IT_SMBALERT: SMBus Alert flag
1236:../libraries/STM32F10x_StdPeriph_Driver/src/stm32f10x_i2c.c ****   *     @arg I2C_IT_TIMEOUT: Timeout or Tlow error flag
1237:../libraries/STM32F10x_StdPeriph_Driver/src/stm32f10x_i2c.c ****   *     @arg I2C_IT_PECERR: PEC error in reception flag
1238:../libraries/STM32F10x_StdPeriph_Driver/src/stm32f10x_i2c.c ****   *     @arg I2C_IT_OVR: Overrun/Underrun flag (Slave mode)
1239:../libraries/STM32F10x_StdPeriph_Driver/src/stm32f10x_i2c.c ****   *     @arg I2C_IT_AF: Acknowledge failure flag
1240:../libraries/STM32F10x_StdPeriph_Driver/src/stm32f10x_i2c.c ****   *     @arg I2C_IT_ARLO: Arbitration lost flag (Master mode)
1241:../libraries/STM32F10x_StdPeriph_Driver/src/stm32f10x_i2c.c ****   *     @arg I2C_IT_BERR: Bus error flag
1242:../libraries/STM32F10x_StdPeriph_Driver/src/stm32f10x_i2c.c ****   *     @arg I2C_IT_TXE: Data register empty flag (Transmitter)
1243:../libraries/STM32F10x_StdPeriph_Driver/src/stm32f10x_i2c.c ****   *     @arg I2C_IT_RXNE: Data register not empty (Receiver) flag
1244:../libraries/STM32F10x_StdPeriph_Driver/src/stm32f10x_i2c.c ****   *     @arg I2C_IT_STOPF: Stop detection flag (Slave mode)
1245:../libraries/STM32F10x_StdPeriph_Driver/src/stm32f10x_i2c.c ****   *     @arg I2C_IT_ADD10: 10-bit header sent flag (Master mode)
1246:../libraries/STM32F10x_StdPeriph_Driver/src/stm32f10x_i2c.c ****   *     @arg I2C_IT_BTF: Byte transfer finished flag
1247:../libraries/STM32F10x_StdPeriph_Driver/src/stm32f10x_i2c.c ****   *     @arg I2C_IT_ADDR: Address sent flag (Master mode) "ADSL"
1248:../libraries/STM32F10x_StdPeriph_Driver/src/stm32f10x_i2c.c ****   *                       Address matched flag (Slave mode)"ENDAD"
1249:../libraries/STM32F10x_StdPeriph_Driver/src/stm32f10x_i2c.c ****   *     @arg I2C_IT_SB: Start bit flag (Master mode)
1250:../libraries/STM32F10x_StdPeriph_Driver/src/stm32f10x_i2c.c ****   * @retval The new state of I2C_IT (SET or RESET).
1251:../libraries/STM32F10x_StdPeriph_Driver/src/stm32f10x_i2c.c ****   */
1252:../libraries/STM32F10x_StdPeriph_Driver/src/stm32f10x_i2c.c **** ITStatus I2C_GetITStatus(I2C_TypeDef* I2Cx, uint32_t I2C_IT)
1253:../libraries/STM32F10x_StdPeriph_Driver/src/stm32f10x_i2c.c **** {
 1294              		.loc 1 1253 0
 1295              		.cfi_startproc
 1296              		@ args = 0, pretend = 0, frame = 0
 1297              		@ frame_needed = 0, uses_anonymous_args = 0
 1298              		@ link register save eliminated.
 1299              	.LVL152:
1254:../libraries/STM32F10x_StdPeriph_Driver/src/stm32f10x_i2c.c ****   ITStatus bitstatus = RESET;
1255:../libraries/STM32F10x_StdPeriph_Driver/src/stm32f10x_i2c.c ****   uint32_t enablestatus = 0;
1256:../libraries/STM32F10x_StdPeriph_Driver/src/stm32f10x_i2c.c **** 
1257:../libraries/STM32F10x_StdPeriph_Driver/src/stm32f10x_i2c.c ****   /* Check the parameters */
1258:../libraries/STM32F10x_StdPeriph_Driver/src/stm32f10x_i2c.c ****   assert_param(IS_I2C_ALL_PERIPH(I2Cx));
1259:../libraries/STM32F10x_StdPeriph_Driver/src/stm32f10x_i2c.c ****   assert_param(IS_I2C_GET_IT(I2C_IT));
1260:../libraries/STM32F10x_StdPeriph_Driver/src/stm32f10x_i2c.c **** 
1261:../libraries/STM32F10x_StdPeriph_Driver/src/stm32f10x_i2c.c ****   /* Check if the interrupt source is enabled or not */
1262:../libraries/STM32F10x_StdPeriph_Driver/src/stm32f10x_i2c.c ****   enablestatus = (uint32_t)(((I2C_IT & ITEN_Mask) >> 16) & (I2Cx->CR2)) ;
 1300              		.loc 1 1262 0
 1301 0000 8388     		ldrh	r3, [r0, #4]
1263:../libraries/STM32F10x_StdPeriph_Driver/src/stm32f10x_i2c.c ****   
1264:../libraries/STM32F10x_StdPeriph_Driver/src/stm32f10x_i2c.c ****   /* Get bit[23:0] of the flag */
1265:../libraries/STM32F10x_StdPeriph_Driver/src/stm32f10x_i2c.c ****   I2C_IT &= FLAG_Mask;
1266:../libraries/STM32F10x_StdPeriph_Driver/src/stm32f10x_i2c.c **** 
1267:../libraries/STM32F10x_StdPeriph_Driver/src/stm32f10x_i2c.c ****   /* Check the status of the specified I2C flag */
1268:../libraries/STM32F10x_StdPeriph_Driver/src/stm32f10x_i2c.c ****   if (((I2Cx->SR1 & I2C_IT) != (uint32_t)RESET) && enablestatus)
 1302              		.loc 1 1268 0
 1303 0002 808A     		ldrh	r0, [r0, #20]
 1304              	.LVL153:
1262:../libraries/STM32F10x_StdPeriph_Driver/src/stm32f10x_i2c.c ****   enablestatus = (uint32_t)(((I2C_IT & ITEN_Mask) >> 16) & (I2Cx->CR2)) ;
 1305              		.loc 1 1262 0
 1306 0004 9AB2     		uxth	r2, r3
 1307              	.LVL154:
 1308              		.loc 1 1268 0
 1309 0006 83B2     		uxth	r3, r0
 1310 0008 13EA0100 		ands	r0, r3, r1
 1311 000c 06D0     		beq	.L107
1262:../libraries/STM32F10x_StdPeriph_Driver/src/stm32f10x_i2c.c ****   enablestatus = (uint32_t)(((I2C_IT & ITEN_Mask) >> 16) & (I2Cx->CR2)) ;
 1312              		.loc 1 1262 0 discriminator 1
 1313 000e 01F0E061 		and	r1, r1, #117440512
 1314              	.LVL155:
 1315              		.loc 1 1268 0 discriminator 1
 1316 0012 12EA1141 		ands	r1, r2, r1, lsr #16
 1317              	.LVL156:
1269:../libraries/STM32F10x_StdPeriph_Driver/src/stm32f10x_i2c.c ****   {
1270:../libraries/STM32F10x_StdPeriph_Driver/src/stm32f10x_i2c.c ****     /* I2C_IT is set */
1271:../libraries/STM32F10x_StdPeriph_Driver/src/stm32f10x_i2c.c ****     bitstatus = SET;
 1318              		.loc 1 1271 0 discriminator 1
 1319 0016 0CBF     		ite	eq
 1320 0018 0020     		moveq	r0, #0
 1321 001a 0120     		movne	r0, #1
 1322              	.L107:
 1323              	.LVL157:
1272:../libraries/STM32F10x_StdPeriph_Driver/src/stm32f10x_i2c.c ****   }
1273:../libraries/STM32F10x_StdPeriph_Driver/src/stm32f10x_i2c.c ****   else
1274:../libraries/STM32F10x_StdPeriph_Driver/src/stm32f10x_i2c.c ****   {
1275:../libraries/STM32F10x_StdPeriph_Driver/src/stm32f10x_i2c.c ****     /* I2C_IT is reset */
1276:../libraries/STM32F10x_StdPeriph_Driver/src/stm32f10x_i2c.c ****     bitstatus = RESET;
1277:../libraries/STM32F10x_StdPeriph_Driver/src/stm32f10x_i2c.c ****   }
1278:../libraries/STM32F10x_StdPeriph_Driver/src/stm32f10x_i2c.c ****   /* Return the I2C_IT status */
1279:../libraries/STM32F10x_StdPeriph_Driver/src/stm32f10x_i2c.c ****   return  bitstatus;
1280:../libraries/STM32F10x_StdPeriph_Driver/src/stm32f10x_i2c.c **** }
 1324              		.loc 1 1280 0
 1325 001c 7047     		bx	lr
 1326              		.cfi_endproc
 1327              	.LFE87:
 1329              		.section	.text.I2C_ClearITPendingBit,"ax",%progbits
 1330              		.align	1
 1331              		.global	I2C_ClearITPendingBit
 1332              		.thumb
 1333              		.thumb_func
 1335              	I2C_ClearITPendingBit:
 1336              	.LFB88:
1281:../libraries/STM32F10x_StdPeriph_Driver/src/stm32f10x_i2c.c **** 
1282:../libraries/STM32F10x_StdPeriph_Driver/src/stm32f10x_i2c.c **** /**
1283:../libraries/STM32F10x_StdPeriph_Driver/src/stm32f10x_i2c.c ****   * @brief  Clears the I2Cxs interrupt pending bits.
1284:../libraries/STM32F10x_StdPeriph_Driver/src/stm32f10x_i2c.c ****   * @param  I2Cx: where x can be 1 or 2 to select the I2C peripheral.
1285:../libraries/STM32F10x_StdPeriph_Driver/src/stm32f10x_i2c.c ****   * @param  I2C_IT: specifies the interrupt pending bit to clear. 
1286:../libraries/STM32F10x_StdPeriph_Driver/src/stm32f10x_i2c.c ****   *   This parameter can be any combination of the following values:
1287:../libraries/STM32F10x_StdPeriph_Driver/src/stm32f10x_i2c.c ****   *     @arg I2C_IT_SMBALERT: SMBus Alert interrupt
1288:../libraries/STM32F10x_StdPeriph_Driver/src/stm32f10x_i2c.c ****   *     @arg I2C_IT_TIMEOUT: Timeout or Tlow error interrupt
1289:../libraries/STM32F10x_StdPeriph_Driver/src/stm32f10x_i2c.c ****   *     @arg I2C_IT_PECERR: PEC error in reception  interrupt
1290:../libraries/STM32F10x_StdPeriph_Driver/src/stm32f10x_i2c.c ****   *     @arg I2C_IT_OVR: Overrun/Underrun interrupt (Slave mode)
1291:../libraries/STM32F10x_StdPeriph_Driver/src/stm32f10x_i2c.c ****   *     @arg I2C_IT_AF: Acknowledge failure interrupt
1292:../libraries/STM32F10x_StdPeriph_Driver/src/stm32f10x_i2c.c ****   *     @arg I2C_IT_ARLO: Arbitration lost interrupt (Master mode)
1293:../libraries/STM32F10x_StdPeriph_Driver/src/stm32f10x_i2c.c ****   *     @arg I2C_IT_BERR: Bus error interrupt
1294:../libraries/STM32F10x_StdPeriph_Driver/src/stm32f10x_i2c.c ****   *   
1295:../libraries/STM32F10x_StdPeriph_Driver/src/stm32f10x_i2c.c ****   * @note
1296:../libraries/STM32F10x_StdPeriph_Driver/src/stm32f10x_i2c.c ****   *   - STOPF (STOP detection) is cleared by software sequence: a read operation 
1297:../libraries/STM32F10x_StdPeriph_Driver/src/stm32f10x_i2c.c ****   *     to I2C_SR1 register (I2C_GetITStatus()) followed by a write operation to 
1298:../libraries/STM32F10x_StdPeriph_Driver/src/stm32f10x_i2c.c ****   *     I2C_CR1 register (I2C_Cmd() to re-enable the I2C peripheral).
1299:../libraries/STM32F10x_StdPeriph_Driver/src/stm32f10x_i2c.c ****   *   - ADD10 (10-bit header sent) is cleared by software sequence: a read 
1300:../libraries/STM32F10x_StdPeriph_Driver/src/stm32f10x_i2c.c ****   *     operation to I2C_SR1 (I2C_GetITStatus()) followed by writing the second 
1301:../libraries/STM32F10x_StdPeriph_Driver/src/stm32f10x_i2c.c ****   *     byte of the address in I2C_DR register.
1302:../libraries/STM32F10x_StdPeriph_Driver/src/stm32f10x_i2c.c ****   *   - BTF (Byte Transfer Finished) is cleared by software sequence: a read 
1303:../libraries/STM32F10x_StdPeriph_Driver/src/stm32f10x_i2c.c ****   *     operation to I2C_SR1 register (I2C_GetITStatus()) followed by a 
1304:../libraries/STM32F10x_StdPeriph_Driver/src/stm32f10x_i2c.c ****   *     read/write to I2C_DR register (I2C_SendData()).
1305:../libraries/STM32F10x_StdPeriph_Driver/src/stm32f10x_i2c.c ****   *   - ADDR (Address sent) is cleared by software sequence: a read operation to 
1306:../libraries/STM32F10x_StdPeriph_Driver/src/stm32f10x_i2c.c ****   *     I2C_SR1 register (I2C_GetITStatus()) followed by a read operation to 
1307:../libraries/STM32F10x_StdPeriph_Driver/src/stm32f10x_i2c.c ****   *     I2C_SR2 register ((void)(I2Cx->SR2)).
1308:../libraries/STM32F10x_StdPeriph_Driver/src/stm32f10x_i2c.c ****   *   - SB (Start Bit) is cleared by software sequence: a read operation to 
1309:../libraries/STM32F10x_StdPeriph_Driver/src/stm32f10x_i2c.c ****   *     I2C_SR1 register (I2C_GetITStatus()) followed by a write operation to 
1310:../libraries/STM32F10x_StdPeriph_Driver/src/stm32f10x_i2c.c ****   *     I2C_DR register (I2C_SendData()).
1311:../libraries/STM32F10x_StdPeriph_Driver/src/stm32f10x_i2c.c ****   * @retval None
1312:../libraries/STM32F10x_StdPeriph_Driver/src/stm32f10x_i2c.c ****   */
1313:../libraries/STM32F10x_StdPeriph_Driver/src/stm32f10x_i2c.c **** void I2C_ClearITPendingBit(I2C_TypeDef* I2Cx, uint32_t I2C_IT)
1314:../libraries/STM32F10x_StdPeriph_Driver/src/stm32f10x_i2c.c **** {
 1337              		.loc 1 1314 0
 1338              		.cfi_startproc
 1339              		@ args = 0, pretend = 0, frame = 0
 1340              		@ frame_needed = 0, uses_anonymous_args = 0
 1341              		@ link register save eliminated.
 1342              	.LVL158:
1315:../libraries/STM32F10x_StdPeriph_Driver/src/stm32f10x_i2c.c ****   uint32_t flagpos = 0;
1316:../libraries/STM32F10x_StdPeriph_Driver/src/stm32f10x_i2c.c ****   /* Check the parameters */
1317:../libraries/STM32F10x_StdPeriph_Driver/src/stm32f10x_i2c.c ****   assert_param(IS_I2C_ALL_PERIPH(I2Cx));
1318:../libraries/STM32F10x_StdPeriph_Driver/src/stm32f10x_i2c.c ****   assert_param(IS_I2C_CLEAR_IT(I2C_IT));
1319:../libraries/STM32F10x_StdPeriph_Driver/src/stm32f10x_i2c.c ****   /* Get the I2C flag position */
1320:../libraries/STM32F10x_StdPeriph_Driver/src/stm32f10x_i2c.c ****   flagpos = I2C_IT & FLAG_Mask;
1321:../libraries/STM32F10x_StdPeriph_Driver/src/stm32f10x_i2c.c ****   /* Clear the selected I2C flag */
1322:../libraries/STM32F10x_StdPeriph_Driver/src/stm32f10x_i2c.c ****   I2Cx->SR1 = (uint16_t)~flagpos;
 1343              		.loc 1 1322 0
 1344 0000 C943     		mvns	r1, r1
 1345              	.LVL159:
 1346 0002 8AB2     		uxth	r2, r1
 1347 0004 8282     		strh	r2, [r0, #20]	@ movhi
 1348 0006 7047     		bx	lr
 1349              		.cfi_endproc
 1350              	.LFE88:
 1352              		.text
 1353              	.Letext0:
 1354              		.file 2 "/usr/local/gcc-arm-none-eabi-4_7-2013q1/bin/../lib/gcc/arm-none-eabi/4.7.3/../../../../ar
 1355              		.file 3 "/Users/zac/code/spark/usb-dfu/libraries/CMSIS/Device/ST/STM32F10x/Include/stm32f10x.h"
 1356              		.file 4 "/Users/zac/code/spark/usb-dfu/libraries/STM32F10x_StdPeriph_Driver/inc/stm32f10x_rcc.h"
 1357              		.file 5 "/Users/zac/code/spark/usb-dfu/libraries/STM32F10x_StdPeriph_Driver/inc/stm32f10x_i2c.h"
 1358              		.file 6 "/Users/zac/code/spark/usb-dfu/libraries/CMSIS/Include/core_cm3.h"