   1              		.syntax unified
   2              		.cpu cortex-m3
   3              		.fpu softvfp
   4              		.eabi_attribute 20, 1
   5              		.eabi_attribute 21, 1
   6              		.eabi_attribute 23, 3
   7              		.eabi_attribute 24, 1
   8              		.eabi_attribute 25, 1
   9              		.eabi_attribute 26, 1
  10              		.eabi_attribute 30, 6
  11              		.eabi_attribute 34, 1
  12              		.eabi_attribute 18, 4
  13              		.thumb
  14              		.file	"stm32f10x_flash.c"
  15              		.text
  16              	.Ltext0:
  17              		.cfi_sections	.debug_frame
  18              		.section	.text.FLASH_SetLatency,"ax",%progbits
  19              		.align	2
  20              		.global	FLASH_SetLatency
  21              		.thumb
  22              		.thumb_func
  24              	FLASH_SetLatency:
  25              	.LFB56:
  26              		.file 1 "../libraries/STM32F10x_StdPeriph_Driver/src/stm32f10x_flash.c"
   1:../libraries/STM32F10x_StdPeriph_Driver/src/stm32f10x_flash.c **** /**
   2:../libraries/STM32F10x_StdPeriph_Driver/src/stm32f10x_flash.c ****   ******************************************************************************
   3:../libraries/STM32F10x_StdPeriph_Driver/src/stm32f10x_flash.c ****   * @file    stm32f10x_flash.c
   4:../libraries/STM32F10x_StdPeriph_Driver/src/stm32f10x_flash.c ****   * @author  MCD Application Team
   5:../libraries/STM32F10x_StdPeriph_Driver/src/stm32f10x_flash.c ****   * @version V3.6.1
   6:../libraries/STM32F10x_StdPeriph_Driver/src/stm32f10x_flash.c ****   * @date    05-March-2012
   7:../libraries/STM32F10x_StdPeriph_Driver/src/stm32f10x_flash.c ****   * @brief   This file provides all the FLASH firmware functions.
   8:../libraries/STM32F10x_StdPeriph_Driver/src/stm32f10x_flash.c ****   ******************************************************************************
   9:../libraries/STM32F10x_StdPeriph_Driver/src/stm32f10x_flash.c ****   * @attention
  10:../libraries/STM32F10x_StdPeriph_Driver/src/stm32f10x_flash.c ****   *
  11:../libraries/STM32F10x_StdPeriph_Driver/src/stm32f10x_flash.c ****   * <h2><center>&copy; COPYRIGHT 2012 STMicroelectronics</center></h2>
  12:../libraries/STM32F10x_StdPeriph_Driver/src/stm32f10x_flash.c ****   *
  13:../libraries/STM32F10x_StdPeriph_Driver/src/stm32f10x_flash.c ****   * Licensed under MCD-ST Liberty SW License Agreement V2, (the "License");
  14:../libraries/STM32F10x_StdPeriph_Driver/src/stm32f10x_flash.c ****   * You may not use this file except in compliance with the License.
  15:../libraries/STM32F10x_StdPeriph_Driver/src/stm32f10x_flash.c ****   * You may obtain a copy of the License at:
  16:../libraries/STM32F10x_StdPeriph_Driver/src/stm32f10x_flash.c ****   *
  17:../libraries/STM32F10x_StdPeriph_Driver/src/stm32f10x_flash.c ****   *        http://www.st.com/software_license_agreement_liberty_v2
  18:../libraries/STM32F10x_StdPeriph_Driver/src/stm32f10x_flash.c ****   *
  19:../libraries/STM32F10x_StdPeriph_Driver/src/stm32f10x_flash.c ****   * Unless required by applicable law or agreed to in writing, software 
  20:../libraries/STM32F10x_StdPeriph_Driver/src/stm32f10x_flash.c ****   * distributed under the License is distributed on an "AS IS" BASIS, 
  21:../libraries/STM32F10x_StdPeriph_Driver/src/stm32f10x_flash.c ****   * WITHOUT WARRANTIES OR CONDITIONS OF ANY KIND, either express or implied.
  22:../libraries/STM32F10x_StdPeriph_Driver/src/stm32f10x_flash.c ****   * See the License for the specific language governing permissions and
  23:../libraries/STM32F10x_StdPeriph_Driver/src/stm32f10x_flash.c ****   * limitations under the License.
  24:../libraries/STM32F10x_StdPeriph_Driver/src/stm32f10x_flash.c ****   *
  25:../libraries/STM32F10x_StdPeriph_Driver/src/stm32f10x_flash.c ****   ******************************************************************************
  26:../libraries/STM32F10x_StdPeriph_Driver/src/stm32f10x_flash.c ****   */
  27:../libraries/STM32F10x_StdPeriph_Driver/src/stm32f10x_flash.c **** 
  28:../libraries/STM32F10x_StdPeriph_Driver/src/stm32f10x_flash.c **** /* Includes ------------------------------------------------------------------*/
  29:../libraries/STM32F10x_StdPeriph_Driver/src/stm32f10x_flash.c **** #include "stm32f10x_flash.h"
  30:../libraries/STM32F10x_StdPeriph_Driver/src/stm32f10x_flash.c **** 
  31:../libraries/STM32F10x_StdPeriph_Driver/src/stm32f10x_flash.c **** /** @addtogroup STM32F10x_StdPeriph_Driver
  32:../libraries/STM32F10x_StdPeriph_Driver/src/stm32f10x_flash.c ****   * @{
  33:../libraries/STM32F10x_StdPeriph_Driver/src/stm32f10x_flash.c ****   */
  34:../libraries/STM32F10x_StdPeriph_Driver/src/stm32f10x_flash.c **** 
  35:../libraries/STM32F10x_StdPeriph_Driver/src/stm32f10x_flash.c **** /** @defgroup FLASH 
  36:../libraries/STM32F10x_StdPeriph_Driver/src/stm32f10x_flash.c ****   * @brief FLASH driver modules
  37:../libraries/STM32F10x_StdPeriph_Driver/src/stm32f10x_flash.c ****   * @{
  38:../libraries/STM32F10x_StdPeriph_Driver/src/stm32f10x_flash.c ****   */ 
  39:../libraries/STM32F10x_StdPeriph_Driver/src/stm32f10x_flash.c **** 
  40:../libraries/STM32F10x_StdPeriph_Driver/src/stm32f10x_flash.c **** /** @defgroup FLASH_Private_TypesDefinitions
  41:../libraries/STM32F10x_StdPeriph_Driver/src/stm32f10x_flash.c ****   * @{
  42:../libraries/STM32F10x_StdPeriph_Driver/src/stm32f10x_flash.c ****   */
  43:../libraries/STM32F10x_StdPeriph_Driver/src/stm32f10x_flash.c **** 
  44:../libraries/STM32F10x_StdPeriph_Driver/src/stm32f10x_flash.c **** /**
  45:../libraries/STM32F10x_StdPeriph_Driver/src/stm32f10x_flash.c ****   * @}
  46:../libraries/STM32F10x_StdPeriph_Driver/src/stm32f10x_flash.c ****   */ 
  47:../libraries/STM32F10x_StdPeriph_Driver/src/stm32f10x_flash.c **** 
  48:../libraries/STM32F10x_StdPeriph_Driver/src/stm32f10x_flash.c **** /** @defgroup FLASH_Private_Defines
  49:../libraries/STM32F10x_StdPeriph_Driver/src/stm32f10x_flash.c ****   * @{
  50:../libraries/STM32F10x_StdPeriph_Driver/src/stm32f10x_flash.c ****   */ 
  51:../libraries/STM32F10x_StdPeriph_Driver/src/stm32f10x_flash.c **** 
  52:../libraries/STM32F10x_StdPeriph_Driver/src/stm32f10x_flash.c **** /* Flash Access Control Register bits */
  53:../libraries/STM32F10x_StdPeriph_Driver/src/stm32f10x_flash.c **** #define ACR_LATENCY_Mask         ((uint32_t)0x00000038)
  54:../libraries/STM32F10x_StdPeriph_Driver/src/stm32f10x_flash.c **** #define ACR_HLFCYA_Mask          ((uint32_t)0xFFFFFFF7)
  55:../libraries/STM32F10x_StdPeriph_Driver/src/stm32f10x_flash.c **** #define ACR_PRFTBE_Mask          ((uint32_t)0xFFFFFFEF)
  56:../libraries/STM32F10x_StdPeriph_Driver/src/stm32f10x_flash.c **** 
  57:../libraries/STM32F10x_StdPeriph_Driver/src/stm32f10x_flash.c **** /* Flash Access Control Register bits */
  58:../libraries/STM32F10x_StdPeriph_Driver/src/stm32f10x_flash.c **** #define ACR_PRFTBS_Mask          ((uint32_t)0x00000020) 
  59:../libraries/STM32F10x_StdPeriph_Driver/src/stm32f10x_flash.c **** 
  60:../libraries/STM32F10x_StdPeriph_Driver/src/stm32f10x_flash.c **** /* Flash Control Register bits */
  61:../libraries/STM32F10x_StdPeriph_Driver/src/stm32f10x_flash.c **** #define CR_PG_Set                ((uint32_t)0x00000001)
  62:../libraries/STM32F10x_StdPeriph_Driver/src/stm32f10x_flash.c **** #define CR_PG_Reset              ((uint32_t)0x00001FFE) 
  63:../libraries/STM32F10x_StdPeriph_Driver/src/stm32f10x_flash.c **** #define CR_PER_Set               ((uint32_t)0x00000002)
  64:../libraries/STM32F10x_StdPeriph_Driver/src/stm32f10x_flash.c **** #define CR_PER_Reset             ((uint32_t)0x00001FFD)
  65:../libraries/STM32F10x_StdPeriph_Driver/src/stm32f10x_flash.c **** #define CR_MER_Set               ((uint32_t)0x00000004)
  66:../libraries/STM32F10x_StdPeriph_Driver/src/stm32f10x_flash.c **** #define CR_MER_Reset             ((uint32_t)0x00001FFB)
  67:../libraries/STM32F10x_StdPeriph_Driver/src/stm32f10x_flash.c **** #define CR_OPTPG_Set             ((uint32_t)0x00000010)
  68:../libraries/STM32F10x_StdPeriph_Driver/src/stm32f10x_flash.c **** #define CR_OPTPG_Reset           ((uint32_t)0x00001FEF)
  69:../libraries/STM32F10x_StdPeriph_Driver/src/stm32f10x_flash.c **** #define CR_OPTER_Set             ((uint32_t)0x00000020)
  70:../libraries/STM32F10x_StdPeriph_Driver/src/stm32f10x_flash.c **** #define CR_OPTER_Reset           ((uint32_t)0x00001FDF)
  71:../libraries/STM32F10x_StdPeriph_Driver/src/stm32f10x_flash.c **** #define CR_STRT_Set              ((uint32_t)0x00000040)
  72:../libraries/STM32F10x_StdPeriph_Driver/src/stm32f10x_flash.c **** #define CR_LOCK_Set              ((uint32_t)0x00000080)
  73:../libraries/STM32F10x_StdPeriph_Driver/src/stm32f10x_flash.c **** 
  74:../libraries/STM32F10x_StdPeriph_Driver/src/stm32f10x_flash.c **** /* FLASH Mask */
  75:../libraries/STM32F10x_StdPeriph_Driver/src/stm32f10x_flash.c **** #define RDPRT_Mask               ((uint32_t)0x00000002)
  76:../libraries/STM32F10x_StdPeriph_Driver/src/stm32f10x_flash.c **** #define WRP0_Mask                ((uint32_t)0x000000FF)
  77:../libraries/STM32F10x_StdPeriph_Driver/src/stm32f10x_flash.c **** #define WRP1_Mask                ((uint32_t)0x0000FF00)
  78:../libraries/STM32F10x_StdPeriph_Driver/src/stm32f10x_flash.c **** #define WRP2_Mask                ((uint32_t)0x00FF0000)
  79:../libraries/STM32F10x_StdPeriph_Driver/src/stm32f10x_flash.c **** #define WRP3_Mask                ((uint32_t)0xFF000000)
  80:../libraries/STM32F10x_StdPeriph_Driver/src/stm32f10x_flash.c **** #define OB_USER_BFB2             ((uint16_t)0x0008)
  81:../libraries/STM32F10x_StdPeriph_Driver/src/stm32f10x_flash.c **** 
  82:../libraries/STM32F10x_StdPeriph_Driver/src/stm32f10x_flash.c **** /* FLASH BANK address */
  83:../libraries/STM32F10x_StdPeriph_Driver/src/stm32f10x_flash.c **** #define FLASH_BANK1_END_ADDRESS   ((uint32_t)0x807FFFF)
  84:../libraries/STM32F10x_StdPeriph_Driver/src/stm32f10x_flash.c **** 
  85:../libraries/STM32F10x_StdPeriph_Driver/src/stm32f10x_flash.c **** /* Delay definition */   
  86:../libraries/STM32F10x_StdPeriph_Driver/src/stm32f10x_flash.c **** #define EraseTimeout          ((uint32_t)0x000B0000)
  87:../libraries/STM32F10x_StdPeriph_Driver/src/stm32f10x_flash.c **** #define ProgramTimeout        ((uint32_t)0x00002000)
  88:../libraries/STM32F10x_StdPeriph_Driver/src/stm32f10x_flash.c **** /**
  89:../libraries/STM32F10x_StdPeriph_Driver/src/stm32f10x_flash.c ****   * @}
  90:../libraries/STM32F10x_StdPeriph_Driver/src/stm32f10x_flash.c ****   */ 
  91:../libraries/STM32F10x_StdPeriph_Driver/src/stm32f10x_flash.c **** 
  92:../libraries/STM32F10x_StdPeriph_Driver/src/stm32f10x_flash.c **** /** @defgroup FLASH_Private_Macros
  93:../libraries/STM32F10x_StdPeriph_Driver/src/stm32f10x_flash.c ****   * @{
  94:../libraries/STM32F10x_StdPeriph_Driver/src/stm32f10x_flash.c ****   */
  95:../libraries/STM32F10x_StdPeriph_Driver/src/stm32f10x_flash.c **** 
  96:../libraries/STM32F10x_StdPeriph_Driver/src/stm32f10x_flash.c **** /**
  97:../libraries/STM32F10x_StdPeriph_Driver/src/stm32f10x_flash.c ****   * @}
  98:../libraries/STM32F10x_StdPeriph_Driver/src/stm32f10x_flash.c ****   */ 
  99:../libraries/STM32F10x_StdPeriph_Driver/src/stm32f10x_flash.c **** 
 100:../libraries/STM32F10x_StdPeriph_Driver/src/stm32f10x_flash.c **** /** @defgroup FLASH_Private_Variables
 101:../libraries/STM32F10x_StdPeriph_Driver/src/stm32f10x_flash.c ****   * @{
 102:../libraries/STM32F10x_StdPeriph_Driver/src/stm32f10x_flash.c ****   */
 103:../libraries/STM32F10x_StdPeriph_Driver/src/stm32f10x_flash.c **** 
 104:../libraries/STM32F10x_StdPeriph_Driver/src/stm32f10x_flash.c **** /**
 105:../libraries/STM32F10x_StdPeriph_Driver/src/stm32f10x_flash.c ****   * @}
 106:../libraries/STM32F10x_StdPeriph_Driver/src/stm32f10x_flash.c ****   */ 
 107:../libraries/STM32F10x_StdPeriph_Driver/src/stm32f10x_flash.c **** 
 108:../libraries/STM32F10x_StdPeriph_Driver/src/stm32f10x_flash.c **** /** @defgroup FLASH_Private_FunctionPrototypes
 109:../libraries/STM32F10x_StdPeriph_Driver/src/stm32f10x_flash.c ****   * @{
 110:../libraries/STM32F10x_StdPeriph_Driver/src/stm32f10x_flash.c ****   */
 111:../libraries/STM32F10x_StdPeriph_Driver/src/stm32f10x_flash.c ****   
 112:../libraries/STM32F10x_StdPeriph_Driver/src/stm32f10x_flash.c **** /**
 113:../libraries/STM32F10x_StdPeriph_Driver/src/stm32f10x_flash.c ****   * @}
 114:../libraries/STM32F10x_StdPeriph_Driver/src/stm32f10x_flash.c ****   */
 115:../libraries/STM32F10x_StdPeriph_Driver/src/stm32f10x_flash.c **** 
 116:../libraries/STM32F10x_StdPeriph_Driver/src/stm32f10x_flash.c **** /** @defgroup FLASH_Private_Functions
 117:../libraries/STM32F10x_StdPeriph_Driver/src/stm32f10x_flash.c ****   * @{
 118:../libraries/STM32F10x_StdPeriph_Driver/src/stm32f10x_flash.c ****   */
 119:../libraries/STM32F10x_StdPeriph_Driver/src/stm32f10x_flash.c **** 
 120:../libraries/STM32F10x_StdPeriph_Driver/src/stm32f10x_flash.c **** /**
 121:../libraries/STM32F10x_StdPeriph_Driver/src/stm32f10x_flash.c **** @code  
 122:../libraries/STM32F10x_StdPeriph_Driver/src/stm32f10x_flash.c ****  
 123:../libraries/STM32F10x_StdPeriph_Driver/src/stm32f10x_flash.c ****  This driver provides functions to configure and program the Flash memory of all STM32F10x devices,
 124:../libraries/STM32F10x_StdPeriph_Driver/src/stm32f10x_flash.c ****  including the latest STM32F10x_XL density devices. 
 125:../libraries/STM32F10x_StdPeriph_Driver/src/stm32f10x_flash.c **** 
 126:../libraries/STM32F10x_StdPeriph_Driver/src/stm32f10x_flash.c ****  STM32F10x_XL devices feature up to 1 Mbyte with dual bank architecture for read-while-write (RWW) 
 127:../libraries/STM32F10x_StdPeriph_Driver/src/stm32f10x_flash.c ****     - bank1: fixed size of 512 Kbytes (256 pages of 2Kbytes each)
 128:../libraries/STM32F10x_StdPeriph_Driver/src/stm32f10x_flash.c ****     - bank2: up to 512 Kbytes (up to 256 pages of 2Kbytes each)
 129:../libraries/STM32F10x_StdPeriph_Driver/src/stm32f10x_flash.c ****  While other STM32F10x devices features only one bank with memory up to 512 Kbytes.
 130:../libraries/STM32F10x_StdPeriph_Driver/src/stm32f10x_flash.c **** 
 131:../libraries/STM32F10x_StdPeriph_Driver/src/stm32f10x_flash.c ****  In version V3.3.0, some functions were updated and new ones were added to support
 132:../libraries/STM32F10x_StdPeriph_Driver/src/stm32f10x_flash.c ****  STM32F10x_XL devices. Thus some functions manages all devices, while other are 
 133:../libraries/STM32F10x_StdPeriph_Driver/src/stm32f10x_flash.c ****  dedicated for XL devices only.
 134:../libraries/STM32F10x_StdPeriph_Driver/src/stm32f10x_flash.c ****  
 135:../libraries/STM32F10x_StdPeriph_Driver/src/stm32f10x_flash.c ****  The table below presents the list of available functions depending on the used STM32F10x devices. 
 136:../libraries/STM32F10x_StdPeriph_Driver/src/stm32f10x_flash.c ****       
 137:../libraries/STM32F10x_StdPeriph_Driver/src/stm32f10x_flash.c ****    ***************************************************
 138:../libraries/STM32F10x_StdPeriph_Driver/src/stm32f10x_flash.c ****    * Legacy functions used for all STM32F10x devices *
 139:../libraries/STM32F10x_StdPeriph_Driver/src/stm32f10x_flash.c ****    ***************************************************
 140:../libraries/STM32F10x_StdPeriph_Driver/src/stm32f10x_flash.c ****    +-----------------------------------------------------------------------------------------------
 141:../libraries/STM32F10x_StdPeriph_Driver/src/stm32f10x_flash.c ****    |       Functions prototypes         |STM32F10x_XL|Other STM32F10x|    Comments                 
 142:../libraries/STM32F10x_StdPeriph_Driver/src/stm32f10x_flash.c ****    |                                    |   devices  |  devices      |                             
 143:../libraries/STM32F10x_StdPeriph_Driver/src/stm32f10x_flash.c ****    |-----------------------------------------------------------------------------------------------
 144:../libraries/STM32F10x_StdPeriph_Driver/src/stm32f10x_flash.c ****    |FLASH_SetLatency                    |    Yes     |      Yes      | No change                   
 145:../libraries/STM32F10x_StdPeriph_Driver/src/stm32f10x_flash.c ****    |-----------------------------------------------------------------------------------------------
 146:../libraries/STM32F10x_StdPeriph_Driver/src/stm32f10x_flash.c ****    |FLASH_HalfCycleAccessCmd            |    Yes     |      Yes      | No change                   
 147:../libraries/STM32F10x_StdPeriph_Driver/src/stm32f10x_flash.c ****    |-----------------------------------------------------------------------------------------------
 148:../libraries/STM32F10x_StdPeriph_Driver/src/stm32f10x_flash.c ****    |FLASH_PrefetchBufferCmd             |    Yes     |      Yes      | No change                   
 149:../libraries/STM32F10x_StdPeriph_Driver/src/stm32f10x_flash.c ****    |-----------------------------------------------------------------------------------------------
 150:../libraries/STM32F10x_StdPeriph_Driver/src/stm32f10x_flash.c ****    |FLASH_Unlock                        |    Yes     |      Yes      | - For STM32F10X_XL devices: 
 151:../libraries/STM32F10x_StdPeriph_Driver/src/stm32f10x_flash.c ****    |                                    |            |               | - For other devices: unlock 
 152:../libraries/STM32F10x_StdPeriph_Driver/src/stm32f10x_flash.c ****    |                                    |            |               |   to FLASH_UnlockBank1 funct
 153:../libraries/STM32F10x_StdPeriph_Driver/src/stm32f10x_flash.c ****    |-----------------------------------------------------------------------------------------------
 154:../libraries/STM32F10x_StdPeriph_Driver/src/stm32f10x_flash.c ****    |FLASH_Lock                          |    Yes     |      Yes      | - For STM32F10X_XL devices: 
 155:../libraries/STM32F10x_StdPeriph_Driver/src/stm32f10x_flash.c ****    |                                    |            |               | - For other devices: lock Ba
 156:../libraries/STM32F10x_StdPeriph_Driver/src/stm32f10x_flash.c ****    |                                    |            |               |   to FLASH_LockBank1 functio
 157:../libraries/STM32F10x_StdPeriph_Driver/src/stm32f10x_flash.c ****    |-----------------------------------------------------------------------------------------------
 158:../libraries/STM32F10x_StdPeriph_Driver/src/stm32f10x_flash.c ****    |FLASH_ErasePage                     |    Yes     |      Yes      | - For STM32F10x_XL devices: 
 159:../libraries/STM32F10x_StdPeriph_Driver/src/stm32f10x_flash.c ****    |                                    |            |               | - For other devices: erase a
 160:../libraries/STM32F10x_StdPeriph_Driver/src/stm32f10x_flash.c ****    |-----------------------------------------------------------------------------------------------
 161:../libraries/STM32F10x_StdPeriph_Driver/src/stm32f10x_flash.c ****    |FLASH_EraseAllPages                 |    Yes     |      Yes      | - For STM32F10x_XL devices: 
 162:../libraries/STM32F10x_StdPeriph_Driver/src/stm32f10x_flash.c ****    |                                    |            |               | - For other devices: erase a
 163:../libraries/STM32F10x_StdPeriph_Driver/src/stm32f10x_flash.c ****    |-----------------------------------------------------------------------------------------------
 164:../libraries/STM32F10x_StdPeriph_Driver/src/stm32f10x_flash.c ****    |FLASH_EraseOptionBytes              |    Yes     |      Yes      | No change                   
 165:../libraries/STM32F10x_StdPeriph_Driver/src/stm32f10x_flash.c ****    |-----------------------------------------------------------------------------------------------
 166:../libraries/STM32F10x_StdPeriph_Driver/src/stm32f10x_flash.c ****    |FLASH_ProgramWord                   |    Yes     |      Yes      | Updated to program up to 1MB
 167:../libraries/STM32F10x_StdPeriph_Driver/src/stm32f10x_flash.c ****    |-----------------------------------------------------------------------------------------------
 168:../libraries/STM32F10x_StdPeriph_Driver/src/stm32f10x_flash.c ****    |FLASH_ProgramHalfWord               |    Yes     |      Yes      | Updated to program up to 1MB
 169:../libraries/STM32F10x_StdPeriph_Driver/src/stm32f10x_flash.c ****    |-----------------------------------------------------------------------------------------------
 170:../libraries/STM32F10x_StdPeriph_Driver/src/stm32f10x_flash.c ****    |FLASH_ProgramOptionByteData         |    Yes     |      Yes      | No change                   
 171:../libraries/STM32F10x_StdPeriph_Driver/src/stm32f10x_flash.c ****    |-----------------------------------------------------------------------------------------------
 172:../libraries/STM32F10x_StdPeriph_Driver/src/stm32f10x_flash.c ****    |FLASH_EnableWriteProtection         |    Yes     |      Yes      | No change                   
 173:../libraries/STM32F10x_StdPeriph_Driver/src/stm32f10x_flash.c ****    |-----------------------------------------------------------------------------------------------
 174:../libraries/STM32F10x_StdPeriph_Driver/src/stm32f10x_flash.c ****    |FLASH_ReadOutProtection             |    Yes     |      Yes      | No change                   
 175:../libraries/STM32F10x_StdPeriph_Driver/src/stm32f10x_flash.c ****    |-----------------------------------------------------------------------------------------------
 176:../libraries/STM32F10x_StdPeriph_Driver/src/stm32f10x_flash.c ****    |FLASH_UserOptionByteConfig          |    Yes     |      Yes      | No change                   
 177:../libraries/STM32F10x_StdPeriph_Driver/src/stm32f10x_flash.c ****    |-----------------------------------------------------------------------------------------------
 178:../libraries/STM32F10x_StdPeriph_Driver/src/stm32f10x_flash.c ****    |FLASH_GetUserOptionByte             |    Yes     |      Yes      | No change                   
 179:../libraries/STM32F10x_StdPeriph_Driver/src/stm32f10x_flash.c ****    |-----------------------------------------------------------------------------------------------
 180:../libraries/STM32F10x_StdPeriph_Driver/src/stm32f10x_flash.c ****    |FLASH_GetWriteProtectionOptionByte  |    Yes     |      Yes      | No change                   
 181:../libraries/STM32F10x_StdPeriph_Driver/src/stm32f10x_flash.c ****    |-----------------------------------------------------------------------------------------------
 182:../libraries/STM32F10x_StdPeriph_Driver/src/stm32f10x_flash.c ****    |FLASH_GetReadOutProtectionStatus    |    Yes     |      Yes      | No change                   
 183:../libraries/STM32F10x_StdPeriph_Driver/src/stm32f10x_flash.c ****    |-----------------------------------------------------------------------------------------------
 184:../libraries/STM32F10x_StdPeriph_Driver/src/stm32f10x_flash.c ****    |FLASH_GetPrefetchBufferStatus       |    Yes     |      Yes      | No change                   
 185:../libraries/STM32F10x_StdPeriph_Driver/src/stm32f10x_flash.c ****    |-----------------------------------------------------------------------------------------------
 186:../libraries/STM32F10x_StdPeriph_Driver/src/stm32f10x_flash.c ****    |FLASH_ITConfig                      |    Yes     |      Yes      | - For STM32F10x_XL devices: 
 187:../libraries/STM32F10x_StdPeriph_Driver/src/stm32f10x_flash.c ****    |                                    |            |               | - For other devices: enable 
 188:../libraries/STM32F10x_StdPeriph_Driver/src/stm32f10x_flash.c ****    |-----------------------------------------------------------------------------------------------
 189:../libraries/STM32F10x_StdPeriph_Driver/src/stm32f10x_flash.c ****    |FLASH_GetFlagStatus                 |    Yes     |      Yes      | - For STM32F10x_XL devices: 
 190:../libraries/STM32F10x_StdPeriph_Driver/src/stm32f10x_flash.c ****    |                                    |            |               | - For other devices: return 
 191:../libraries/STM32F10x_StdPeriph_Driver/src/stm32f10x_flash.c ****    |-----------------------------------------------------------------------------------------------
 192:../libraries/STM32F10x_StdPeriph_Driver/src/stm32f10x_flash.c ****    |FLASH_ClearFlag                     |    Yes     |      Yes      | - For STM32F10x_XL devices: 
 193:../libraries/STM32F10x_StdPeriph_Driver/src/stm32f10x_flash.c ****    |                                    |            |               | - For other devices: clear B
 194:../libraries/STM32F10x_StdPeriph_Driver/src/stm32f10x_flash.c ****    |-----------------------------------------------------------------------------------------------
 195:../libraries/STM32F10x_StdPeriph_Driver/src/stm32f10x_flash.c ****    |FLASH_GetStatus                     |    Yes     |      Yes      | - Return the status of Bank1
 196:../libraries/STM32F10x_StdPeriph_Driver/src/stm32f10x_flash.c ****    |                                    |            |               |   equivalent to FLASH_GetBan
 197:../libraries/STM32F10x_StdPeriph_Driver/src/stm32f10x_flash.c ****    |-----------------------------------------------------------------------------------------------
 198:../libraries/STM32F10x_StdPeriph_Driver/src/stm32f10x_flash.c ****    |FLASH_WaitForLastOperation          |    Yes     |      Yes      | - Wait for Bank1 last operat
 199:../libraries/STM32F10x_StdPeriph_Driver/src/stm32f10x_flash.c ****    |                                    |            |               |   equivalent to: FLASH_WaitF
 200:../libraries/STM32F10x_StdPeriph_Driver/src/stm32f10x_flash.c ****    +-----------------------------------------------------------------------------------------------
 201:../libraries/STM32F10x_StdPeriph_Driver/src/stm32f10x_flash.c **** 
 202:../libraries/STM32F10x_StdPeriph_Driver/src/stm32f10x_flash.c ****    ************************************************************************************************
 203:../libraries/STM32F10x_StdPeriph_Driver/src/stm32f10x_flash.c ****    * New functions used for all STM32F10x devices to manage Bank1:                                 
 204:../libraries/STM32F10x_StdPeriph_Driver/src/stm32f10x_flash.c ****    *   - These functions are mainly useful for STM32F10x_XL density devices, to have separate contr
 205:../libraries/STM32F10x_StdPeriph_Driver/src/stm32f10x_flash.c ****    *   - For other devices, these functions are optional (covered by functions listed above)       
 206:../libraries/STM32F10x_StdPeriph_Driver/src/stm32f10x_flash.c ****    ************************************************************************************************
 207:../libraries/STM32F10x_StdPeriph_Driver/src/stm32f10x_flash.c ****    +-----------------------------------------------------------------------------------------------
 208:../libraries/STM32F10x_StdPeriph_Driver/src/stm32f10x_flash.c ****    |       Functions prototypes         |STM32F10x_XL|Other STM32F10x|    Comments                 
 209:../libraries/STM32F10x_StdPeriph_Driver/src/stm32f10x_flash.c ****    |                                    |   devices  |  devices      |                             
 210:../libraries/STM32F10x_StdPeriph_Driver/src/stm32f10x_flash.c ****    |-----------------------------------------------------------------------------------------------
 211:../libraries/STM32F10x_StdPeriph_Driver/src/stm32f10x_flash.c ****    | FLASH_UnlockBank1                  |    Yes     |      Yes      | - Unlock Bank1              
 212:../libraries/STM32F10x_StdPeriph_Driver/src/stm32f10x_flash.c ****    |-----------------------------------------------------------------------------------------------
 213:../libraries/STM32F10x_StdPeriph_Driver/src/stm32f10x_flash.c ****    |FLASH_LockBank1                     |    Yes     |      Yes      | - Lock Bank1                
 214:../libraries/STM32F10x_StdPeriph_Driver/src/stm32f10x_flash.c ****    |-----------------------------------------------------------------------------------------------
 215:../libraries/STM32F10x_StdPeriph_Driver/src/stm32f10x_flash.c ****    | FLASH_EraseAllBank1Pages           |    Yes     |      Yes      | - Erase all pages in Bank1  
 216:../libraries/STM32F10x_StdPeriph_Driver/src/stm32f10x_flash.c ****    |-----------------------------------------------------------------------------------------------
 217:../libraries/STM32F10x_StdPeriph_Driver/src/stm32f10x_flash.c ****    | FLASH_GetBank1Status               |    Yes     |      Yes      | - Return the status of Bank1
 218:../libraries/STM32F10x_StdPeriph_Driver/src/stm32f10x_flash.c ****    |-----------------------------------------------------------------------------------------------
 219:../libraries/STM32F10x_StdPeriph_Driver/src/stm32f10x_flash.c ****    | FLASH_WaitForLastBank1Operation    |    Yes     |      Yes      | - Wait for Bank1 last operat
 220:../libraries/STM32F10x_StdPeriph_Driver/src/stm32f10x_flash.c ****    +-----------------------------------------------------------------------------------------------
 221:../libraries/STM32F10x_StdPeriph_Driver/src/stm32f10x_flash.c **** 
 222:../libraries/STM32F10x_StdPeriph_Driver/src/stm32f10x_flash.c ****    *****************************************************************************
 223:../libraries/STM32F10x_StdPeriph_Driver/src/stm32f10x_flash.c ****    * New Functions used only with STM32F10x_XL density devices to manage Bank2 *
 224:../libraries/STM32F10x_StdPeriph_Driver/src/stm32f10x_flash.c ****    *****************************************************************************
 225:../libraries/STM32F10x_StdPeriph_Driver/src/stm32f10x_flash.c ****    +-----------------------------------------------------------------------------------------------
 226:../libraries/STM32F10x_StdPeriph_Driver/src/stm32f10x_flash.c ****    |       Functions prototypes         |STM32F10x_XL|Other STM32F10x|    Comments                 
 227:../libraries/STM32F10x_StdPeriph_Driver/src/stm32f10x_flash.c ****    |                                    |   devices  |  devices      |                             
 228:../libraries/STM32F10x_StdPeriph_Driver/src/stm32f10x_flash.c ****    |-----------------------------------------------------------------------------------------------
 229:../libraries/STM32F10x_StdPeriph_Driver/src/stm32f10x_flash.c ****    | FLASH_UnlockBank2                  |    Yes     |      No       | - Unlock Bank2              
 230:../libraries/STM32F10x_StdPeriph_Driver/src/stm32f10x_flash.c ****    |-----------------------------------------------------------------------------------------------
 231:../libraries/STM32F10x_StdPeriph_Driver/src/stm32f10x_flash.c ****    |FLASH_LockBank2                     |    Yes     |      No       | - Lock Bank2                
 232:../libraries/STM32F10x_StdPeriph_Driver/src/stm32f10x_flash.c ****    |-----------------------------------------------------------------------------------------------
 233:../libraries/STM32F10x_StdPeriph_Driver/src/stm32f10x_flash.c ****    | FLASH_EraseAllBank2Pages           |    Yes     |      No       | - Erase all pages in Bank2  
 234:../libraries/STM32F10x_StdPeriph_Driver/src/stm32f10x_flash.c ****    |-----------------------------------------------------------------------------------------------
 235:../libraries/STM32F10x_StdPeriph_Driver/src/stm32f10x_flash.c ****    | FLASH_GetBank2Status               |    Yes     |      No       | - Return the status of Bank2
 236:../libraries/STM32F10x_StdPeriph_Driver/src/stm32f10x_flash.c ****    |-----------------------------------------------------------------------------------------------
 237:../libraries/STM32F10x_StdPeriph_Driver/src/stm32f10x_flash.c ****    | FLASH_WaitForLastBank2Operation    |    Yes     |      No       | - Wait for Bank2 last operat
 238:../libraries/STM32F10x_StdPeriph_Driver/src/stm32f10x_flash.c ****    |-----------------------------------------------------------------------------------------------
 239:../libraries/STM32F10x_StdPeriph_Driver/src/stm32f10x_flash.c ****    | FLASH_BootConfig                   |    Yes     |      No       | - Configure to boot from Ban
 240:../libraries/STM32F10x_StdPeriph_Driver/src/stm32f10x_flash.c ****    +-----------------------------------------------------------------------------------------------
 241:../libraries/STM32F10x_StdPeriph_Driver/src/stm32f10x_flash.c **** @endcode
 242:../libraries/STM32F10x_StdPeriph_Driver/src/stm32f10x_flash.c **** */
 243:../libraries/STM32F10x_StdPeriph_Driver/src/stm32f10x_flash.c **** 
 244:../libraries/STM32F10x_StdPeriph_Driver/src/stm32f10x_flash.c **** 
 245:../libraries/STM32F10x_StdPeriph_Driver/src/stm32f10x_flash.c **** /**
 246:../libraries/STM32F10x_StdPeriph_Driver/src/stm32f10x_flash.c ****   * @brief  Sets the code latency value.
 247:../libraries/STM32F10x_StdPeriph_Driver/src/stm32f10x_flash.c ****   * @note   This function can be used for all STM32F10x devices.
 248:../libraries/STM32F10x_StdPeriph_Driver/src/stm32f10x_flash.c ****   * @param  FLASH_Latency: specifies the FLASH Latency value.
 249:../libraries/STM32F10x_StdPeriph_Driver/src/stm32f10x_flash.c ****   *   This parameter can be one of the following values:
 250:../libraries/STM32F10x_StdPeriph_Driver/src/stm32f10x_flash.c ****   *     @arg FLASH_Latency_0: FLASH Zero Latency cycle
 251:../libraries/STM32F10x_StdPeriph_Driver/src/stm32f10x_flash.c ****   *     @arg FLASH_Latency_1: FLASH One Latency cycle
 252:../libraries/STM32F10x_StdPeriph_Driver/src/stm32f10x_flash.c ****   *     @arg FLASH_Latency_2: FLASH Two Latency cycles
 253:../libraries/STM32F10x_StdPeriph_Driver/src/stm32f10x_flash.c ****   * @retval None
 254:../libraries/STM32F10x_StdPeriph_Driver/src/stm32f10x_flash.c ****   */
 255:../libraries/STM32F10x_StdPeriph_Driver/src/stm32f10x_flash.c **** void FLASH_SetLatency(uint32_t FLASH_Latency)
 256:../libraries/STM32F10x_StdPeriph_Driver/src/stm32f10x_flash.c **** {
  27              		.loc 1 256 0
  28              		.cfi_startproc
  29              		@ args = 0, pretend = 0, frame = 16
  30              		@ frame_needed = 1, uses_anonymous_args = 0
  31              		@ link register save eliminated.
  32 0000 80B4     		push	{r7}
  33              	.LCFI0:
  34              		.cfi_def_cfa_offset 4
  35              		.cfi_offset 7, -4
  36 0002 85B0     		sub	sp, sp, #20
  37              	.LCFI1:
  38              		.cfi_def_cfa_offset 24
  39 0004 00AF     		add	r7, sp, #0
  40              	.LCFI2:
  41              		.cfi_def_cfa_register 7
  42 0006 7860     		str	r0, [r7, #4]
 257:../libraries/STM32F10x_StdPeriph_Driver/src/stm32f10x_flash.c ****   uint32_t tmpreg = 0;
  43              		.loc 1 257 0
  44 0008 4FF00003 		mov	r3, #0
  45 000c FB60     		str	r3, [r7, #12]
 258:../libraries/STM32F10x_StdPeriph_Driver/src/stm32f10x_flash.c ****   
 259:../libraries/STM32F10x_StdPeriph_Driver/src/stm32f10x_flash.c ****   /* Check the parameters */
 260:../libraries/STM32F10x_StdPeriph_Driver/src/stm32f10x_flash.c ****   assert_param(IS_FLASH_LATENCY(FLASH_Latency));
 261:../libraries/STM32F10x_StdPeriph_Driver/src/stm32f10x_flash.c ****   
 262:../libraries/STM32F10x_StdPeriph_Driver/src/stm32f10x_flash.c ****   /* Read the ACR register */
 263:../libraries/STM32F10x_StdPeriph_Driver/src/stm32f10x_flash.c ****   tmpreg = FLASH->ACR;  
  46              		.loc 1 263 0
  47 000e 4FF40053 		mov	r3, #8192
  48 0012 C4F20203 		movt	r3, 16386
  49 0016 1B68     		ldr	r3, [r3, #0]
  50 0018 FB60     		str	r3, [r7, #12]
 264:../libraries/STM32F10x_StdPeriph_Driver/src/stm32f10x_flash.c ****   
 265:../libraries/STM32F10x_StdPeriph_Driver/src/stm32f10x_flash.c ****   /* Sets the Latency value */
 266:../libraries/STM32F10x_StdPeriph_Driver/src/stm32f10x_flash.c ****   tmpreg &= ACR_LATENCY_Mask;
  51              		.loc 1 266 0
  52 001a FB68     		ldr	r3, [r7, #12]
  53 001c 03F03803 		and	r3, r3, #56
  54 0020 FB60     		str	r3, [r7, #12]
 267:../libraries/STM32F10x_StdPeriph_Driver/src/stm32f10x_flash.c ****   tmpreg |= FLASH_Latency;
  55              		.loc 1 267 0
  56 0022 FA68     		ldr	r2, [r7, #12]
  57 0024 7B68     		ldr	r3, [r7, #4]
  58 0026 1343     		orrs	r3, r3, r2
  59 0028 FB60     		str	r3, [r7, #12]
 268:../libraries/STM32F10x_StdPeriph_Driver/src/stm32f10x_flash.c ****   
 269:../libraries/STM32F10x_StdPeriph_Driver/src/stm32f10x_flash.c ****   /* Write the ACR register */
 270:../libraries/STM32F10x_StdPeriph_Driver/src/stm32f10x_flash.c ****   FLASH->ACR = tmpreg;
  60              		.loc 1 270 0
  61 002a 4FF40053 		mov	r3, #8192
  62 002e C4F20203 		movt	r3, 16386
  63 0032 FA68     		ldr	r2, [r7, #12]
  64 0034 1A60     		str	r2, [r3, #0]
 271:../libraries/STM32F10x_StdPeriph_Driver/src/stm32f10x_flash.c **** }
  65              		.loc 1 271 0
  66 0036 07F11407 		add	r7, r7, #20
  67 003a BD46     		mov	sp, r7
  68 003c 80BC     		pop	{r7}
  69 003e 7047     		bx	lr
  70              		.cfi_endproc
  71              	.LFE56:
  73              		.section	.text.FLASH_HalfCycleAccessCmd,"ax",%progbits
  74              		.align	2
  75              		.global	FLASH_HalfCycleAccessCmd
  76              		.thumb
  77              		.thumb_func
  79              	FLASH_HalfCycleAccessCmd:
  80              	.LFB57:
 272:../libraries/STM32F10x_StdPeriph_Driver/src/stm32f10x_flash.c **** 
 273:../libraries/STM32F10x_StdPeriph_Driver/src/stm32f10x_flash.c **** /**
 274:../libraries/STM32F10x_StdPeriph_Driver/src/stm32f10x_flash.c ****   * @brief  Enables or disables the Half cycle flash access.
 275:../libraries/STM32F10x_StdPeriph_Driver/src/stm32f10x_flash.c ****   * @note   This function can be used for all STM32F10x devices.
 276:../libraries/STM32F10x_StdPeriph_Driver/src/stm32f10x_flash.c ****   * @param  FLASH_HalfCycleAccess: specifies the FLASH Half cycle Access mode.
 277:../libraries/STM32F10x_StdPeriph_Driver/src/stm32f10x_flash.c ****   *   This parameter can be one of the following values:
 278:../libraries/STM32F10x_StdPeriph_Driver/src/stm32f10x_flash.c ****   *     @arg FLASH_HalfCycleAccess_Enable: FLASH Half Cycle Enable
 279:../libraries/STM32F10x_StdPeriph_Driver/src/stm32f10x_flash.c ****   *     @arg FLASH_HalfCycleAccess_Disable: FLASH Half Cycle Disable
 280:../libraries/STM32F10x_StdPeriph_Driver/src/stm32f10x_flash.c ****   * @retval None
 281:../libraries/STM32F10x_StdPeriph_Driver/src/stm32f10x_flash.c ****   */
 282:../libraries/STM32F10x_StdPeriph_Driver/src/stm32f10x_flash.c **** void FLASH_HalfCycleAccessCmd(uint32_t FLASH_HalfCycleAccess)
 283:../libraries/STM32F10x_StdPeriph_Driver/src/stm32f10x_flash.c **** {
  81              		.loc 1 283 0
  82              		.cfi_startproc
  83              		@ args = 0, pretend = 0, frame = 8
  84              		@ frame_needed = 1, uses_anonymous_args = 0
  85              		@ link register save eliminated.
  86 0000 80B4     		push	{r7}
  87              	.LCFI3:
  88              		.cfi_def_cfa_offset 4
  89              		.cfi_offset 7, -4
  90 0002 83B0     		sub	sp, sp, #12
  91              	.LCFI4:
  92              		.cfi_def_cfa_offset 16
  93 0004 00AF     		add	r7, sp, #0
  94              	.LCFI5:
  95              		.cfi_def_cfa_register 7
  96 0006 7860     		str	r0, [r7, #4]
 284:../libraries/STM32F10x_StdPeriph_Driver/src/stm32f10x_flash.c ****   /* Check the parameters */
 285:../libraries/STM32F10x_StdPeriph_Driver/src/stm32f10x_flash.c ****   assert_param(IS_FLASH_HALFCYCLEACCESS_STATE(FLASH_HalfCycleAccess));
 286:../libraries/STM32F10x_StdPeriph_Driver/src/stm32f10x_flash.c ****   
 287:../libraries/STM32F10x_StdPeriph_Driver/src/stm32f10x_flash.c ****   /* Enable or disable the Half cycle access */
 288:../libraries/STM32F10x_StdPeriph_Driver/src/stm32f10x_flash.c ****   FLASH->ACR &= ACR_HLFCYA_Mask;
  97              		.loc 1 288 0
  98 0008 4FF40053 		mov	r3, #8192
  99 000c C4F20203 		movt	r3, 16386
 100 0010 4FF40052 		mov	r2, #8192
 101 0014 C4F20202 		movt	r2, 16386
 102 0018 1268     		ldr	r2, [r2, #0]
 103 001a 22F00802 		bic	r2, r2, #8
 104 001e 1A60     		str	r2, [r3, #0]
 289:../libraries/STM32F10x_StdPeriph_Driver/src/stm32f10x_flash.c ****   FLASH->ACR |= FLASH_HalfCycleAccess;
 105              		.loc 1 289 0
 106 0020 4FF40053 		mov	r3, #8192
 107 0024 C4F20203 		movt	r3, 16386
 108 0028 4FF40052 		mov	r2, #8192
 109 002c C4F20202 		movt	r2, 16386
 110 0030 1168     		ldr	r1, [r2, #0]
 111 0032 7A68     		ldr	r2, [r7, #4]
 112 0034 0A43     		orrs	r2, r2, r1
 113 0036 1A60     		str	r2, [r3, #0]
 290:../libraries/STM32F10x_StdPeriph_Driver/src/stm32f10x_flash.c **** }
 114              		.loc 1 290 0
 115 0038 07F10C07 		add	r7, r7, #12
 116 003c BD46     		mov	sp, r7
 117 003e 80BC     		pop	{r7}
 118 0040 7047     		bx	lr
 119              		.cfi_endproc
 120              	.LFE57:
 122 0042 00BF     		.section	.text.FLASH_PrefetchBufferCmd,"ax",%progbits
 123              		.align	2
 124              		.global	FLASH_PrefetchBufferCmd
 125              		.thumb
 126              		.thumb_func
 128              	FLASH_PrefetchBufferCmd:
 129              	.LFB58:
 291:../libraries/STM32F10x_StdPeriph_Driver/src/stm32f10x_flash.c **** 
 292:../libraries/STM32F10x_StdPeriph_Driver/src/stm32f10x_flash.c **** /**
 293:../libraries/STM32F10x_StdPeriph_Driver/src/stm32f10x_flash.c ****   * @brief  Enables or disables the Prefetch Buffer.
 294:../libraries/STM32F10x_StdPeriph_Driver/src/stm32f10x_flash.c ****   * @note   This function can be used for all STM32F10x devices.
 295:../libraries/STM32F10x_StdPeriph_Driver/src/stm32f10x_flash.c ****   * @param  FLASH_PrefetchBuffer: specifies the Prefetch buffer status.
 296:../libraries/STM32F10x_StdPeriph_Driver/src/stm32f10x_flash.c ****   *   This parameter can be one of the following values:
 297:../libraries/STM32F10x_StdPeriph_Driver/src/stm32f10x_flash.c ****   *     @arg FLASH_PrefetchBuffer_Enable: FLASH Prefetch Buffer Enable
 298:../libraries/STM32F10x_StdPeriph_Driver/src/stm32f10x_flash.c ****   *     @arg FLASH_PrefetchBuffer_Disable: FLASH Prefetch Buffer Disable
 299:../libraries/STM32F10x_StdPeriph_Driver/src/stm32f10x_flash.c ****   * @retval None
 300:../libraries/STM32F10x_StdPeriph_Driver/src/stm32f10x_flash.c ****   */
 301:../libraries/STM32F10x_StdPeriph_Driver/src/stm32f10x_flash.c **** void FLASH_PrefetchBufferCmd(uint32_t FLASH_PrefetchBuffer)
 302:../libraries/STM32F10x_StdPeriph_Driver/src/stm32f10x_flash.c **** {
 130              		.loc 1 302 0
 131              		.cfi_startproc
 132              		@ args = 0, pretend = 0, frame = 8
 133              		@ frame_needed = 1, uses_anonymous_args = 0
 134              		@ link register save eliminated.
 135 0000 80B4     		push	{r7}
 136              	.LCFI6:
 137              		.cfi_def_cfa_offset 4
 138              		.cfi_offset 7, -4
 139 0002 83B0     		sub	sp, sp, #12
 140              	.LCFI7:
 141              		.cfi_def_cfa_offset 16
 142 0004 00AF     		add	r7, sp, #0
 143              	.LCFI8:
 144              		.cfi_def_cfa_register 7
 145 0006 7860     		str	r0, [r7, #4]
 303:../libraries/STM32F10x_StdPeriph_Driver/src/stm32f10x_flash.c ****   /* Check the parameters */
 304:../libraries/STM32F10x_StdPeriph_Driver/src/stm32f10x_flash.c ****   assert_param(IS_FLASH_PREFETCHBUFFER_STATE(FLASH_PrefetchBuffer));
 305:../libraries/STM32F10x_StdPeriph_Driver/src/stm32f10x_flash.c ****   
 306:../libraries/STM32F10x_StdPeriph_Driver/src/stm32f10x_flash.c ****   /* Enable or disable the Prefetch Buffer */
 307:../libraries/STM32F10x_StdPeriph_Driver/src/stm32f10x_flash.c ****   FLASH->ACR &= ACR_PRFTBE_Mask;
 146              		.loc 1 307 0
 147 0008 4FF40053 		mov	r3, #8192
 148 000c C4F20203 		movt	r3, 16386
 149 0010 4FF40052 		mov	r2, #8192
 150 0014 C4F20202 		movt	r2, 16386
 151 0018 1268     		ldr	r2, [r2, #0]
 152 001a 22F01002 		bic	r2, r2, #16
 153 001e 1A60     		str	r2, [r3, #0]
 308:../libraries/STM32F10x_StdPeriph_Driver/src/stm32f10x_flash.c ****   FLASH->ACR |= FLASH_PrefetchBuffer;
 154              		.loc 1 308 0
 155 0020 4FF40053 		mov	r3, #8192
 156 0024 C4F20203 		movt	r3, 16386
 157 0028 4FF40052 		mov	r2, #8192
 158 002c C4F20202 		movt	r2, 16386
 159 0030 1168     		ldr	r1, [r2, #0]
 160 0032 7A68     		ldr	r2, [r7, #4]
 161 0034 0A43     		orrs	r2, r2, r1
 162 0036 1A60     		str	r2, [r3, #0]
 309:../libraries/STM32F10x_StdPeriph_Driver/src/stm32f10x_flash.c **** }
 163              		.loc 1 309 0
 164 0038 07F10C07 		add	r7, r7, #12
 165 003c BD46     		mov	sp, r7
 166 003e 80BC     		pop	{r7}
 167 0040 7047     		bx	lr
 168              		.cfi_endproc
 169              	.LFE58:
 171 0042 00BF     		.section	.text.FLASH_Unlock,"ax",%progbits
 172              		.align	2
 173              		.global	FLASH_Unlock
 174              		.thumb
 175              		.thumb_func
 177              	FLASH_Unlock:
 178              	.LFB59:
 310:../libraries/STM32F10x_StdPeriph_Driver/src/stm32f10x_flash.c **** 
 311:../libraries/STM32F10x_StdPeriph_Driver/src/stm32f10x_flash.c **** /**
 312:../libraries/STM32F10x_StdPeriph_Driver/src/stm32f10x_flash.c ****   * @brief  Unlocks the FLASH Program Erase Controller.
 313:../libraries/STM32F10x_StdPeriph_Driver/src/stm32f10x_flash.c ****   * @note   This function can be used for all STM32F10x devices.
 314:../libraries/STM32F10x_StdPeriph_Driver/src/stm32f10x_flash.c ****   *         - For STM32F10X_XL devices this function unlocks Bank1 and Bank2.
 315:../libraries/STM32F10x_StdPeriph_Driver/src/stm32f10x_flash.c ****   *         - For all other devices it unlocks Bank1 and it is equivalent 
 316:../libraries/STM32F10x_StdPeriph_Driver/src/stm32f10x_flash.c ****   *           to FLASH_UnlockBank1 function.. 
 317:../libraries/STM32F10x_StdPeriph_Driver/src/stm32f10x_flash.c ****   * @param  None
 318:../libraries/STM32F10x_StdPeriph_Driver/src/stm32f10x_flash.c ****   * @retval None
 319:../libraries/STM32F10x_StdPeriph_Driver/src/stm32f10x_flash.c ****   */
 320:../libraries/STM32F10x_StdPeriph_Driver/src/stm32f10x_flash.c **** void FLASH_Unlock(void)
 321:../libraries/STM32F10x_StdPeriph_Driver/src/stm32f10x_flash.c **** {
 179              		.loc 1 321 0
 180              		.cfi_startproc
 181              		@ args = 0, pretend = 0, frame = 0
 182              		@ frame_needed = 1, uses_anonymous_args = 0
 183              		@ link register save eliminated.
 184 0000 80B4     		push	{r7}
 185              	.LCFI9:
 186              		.cfi_def_cfa_offset 4
 187              		.cfi_offset 7, -4
 188 0002 00AF     		add	r7, sp, #0
 189              	.LCFI10:
 190              		.cfi_def_cfa_register 7
 322:../libraries/STM32F10x_StdPeriph_Driver/src/stm32f10x_flash.c ****   /* Authorize the FPEC of Bank1 Access */
 323:../libraries/STM32F10x_StdPeriph_Driver/src/stm32f10x_flash.c ****   FLASH->KEYR = FLASH_KEY1;
 191              		.loc 1 323 0
 192 0004 4FF40053 		mov	r3, #8192
 193 0008 C4F20203 		movt	r3, 16386
 194 000c 40F22312 		movw	r2, #291
 195 0010 C4F26752 		movt	r2, 17767
 196 0014 5A60     		str	r2, [r3, #4]
 324:../libraries/STM32F10x_StdPeriph_Driver/src/stm32f10x_flash.c ****   FLASH->KEYR = FLASH_KEY2;
 197              		.loc 1 324 0
 198 0016 4FF40053 		mov	r3, #8192
 199 001a C4F20203 		movt	r3, 16386
 200 001e 48F6AB12 		movw	r2, #35243
 201 0022 CCF6EF52 		movt	r2, 52719
 202 0026 5A60     		str	r2, [r3, #4]
 325:../libraries/STM32F10x_StdPeriph_Driver/src/stm32f10x_flash.c **** 
 326:../libraries/STM32F10x_StdPeriph_Driver/src/stm32f10x_flash.c **** #ifdef STM32F10X_XL
 327:../libraries/STM32F10x_StdPeriph_Driver/src/stm32f10x_flash.c ****   /* Authorize the FPEC of Bank2 Access */
 328:../libraries/STM32F10x_StdPeriph_Driver/src/stm32f10x_flash.c ****   FLASH->KEYR2 = FLASH_KEY1;
 329:../libraries/STM32F10x_StdPeriph_Driver/src/stm32f10x_flash.c ****   FLASH->KEYR2 = FLASH_KEY2;
 330:../libraries/STM32F10x_StdPeriph_Driver/src/stm32f10x_flash.c **** #endif /* STM32F10X_XL */
 331:../libraries/STM32F10x_StdPeriph_Driver/src/stm32f10x_flash.c **** }
 203              		.loc 1 331 0
 204 0028 BD46     		mov	sp, r7
 205 002a 80BC     		pop	{r7}
 206 002c 7047     		bx	lr
 207              		.cfi_endproc
 208              	.LFE59:
 210 002e 00BF     		.section	.text.FLASH_UnlockBank1,"ax",%progbits
 211              		.align	2
 212              		.global	FLASH_UnlockBank1
 213              		.thumb
 214              		.thumb_func
 216              	FLASH_UnlockBank1:
 217              	.LFB60:
 332:../libraries/STM32F10x_StdPeriph_Driver/src/stm32f10x_flash.c **** /**
 333:../libraries/STM32F10x_StdPeriph_Driver/src/stm32f10x_flash.c ****   * @brief  Unlocks the FLASH Bank1 Program Erase Controller.
 334:../libraries/STM32F10x_StdPeriph_Driver/src/stm32f10x_flash.c ****   * @note   This function can be used for all STM32F10x devices.
 335:../libraries/STM32F10x_StdPeriph_Driver/src/stm32f10x_flash.c ****   *         - For STM32F10X_XL devices this function unlocks Bank1.
 336:../libraries/STM32F10x_StdPeriph_Driver/src/stm32f10x_flash.c ****   *         - For all other devices it unlocks Bank1 and it is 
 337:../libraries/STM32F10x_StdPeriph_Driver/src/stm32f10x_flash.c ****   *           equivalent to FLASH_Unlock function.
 338:../libraries/STM32F10x_StdPeriph_Driver/src/stm32f10x_flash.c ****   * @param  None
 339:../libraries/STM32F10x_StdPeriph_Driver/src/stm32f10x_flash.c ****   * @retval None
 340:../libraries/STM32F10x_StdPeriph_Driver/src/stm32f10x_flash.c ****   */
 341:../libraries/STM32F10x_StdPeriph_Driver/src/stm32f10x_flash.c **** void FLASH_UnlockBank1(void)
 342:../libraries/STM32F10x_StdPeriph_Driver/src/stm32f10x_flash.c **** {
 218              		.loc 1 342 0
 219              		.cfi_startproc
 220              		@ args = 0, pretend = 0, frame = 0
 221              		@ frame_needed = 1, uses_anonymous_args = 0
 222              		@ link register save eliminated.
 223 0000 80B4     		push	{r7}
 224              	.LCFI11:
 225              		.cfi_def_cfa_offset 4
 226              		.cfi_offset 7, -4
 227 0002 00AF     		add	r7, sp, #0
 228              	.LCFI12:
 229              		.cfi_def_cfa_register 7
 343:../libraries/STM32F10x_StdPeriph_Driver/src/stm32f10x_flash.c ****   /* Authorize the FPEC of Bank1 Access */
 344:../libraries/STM32F10x_StdPeriph_Driver/src/stm32f10x_flash.c ****   FLASH->KEYR = FLASH_KEY1;
 230              		.loc 1 344 0
 231 0004 4FF40053 		mov	r3, #8192
 232 0008 C4F20203 		movt	r3, 16386
 233 000c 40F22312 		movw	r2, #291
 234 0010 C4F26752 		movt	r2, 17767
 235 0014 5A60     		str	r2, [r3, #4]
 345:../libraries/STM32F10x_StdPeriph_Driver/src/stm32f10x_flash.c ****   FLASH->KEYR = FLASH_KEY2;
 236              		.loc 1 345 0
 237 0016 4FF40053 		mov	r3, #8192
 238 001a C4F20203 		movt	r3, 16386
 239 001e 48F6AB12 		movw	r2, #35243
 240 0022 CCF6EF52 		movt	r2, 52719
 241 0026 5A60     		str	r2, [r3, #4]
 346:../libraries/STM32F10x_StdPeriph_Driver/src/stm32f10x_flash.c **** }
 242              		.loc 1 346 0
 243 0028 BD46     		mov	sp, r7
 244 002a 80BC     		pop	{r7}
 245 002c 7047     		bx	lr
 246              		.cfi_endproc
 247              	.LFE60:
 249 002e 00BF     		.section	.text.FLASH_Lock,"ax",%progbits
 250              		.align	2
 251              		.global	FLASH_Lock
 252              		.thumb
 253              		.thumb_func
 255              	FLASH_Lock:
 256              	.LFB61:
 347:../libraries/STM32F10x_StdPeriph_Driver/src/stm32f10x_flash.c **** 
 348:../libraries/STM32F10x_StdPeriph_Driver/src/stm32f10x_flash.c **** #ifdef STM32F10X_XL
 349:../libraries/STM32F10x_StdPeriph_Driver/src/stm32f10x_flash.c **** /**
 350:../libraries/STM32F10x_StdPeriph_Driver/src/stm32f10x_flash.c ****   * @brief  Unlocks the FLASH Bank2 Program Erase Controller.
 351:../libraries/STM32F10x_StdPeriph_Driver/src/stm32f10x_flash.c ****   * @note   This function can be used only for STM32F10X_XL density devices.
 352:../libraries/STM32F10x_StdPeriph_Driver/src/stm32f10x_flash.c ****   * @param  None
 353:../libraries/STM32F10x_StdPeriph_Driver/src/stm32f10x_flash.c ****   * @retval None
 354:../libraries/STM32F10x_StdPeriph_Driver/src/stm32f10x_flash.c ****   */
 355:../libraries/STM32F10x_StdPeriph_Driver/src/stm32f10x_flash.c **** void FLASH_UnlockBank2(void)
 356:../libraries/STM32F10x_StdPeriph_Driver/src/stm32f10x_flash.c **** {
 357:../libraries/STM32F10x_StdPeriph_Driver/src/stm32f10x_flash.c ****   /* Authorize the FPEC of Bank2 Access */
 358:../libraries/STM32F10x_StdPeriph_Driver/src/stm32f10x_flash.c ****   FLASH->KEYR2 = FLASH_KEY1;
 359:../libraries/STM32F10x_StdPeriph_Driver/src/stm32f10x_flash.c ****   FLASH->KEYR2 = FLASH_KEY2;
 360:../libraries/STM32F10x_StdPeriph_Driver/src/stm32f10x_flash.c **** 
 361:../libraries/STM32F10x_StdPeriph_Driver/src/stm32f10x_flash.c **** }
 362:../libraries/STM32F10x_StdPeriph_Driver/src/stm32f10x_flash.c **** #endif /* STM32F10X_XL */
 363:../libraries/STM32F10x_StdPeriph_Driver/src/stm32f10x_flash.c **** 
 364:../libraries/STM32F10x_StdPeriph_Driver/src/stm32f10x_flash.c **** /**
 365:../libraries/STM32F10x_StdPeriph_Driver/src/stm32f10x_flash.c ****   * @brief  Locks the FLASH Program Erase Controller.
 366:../libraries/STM32F10x_StdPeriph_Driver/src/stm32f10x_flash.c ****   * @note   This function can be used for all STM32F10x devices.
 367:../libraries/STM32F10x_StdPeriph_Driver/src/stm32f10x_flash.c ****   *         - For STM32F10X_XL devices this function Locks Bank1 and Bank2.
 368:../libraries/STM32F10x_StdPeriph_Driver/src/stm32f10x_flash.c ****   *         - For all other devices it Locks Bank1 and it is equivalent 
 369:../libraries/STM32F10x_StdPeriph_Driver/src/stm32f10x_flash.c ****   *           to FLASH_LockBank1 function.
 370:../libraries/STM32F10x_StdPeriph_Driver/src/stm32f10x_flash.c ****   * @param  None
 371:../libraries/STM32F10x_StdPeriph_Driver/src/stm32f10x_flash.c ****   * @retval None
 372:../libraries/STM32F10x_StdPeriph_Driver/src/stm32f10x_flash.c ****   */
 373:../libraries/STM32F10x_StdPeriph_Driver/src/stm32f10x_flash.c **** void FLASH_Lock(void)
 374:../libraries/STM32F10x_StdPeriph_Driver/src/stm32f10x_flash.c **** {
 257              		.loc 1 374 0
 258              		.cfi_startproc
 259              		@ args = 0, pretend = 0, frame = 0
 260              		@ frame_needed = 1, uses_anonymous_args = 0
 261              		@ link register save eliminated.
 262 0000 80B4     		push	{r7}
 263              	.LCFI13:
 264              		.cfi_def_cfa_offset 4
 265              		.cfi_offset 7, -4
 266 0002 00AF     		add	r7, sp, #0
 267              	.LCFI14:
 268              		.cfi_def_cfa_register 7
 375:../libraries/STM32F10x_StdPeriph_Driver/src/stm32f10x_flash.c ****   /* Set the Lock Bit to lock the FPEC and the CR of  Bank1 */
 376:../libraries/STM32F10x_StdPeriph_Driver/src/stm32f10x_flash.c ****   FLASH->CR |= CR_LOCK_Set;
 269              		.loc 1 376 0
 270 0004 4FF40053 		mov	r3, #8192
 271 0008 C4F20203 		movt	r3, 16386
 272 000c 4FF40052 		mov	r2, #8192
 273 0010 C4F20202 		movt	r2, 16386
 274 0014 1269     		ldr	r2, [r2, #16]
 275 0016 42F08002 		orr	r2, r2, #128
 276 001a 1A61     		str	r2, [r3, #16]
 377:../libraries/STM32F10x_StdPeriph_Driver/src/stm32f10x_flash.c **** 
 378:../libraries/STM32F10x_StdPeriph_Driver/src/stm32f10x_flash.c **** #ifdef STM32F10X_XL
 379:../libraries/STM32F10x_StdPeriph_Driver/src/stm32f10x_flash.c ****   /* Set the Lock Bit to lock the FPEC and the CR of  Bank2 */
 380:../libraries/STM32F10x_StdPeriph_Driver/src/stm32f10x_flash.c ****   FLASH->CR2 |= CR_LOCK_Set;
 381:../libraries/STM32F10x_StdPeriph_Driver/src/stm32f10x_flash.c **** #endif /* STM32F10X_XL */
 382:../libraries/STM32F10x_StdPeriph_Driver/src/stm32f10x_flash.c **** }
 277              		.loc 1 382 0
 278 001c BD46     		mov	sp, r7
 279 001e 80BC     		pop	{r7}
 280 0020 7047     		bx	lr
 281              		.cfi_endproc
 282              	.LFE61:
 284 0022 00BF     		.section	.text.FLASH_LockBank1,"ax",%progbits
 285              		.align	2
 286              		.global	FLASH_LockBank1
 287              		.thumb
 288              		.thumb_func
 290              	FLASH_LockBank1:
 291              	.LFB62:
 383:../libraries/STM32F10x_StdPeriph_Driver/src/stm32f10x_flash.c **** 
 384:../libraries/STM32F10x_StdPeriph_Driver/src/stm32f10x_flash.c **** /**
 385:../libraries/STM32F10x_StdPeriph_Driver/src/stm32f10x_flash.c ****   * @brief  Locks the FLASH Bank1 Program Erase Controller.
 386:../libraries/STM32F10x_StdPeriph_Driver/src/stm32f10x_flash.c ****   * @note   this function can be used for all STM32F10x devices.
 387:../libraries/STM32F10x_StdPeriph_Driver/src/stm32f10x_flash.c ****   *         - For STM32F10X_XL devices this function Locks Bank1.
 388:../libraries/STM32F10x_StdPeriph_Driver/src/stm32f10x_flash.c ****   *         - For all other devices it Locks Bank1 and it is equivalent 
 389:../libraries/STM32F10x_StdPeriph_Driver/src/stm32f10x_flash.c ****   *           to FLASH_Lock function.
 390:../libraries/STM32F10x_StdPeriph_Driver/src/stm32f10x_flash.c ****   * @param  None
 391:../libraries/STM32F10x_StdPeriph_Driver/src/stm32f10x_flash.c ****   * @retval None
 392:../libraries/STM32F10x_StdPeriph_Driver/src/stm32f10x_flash.c ****   */
 393:../libraries/STM32F10x_StdPeriph_Driver/src/stm32f10x_flash.c **** void FLASH_LockBank1(void)
 394:../libraries/STM32F10x_StdPeriph_Driver/src/stm32f10x_flash.c **** {
 292              		.loc 1 394 0
 293              		.cfi_startproc
 294              		@ args = 0, pretend = 0, frame = 0
 295              		@ frame_needed = 1, uses_anonymous_args = 0
 296              		@ link register save eliminated.
 297 0000 80B4     		push	{r7}
 298              	.LCFI15:
 299              		.cfi_def_cfa_offset 4
 300              		.cfi_offset 7, -4
 301 0002 00AF     		add	r7, sp, #0
 302              	.LCFI16:
 303              		.cfi_def_cfa_register 7
 395:../libraries/STM32F10x_StdPeriph_Driver/src/stm32f10x_flash.c ****   /* Set the Lock Bit to lock the FPEC and the CR of  Bank1 */
 396:../libraries/STM32F10x_StdPeriph_Driver/src/stm32f10x_flash.c ****   FLASH->CR |= CR_LOCK_Set;
 304              		.loc 1 396 0
 305 0004 4FF40053 		mov	r3, #8192
 306 0008 C4F20203 		movt	r3, 16386
 307 000c 4FF40052 		mov	r2, #8192
 308 0010 C4F20202 		movt	r2, 16386
 309 0014 1269     		ldr	r2, [r2, #16]
 310 0016 42F08002 		orr	r2, r2, #128
 311 001a 1A61     		str	r2, [r3, #16]
 397:../libraries/STM32F10x_StdPeriph_Driver/src/stm32f10x_flash.c **** }
 312              		.loc 1 397 0
 313 001c BD46     		mov	sp, r7
 314 001e 80BC     		pop	{r7}
 315 0020 7047     		bx	lr
 316              		.cfi_endproc
 317              	.LFE62:
 319 0022 00BF     		.section	.text.FLASH_ErasePage,"ax",%progbits
 320              		.align	2
 321              		.global	FLASH_ErasePage
 322              		.thumb
 323              		.thumb_func
 325              	FLASH_ErasePage:
 326              	.LFB63:
 398:../libraries/STM32F10x_StdPeriph_Driver/src/stm32f10x_flash.c **** 
 399:../libraries/STM32F10x_StdPeriph_Driver/src/stm32f10x_flash.c **** #ifdef STM32F10X_XL
 400:../libraries/STM32F10x_StdPeriph_Driver/src/stm32f10x_flash.c **** /**
 401:../libraries/STM32F10x_StdPeriph_Driver/src/stm32f10x_flash.c ****   * @brief  Locks the FLASH Bank2 Program Erase Controller.
 402:../libraries/STM32F10x_StdPeriph_Driver/src/stm32f10x_flash.c ****   * @note   This function can be used only for STM32F10X_XL density devices.
 403:../libraries/STM32F10x_StdPeriph_Driver/src/stm32f10x_flash.c ****   * @param  None
 404:../libraries/STM32F10x_StdPeriph_Driver/src/stm32f10x_flash.c ****   * @retval None
 405:../libraries/STM32F10x_StdPeriph_Driver/src/stm32f10x_flash.c ****   */
 406:../libraries/STM32F10x_StdPeriph_Driver/src/stm32f10x_flash.c **** void FLASH_LockBank2(void)
 407:../libraries/STM32F10x_StdPeriph_Driver/src/stm32f10x_flash.c **** {
 408:../libraries/STM32F10x_StdPeriph_Driver/src/stm32f10x_flash.c ****   /* Set the Lock Bit to lock the FPEC and the CR of  Bank2 */
 409:../libraries/STM32F10x_StdPeriph_Driver/src/stm32f10x_flash.c ****   FLASH->CR2 |= CR_LOCK_Set;
 410:../libraries/STM32F10x_StdPeriph_Driver/src/stm32f10x_flash.c **** }
 411:../libraries/STM32F10x_StdPeriph_Driver/src/stm32f10x_flash.c **** #endif /* STM32F10X_XL */
 412:../libraries/STM32F10x_StdPeriph_Driver/src/stm32f10x_flash.c **** 
 413:../libraries/STM32F10x_StdPeriph_Driver/src/stm32f10x_flash.c **** /**
 414:../libraries/STM32F10x_StdPeriph_Driver/src/stm32f10x_flash.c ****   * @brief  Erases a specified FLASH page.
 415:../libraries/STM32F10x_StdPeriph_Driver/src/stm32f10x_flash.c ****   * @note   This function can be used for all STM32F10x devices.
 416:../libraries/STM32F10x_StdPeriph_Driver/src/stm32f10x_flash.c ****   * @param  Page_Address: The page address to be erased.
 417:../libraries/STM32F10x_StdPeriph_Driver/src/stm32f10x_flash.c ****   * @retval FLASH Status: The returned value can be: FLASH_BUSY, FLASH_ERROR_PG,
 418:../libraries/STM32F10x_StdPeriph_Driver/src/stm32f10x_flash.c ****   *         FLASH_ERROR_WRP, FLASH_COMPLETE or FLASH_TIMEOUT.
 419:../libraries/STM32F10x_StdPeriph_Driver/src/stm32f10x_flash.c ****   */
 420:../libraries/STM32F10x_StdPeriph_Driver/src/stm32f10x_flash.c **** FLASH_Status FLASH_ErasePage(uint32_t Page_Address)
 421:../libraries/STM32F10x_StdPeriph_Driver/src/stm32f10x_flash.c **** {
 327              		.loc 1 421 0
 328              		.cfi_startproc
 329              		@ args = 0, pretend = 0, frame = 16
 330              		@ frame_needed = 1, uses_anonymous_args = 0
 331 0000 80B5     		push	{r7, lr}
 332              	.LCFI17:
 333              		.cfi_def_cfa_offset 8
 334              		.cfi_offset 7, -8
 335              		.cfi_offset 14, -4
 336 0002 84B0     		sub	sp, sp, #16
 337              	.LCFI18:
 338              		.cfi_def_cfa_offset 24
 339 0004 00AF     		add	r7, sp, #0
 340              	.LCFI19:
 341              		.cfi_def_cfa_register 7
 342 0006 7860     		str	r0, [r7, #4]
 422:../libraries/STM32F10x_StdPeriph_Driver/src/stm32f10x_flash.c ****   FLASH_Status status = FLASH_COMPLETE;
 343              		.loc 1 422 0
 344 0008 4FF00403 		mov	r3, #4
 345 000c FB73     		strb	r3, [r7, #15]
 423:../libraries/STM32F10x_StdPeriph_Driver/src/stm32f10x_flash.c ****   /* Check the parameters */
 424:../libraries/STM32F10x_StdPeriph_Driver/src/stm32f10x_flash.c ****   assert_param(IS_FLASH_ADDRESS(Page_Address));
 425:../libraries/STM32F10x_StdPeriph_Driver/src/stm32f10x_flash.c **** 
 426:../libraries/STM32F10x_StdPeriph_Driver/src/stm32f10x_flash.c **** #ifdef STM32F10X_XL
 427:../libraries/STM32F10x_StdPeriph_Driver/src/stm32f10x_flash.c ****   if(Page_Address < FLASH_BANK1_END_ADDRESS)  
 428:../libraries/STM32F10x_StdPeriph_Driver/src/stm32f10x_flash.c ****   {
 429:../libraries/STM32F10x_StdPeriph_Driver/src/stm32f10x_flash.c ****     /* Wait for last operation to be completed */
 430:../libraries/STM32F10x_StdPeriph_Driver/src/stm32f10x_flash.c ****     status = FLASH_WaitForLastBank1Operation(EraseTimeout);
 431:../libraries/STM32F10x_StdPeriph_Driver/src/stm32f10x_flash.c ****     if(status == FLASH_COMPLETE)
 432:../libraries/STM32F10x_StdPeriph_Driver/src/stm32f10x_flash.c ****     { 
 433:../libraries/STM32F10x_StdPeriph_Driver/src/stm32f10x_flash.c ****       /* if the previous operation is completed, proceed to erase the page */
 434:../libraries/STM32F10x_StdPeriph_Driver/src/stm32f10x_flash.c ****       FLASH->CR|= CR_PER_Set;
 435:../libraries/STM32F10x_StdPeriph_Driver/src/stm32f10x_flash.c ****       FLASH->AR = Page_Address; 
 436:../libraries/STM32F10x_StdPeriph_Driver/src/stm32f10x_flash.c ****       FLASH->CR|= CR_STRT_Set;
 437:../libraries/STM32F10x_StdPeriph_Driver/src/stm32f10x_flash.c ****     
 438:../libraries/STM32F10x_StdPeriph_Driver/src/stm32f10x_flash.c ****       /* Wait for last operation to be completed */
 439:../libraries/STM32F10x_StdPeriph_Driver/src/stm32f10x_flash.c ****       status = FLASH_WaitForLastBank1Operation(EraseTimeout);
 440:../libraries/STM32F10x_StdPeriph_Driver/src/stm32f10x_flash.c **** 
 441:../libraries/STM32F10x_StdPeriph_Driver/src/stm32f10x_flash.c ****       /* Disable the PER Bit */
 442:../libraries/STM32F10x_StdPeriph_Driver/src/stm32f10x_flash.c ****       FLASH->CR &= CR_PER_Reset;
 443:../libraries/STM32F10x_StdPeriph_Driver/src/stm32f10x_flash.c ****     }
 444:../libraries/STM32F10x_StdPeriph_Driver/src/stm32f10x_flash.c ****   }
 445:../libraries/STM32F10x_StdPeriph_Driver/src/stm32f10x_flash.c ****   else
 446:../libraries/STM32F10x_StdPeriph_Driver/src/stm32f10x_flash.c ****   {
 447:../libraries/STM32F10x_StdPeriph_Driver/src/stm32f10x_flash.c ****     /* Wait for last operation to be completed */
 448:../libraries/STM32F10x_StdPeriph_Driver/src/stm32f10x_flash.c ****     status = FLASH_WaitForLastBank2Operation(EraseTimeout);
 449:../libraries/STM32F10x_StdPeriph_Driver/src/stm32f10x_flash.c ****     if(status == FLASH_COMPLETE)
 450:../libraries/STM32F10x_StdPeriph_Driver/src/stm32f10x_flash.c ****     { 
 451:../libraries/STM32F10x_StdPeriph_Driver/src/stm32f10x_flash.c ****       /* if the previous operation is completed, proceed to erase the page */
 452:../libraries/STM32F10x_StdPeriph_Driver/src/stm32f10x_flash.c ****       FLASH->CR2|= CR_PER_Set;
 453:../libraries/STM32F10x_StdPeriph_Driver/src/stm32f10x_flash.c ****       FLASH->AR2 = Page_Address; 
 454:../libraries/STM32F10x_StdPeriph_Driver/src/stm32f10x_flash.c ****       FLASH->CR2|= CR_STRT_Set;
 455:../libraries/STM32F10x_StdPeriph_Driver/src/stm32f10x_flash.c ****     
 456:../libraries/STM32F10x_StdPeriph_Driver/src/stm32f10x_flash.c ****       /* Wait for last operation to be completed */
 457:../libraries/STM32F10x_StdPeriph_Driver/src/stm32f10x_flash.c ****       status = FLASH_WaitForLastBank2Operation(EraseTimeout);
 458:../libraries/STM32F10x_StdPeriph_Driver/src/stm32f10x_flash.c ****       
 459:../libraries/STM32F10x_StdPeriph_Driver/src/stm32f10x_flash.c ****       /* Disable the PER Bit */
 460:../libraries/STM32F10x_StdPeriph_Driver/src/stm32f10x_flash.c ****       FLASH->CR2 &= CR_PER_Reset;
 461:../libraries/STM32F10x_StdPeriph_Driver/src/stm32f10x_flash.c ****     }
 462:../libraries/STM32F10x_StdPeriph_Driver/src/stm32f10x_flash.c ****   }
 463:../libraries/STM32F10x_StdPeriph_Driver/src/stm32f10x_flash.c **** #else
 464:../libraries/STM32F10x_StdPeriph_Driver/src/stm32f10x_flash.c ****   /* Wait for last operation to be completed */
 465:../libraries/STM32F10x_StdPeriph_Driver/src/stm32f10x_flash.c ****   status = FLASH_WaitForLastOperation(EraseTimeout);
 346              		.loc 1 465 0
 347 000e 4FF43020 		mov	r0, #720896
 348 0012 FFF7FEFF 		bl	FLASH_WaitForLastOperation
 349 0016 0346     		mov	r3, r0
 350 0018 FB73     		strb	r3, [r7, #15]
 466:../libraries/STM32F10x_StdPeriph_Driver/src/stm32f10x_flash.c ****   
 467:../libraries/STM32F10x_StdPeriph_Driver/src/stm32f10x_flash.c ****   if(status == FLASH_COMPLETE)
 351              		.loc 1 467 0
 352 001a FB7B     		ldrb	r3, [r7, #15]	@ zero_extendqisi2
 353 001c 042B     		cmp	r3, #4
 354 001e 30D1     		bne	.L9
 468:../libraries/STM32F10x_StdPeriph_Driver/src/stm32f10x_flash.c ****   { 
 469:../libraries/STM32F10x_StdPeriph_Driver/src/stm32f10x_flash.c ****     /* if the previous operation is completed, proceed to erase the page */
 470:../libraries/STM32F10x_StdPeriph_Driver/src/stm32f10x_flash.c ****     FLASH->CR|= CR_PER_Set;
 355              		.loc 1 470 0
 356 0020 4FF40053 		mov	r3, #8192
 357 0024 C4F20203 		movt	r3, 16386
 358 0028 4FF40052 		mov	r2, #8192
 359 002c C4F20202 		movt	r2, 16386
 360 0030 1269     		ldr	r2, [r2, #16]
 361 0032 42F00202 		orr	r2, r2, #2
 362 0036 1A61     		str	r2, [r3, #16]
 471:../libraries/STM32F10x_StdPeriph_Driver/src/stm32f10x_flash.c ****     FLASH->AR = Page_Address; 
 363              		.loc 1 471 0
 364 0038 4FF40053 		mov	r3, #8192
 365 003c C4F20203 		movt	r3, 16386
 366 0040 7A68     		ldr	r2, [r7, #4]
 367 0042 5A61     		str	r2, [r3, #20]
 472:../libraries/STM32F10x_StdPeriph_Driver/src/stm32f10x_flash.c ****     FLASH->CR|= CR_STRT_Set;
 368              		.loc 1 472 0
 369 0044 4FF40053 		mov	r3, #8192
 370 0048 C4F20203 		movt	r3, 16386
 371 004c 4FF40052 		mov	r2, #8192
 372 0050 C4F20202 		movt	r2, 16386
 373 0054 1269     		ldr	r2, [r2, #16]
 374 0056 42F04002 		orr	r2, r2, #64
 375 005a 1A61     		str	r2, [r3, #16]
 473:../libraries/STM32F10x_StdPeriph_Driver/src/stm32f10x_flash.c ****     
 474:../libraries/STM32F10x_StdPeriph_Driver/src/stm32f10x_flash.c ****     /* Wait for last operation to be completed */
 475:../libraries/STM32F10x_StdPeriph_Driver/src/stm32f10x_flash.c ****     status = FLASH_WaitForLastOperation(EraseTimeout);
 376              		.loc 1 475 0
 377 005c 4FF43020 		mov	r0, #720896
 378 0060 FFF7FEFF 		bl	FLASH_WaitForLastOperation
 379 0064 0346     		mov	r3, r0
 380 0066 FB73     		strb	r3, [r7, #15]
 476:../libraries/STM32F10x_StdPeriph_Driver/src/stm32f10x_flash.c ****     
 477:../libraries/STM32F10x_StdPeriph_Driver/src/stm32f10x_flash.c ****     /* Disable the PER Bit */
 478:../libraries/STM32F10x_StdPeriph_Driver/src/stm32f10x_flash.c ****     FLASH->CR &= CR_PER_Reset;
 381              		.loc 1 478 0
 382 0068 4FF40053 		mov	r3, #8192
 383 006c C4F20203 		movt	r3, 16386
 384 0070 4FF40052 		mov	r2, #8192
 385 0074 C4F20202 		movt	r2, 16386
 386 0078 1169     		ldr	r1, [r2, #16]
 387 007a 41F6FD72 		movw	r2, #8189
 388 007e 0A40     		ands	r2, r2, r1
 389 0080 1A61     		str	r2, [r3, #16]
 390              	.L9:
 479:../libraries/STM32F10x_StdPeriph_Driver/src/stm32f10x_flash.c ****   }
 480:../libraries/STM32F10x_StdPeriph_Driver/src/stm32f10x_flash.c **** #endif /* STM32F10X_XL */
 481:../libraries/STM32F10x_StdPeriph_Driver/src/stm32f10x_flash.c **** 
 482:../libraries/STM32F10x_StdPeriph_Driver/src/stm32f10x_flash.c ****   /* Return the Erase Status */
 483:../libraries/STM32F10x_StdPeriph_Driver/src/stm32f10x_flash.c ****   return status;
 391              		.loc 1 483 0
 392 0082 FB7B     		ldrb	r3, [r7, #15]	@ zero_extendqisi2
 484:../libraries/STM32F10x_StdPeriph_Driver/src/stm32f10x_flash.c **** }
 393              		.loc 1 484 0
 394 0084 1846     		mov	r0, r3
 395 0086 07F11007 		add	r7, r7, #16
 396 008a BD46     		mov	sp, r7
 397 008c 80BD     		pop	{r7, pc}
 398              		.cfi_endproc
 399              	.LFE63:
 401 008e 00BF     		.section	.text.FLASH_EraseAllPages,"ax",%progbits
 402              		.align	2
 403              		.global	FLASH_EraseAllPages
 404              		.thumb
 405              		.thumb_func
 407              	FLASH_EraseAllPages:
 408              	.LFB64:
 485:../libraries/STM32F10x_StdPeriph_Driver/src/stm32f10x_flash.c **** 
 486:../libraries/STM32F10x_StdPeriph_Driver/src/stm32f10x_flash.c **** /**
 487:../libraries/STM32F10x_StdPeriph_Driver/src/stm32f10x_flash.c ****   * @brief  Erases all FLASH pages.
 488:../libraries/STM32F10x_StdPeriph_Driver/src/stm32f10x_flash.c ****   * @note   This function can be used for all STM32F10x devices.
 489:../libraries/STM32F10x_StdPeriph_Driver/src/stm32f10x_flash.c ****   * @param  None
 490:../libraries/STM32F10x_StdPeriph_Driver/src/stm32f10x_flash.c ****   * @retval FLASH Status: The returned value can be: FLASH_ERROR_PG,
 491:../libraries/STM32F10x_StdPeriph_Driver/src/stm32f10x_flash.c ****   *         FLASH_ERROR_WRP, FLASH_COMPLETE or FLASH_TIMEOUT.
 492:../libraries/STM32F10x_StdPeriph_Driver/src/stm32f10x_flash.c ****   */
 493:../libraries/STM32F10x_StdPeriph_Driver/src/stm32f10x_flash.c **** FLASH_Status FLASH_EraseAllPages(void)
 494:../libraries/STM32F10x_StdPeriph_Driver/src/stm32f10x_flash.c **** {
 409              		.loc 1 494 0
 410              		.cfi_startproc
 411              		@ args = 0, pretend = 0, frame = 8
 412              		@ frame_needed = 1, uses_anonymous_args = 0
 413 0000 80B5     		push	{r7, lr}
 414              	.LCFI20:
 415              		.cfi_def_cfa_offset 8
 416              		.cfi_offset 7, -8
 417              		.cfi_offset 14, -4
 418 0002 82B0     		sub	sp, sp, #8
 419              	.LCFI21:
 420              		.cfi_def_cfa_offset 16
 421 0004 00AF     		add	r7, sp, #0
 422              	.LCFI22:
 423              		.cfi_def_cfa_register 7
 495:../libraries/STM32F10x_StdPeriph_Driver/src/stm32f10x_flash.c ****   FLASH_Status status = FLASH_COMPLETE;
 424              		.loc 1 495 0
 425 0006 4FF00403 		mov	r3, #4
 426 000a FB71     		strb	r3, [r7, #7]
 496:../libraries/STM32F10x_StdPeriph_Driver/src/stm32f10x_flash.c **** 
 497:../libraries/STM32F10x_StdPeriph_Driver/src/stm32f10x_flash.c **** #ifdef STM32F10X_XL
 498:../libraries/STM32F10x_StdPeriph_Driver/src/stm32f10x_flash.c ****   /* Wait for last operation to be completed */
 499:../libraries/STM32F10x_StdPeriph_Driver/src/stm32f10x_flash.c ****   status = FLASH_WaitForLastBank1Operation(EraseTimeout);
 500:../libraries/STM32F10x_StdPeriph_Driver/src/stm32f10x_flash.c ****   
 501:../libraries/STM32F10x_StdPeriph_Driver/src/stm32f10x_flash.c ****   if(status == FLASH_COMPLETE)
 502:../libraries/STM32F10x_StdPeriph_Driver/src/stm32f10x_flash.c ****   {
 503:../libraries/STM32F10x_StdPeriph_Driver/src/stm32f10x_flash.c ****     /* if the previous operation is completed, proceed to erase all pages */
 504:../libraries/STM32F10x_StdPeriph_Driver/src/stm32f10x_flash.c ****      FLASH->CR |= CR_MER_Set;
 505:../libraries/STM32F10x_StdPeriph_Driver/src/stm32f10x_flash.c ****      FLASH->CR |= CR_STRT_Set;
 506:../libraries/STM32F10x_StdPeriph_Driver/src/stm32f10x_flash.c ****     
 507:../libraries/STM32F10x_StdPeriph_Driver/src/stm32f10x_flash.c ****     /* Wait for last operation to be completed */
 508:../libraries/STM32F10x_StdPeriph_Driver/src/stm32f10x_flash.c ****     status = FLASH_WaitForLastBank1Operation(EraseTimeout);
 509:../libraries/STM32F10x_StdPeriph_Driver/src/stm32f10x_flash.c ****     
 510:../libraries/STM32F10x_StdPeriph_Driver/src/stm32f10x_flash.c ****     /* Disable the MER Bit */
 511:../libraries/STM32F10x_StdPeriph_Driver/src/stm32f10x_flash.c ****     FLASH->CR &= CR_MER_Reset;
 512:../libraries/STM32F10x_StdPeriph_Driver/src/stm32f10x_flash.c ****   }    
 513:../libraries/STM32F10x_StdPeriph_Driver/src/stm32f10x_flash.c ****   if(status == FLASH_COMPLETE)
 514:../libraries/STM32F10x_StdPeriph_Driver/src/stm32f10x_flash.c ****   {
 515:../libraries/STM32F10x_StdPeriph_Driver/src/stm32f10x_flash.c ****     /* if the previous operation is completed, proceed to erase all pages */
 516:../libraries/STM32F10x_StdPeriph_Driver/src/stm32f10x_flash.c ****      FLASH->CR2 |= CR_MER_Set;
 517:../libraries/STM32F10x_StdPeriph_Driver/src/stm32f10x_flash.c ****      FLASH->CR2 |= CR_STRT_Set;
 518:../libraries/STM32F10x_StdPeriph_Driver/src/stm32f10x_flash.c ****     
 519:../libraries/STM32F10x_StdPeriph_Driver/src/stm32f10x_flash.c ****     /* Wait for last operation to be completed */
 520:../libraries/STM32F10x_StdPeriph_Driver/src/stm32f10x_flash.c ****     status = FLASH_WaitForLastBank2Operation(EraseTimeout);
 521:../libraries/STM32F10x_StdPeriph_Driver/src/stm32f10x_flash.c ****     
 522:../libraries/STM32F10x_StdPeriph_Driver/src/stm32f10x_flash.c ****     /* Disable the MER Bit */
 523:../libraries/STM32F10x_StdPeriph_Driver/src/stm32f10x_flash.c ****     FLASH->CR2 &= CR_MER_Reset;
 524:../libraries/STM32F10x_StdPeriph_Driver/src/stm32f10x_flash.c ****   }
 525:../libraries/STM32F10x_StdPeriph_Driver/src/stm32f10x_flash.c **** #else
 526:../libraries/STM32F10x_StdPeriph_Driver/src/stm32f10x_flash.c ****   /* Wait for last operation to be completed */
 527:../libraries/STM32F10x_StdPeriph_Driver/src/stm32f10x_flash.c ****   status = FLASH_WaitForLastOperation(EraseTimeout);
 427              		.loc 1 527 0
 428 000c 4FF43020 		mov	r0, #720896
 429 0010 FFF7FEFF 		bl	FLASH_WaitForLastOperation
 430 0014 0346     		mov	r3, r0
 431 0016 FB71     		strb	r3, [r7, #7]
 528:../libraries/STM32F10x_StdPeriph_Driver/src/stm32f10x_flash.c ****   if(status == FLASH_COMPLETE)
 432              		.loc 1 528 0
 433 0018 FB79     		ldrb	r3, [r7, #7]	@ zero_extendqisi2
 434 001a 042B     		cmp	r3, #4
 435 001c 2AD1     		bne	.L12
 529:../libraries/STM32F10x_StdPeriph_Driver/src/stm32f10x_flash.c ****   {
 530:../libraries/STM32F10x_StdPeriph_Driver/src/stm32f10x_flash.c ****     /* if the previous operation is completed, proceed to erase all pages */
 531:../libraries/STM32F10x_StdPeriph_Driver/src/stm32f10x_flash.c ****      FLASH->CR |= CR_MER_Set;
 436              		.loc 1 531 0
 437 001e 4FF40053 		mov	r3, #8192
 438 0022 C4F20203 		movt	r3, 16386
 439 0026 4FF40052 		mov	r2, #8192
 440 002a C4F20202 		movt	r2, 16386
 441 002e 1269     		ldr	r2, [r2, #16]
 442 0030 42F00402 		orr	r2, r2, #4
 443 0034 1A61     		str	r2, [r3, #16]
 532:../libraries/STM32F10x_StdPeriph_Driver/src/stm32f10x_flash.c ****      FLASH->CR |= CR_STRT_Set;
 444              		.loc 1 532 0
 445 0036 4FF40053 		mov	r3, #8192
 446 003a C4F20203 		movt	r3, 16386
 447 003e 4FF40052 		mov	r2, #8192
 448 0042 C4F20202 		movt	r2, 16386
 449 0046 1269     		ldr	r2, [r2, #16]
 450 0048 42F04002 		orr	r2, r2, #64
 451 004c 1A61     		str	r2, [r3, #16]
 533:../libraries/STM32F10x_StdPeriph_Driver/src/stm32f10x_flash.c ****     
 534:../libraries/STM32F10x_StdPeriph_Driver/src/stm32f10x_flash.c ****     /* Wait for last operation to be completed */
 535:../libraries/STM32F10x_StdPeriph_Driver/src/stm32f10x_flash.c ****     status = FLASH_WaitForLastOperation(EraseTimeout);
 452              		.loc 1 535 0
 453 004e 4FF43020 		mov	r0, #720896
 454 0052 FFF7FEFF 		bl	FLASH_WaitForLastOperation
 455 0056 0346     		mov	r3, r0
 456 0058 FB71     		strb	r3, [r7, #7]
 536:../libraries/STM32F10x_StdPeriph_Driver/src/stm32f10x_flash.c **** 
 537:../libraries/STM32F10x_StdPeriph_Driver/src/stm32f10x_flash.c ****     /* Disable the MER Bit */
 538:../libraries/STM32F10x_StdPeriph_Driver/src/stm32f10x_flash.c ****     FLASH->CR &= CR_MER_Reset;
 457              		.loc 1 538 0
 458 005a 4FF40053 		mov	r3, #8192
 459 005e C4F20203 		movt	r3, 16386
 460 0062 4FF40052 		mov	r2, #8192
 461 0066 C4F20202 		movt	r2, 16386
 462 006a 1169     		ldr	r1, [r2, #16]
 463 006c 41F6FB72 		movw	r2, #8187
 464 0070 0A40     		ands	r2, r2, r1
 465 0072 1A61     		str	r2, [r3, #16]
 466              	.L12:
 539:../libraries/STM32F10x_StdPeriph_Driver/src/stm32f10x_flash.c ****   }
 540:../libraries/STM32F10x_StdPeriph_Driver/src/stm32f10x_flash.c **** #endif /* STM32F10X_XL */
 541:../libraries/STM32F10x_StdPeriph_Driver/src/stm32f10x_flash.c **** 
 542:../libraries/STM32F10x_StdPeriph_Driver/src/stm32f10x_flash.c ****   /* Return the Erase Status */
 543:../libraries/STM32F10x_StdPeriph_Driver/src/stm32f10x_flash.c ****   return status;
 467              		.loc 1 543 0
 468 0074 FB79     		ldrb	r3, [r7, #7]	@ zero_extendqisi2
 544:../libraries/STM32F10x_StdPeriph_Driver/src/stm32f10x_flash.c **** }
 469              		.loc 1 544 0
 470 0076 1846     		mov	r0, r3
 471 0078 07F10807 		add	r7, r7, #8
 472 007c BD46     		mov	sp, r7
 473 007e 80BD     		pop	{r7, pc}
 474              		.cfi_endproc
 475              	.LFE64:
 477              		.section	.text.FLASH_EraseAllBank1Pages,"ax",%progbits
 478              		.align	2
 479              		.global	FLASH_EraseAllBank1Pages
 480              		.thumb
 481              		.thumb_func
 483              	FLASH_EraseAllBank1Pages:
 484              	.LFB65:
 545:../libraries/STM32F10x_StdPeriph_Driver/src/stm32f10x_flash.c **** 
 546:../libraries/STM32F10x_StdPeriph_Driver/src/stm32f10x_flash.c **** /**
 547:../libraries/STM32F10x_StdPeriph_Driver/src/stm32f10x_flash.c ****   * @brief  Erases all Bank1 FLASH pages.
 548:../libraries/STM32F10x_StdPeriph_Driver/src/stm32f10x_flash.c ****   * @note   This function can be used for all STM32F10x devices.
 549:../libraries/STM32F10x_StdPeriph_Driver/src/stm32f10x_flash.c ****   *         - For STM32F10X_XL devices this function erases all Bank1 pages.
 550:../libraries/STM32F10x_StdPeriph_Driver/src/stm32f10x_flash.c ****   *         - For all other devices it erases all Bank1 pages and it is equivalent 
 551:../libraries/STM32F10x_StdPeriph_Driver/src/stm32f10x_flash.c ****   *           to FLASH_EraseAllPages function.
 552:../libraries/STM32F10x_StdPeriph_Driver/src/stm32f10x_flash.c ****   * @param  None
 553:../libraries/STM32F10x_StdPeriph_Driver/src/stm32f10x_flash.c ****   * @retval FLASH Status: The returned value can be: FLASH_ERROR_PG,
 554:../libraries/STM32F10x_StdPeriph_Driver/src/stm32f10x_flash.c ****   *         FLASH_ERROR_WRP, FLASH_COMPLETE or FLASH_TIMEOUT.
 555:../libraries/STM32F10x_StdPeriph_Driver/src/stm32f10x_flash.c ****   */
 556:../libraries/STM32F10x_StdPeriph_Driver/src/stm32f10x_flash.c **** FLASH_Status FLASH_EraseAllBank1Pages(void)
 557:../libraries/STM32F10x_StdPeriph_Driver/src/stm32f10x_flash.c **** {
 485              		.loc 1 557 0
 486              		.cfi_startproc
 487              		@ args = 0, pretend = 0, frame = 8
 488              		@ frame_needed = 1, uses_anonymous_args = 0
 489 0000 80B5     		push	{r7, lr}
 490              	.LCFI23:
 491              		.cfi_def_cfa_offset 8
 492              		.cfi_offset 7, -8
 493              		.cfi_offset 14, -4
 494 0002 82B0     		sub	sp, sp, #8
 495              	.LCFI24:
 496              		.cfi_def_cfa_offset 16
 497 0004 00AF     		add	r7, sp, #0
 498              	.LCFI25:
 499              		.cfi_def_cfa_register 7
 558:../libraries/STM32F10x_StdPeriph_Driver/src/stm32f10x_flash.c ****   FLASH_Status status = FLASH_COMPLETE;
 500              		.loc 1 558 0
 501 0006 4FF00403 		mov	r3, #4
 502 000a FB71     		strb	r3, [r7, #7]
 559:../libraries/STM32F10x_StdPeriph_Driver/src/stm32f10x_flash.c ****   /* Wait for last operation to be completed */
 560:../libraries/STM32F10x_StdPeriph_Driver/src/stm32f10x_flash.c ****   status = FLASH_WaitForLastBank1Operation(EraseTimeout);
 503              		.loc 1 560 0
 504 000c 4FF43020 		mov	r0, #720896
 505 0010 FFF7FEFF 		bl	FLASH_WaitForLastBank1Operation
 506 0014 0346     		mov	r3, r0
 507 0016 FB71     		strb	r3, [r7, #7]
 561:../libraries/STM32F10x_StdPeriph_Driver/src/stm32f10x_flash.c ****   
 562:../libraries/STM32F10x_StdPeriph_Driver/src/stm32f10x_flash.c ****   if(status == FLASH_COMPLETE)
 508              		.loc 1 562 0
 509 0018 FB79     		ldrb	r3, [r7, #7]	@ zero_extendqisi2
 510 001a 042B     		cmp	r3, #4
 511 001c 2AD1     		bne	.L15
 563:../libraries/STM32F10x_StdPeriph_Driver/src/stm32f10x_flash.c ****   {
 564:../libraries/STM32F10x_StdPeriph_Driver/src/stm32f10x_flash.c ****     /* if the previous operation is completed, proceed to erase all pages */
 565:../libraries/STM32F10x_StdPeriph_Driver/src/stm32f10x_flash.c ****      FLASH->CR |= CR_MER_Set;
 512              		.loc 1 565 0
 513 001e 4FF40053 		mov	r3, #8192
 514 0022 C4F20203 		movt	r3, 16386
 515 0026 4FF40052 		mov	r2, #8192
 516 002a C4F20202 		movt	r2, 16386
 517 002e 1269     		ldr	r2, [r2, #16]
 518 0030 42F00402 		orr	r2, r2, #4
 519 0034 1A61     		str	r2, [r3, #16]
 566:../libraries/STM32F10x_StdPeriph_Driver/src/stm32f10x_flash.c ****      FLASH->CR |= CR_STRT_Set;
 520              		.loc 1 566 0
 521 0036 4FF40053 		mov	r3, #8192
 522 003a C4F20203 		movt	r3, 16386
 523 003e 4FF40052 		mov	r2, #8192
 524 0042 C4F20202 		movt	r2, 16386
 525 0046 1269     		ldr	r2, [r2, #16]
 526 0048 42F04002 		orr	r2, r2, #64
 527 004c 1A61     		str	r2, [r3, #16]
 567:../libraries/STM32F10x_StdPeriph_Driver/src/stm32f10x_flash.c ****     
 568:../libraries/STM32F10x_StdPeriph_Driver/src/stm32f10x_flash.c ****     /* Wait for last operation to be completed */
 569:../libraries/STM32F10x_StdPeriph_Driver/src/stm32f10x_flash.c ****     status = FLASH_WaitForLastBank1Operation(EraseTimeout);
 528              		.loc 1 569 0
 529 004e 4FF43020 		mov	r0, #720896
 530 0052 FFF7FEFF 		bl	FLASH_WaitForLastBank1Operation
 531 0056 0346     		mov	r3, r0
 532 0058 FB71     		strb	r3, [r7, #7]
 570:../libraries/STM32F10x_StdPeriph_Driver/src/stm32f10x_flash.c ****     
 571:../libraries/STM32F10x_StdPeriph_Driver/src/stm32f10x_flash.c ****     /* Disable the MER Bit */
 572:../libraries/STM32F10x_StdPeriph_Driver/src/stm32f10x_flash.c ****     FLASH->CR &= CR_MER_Reset;
 533              		.loc 1 572 0
 534 005a 4FF40053 		mov	r3, #8192
 535 005e C4F20203 		movt	r3, 16386
 536 0062 4FF40052 		mov	r2, #8192
 537 0066 C4F20202 		movt	r2, 16386
 538 006a 1169     		ldr	r1, [r2, #16]
 539 006c 41F6FB72 		movw	r2, #8187
 540 0070 0A40     		ands	r2, r2, r1
 541 0072 1A61     		str	r2, [r3, #16]
 542              	.L15:
 573:../libraries/STM32F10x_StdPeriph_Driver/src/stm32f10x_flash.c ****   }    
 574:../libraries/STM32F10x_StdPeriph_Driver/src/stm32f10x_flash.c ****   /* Return the Erase Status */
 575:../libraries/STM32F10x_StdPeriph_Driver/src/stm32f10x_flash.c ****   return status;
 543              		.loc 1 575 0
 544 0074 FB79     		ldrb	r3, [r7, #7]	@ zero_extendqisi2
 576:../libraries/STM32F10x_StdPeriph_Driver/src/stm32f10x_flash.c **** }
 545              		.loc 1 576 0
 546 0076 1846     		mov	r0, r3
 547 0078 07F10807 		add	r7, r7, #8
 548 007c BD46     		mov	sp, r7
 549 007e 80BD     		pop	{r7, pc}
 550              		.cfi_endproc
 551              	.LFE65:
 553              		.section	.text.FLASH_EraseOptionBytes,"ax",%progbits
 554              		.align	2
 555              		.global	FLASH_EraseOptionBytes
 556              		.thumb
 557              		.thumb_func
 559              	FLASH_EraseOptionBytes:
 560              	.LFB66:
 577:../libraries/STM32F10x_StdPeriph_Driver/src/stm32f10x_flash.c **** 
 578:../libraries/STM32F10x_StdPeriph_Driver/src/stm32f10x_flash.c **** #ifdef STM32F10X_XL
 579:../libraries/STM32F10x_StdPeriph_Driver/src/stm32f10x_flash.c **** /**
 580:../libraries/STM32F10x_StdPeriph_Driver/src/stm32f10x_flash.c ****   * @brief  Erases all Bank2 FLASH pages.
 581:../libraries/STM32F10x_StdPeriph_Driver/src/stm32f10x_flash.c ****   * @note   This function can be used only for STM32F10x_XL density devices.
 582:../libraries/STM32F10x_StdPeriph_Driver/src/stm32f10x_flash.c ****   * @param  None
 583:../libraries/STM32F10x_StdPeriph_Driver/src/stm32f10x_flash.c ****   * @retval FLASH Status: The returned value can be: FLASH_ERROR_PG,
 584:../libraries/STM32F10x_StdPeriph_Driver/src/stm32f10x_flash.c ****   *         FLASH_ERROR_WRP, FLASH_COMPLETE or FLASH_TIMEOUT.
 585:../libraries/STM32F10x_StdPeriph_Driver/src/stm32f10x_flash.c ****   */
 586:../libraries/STM32F10x_StdPeriph_Driver/src/stm32f10x_flash.c **** FLASH_Status FLASH_EraseAllBank2Pages(void)
 587:../libraries/STM32F10x_StdPeriph_Driver/src/stm32f10x_flash.c **** {
 588:../libraries/STM32F10x_StdPeriph_Driver/src/stm32f10x_flash.c ****   FLASH_Status status = FLASH_COMPLETE;
 589:../libraries/STM32F10x_StdPeriph_Driver/src/stm32f10x_flash.c ****   /* Wait for last operation to be completed */
 590:../libraries/STM32F10x_StdPeriph_Driver/src/stm32f10x_flash.c ****   status = FLASH_WaitForLastBank2Operation(EraseTimeout);
 591:../libraries/STM32F10x_StdPeriph_Driver/src/stm32f10x_flash.c ****   
 592:../libraries/STM32F10x_StdPeriph_Driver/src/stm32f10x_flash.c ****   if(status == FLASH_COMPLETE)
 593:../libraries/STM32F10x_StdPeriph_Driver/src/stm32f10x_flash.c ****   {
 594:../libraries/STM32F10x_StdPeriph_Driver/src/stm32f10x_flash.c ****     /* if the previous operation is completed, proceed to erase all pages */
 595:../libraries/STM32F10x_StdPeriph_Driver/src/stm32f10x_flash.c ****      FLASH->CR2 |= CR_MER_Set;
 596:../libraries/STM32F10x_StdPeriph_Driver/src/stm32f10x_flash.c ****      FLASH->CR2 |= CR_STRT_Set;
 597:../libraries/STM32F10x_StdPeriph_Driver/src/stm32f10x_flash.c ****     
 598:../libraries/STM32F10x_StdPeriph_Driver/src/stm32f10x_flash.c ****     /* Wait for last operation to be completed */
 599:../libraries/STM32F10x_StdPeriph_Driver/src/stm32f10x_flash.c ****     status = FLASH_WaitForLastBank2Operation(EraseTimeout);
 600:../libraries/STM32F10x_StdPeriph_Driver/src/stm32f10x_flash.c **** 
 601:../libraries/STM32F10x_StdPeriph_Driver/src/stm32f10x_flash.c ****     /* Disable the MER Bit */
 602:../libraries/STM32F10x_StdPeriph_Driver/src/stm32f10x_flash.c ****     FLASH->CR2 &= CR_MER_Reset;
 603:../libraries/STM32F10x_StdPeriph_Driver/src/stm32f10x_flash.c ****   }    
 604:../libraries/STM32F10x_StdPeriph_Driver/src/stm32f10x_flash.c ****   /* Return the Erase Status */
 605:../libraries/STM32F10x_StdPeriph_Driver/src/stm32f10x_flash.c ****   return status;
 606:../libraries/STM32F10x_StdPeriph_Driver/src/stm32f10x_flash.c **** }
 607:../libraries/STM32F10x_StdPeriph_Driver/src/stm32f10x_flash.c **** #endif /* STM32F10X_XL */
 608:../libraries/STM32F10x_StdPeriph_Driver/src/stm32f10x_flash.c **** 
 609:../libraries/STM32F10x_StdPeriph_Driver/src/stm32f10x_flash.c **** /**
 610:../libraries/STM32F10x_StdPeriph_Driver/src/stm32f10x_flash.c ****   * @brief  Erases the FLASH option bytes.
 611:../libraries/STM32F10x_StdPeriph_Driver/src/stm32f10x_flash.c ****   * @note   This functions erases all option bytes except the Read protection (RDP). 
 612:../libraries/STM32F10x_StdPeriph_Driver/src/stm32f10x_flash.c ****   * @note   This function can be used for all STM32F10x devices.
 613:../libraries/STM32F10x_StdPeriph_Driver/src/stm32f10x_flash.c ****   * @param  None
 614:../libraries/STM32F10x_StdPeriph_Driver/src/stm32f10x_flash.c ****   * @retval FLASH Status: The returned value can be: FLASH_ERROR_PG,
 615:../libraries/STM32F10x_StdPeriph_Driver/src/stm32f10x_flash.c ****   *         FLASH_ERROR_WRP, FLASH_COMPLETE or FLASH_TIMEOUT.
 616:../libraries/STM32F10x_StdPeriph_Driver/src/stm32f10x_flash.c ****   */
 617:../libraries/STM32F10x_StdPeriph_Driver/src/stm32f10x_flash.c **** FLASH_Status FLASH_EraseOptionBytes(void)
 618:../libraries/STM32F10x_StdPeriph_Driver/src/stm32f10x_flash.c **** {
 561              		.loc 1 618 0
 562              		.cfi_startproc
 563              		@ args = 0, pretend = 0, frame = 8
 564              		@ frame_needed = 1, uses_anonymous_args = 0
 565 0000 80B5     		push	{r7, lr}
 566              	.LCFI26:
 567              		.cfi_def_cfa_offset 8
 568              		.cfi_offset 7, -8
 569              		.cfi_offset 14, -4
 570 0002 82B0     		sub	sp, sp, #8
 571              	.LCFI27:
 572              		.cfi_def_cfa_offset 16
 573 0004 00AF     		add	r7, sp, #0
 574              	.LCFI28:
 575              		.cfi_def_cfa_register 7
 619:../libraries/STM32F10x_StdPeriph_Driver/src/stm32f10x_flash.c ****   uint16_t rdptmp = RDP_Key;
 576              		.loc 1 619 0
 577 0006 4FF0A503 		mov	r3, #165
 578 000a FB80     		strh	r3, [r7, #6]	@ movhi
 620:../libraries/STM32F10x_StdPeriph_Driver/src/stm32f10x_flash.c **** 
 621:../libraries/STM32F10x_StdPeriph_Driver/src/stm32f10x_flash.c ****   FLASH_Status status = FLASH_COMPLETE;
 579              		.loc 1 621 0
 580 000c 4FF00403 		mov	r3, #4
 581 0010 7B71     		strb	r3, [r7, #5]
 622:../libraries/STM32F10x_StdPeriph_Driver/src/stm32f10x_flash.c **** 
 623:../libraries/STM32F10x_StdPeriph_Driver/src/stm32f10x_flash.c ****   /* Get the actual read protection Option Byte value */ 
 624:../libraries/STM32F10x_StdPeriph_Driver/src/stm32f10x_flash.c ****   if(FLASH_GetReadOutProtectionStatus() != RESET)
 582              		.loc 1 624 0
 583 0012 FFF7FEFF 		bl	FLASH_GetReadOutProtectionStatus
 584 0016 0346     		mov	r3, r0
 585 0018 002B     		cmp	r3, #0
 586 001a 02D0     		beq	.L18
 625:../libraries/STM32F10x_StdPeriph_Driver/src/stm32f10x_flash.c ****   {
 626:../libraries/STM32F10x_StdPeriph_Driver/src/stm32f10x_flash.c ****     rdptmp = 0x00;  
 587              		.loc 1 626 0
 588 001c 4FF00003 		mov	r3, #0
 589 0020 FB80     		strh	r3, [r7, #6]	@ movhi
 590              	.L18:
 627:../libraries/STM32F10x_StdPeriph_Driver/src/stm32f10x_flash.c ****   }
 628:../libraries/STM32F10x_StdPeriph_Driver/src/stm32f10x_flash.c **** 
 629:../libraries/STM32F10x_StdPeriph_Driver/src/stm32f10x_flash.c ****   /* Wait for last operation to be completed */
 630:../libraries/STM32F10x_StdPeriph_Driver/src/stm32f10x_flash.c ****   status = FLASH_WaitForLastOperation(EraseTimeout);
 591              		.loc 1 630 0
 592 0022 4FF43020 		mov	r0, #720896
 593 0026 FFF7FEFF 		bl	FLASH_WaitForLastOperation
 594 002a 0346     		mov	r3, r0
 595 002c 7B71     		strb	r3, [r7, #5]
 631:../libraries/STM32F10x_StdPeriph_Driver/src/stm32f10x_flash.c ****   if(status == FLASH_COMPLETE)
 596              		.loc 1 631 0
 597 002e 7B79     		ldrb	r3, [r7, #5]	@ zero_extendqisi2
 598 0030 042B     		cmp	r3, #4
 599 0032 78D1     		bne	.L19
 632:../libraries/STM32F10x_StdPeriph_Driver/src/stm32f10x_flash.c ****   {
 633:../libraries/STM32F10x_StdPeriph_Driver/src/stm32f10x_flash.c ****     /* Authorize the small information block programming */
 634:../libraries/STM32F10x_StdPeriph_Driver/src/stm32f10x_flash.c ****     FLASH->OPTKEYR = FLASH_KEY1;
 600              		.loc 1 634 0
 601 0034 4FF40053 		mov	r3, #8192
 602 0038 C4F20203 		movt	r3, 16386
 603 003c 40F22312 		movw	r2, #291
 604 0040 C4F26752 		movt	r2, 17767
 605 0044 9A60     		str	r2, [r3, #8]
 635:../libraries/STM32F10x_StdPeriph_Driver/src/stm32f10x_flash.c ****     FLASH->OPTKEYR = FLASH_KEY2;
 606              		.loc 1 635 0
 607 0046 4FF40053 		mov	r3, #8192
 608 004a C4F20203 		movt	r3, 16386
 609 004e 48F6AB12 		movw	r2, #35243
 610 0052 CCF6EF52 		movt	r2, 52719
 611 0056 9A60     		str	r2, [r3, #8]
 636:../libraries/STM32F10x_StdPeriph_Driver/src/stm32f10x_flash.c ****     
 637:../libraries/STM32F10x_StdPeriph_Driver/src/stm32f10x_flash.c ****     /* if the previous operation is completed, proceed to erase the option bytes */
 638:../libraries/STM32F10x_StdPeriph_Driver/src/stm32f10x_flash.c ****     FLASH->CR |= CR_OPTER_Set;
 612              		.loc 1 638 0
 613 0058 4FF40053 		mov	r3, #8192
 614 005c C4F20203 		movt	r3, 16386
 615 0060 4FF40052 		mov	r2, #8192
 616 0064 C4F20202 		movt	r2, 16386
 617 0068 1269     		ldr	r2, [r2, #16]
 618 006a 42F02002 		orr	r2, r2, #32
 619 006e 1A61     		str	r2, [r3, #16]
 639:../libraries/STM32F10x_StdPeriph_Driver/src/stm32f10x_flash.c ****     FLASH->CR |= CR_STRT_Set;
 620              		.loc 1 639 0
 621 0070 4FF40053 		mov	r3, #8192
 622 0074 C4F20203 		movt	r3, 16386
 623 0078 4FF40052 		mov	r2, #8192
 624 007c C4F20202 		movt	r2, 16386
 625 0080 1269     		ldr	r2, [r2, #16]
 626 0082 42F04002 		orr	r2, r2, #64
 627 0086 1A61     		str	r2, [r3, #16]
 640:../libraries/STM32F10x_StdPeriph_Driver/src/stm32f10x_flash.c ****     /* Wait for last operation to be completed */
 641:../libraries/STM32F10x_StdPeriph_Driver/src/stm32f10x_flash.c ****     status = FLASH_WaitForLastOperation(EraseTimeout);
 628              		.loc 1 641 0
 629 0088 4FF43020 		mov	r0, #720896
 630 008c FFF7FEFF 		bl	FLASH_WaitForLastOperation
 631 0090 0346     		mov	r3, r0
 632 0092 7B71     		strb	r3, [r7, #5]
 642:../libraries/STM32F10x_StdPeriph_Driver/src/stm32f10x_flash.c ****     
 643:../libraries/STM32F10x_StdPeriph_Driver/src/stm32f10x_flash.c ****     if(status == FLASH_COMPLETE)
 633              		.loc 1 643 0
 634 0094 7B79     		ldrb	r3, [r7, #5]	@ zero_extendqisi2
 635 0096 042B     		cmp	r3, #4
 636 0098 35D1     		bne	.L20
 644:../libraries/STM32F10x_StdPeriph_Driver/src/stm32f10x_flash.c ****     {
 645:../libraries/STM32F10x_StdPeriph_Driver/src/stm32f10x_flash.c ****       /* if the erase operation is completed, disable the OPTER Bit */
 646:../libraries/STM32F10x_StdPeriph_Driver/src/stm32f10x_flash.c ****       FLASH->CR &= CR_OPTER_Reset;
 637              		.loc 1 646 0
 638 009a 4FF40053 		mov	r3, #8192
 639 009e C4F20203 		movt	r3, 16386
 640 00a2 4FF40052 		mov	r2, #8192
 641 00a6 C4F20202 		movt	r2, 16386
 642 00aa 1169     		ldr	r1, [r2, #16]
 643 00ac 41F6DF72 		movw	r2, #8159
 644 00b0 0A40     		ands	r2, r2, r1
 645 00b2 1A61     		str	r2, [r3, #16]
 647:../libraries/STM32F10x_StdPeriph_Driver/src/stm32f10x_flash.c ****        
 648:../libraries/STM32F10x_StdPeriph_Driver/src/stm32f10x_flash.c ****       /* Enable the Option Bytes Programming operation */
 649:../libraries/STM32F10x_StdPeriph_Driver/src/stm32f10x_flash.c ****       FLASH->CR |= CR_OPTPG_Set;
 646              		.loc 1 649 0
 647 00b4 4FF40053 		mov	r3, #8192
 648 00b8 C4F20203 		movt	r3, 16386
 649 00bc 4FF40052 		mov	r2, #8192
 650 00c0 C4F20202 		movt	r2, 16386
 651 00c4 1269     		ldr	r2, [r2, #16]
 652 00c6 42F01002 		orr	r2, r2, #16
 653 00ca 1A61     		str	r2, [r3, #16]
 650:../libraries/STM32F10x_StdPeriph_Driver/src/stm32f10x_flash.c ****       /* Restore the last read protection Option Byte value */
 651:../libraries/STM32F10x_StdPeriph_Driver/src/stm32f10x_flash.c ****       OB->RDP = (uint16_t)rdptmp; 
 654              		.loc 1 651 0
 655 00cc 4FF47843 		mov	r3, #63488
 656 00d0 C1F6FF73 		movt	r3, 8191
 657 00d4 FA88     		ldrh	r2, [r7, #6]	@ movhi
 658 00d6 1A80     		strh	r2, [r3, #0]	@ movhi
 652:../libraries/STM32F10x_StdPeriph_Driver/src/stm32f10x_flash.c ****       /* Wait for last operation to be completed */
 653:../libraries/STM32F10x_StdPeriph_Driver/src/stm32f10x_flash.c ****       status = FLASH_WaitForLastOperation(ProgramTimeout);
 659              		.loc 1 653 0
 660 00d8 4FF40050 		mov	r0, #8192
 661 00dc FFF7FEFF 		bl	FLASH_WaitForLastOperation
 662 00e0 0346     		mov	r3, r0
 663 00e2 7B71     		strb	r3, [r7, #5]
 654:../libraries/STM32F10x_StdPeriph_Driver/src/stm32f10x_flash.c ****  
 655:../libraries/STM32F10x_StdPeriph_Driver/src/stm32f10x_flash.c ****       if(status != FLASH_TIMEOUT)
 664              		.loc 1 655 0
 665 00e4 7B79     		ldrb	r3, [r7, #5]	@ zero_extendqisi2
 666 00e6 052B     		cmp	r3, #5
 667 00e8 1DD0     		beq	.L19
 656:../libraries/STM32F10x_StdPeriph_Driver/src/stm32f10x_flash.c ****       {
 657:../libraries/STM32F10x_StdPeriph_Driver/src/stm32f10x_flash.c ****         /* if the program operation is completed, disable the OPTPG Bit */
 658:../libraries/STM32F10x_StdPeriph_Driver/src/stm32f10x_flash.c ****         FLASH->CR &= CR_OPTPG_Reset;
 668              		.loc 1 658 0
 669 00ea 4FF40053 		mov	r3, #8192
 670 00ee C4F20203 		movt	r3, 16386
 671 00f2 4FF40052 		mov	r2, #8192
 672 00f6 C4F20202 		movt	r2, 16386
 673 00fa 1169     		ldr	r1, [r2, #16]
 674 00fc 41F6EF72 		movw	r2, #8175
 675 0100 0A40     		ands	r2, r2, r1
 676 0102 1A61     		str	r2, [r3, #16]
 677 0104 0FE0     		b	.L19
 678              	.L20:
 659:../libraries/STM32F10x_StdPeriph_Driver/src/stm32f10x_flash.c ****       }
 660:../libraries/STM32F10x_StdPeriph_Driver/src/stm32f10x_flash.c ****     }
 661:../libraries/STM32F10x_StdPeriph_Driver/src/stm32f10x_flash.c ****     else
 662:../libraries/STM32F10x_StdPeriph_Driver/src/stm32f10x_flash.c ****     {
 663:../libraries/STM32F10x_StdPeriph_Driver/src/stm32f10x_flash.c ****       if (status != FLASH_TIMEOUT)
 679              		.loc 1 663 0
 680 0106 7B79     		ldrb	r3, [r7, #5]	@ zero_extendqisi2
 681 0108 052B     		cmp	r3, #5
 682 010a 0CD0     		beq	.L19
 664:../libraries/STM32F10x_StdPeriph_Driver/src/stm32f10x_flash.c ****       {
 665:../libraries/STM32F10x_StdPeriph_Driver/src/stm32f10x_flash.c ****         /* Disable the OPTPG Bit */
 666:../libraries/STM32F10x_StdPeriph_Driver/src/stm32f10x_flash.c ****         FLASH->CR &= CR_OPTPG_Reset;
 683              		.loc 1 666 0
 684 010c 4FF40053 		mov	r3, #8192
 685 0110 C4F20203 		movt	r3, 16386
 686 0114 4FF40052 		mov	r2, #8192
 687 0118 C4F20202 		movt	r2, 16386
 688 011c 1169     		ldr	r1, [r2, #16]
 689 011e 41F6EF72 		movw	r2, #8175
 690 0122 0A40     		ands	r2, r2, r1
 691 0124 1A61     		str	r2, [r3, #16]
 692              	.L19:
 667:../libraries/STM32F10x_StdPeriph_Driver/src/stm32f10x_flash.c ****       }
 668:../libraries/STM32F10x_StdPeriph_Driver/src/stm32f10x_flash.c ****     }  
 669:../libraries/STM32F10x_StdPeriph_Driver/src/stm32f10x_flash.c ****   }
 670:../libraries/STM32F10x_StdPeriph_Driver/src/stm32f10x_flash.c ****   /* Return the erase status */
 671:../libraries/STM32F10x_StdPeriph_Driver/src/stm32f10x_flash.c ****   return status;
 693              		.loc 1 671 0
 694 0126 7B79     		ldrb	r3, [r7, #5]	@ zero_extendqisi2
 672:../libraries/STM32F10x_StdPeriph_Driver/src/stm32f10x_flash.c **** }
 695              		.loc 1 672 0
 696 0128 1846     		mov	r0, r3
 697 012a 07F10807 		add	r7, r7, #8
 698 012e BD46     		mov	sp, r7
 699 0130 80BD     		pop	{r7, pc}
 700              		.cfi_endproc
 701              	.LFE66:
 703 0132 00BF     		.section	.text.FLASH_ProgramWord,"ax",%progbits
 704              		.align	2
 705              		.global	FLASH_ProgramWord
 706              		.thumb
 707              		.thumb_func
 709              	FLASH_ProgramWord:
 710              	.LFB67:
 673:../libraries/STM32F10x_StdPeriph_Driver/src/stm32f10x_flash.c **** 
 674:../libraries/STM32F10x_StdPeriph_Driver/src/stm32f10x_flash.c **** /**
 675:../libraries/STM32F10x_StdPeriph_Driver/src/stm32f10x_flash.c ****   * @brief  Programs a word at a specified address.
 676:../libraries/STM32F10x_StdPeriph_Driver/src/stm32f10x_flash.c ****   * @note   This function can be used for all STM32F10x devices.
 677:../libraries/STM32F10x_StdPeriph_Driver/src/stm32f10x_flash.c ****   * @param  Address: specifies the address to be programmed.
 678:../libraries/STM32F10x_StdPeriph_Driver/src/stm32f10x_flash.c ****   * @param  Data: specifies the data to be programmed.
 679:../libraries/STM32F10x_StdPeriph_Driver/src/stm32f10x_flash.c ****   * @retval FLASH Status: The returned value can be: FLASH_ERROR_PG,
 680:../libraries/STM32F10x_StdPeriph_Driver/src/stm32f10x_flash.c ****   *         FLASH_ERROR_WRP, FLASH_COMPLETE or FLASH_TIMEOUT. 
 681:../libraries/STM32F10x_StdPeriph_Driver/src/stm32f10x_flash.c ****   */
 682:../libraries/STM32F10x_StdPeriph_Driver/src/stm32f10x_flash.c **** FLASH_Status FLASH_ProgramWord(uint32_t Address, uint32_t Data)
 683:../libraries/STM32F10x_StdPeriph_Driver/src/stm32f10x_flash.c **** {
 711              		.loc 1 683 0
 712              		.cfi_startproc
 713              		@ args = 0, pretend = 0, frame = 16
 714              		@ frame_needed = 1, uses_anonymous_args = 0
 715 0000 80B5     		push	{r7, lr}
 716              	.LCFI29:
 717              		.cfi_def_cfa_offset 8
 718              		.cfi_offset 7, -8
 719              		.cfi_offset 14, -4
 720 0002 84B0     		sub	sp, sp, #16
 721              	.LCFI30:
 722              		.cfi_def_cfa_offset 24
 723 0004 00AF     		add	r7, sp, #0
 724              	.LCFI31:
 725              		.cfi_def_cfa_register 7
 726 0006 7860     		str	r0, [r7, #4]
 727 0008 3960     		str	r1, [r7, #0]
 684:../libraries/STM32F10x_StdPeriph_Driver/src/stm32f10x_flash.c ****   FLASH_Status status = FLASH_COMPLETE;
 728              		.loc 1 684 0
 729 000a 4FF00403 		mov	r3, #4
 730 000e FB73     		strb	r3, [r7, #15]
 685:../libraries/STM32F10x_StdPeriph_Driver/src/stm32f10x_flash.c ****   __IO uint32_t tmp = 0;
 731              		.loc 1 685 0
 732 0010 4FF00003 		mov	r3, #0
 733 0014 BB60     		str	r3, [r7, #8]
 686:../libraries/STM32F10x_StdPeriph_Driver/src/stm32f10x_flash.c **** 
 687:../libraries/STM32F10x_StdPeriph_Driver/src/stm32f10x_flash.c ****   /* Check the parameters */
 688:../libraries/STM32F10x_StdPeriph_Driver/src/stm32f10x_flash.c ****   assert_param(IS_FLASH_ADDRESS(Address));
 689:../libraries/STM32F10x_StdPeriph_Driver/src/stm32f10x_flash.c **** 
 690:../libraries/STM32F10x_StdPeriph_Driver/src/stm32f10x_flash.c **** #ifdef STM32F10X_XL
 691:../libraries/STM32F10x_StdPeriph_Driver/src/stm32f10x_flash.c ****   if(Address < FLASH_BANK1_END_ADDRESS - 2)
 692:../libraries/STM32F10x_StdPeriph_Driver/src/stm32f10x_flash.c ****   { 
 693:../libraries/STM32F10x_StdPeriph_Driver/src/stm32f10x_flash.c ****     /* Wait for last operation to be completed */
 694:../libraries/STM32F10x_StdPeriph_Driver/src/stm32f10x_flash.c ****     status = FLASH_WaitForLastBank1Operation(ProgramTimeout); 
 695:../libraries/STM32F10x_StdPeriph_Driver/src/stm32f10x_flash.c ****     if(status == FLASH_COMPLETE)
 696:../libraries/STM32F10x_StdPeriph_Driver/src/stm32f10x_flash.c ****     {
 697:../libraries/STM32F10x_StdPeriph_Driver/src/stm32f10x_flash.c ****       /* if the previous operation is completed, proceed to program the new first 
 698:../libraries/STM32F10x_StdPeriph_Driver/src/stm32f10x_flash.c ****         half word */
 699:../libraries/STM32F10x_StdPeriph_Driver/src/stm32f10x_flash.c ****       FLASH->CR |= CR_PG_Set;
 700:../libraries/STM32F10x_StdPeriph_Driver/src/stm32f10x_flash.c ****   
 701:../libraries/STM32F10x_StdPeriph_Driver/src/stm32f10x_flash.c ****       *(__IO uint16_t*)Address = (uint16_t)Data;
 702:../libraries/STM32F10x_StdPeriph_Driver/src/stm32f10x_flash.c ****       /* Wait for last operation to be completed */
 703:../libraries/STM32F10x_StdPeriph_Driver/src/stm32f10x_flash.c ****       status = FLASH_WaitForLastOperation(ProgramTimeout);
 704:../libraries/STM32F10x_StdPeriph_Driver/src/stm32f10x_flash.c ****  
 705:../libraries/STM32F10x_StdPeriph_Driver/src/stm32f10x_flash.c ****       if(status == FLASH_COMPLETE)
 706:../libraries/STM32F10x_StdPeriph_Driver/src/stm32f10x_flash.c ****       {
 707:../libraries/STM32F10x_StdPeriph_Driver/src/stm32f10x_flash.c ****         /* if the previous operation is completed, proceed to program the new second 
 708:../libraries/STM32F10x_StdPeriph_Driver/src/stm32f10x_flash.c ****         half word */
 709:../libraries/STM32F10x_StdPeriph_Driver/src/stm32f10x_flash.c ****         tmp = Address + 2;
 710:../libraries/STM32F10x_StdPeriph_Driver/src/stm32f10x_flash.c **** 
 711:../libraries/STM32F10x_StdPeriph_Driver/src/stm32f10x_flash.c ****         *(__IO uint16_t*) tmp = Data >> 16;
 712:../libraries/STM32F10x_StdPeriph_Driver/src/stm32f10x_flash.c ****     
 713:../libraries/STM32F10x_StdPeriph_Driver/src/stm32f10x_flash.c ****         /* Wait for last operation to be completed */
 714:../libraries/STM32F10x_StdPeriph_Driver/src/stm32f10x_flash.c ****         status = FLASH_WaitForLastOperation(ProgramTimeout);
 715:../libraries/STM32F10x_StdPeriph_Driver/src/stm32f10x_flash.c ****         
 716:../libraries/STM32F10x_StdPeriph_Driver/src/stm32f10x_flash.c ****         /* Disable the PG Bit */
 717:../libraries/STM32F10x_StdPeriph_Driver/src/stm32f10x_flash.c ****         FLASH->CR &= CR_PG_Reset;
 718:../libraries/STM32F10x_StdPeriph_Driver/src/stm32f10x_flash.c ****       }
 719:../libraries/STM32F10x_StdPeriph_Driver/src/stm32f10x_flash.c ****       else
 720:../libraries/STM32F10x_StdPeriph_Driver/src/stm32f10x_flash.c ****       {
 721:../libraries/STM32F10x_StdPeriph_Driver/src/stm32f10x_flash.c ****         /* Disable the PG Bit */
 722:../libraries/STM32F10x_StdPeriph_Driver/src/stm32f10x_flash.c ****         FLASH->CR &= CR_PG_Reset;
 723:../libraries/STM32F10x_StdPeriph_Driver/src/stm32f10x_flash.c ****        }
 724:../libraries/STM32F10x_StdPeriph_Driver/src/stm32f10x_flash.c ****     }
 725:../libraries/STM32F10x_StdPeriph_Driver/src/stm32f10x_flash.c ****   }
 726:../libraries/STM32F10x_StdPeriph_Driver/src/stm32f10x_flash.c ****   else if(Address == (FLASH_BANK1_END_ADDRESS - 1))
 727:../libraries/STM32F10x_StdPeriph_Driver/src/stm32f10x_flash.c ****   {
 728:../libraries/STM32F10x_StdPeriph_Driver/src/stm32f10x_flash.c ****     /* Wait for last operation to be completed */
 729:../libraries/STM32F10x_StdPeriph_Driver/src/stm32f10x_flash.c ****     status = FLASH_WaitForLastBank1Operation(ProgramTimeout);
 730:../libraries/STM32F10x_StdPeriph_Driver/src/stm32f10x_flash.c **** 
 731:../libraries/STM32F10x_StdPeriph_Driver/src/stm32f10x_flash.c ****     if(status == FLASH_COMPLETE)
 732:../libraries/STM32F10x_StdPeriph_Driver/src/stm32f10x_flash.c ****     {
 733:../libraries/STM32F10x_StdPeriph_Driver/src/stm32f10x_flash.c ****       /* if the previous operation is completed, proceed to program the new first 
 734:../libraries/STM32F10x_StdPeriph_Driver/src/stm32f10x_flash.c ****         half word */
 735:../libraries/STM32F10x_StdPeriph_Driver/src/stm32f10x_flash.c ****       FLASH->CR |= CR_PG_Set;
 736:../libraries/STM32F10x_StdPeriph_Driver/src/stm32f10x_flash.c ****   
 737:../libraries/STM32F10x_StdPeriph_Driver/src/stm32f10x_flash.c ****       *(__IO uint16_t*)Address = (uint16_t)Data;
 738:../libraries/STM32F10x_StdPeriph_Driver/src/stm32f10x_flash.c **** 
 739:../libraries/STM32F10x_StdPeriph_Driver/src/stm32f10x_flash.c ****       /* Wait for last operation to be completed */
 740:../libraries/STM32F10x_StdPeriph_Driver/src/stm32f10x_flash.c ****       status = FLASH_WaitForLastBank1Operation(ProgramTimeout);
 741:../libraries/STM32F10x_StdPeriph_Driver/src/stm32f10x_flash.c ****       
 742:../libraries/STM32F10x_StdPeriph_Driver/src/stm32f10x_flash.c **** 	  /* Disable the PG Bit */
 743:../libraries/STM32F10x_StdPeriph_Driver/src/stm32f10x_flash.c ****       FLASH->CR &= CR_PG_Reset;
 744:../libraries/STM32F10x_StdPeriph_Driver/src/stm32f10x_flash.c ****     }
 745:../libraries/STM32F10x_StdPeriph_Driver/src/stm32f10x_flash.c ****     else
 746:../libraries/STM32F10x_StdPeriph_Driver/src/stm32f10x_flash.c ****     {
 747:../libraries/STM32F10x_StdPeriph_Driver/src/stm32f10x_flash.c ****       /* Disable the PG Bit */
 748:../libraries/STM32F10x_StdPeriph_Driver/src/stm32f10x_flash.c ****       FLASH->CR &= CR_PG_Reset;
 749:../libraries/STM32F10x_StdPeriph_Driver/src/stm32f10x_flash.c ****     }
 750:../libraries/STM32F10x_StdPeriph_Driver/src/stm32f10x_flash.c **** 
 751:../libraries/STM32F10x_StdPeriph_Driver/src/stm32f10x_flash.c ****     /* Wait for last operation to be completed */
 752:../libraries/STM32F10x_StdPeriph_Driver/src/stm32f10x_flash.c ****     status = FLASH_WaitForLastBank2Operation(ProgramTimeout);
 753:../libraries/STM32F10x_StdPeriph_Driver/src/stm32f10x_flash.c **** 
 754:../libraries/STM32F10x_StdPeriph_Driver/src/stm32f10x_flash.c ****     if(status == FLASH_COMPLETE)
 755:../libraries/STM32F10x_StdPeriph_Driver/src/stm32f10x_flash.c ****     {
 756:../libraries/STM32F10x_StdPeriph_Driver/src/stm32f10x_flash.c ****       /* if the previous operation is completed, proceed to program the new second 
 757:../libraries/STM32F10x_StdPeriph_Driver/src/stm32f10x_flash.c ****       half word */
 758:../libraries/STM32F10x_StdPeriph_Driver/src/stm32f10x_flash.c ****       FLASH->CR2 |= CR_PG_Set;
 759:../libraries/STM32F10x_StdPeriph_Driver/src/stm32f10x_flash.c ****       tmp = Address + 2;
 760:../libraries/STM32F10x_StdPeriph_Driver/src/stm32f10x_flash.c **** 
 761:../libraries/STM32F10x_StdPeriph_Driver/src/stm32f10x_flash.c ****       *(__IO uint16_t*) tmp = Data >> 16;
 762:../libraries/STM32F10x_StdPeriph_Driver/src/stm32f10x_flash.c ****     
 763:../libraries/STM32F10x_StdPeriph_Driver/src/stm32f10x_flash.c ****       /* Wait for last operation to be completed */
 764:../libraries/STM32F10x_StdPeriph_Driver/src/stm32f10x_flash.c ****       status = FLASH_WaitForLastBank2Operation(ProgramTimeout);
 765:../libraries/STM32F10x_StdPeriph_Driver/src/stm32f10x_flash.c ****         
 766:../libraries/STM32F10x_StdPeriph_Driver/src/stm32f10x_flash.c ****       /* Disable the PG Bit */
 767:../libraries/STM32F10x_StdPeriph_Driver/src/stm32f10x_flash.c ****       FLASH->CR2 &= CR_PG_Reset;
 768:../libraries/STM32F10x_StdPeriph_Driver/src/stm32f10x_flash.c ****     }
 769:../libraries/STM32F10x_StdPeriph_Driver/src/stm32f10x_flash.c ****     else
 770:../libraries/STM32F10x_StdPeriph_Driver/src/stm32f10x_flash.c ****     {
 771:../libraries/STM32F10x_StdPeriph_Driver/src/stm32f10x_flash.c ****       /* Disable the PG Bit */
 772:../libraries/STM32F10x_StdPeriph_Driver/src/stm32f10x_flash.c ****       FLASH->CR2 &= CR_PG_Reset;
 773:../libraries/STM32F10x_StdPeriph_Driver/src/stm32f10x_flash.c ****     }
 774:../libraries/STM32F10x_StdPeriph_Driver/src/stm32f10x_flash.c ****   }
 775:../libraries/STM32F10x_StdPeriph_Driver/src/stm32f10x_flash.c ****   else
 776:../libraries/STM32F10x_StdPeriph_Driver/src/stm32f10x_flash.c ****   {
 777:../libraries/STM32F10x_StdPeriph_Driver/src/stm32f10x_flash.c ****     /* Wait for last operation to be completed */
 778:../libraries/STM32F10x_StdPeriph_Driver/src/stm32f10x_flash.c ****     status = FLASH_WaitForLastBank2Operation(ProgramTimeout);
 779:../libraries/STM32F10x_StdPeriph_Driver/src/stm32f10x_flash.c **** 
 780:../libraries/STM32F10x_StdPeriph_Driver/src/stm32f10x_flash.c ****     if(status == FLASH_COMPLETE)
 781:../libraries/STM32F10x_StdPeriph_Driver/src/stm32f10x_flash.c ****     {
 782:../libraries/STM32F10x_StdPeriph_Driver/src/stm32f10x_flash.c ****       /* if the previous operation is completed, proceed to program the new first 
 783:../libraries/STM32F10x_StdPeriph_Driver/src/stm32f10x_flash.c ****         half word */
 784:../libraries/STM32F10x_StdPeriph_Driver/src/stm32f10x_flash.c ****       FLASH->CR2 |= CR_PG_Set;
 785:../libraries/STM32F10x_StdPeriph_Driver/src/stm32f10x_flash.c ****   
 786:../libraries/STM32F10x_StdPeriph_Driver/src/stm32f10x_flash.c ****       *(__IO uint16_t*)Address = (uint16_t)Data;
 787:../libraries/STM32F10x_StdPeriph_Driver/src/stm32f10x_flash.c ****       /* Wait for last operation to be completed */
 788:../libraries/STM32F10x_StdPeriph_Driver/src/stm32f10x_flash.c ****       status = FLASH_WaitForLastBank2Operation(ProgramTimeout);
 789:../libraries/STM32F10x_StdPeriph_Driver/src/stm32f10x_flash.c ****  
 790:../libraries/STM32F10x_StdPeriph_Driver/src/stm32f10x_flash.c ****       if(status == FLASH_COMPLETE)
 791:../libraries/STM32F10x_StdPeriph_Driver/src/stm32f10x_flash.c ****       {
 792:../libraries/STM32F10x_StdPeriph_Driver/src/stm32f10x_flash.c ****         /* if the previous operation is completed, proceed to program the new second 
 793:../libraries/STM32F10x_StdPeriph_Driver/src/stm32f10x_flash.c ****         half word */
 794:../libraries/STM32F10x_StdPeriph_Driver/src/stm32f10x_flash.c ****         tmp = Address + 2;
 795:../libraries/STM32F10x_StdPeriph_Driver/src/stm32f10x_flash.c **** 
 796:../libraries/STM32F10x_StdPeriph_Driver/src/stm32f10x_flash.c ****         *(__IO uint16_t*) tmp = Data >> 16;
 797:../libraries/STM32F10x_StdPeriph_Driver/src/stm32f10x_flash.c ****     
 798:../libraries/STM32F10x_StdPeriph_Driver/src/stm32f10x_flash.c ****         /* Wait for last operation to be completed */
 799:../libraries/STM32F10x_StdPeriph_Driver/src/stm32f10x_flash.c ****         status = FLASH_WaitForLastBank2Operation(ProgramTimeout);
 800:../libraries/STM32F10x_StdPeriph_Driver/src/stm32f10x_flash.c ****         
 801:../libraries/STM32F10x_StdPeriph_Driver/src/stm32f10x_flash.c ****         /* Disable the PG Bit */
 802:../libraries/STM32F10x_StdPeriph_Driver/src/stm32f10x_flash.c ****         FLASH->CR2 &= CR_PG_Reset;
 803:../libraries/STM32F10x_StdPeriph_Driver/src/stm32f10x_flash.c ****       }
 804:../libraries/STM32F10x_StdPeriph_Driver/src/stm32f10x_flash.c ****       else
 805:../libraries/STM32F10x_StdPeriph_Driver/src/stm32f10x_flash.c ****       {
 806:../libraries/STM32F10x_StdPeriph_Driver/src/stm32f10x_flash.c ****         /* Disable the PG Bit */
 807:../libraries/STM32F10x_StdPeriph_Driver/src/stm32f10x_flash.c ****         FLASH->CR2 &= CR_PG_Reset;
 808:../libraries/STM32F10x_StdPeriph_Driver/src/stm32f10x_flash.c ****       }
 809:../libraries/STM32F10x_StdPeriph_Driver/src/stm32f10x_flash.c ****     }
 810:../libraries/STM32F10x_StdPeriph_Driver/src/stm32f10x_flash.c ****   }
 811:../libraries/STM32F10x_StdPeriph_Driver/src/stm32f10x_flash.c **** #else
 812:../libraries/STM32F10x_StdPeriph_Driver/src/stm32f10x_flash.c ****   /* Wait for last operation to be completed */
 813:../libraries/STM32F10x_StdPeriph_Driver/src/stm32f10x_flash.c ****   status = FLASH_WaitForLastOperation(ProgramTimeout);
 734              		.loc 1 813 0
 735 0016 4FF40050 		mov	r0, #8192
 736 001a FFF7FEFF 		bl	FLASH_WaitForLastOperation
 737 001e 0346     		mov	r3, r0
 738 0020 FB73     		strb	r3, [r7, #15]
 814:../libraries/STM32F10x_StdPeriph_Driver/src/stm32f10x_flash.c ****   
 815:../libraries/STM32F10x_StdPeriph_Driver/src/stm32f10x_flash.c ****   if(status == FLASH_COMPLETE)
 739              		.loc 1 815 0
 740 0022 FB7B     		ldrb	r3, [r7, #15]	@ zero_extendqisi2
 741 0024 042B     		cmp	r3, #4
 742 0026 43D1     		bne	.L23
 816:../libraries/STM32F10x_StdPeriph_Driver/src/stm32f10x_flash.c ****   {
 817:../libraries/STM32F10x_StdPeriph_Driver/src/stm32f10x_flash.c ****     /* if the previous operation is completed, proceed to program the new first 
 818:../libraries/STM32F10x_StdPeriph_Driver/src/stm32f10x_flash.c ****     half word */
 819:../libraries/STM32F10x_StdPeriph_Driver/src/stm32f10x_flash.c ****     FLASH->CR |= CR_PG_Set;
 743              		.loc 1 819 0
 744 0028 4FF40053 		mov	r3, #8192
 745 002c C4F20203 		movt	r3, 16386
 746 0030 4FF40052 		mov	r2, #8192
 747 0034 C4F20202 		movt	r2, 16386
 748 0038 1269     		ldr	r2, [r2, #16]
 749 003a 42F00102 		orr	r2, r2, #1
 750 003e 1A61     		str	r2, [r3, #16]
 820:../libraries/STM32F10x_StdPeriph_Driver/src/stm32f10x_flash.c ****   
 821:../libraries/STM32F10x_StdPeriph_Driver/src/stm32f10x_flash.c ****     *(__IO uint16_t*)Address = (uint16_t)Data;
 751              		.loc 1 821 0
 752 0040 7B68     		ldr	r3, [r7, #4]
 753 0042 3A68     		ldr	r2, [r7, #0]
 754 0044 92B2     		uxth	r2, r2
 755 0046 1A80     		strh	r2, [r3, #0]	@ movhi
 822:../libraries/STM32F10x_StdPeriph_Driver/src/stm32f10x_flash.c ****     /* Wait for last operation to be completed */
 823:../libraries/STM32F10x_StdPeriph_Driver/src/stm32f10x_flash.c ****     status = FLASH_WaitForLastOperation(ProgramTimeout);
 756              		.loc 1 823 0
 757 0048 4FF40050 		mov	r0, #8192
 758 004c FFF7FEFF 		bl	FLASH_WaitForLastOperation
 759 0050 0346     		mov	r3, r0
 760 0052 FB73     		strb	r3, [r7, #15]
 824:../libraries/STM32F10x_StdPeriph_Driver/src/stm32f10x_flash.c ****  
 825:../libraries/STM32F10x_StdPeriph_Driver/src/stm32f10x_flash.c ****     if(status == FLASH_COMPLETE)
 761              		.loc 1 825 0
 762 0054 FB7B     		ldrb	r3, [r7, #15]	@ zero_extendqisi2
 763 0056 042B     		cmp	r3, #4
 764 0058 1DD1     		bne	.L24
 826:../libraries/STM32F10x_StdPeriph_Driver/src/stm32f10x_flash.c ****     {
 827:../libraries/STM32F10x_StdPeriph_Driver/src/stm32f10x_flash.c ****       /* if the previous operation is completed, proceed to program the new second 
 828:../libraries/STM32F10x_StdPeriph_Driver/src/stm32f10x_flash.c ****       half word */
 829:../libraries/STM32F10x_StdPeriph_Driver/src/stm32f10x_flash.c ****       tmp = Address + 2;
 765              		.loc 1 829 0
 766 005a 7B68     		ldr	r3, [r7, #4]
 767 005c 03F10203 		add	r3, r3, #2
 768 0060 BB60     		str	r3, [r7, #8]
 830:../libraries/STM32F10x_StdPeriph_Driver/src/stm32f10x_flash.c **** 
 831:../libraries/STM32F10x_StdPeriph_Driver/src/stm32f10x_flash.c ****       *(__IO uint16_t*) tmp = Data >> 16;
 769              		.loc 1 831 0
 770 0062 BB68     		ldr	r3, [r7, #8]
 771 0064 3A68     		ldr	r2, [r7, #0]
 772 0066 4FEA1242 		lsr	r2, r2, #16
 773 006a 92B2     		uxth	r2, r2
 774 006c 1A80     		strh	r2, [r3, #0]	@ movhi
 832:../libraries/STM32F10x_StdPeriph_Driver/src/stm32f10x_flash.c ****     
 833:../libraries/STM32F10x_StdPeriph_Driver/src/stm32f10x_flash.c ****       /* Wait for last operation to be completed */
 834:../libraries/STM32F10x_StdPeriph_Driver/src/stm32f10x_flash.c ****       status = FLASH_WaitForLastOperation(ProgramTimeout);
 775              		.loc 1 834 0
 776 006e 4FF40050 		mov	r0, #8192
 777 0072 FFF7FEFF 		bl	FLASH_WaitForLastOperation
 778 0076 0346     		mov	r3, r0
 779 0078 FB73     		strb	r3, [r7, #15]
 835:../libraries/STM32F10x_StdPeriph_Driver/src/stm32f10x_flash.c ****         
 836:../libraries/STM32F10x_StdPeriph_Driver/src/stm32f10x_flash.c ****       /* Disable the PG Bit */
 837:../libraries/STM32F10x_StdPeriph_Driver/src/stm32f10x_flash.c ****       FLASH->CR &= CR_PG_Reset;
 780              		.loc 1 837 0
 781 007a 4FF40053 		mov	r3, #8192
 782 007e C4F20203 		movt	r3, 16386
 783 0082 4FF40052 		mov	r2, #8192
 784 0086 C4F20202 		movt	r2, 16386
 785 008a 1169     		ldr	r1, [r2, #16]
 786 008c 41F6FE72 		movw	r2, #8190
 787 0090 0A40     		ands	r2, r2, r1
 788 0092 1A61     		str	r2, [r3, #16]
 789 0094 0CE0     		b	.L23
 790              	.L24:
 838:../libraries/STM32F10x_StdPeriph_Driver/src/stm32f10x_flash.c ****     }
 839:../libraries/STM32F10x_StdPeriph_Driver/src/stm32f10x_flash.c ****     else
 840:../libraries/STM32F10x_StdPeriph_Driver/src/stm32f10x_flash.c ****     {
 841:../libraries/STM32F10x_StdPeriph_Driver/src/stm32f10x_flash.c ****       /* Disable the PG Bit */
 842:../libraries/STM32F10x_StdPeriph_Driver/src/stm32f10x_flash.c ****       FLASH->CR &= CR_PG_Reset;
 791              		.loc 1 842 0
 792 0096 4FF40053 		mov	r3, #8192
 793 009a C4F20203 		movt	r3, 16386
 794 009e 4FF40052 		mov	r2, #8192
 795 00a2 C4F20202 		movt	r2, 16386
 796 00a6 1169     		ldr	r1, [r2, #16]
 797 00a8 41F6FE72 		movw	r2, #8190
 798 00ac 0A40     		ands	r2, r2, r1
 799 00ae 1A61     		str	r2, [r3, #16]
 800              	.L23:
 843:../libraries/STM32F10x_StdPeriph_Driver/src/stm32f10x_flash.c ****     }
 844:../libraries/STM32F10x_StdPeriph_Driver/src/stm32f10x_flash.c ****   }         
 845:../libraries/STM32F10x_StdPeriph_Driver/src/stm32f10x_flash.c **** #endif /* STM32F10X_XL */
 846:../libraries/STM32F10x_StdPeriph_Driver/src/stm32f10x_flash.c ****    
 847:../libraries/STM32F10x_StdPeriph_Driver/src/stm32f10x_flash.c ****   /* Return the Program Status */
 848:../libraries/STM32F10x_StdPeriph_Driver/src/stm32f10x_flash.c ****   return status;
 801              		.loc 1 848 0
 802 00b0 FB7B     		ldrb	r3, [r7, #15]	@ zero_extendqisi2
 849:../libraries/STM32F10x_StdPeriph_Driver/src/stm32f10x_flash.c **** }
 803              		.loc 1 849 0
 804 00b2 1846     		mov	r0, r3
 805 00b4 07F11007 		add	r7, r7, #16
 806 00b8 BD46     		mov	sp, r7
 807 00ba 80BD     		pop	{r7, pc}
 808              		.cfi_endproc
 809              	.LFE67:
 811              		.section	.text.FLASH_ProgramHalfWord,"ax",%progbits
 812              		.align	2
 813              		.global	FLASH_ProgramHalfWord
 814              		.thumb
 815              		.thumb_func
 817              	FLASH_ProgramHalfWord:
 818              	.LFB68:
 850:../libraries/STM32F10x_StdPeriph_Driver/src/stm32f10x_flash.c **** 
 851:../libraries/STM32F10x_StdPeriph_Driver/src/stm32f10x_flash.c **** /**
 852:../libraries/STM32F10x_StdPeriph_Driver/src/stm32f10x_flash.c ****   * @brief  Programs a half word at a specified address.
 853:../libraries/STM32F10x_StdPeriph_Driver/src/stm32f10x_flash.c ****   * @note   This function can be used for all STM32F10x devices.
 854:../libraries/STM32F10x_StdPeriph_Driver/src/stm32f10x_flash.c ****   * @param  Address: specifies the address to be programmed.
 855:../libraries/STM32F10x_StdPeriph_Driver/src/stm32f10x_flash.c ****   * @param  Data: specifies the data to be programmed.
 856:../libraries/STM32F10x_StdPeriph_Driver/src/stm32f10x_flash.c ****   * @retval FLASH Status: The returned value can be: FLASH_ERROR_PG,
 857:../libraries/STM32F10x_StdPeriph_Driver/src/stm32f10x_flash.c ****   *         FLASH_ERROR_WRP, FLASH_COMPLETE or FLASH_TIMEOUT. 
 858:../libraries/STM32F10x_StdPeriph_Driver/src/stm32f10x_flash.c ****   */
 859:../libraries/STM32F10x_StdPeriph_Driver/src/stm32f10x_flash.c **** FLASH_Status FLASH_ProgramHalfWord(uint32_t Address, uint16_t Data)
 860:../libraries/STM32F10x_StdPeriph_Driver/src/stm32f10x_flash.c **** {
 819              		.loc 1 860 0
 820              		.cfi_startproc
 821              		@ args = 0, pretend = 0, frame = 16
 822              		@ frame_needed = 1, uses_anonymous_args = 0
 823 0000 80B5     		push	{r7, lr}
 824              	.LCFI32:
 825              		.cfi_def_cfa_offset 8
 826              		.cfi_offset 7, -8
 827              		.cfi_offset 14, -4
 828 0002 84B0     		sub	sp, sp, #16
 829              	.LCFI33:
 830              		.cfi_def_cfa_offset 24
 831 0004 00AF     		add	r7, sp, #0
 832              	.LCFI34:
 833              		.cfi_def_cfa_register 7
 834 0006 7860     		str	r0, [r7, #4]
 835 0008 0B46     		mov	r3, r1
 836 000a 7B80     		strh	r3, [r7, #2]	@ movhi
 861:../libraries/STM32F10x_StdPeriph_Driver/src/stm32f10x_flash.c ****   FLASH_Status status = FLASH_COMPLETE;
 837              		.loc 1 861 0
 838 000c 4FF00403 		mov	r3, #4
 839 0010 FB73     		strb	r3, [r7, #15]
 862:../libraries/STM32F10x_StdPeriph_Driver/src/stm32f10x_flash.c ****   /* Check the parameters */
 863:../libraries/STM32F10x_StdPeriph_Driver/src/stm32f10x_flash.c ****   assert_param(IS_FLASH_ADDRESS(Address));
 864:../libraries/STM32F10x_StdPeriph_Driver/src/stm32f10x_flash.c **** 
 865:../libraries/STM32F10x_StdPeriph_Driver/src/stm32f10x_flash.c **** #ifdef STM32F10X_XL
 866:../libraries/STM32F10x_StdPeriph_Driver/src/stm32f10x_flash.c ****   /* Wait for last operation to be completed */
 867:../libraries/STM32F10x_StdPeriph_Driver/src/stm32f10x_flash.c ****   status = FLASH_WaitForLastOperation(ProgramTimeout);
 868:../libraries/STM32F10x_StdPeriph_Driver/src/stm32f10x_flash.c ****   
 869:../libraries/STM32F10x_StdPeriph_Driver/src/stm32f10x_flash.c ****   if(Address < FLASH_BANK1_END_ADDRESS)
 870:../libraries/STM32F10x_StdPeriph_Driver/src/stm32f10x_flash.c ****   {
 871:../libraries/STM32F10x_StdPeriph_Driver/src/stm32f10x_flash.c ****     if(status == FLASH_COMPLETE)
 872:../libraries/STM32F10x_StdPeriph_Driver/src/stm32f10x_flash.c ****     {
 873:../libraries/STM32F10x_StdPeriph_Driver/src/stm32f10x_flash.c ****       /* if the previous operation is completed, proceed to program the new data */
 874:../libraries/STM32F10x_StdPeriph_Driver/src/stm32f10x_flash.c ****       FLASH->CR |= CR_PG_Set;
 875:../libraries/STM32F10x_StdPeriph_Driver/src/stm32f10x_flash.c ****   
 876:../libraries/STM32F10x_StdPeriph_Driver/src/stm32f10x_flash.c ****       *(__IO uint16_t*)Address = Data;
 877:../libraries/STM32F10x_StdPeriph_Driver/src/stm32f10x_flash.c ****       /* Wait for last operation to be completed */
 878:../libraries/STM32F10x_StdPeriph_Driver/src/stm32f10x_flash.c ****       status = FLASH_WaitForLastBank1Operation(ProgramTimeout);
 879:../libraries/STM32F10x_StdPeriph_Driver/src/stm32f10x_flash.c **** 
 880:../libraries/STM32F10x_StdPeriph_Driver/src/stm32f10x_flash.c ****       /* Disable the PG Bit */
 881:../libraries/STM32F10x_StdPeriph_Driver/src/stm32f10x_flash.c ****       FLASH->CR &= CR_PG_Reset;
 882:../libraries/STM32F10x_StdPeriph_Driver/src/stm32f10x_flash.c ****     }
 883:../libraries/STM32F10x_StdPeriph_Driver/src/stm32f10x_flash.c ****   }
 884:../libraries/STM32F10x_StdPeriph_Driver/src/stm32f10x_flash.c ****   else
 885:../libraries/STM32F10x_StdPeriph_Driver/src/stm32f10x_flash.c ****   {
 886:../libraries/STM32F10x_StdPeriph_Driver/src/stm32f10x_flash.c ****     if(status == FLASH_COMPLETE)
 887:../libraries/STM32F10x_StdPeriph_Driver/src/stm32f10x_flash.c ****     {
 888:../libraries/STM32F10x_StdPeriph_Driver/src/stm32f10x_flash.c ****       /* if the previous operation is completed, proceed to program the new data */
 889:../libraries/STM32F10x_StdPeriph_Driver/src/stm32f10x_flash.c ****       FLASH->CR2 |= CR_PG_Set;
 890:../libraries/STM32F10x_StdPeriph_Driver/src/stm32f10x_flash.c ****   
 891:../libraries/STM32F10x_StdPeriph_Driver/src/stm32f10x_flash.c ****       *(__IO uint16_t*)Address = Data;
 892:../libraries/STM32F10x_StdPeriph_Driver/src/stm32f10x_flash.c ****       /* Wait for last operation to be completed */
 893:../libraries/STM32F10x_StdPeriph_Driver/src/stm32f10x_flash.c ****       status = FLASH_WaitForLastBank2Operation(ProgramTimeout);
 894:../libraries/STM32F10x_StdPeriph_Driver/src/stm32f10x_flash.c **** 
 895:../libraries/STM32F10x_StdPeriph_Driver/src/stm32f10x_flash.c ****       /* Disable the PG Bit */
 896:../libraries/STM32F10x_StdPeriph_Driver/src/stm32f10x_flash.c ****       FLASH->CR2 &= CR_PG_Reset;
 897:../libraries/STM32F10x_StdPeriph_Driver/src/stm32f10x_flash.c ****     }
 898:../libraries/STM32F10x_StdPeriph_Driver/src/stm32f10x_flash.c ****   }
 899:../libraries/STM32F10x_StdPeriph_Driver/src/stm32f10x_flash.c **** #else
 900:../libraries/STM32F10x_StdPeriph_Driver/src/stm32f10x_flash.c ****   /* Wait for last operation to be completed */
 901:../libraries/STM32F10x_StdPeriph_Driver/src/stm32f10x_flash.c ****   status = FLASH_WaitForLastOperation(ProgramTimeout);
 840              		.loc 1 901 0
 841 0012 4FF40050 		mov	r0, #8192
 842 0016 FFF7FEFF 		bl	FLASH_WaitForLastOperation
 843 001a 0346     		mov	r3, r0
 844 001c FB73     		strb	r3, [r7, #15]
 902:../libraries/STM32F10x_StdPeriph_Driver/src/stm32f10x_flash.c ****   
 903:../libraries/STM32F10x_StdPeriph_Driver/src/stm32f10x_flash.c ****   if(status == FLASH_COMPLETE)
 845              		.loc 1 903 0
 846 001e FB7B     		ldrb	r3, [r7, #15]	@ zero_extendqisi2
 847 0020 042B     		cmp	r3, #4
 848 0022 21D1     		bne	.L27
 904:../libraries/STM32F10x_StdPeriph_Driver/src/stm32f10x_flash.c ****   {
 905:../libraries/STM32F10x_StdPeriph_Driver/src/stm32f10x_flash.c ****     /* if the previous operation is completed, proceed to program the new data */
 906:../libraries/STM32F10x_StdPeriph_Driver/src/stm32f10x_flash.c ****     FLASH->CR |= CR_PG_Set;
 849              		.loc 1 906 0
 850 0024 4FF40053 		mov	r3, #8192
 851 0028 C4F20203 		movt	r3, 16386
 852 002c 4FF40052 		mov	r2, #8192
 853 0030 C4F20202 		movt	r2, 16386
 854 0034 1269     		ldr	r2, [r2, #16]
 855 0036 42F00102 		orr	r2, r2, #1
 856 003a 1A61     		str	r2, [r3, #16]
 907:../libraries/STM32F10x_StdPeriph_Driver/src/stm32f10x_flash.c ****   
 908:../libraries/STM32F10x_StdPeriph_Driver/src/stm32f10x_flash.c ****     *(__IO uint16_t*)Address = Data;
 857              		.loc 1 908 0
 858 003c 7B68     		ldr	r3, [r7, #4]
 859 003e 7A88     		ldrh	r2, [r7, #2]	@ movhi
 860 0040 1A80     		strh	r2, [r3, #0]	@ movhi
 909:../libraries/STM32F10x_StdPeriph_Driver/src/stm32f10x_flash.c ****     /* Wait for last operation to be completed */
 910:../libraries/STM32F10x_StdPeriph_Driver/src/stm32f10x_flash.c ****     status = FLASH_WaitForLastOperation(ProgramTimeout);
 861              		.loc 1 910 0
 862 0042 4FF40050 		mov	r0, #8192
 863 0046 FFF7FEFF 		bl	FLASH_WaitForLastOperation
 864 004a 0346     		mov	r3, r0
 865 004c FB73     		strb	r3, [r7, #15]
 911:../libraries/STM32F10x_StdPeriph_Driver/src/stm32f10x_flash.c ****     
 912:../libraries/STM32F10x_StdPeriph_Driver/src/stm32f10x_flash.c ****     /* Disable the PG Bit */
 913:../libraries/STM32F10x_StdPeriph_Driver/src/stm32f10x_flash.c ****     FLASH->CR &= CR_PG_Reset;
 866              		.loc 1 913 0
 867 004e 4FF40053 		mov	r3, #8192
 868 0052 C4F20203 		movt	r3, 16386
 869 0056 4FF40052 		mov	r2, #8192
 870 005a C4F20202 		movt	r2, 16386
 871 005e 1169     		ldr	r1, [r2, #16]
 872 0060 41F6FE72 		movw	r2, #8190
 873 0064 0A40     		ands	r2, r2, r1
 874 0066 1A61     		str	r2, [r3, #16]
 875              	.L27:
 914:../libraries/STM32F10x_StdPeriph_Driver/src/stm32f10x_flash.c ****   } 
 915:../libraries/STM32F10x_StdPeriph_Driver/src/stm32f10x_flash.c **** #endif  /* STM32F10X_XL */
 916:../libraries/STM32F10x_StdPeriph_Driver/src/stm32f10x_flash.c ****   
 917:../libraries/STM32F10x_StdPeriph_Driver/src/stm32f10x_flash.c ****   /* Return the Program Status */
 918:../libraries/STM32F10x_StdPeriph_Driver/src/stm32f10x_flash.c ****   return status;
 876              		.loc 1 918 0
 877 0068 FB7B     		ldrb	r3, [r7, #15]	@ zero_extendqisi2
 919:../libraries/STM32F10x_StdPeriph_Driver/src/stm32f10x_flash.c **** }
 878              		.loc 1 919 0
 879 006a 1846     		mov	r0, r3
 880 006c 07F11007 		add	r7, r7, #16
 881 0070 BD46     		mov	sp, r7
 882 0072 80BD     		pop	{r7, pc}
 883              		.cfi_endproc
 884              	.LFE68:
 886              		.section	.text.FLASH_ProgramOptionByteData,"ax",%progbits
 887              		.align	2
 888              		.global	FLASH_ProgramOptionByteData
 889              		.thumb
 890              		.thumb_func
 892              	FLASH_ProgramOptionByteData:
 893              	.LFB69:
 920:../libraries/STM32F10x_StdPeriph_Driver/src/stm32f10x_flash.c **** 
 921:../libraries/STM32F10x_StdPeriph_Driver/src/stm32f10x_flash.c **** /**
 922:../libraries/STM32F10x_StdPeriph_Driver/src/stm32f10x_flash.c ****   * @brief  Programs a half word at a specified Option Byte Data address.
 923:../libraries/STM32F10x_StdPeriph_Driver/src/stm32f10x_flash.c ****   * @note   This function can be used for all STM32F10x devices.
 924:../libraries/STM32F10x_StdPeriph_Driver/src/stm32f10x_flash.c ****   * @param  Address: specifies the address to be programmed.
 925:../libraries/STM32F10x_StdPeriph_Driver/src/stm32f10x_flash.c ****   *   This parameter can be 0x1FFFF804 or 0x1FFFF806. 
 926:../libraries/STM32F10x_StdPeriph_Driver/src/stm32f10x_flash.c ****   * @param  Data: specifies the data to be programmed.
 927:../libraries/STM32F10x_StdPeriph_Driver/src/stm32f10x_flash.c ****   * @retval FLASH Status: The returned value can be: FLASH_ERROR_PG,
 928:../libraries/STM32F10x_StdPeriph_Driver/src/stm32f10x_flash.c ****   *         FLASH_ERROR_WRP, FLASH_COMPLETE or FLASH_TIMEOUT. 
 929:../libraries/STM32F10x_StdPeriph_Driver/src/stm32f10x_flash.c ****   */
 930:../libraries/STM32F10x_StdPeriph_Driver/src/stm32f10x_flash.c **** FLASH_Status FLASH_ProgramOptionByteData(uint32_t Address, uint8_t Data)
 931:../libraries/STM32F10x_StdPeriph_Driver/src/stm32f10x_flash.c **** {
 894              		.loc 1 931 0
 895              		.cfi_startproc
 896              		@ args = 0, pretend = 0, frame = 16
 897              		@ frame_needed = 1, uses_anonymous_args = 0
 898 0000 80B5     		push	{r7, lr}
 899              	.LCFI35:
 900              		.cfi_def_cfa_offset 8
 901              		.cfi_offset 7, -8
 902              		.cfi_offset 14, -4
 903 0002 84B0     		sub	sp, sp, #16
 904              	.LCFI36:
 905              		.cfi_def_cfa_offset 24
 906 0004 00AF     		add	r7, sp, #0
 907              	.LCFI37:
 908              		.cfi_def_cfa_register 7
 909 0006 7860     		str	r0, [r7, #4]
 910 0008 0B46     		mov	r3, r1
 911 000a FB70     		strb	r3, [r7, #3]
 932:../libraries/STM32F10x_StdPeriph_Driver/src/stm32f10x_flash.c ****   FLASH_Status status = FLASH_COMPLETE;
 912              		.loc 1 932 0
 913 000c 4FF00403 		mov	r3, #4
 914 0010 FB73     		strb	r3, [r7, #15]
 933:../libraries/STM32F10x_StdPeriph_Driver/src/stm32f10x_flash.c ****   /* Check the parameters */
 934:../libraries/STM32F10x_StdPeriph_Driver/src/stm32f10x_flash.c ****   assert_param(IS_OB_DATA_ADDRESS(Address));
 935:../libraries/STM32F10x_StdPeriph_Driver/src/stm32f10x_flash.c ****   status = FLASH_WaitForLastOperation(ProgramTimeout);
 915              		.loc 1 935 0
 916 0012 4FF40050 		mov	r0, #8192
 917 0016 FFF7FEFF 		bl	FLASH_WaitForLastOperation
 918 001a 0346     		mov	r3, r0
 919 001c FB73     		strb	r3, [r7, #15]
 936:../libraries/STM32F10x_StdPeriph_Driver/src/stm32f10x_flash.c **** 
 937:../libraries/STM32F10x_StdPeriph_Driver/src/stm32f10x_flash.c ****   if(status == FLASH_COMPLETE)
 920              		.loc 1 937 0
 921 001e FB7B     		ldrb	r3, [r7, #15]	@ zero_extendqisi2
 922 0020 042B     		cmp	r3, #4
 923 0022 37D1     		bne	.L30
 938:../libraries/STM32F10x_StdPeriph_Driver/src/stm32f10x_flash.c ****   {
 939:../libraries/STM32F10x_StdPeriph_Driver/src/stm32f10x_flash.c ****     /* Authorize the small information block programming */
 940:../libraries/STM32F10x_StdPeriph_Driver/src/stm32f10x_flash.c ****     FLASH->OPTKEYR = FLASH_KEY1;
 924              		.loc 1 940 0
 925 0024 4FF40053 		mov	r3, #8192
 926 0028 C4F20203 		movt	r3, 16386
 927 002c 40F22312 		movw	r2, #291
 928 0030 C4F26752 		movt	r2, 17767
 929 0034 9A60     		str	r2, [r3, #8]
 941:../libraries/STM32F10x_StdPeriph_Driver/src/stm32f10x_flash.c ****     FLASH->OPTKEYR = FLASH_KEY2;
 930              		.loc 1 941 0
 931 0036 4FF40053 		mov	r3, #8192
 932 003a C4F20203 		movt	r3, 16386
 933 003e 48F6AB12 		movw	r2, #35243
 934 0042 CCF6EF52 		movt	r2, 52719
 935 0046 9A60     		str	r2, [r3, #8]
 942:../libraries/STM32F10x_StdPeriph_Driver/src/stm32f10x_flash.c ****     /* Enables the Option Bytes Programming operation */
 943:../libraries/STM32F10x_StdPeriph_Driver/src/stm32f10x_flash.c ****     FLASH->CR |= CR_OPTPG_Set; 
 936              		.loc 1 943 0
 937 0048 4FF40053 		mov	r3, #8192
 938 004c C4F20203 		movt	r3, 16386
 939 0050 4FF40052 		mov	r2, #8192
 940 0054 C4F20202 		movt	r2, 16386
 941 0058 1269     		ldr	r2, [r2, #16]
 942 005a 42F01002 		orr	r2, r2, #16
 943 005e 1A61     		str	r2, [r3, #16]
 944:../libraries/STM32F10x_StdPeriph_Driver/src/stm32f10x_flash.c ****     *(__IO uint16_t*)Address = Data;
 944              		.loc 1 944 0
 945 0060 7B68     		ldr	r3, [r7, #4]
 946 0062 FA78     		ldrb	r2, [r7, #3]	@ zero_extendqisi2
 947 0064 92B2     		uxth	r2, r2
 948 0066 1A80     		strh	r2, [r3, #0]	@ movhi
 945:../libraries/STM32F10x_StdPeriph_Driver/src/stm32f10x_flash.c ****     
 946:../libraries/STM32F10x_StdPeriph_Driver/src/stm32f10x_flash.c ****     /* Wait for last operation to be completed */
 947:../libraries/STM32F10x_StdPeriph_Driver/src/stm32f10x_flash.c ****     status = FLASH_WaitForLastOperation(ProgramTimeout);
 949              		.loc 1 947 0
 950 0068 4FF40050 		mov	r0, #8192
 951 006c FFF7FEFF 		bl	FLASH_WaitForLastOperation
 952 0070 0346     		mov	r3, r0
 953 0072 FB73     		strb	r3, [r7, #15]
 948:../libraries/STM32F10x_StdPeriph_Driver/src/stm32f10x_flash.c ****     if(status != FLASH_TIMEOUT)
 954              		.loc 1 948 0
 955 0074 FB7B     		ldrb	r3, [r7, #15]	@ zero_extendqisi2
 956 0076 052B     		cmp	r3, #5
 957 0078 0CD0     		beq	.L30
 949:../libraries/STM32F10x_StdPeriph_Driver/src/stm32f10x_flash.c ****     {
 950:../libraries/STM32F10x_StdPeriph_Driver/src/stm32f10x_flash.c ****       /* if the program operation is completed, disable the OPTPG Bit */
 951:../libraries/STM32F10x_StdPeriph_Driver/src/stm32f10x_flash.c ****       FLASH->CR &= CR_OPTPG_Reset;
 958              		.loc 1 951 0
 959 007a 4FF40053 		mov	r3, #8192
 960 007e C4F20203 		movt	r3, 16386
 961 0082 4FF40052 		mov	r2, #8192
 962 0086 C4F20202 		movt	r2, 16386
 963 008a 1169     		ldr	r1, [r2, #16]
 964 008c 41F6EF72 		movw	r2, #8175
 965 0090 0A40     		ands	r2, r2, r1
 966 0092 1A61     		str	r2, [r3, #16]
 967              	.L30:
 952:../libraries/STM32F10x_StdPeriph_Driver/src/stm32f10x_flash.c ****     }
 953:../libraries/STM32F10x_StdPeriph_Driver/src/stm32f10x_flash.c ****   }
 954:../libraries/STM32F10x_StdPeriph_Driver/src/stm32f10x_flash.c ****   /* Return the Option Byte Data Program Status */
 955:../libraries/STM32F10x_StdPeriph_Driver/src/stm32f10x_flash.c ****   return status;
 968              		.loc 1 955 0
 969 0094 FB7B     		ldrb	r3, [r7, #15]	@ zero_extendqisi2
 956:../libraries/STM32F10x_StdPeriph_Driver/src/stm32f10x_flash.c **** }
 970              		.loc 1 956 0
 971 0096 1846     		mov	r0, r3
 972 0098 07F11007 		add	r7, r7, #16
 973 009c BD46     		mov	sp, r7
 974 009e 80BD     		pop	{r7, pc}
 975              		.cfi_endproc
 976              	.LFE69:
 978              		.section	.text.FLASH_EnableWriteProtection,"ax",%progbits
 979              		.align	2
 980              		.global	FLASH_EnableWriteProtection
 981              		.thumb
 982              		.thumb_func
 984              	FLASH_EnableWriteProtection:
 985              	.LFB70:
 957:../libraries/STM32F10x_StdPeriph_Driver/src/stm32f10x_flash.c **** 
 958:../libraries/STM32F10x_StdPeriph_Driver/src/stm32f10x_flash.c **** /**
 959:../libraries/STM32F10x_StdPeriph_Driver/src/stm32f10x_flash.c ****   * @brief  Write protects the desired pages
 960:../libraries/STM32F10x_StdPeriph_Driver/src/stm32f10x_flash.c ****   * @note   This function can be used for all STM32F10x devices.
 961:../libraries/STM32F10x_StdPeriph_Driver/src/stm32f10x_flash.c ****   * @param  FLASH_Pages: specifies the address of the pages to be write protected.
 962:../libraries/STM32F10x_StdPeriph_Driver/src/stm32f10x_flash.c ****   *   This parameter can be:
 963:../libraries/STM32F10x_StdPeriph_Driver/src/stm32f10x_flash.c ****   *     @arg For @b STM32_Low-density_devices: value between FLASH_WRProt_Pages0to3 and FLASH_WRPro
 964:../libraries/STM32F10x_StdPeriph_Driver/src/stm32f10x_flash.c ****   *     @arg For @b STM32_Medium-density_devices: value between FLASH_WRProt_Pages0to3
 965:../libraries/STM32F10x_StdPeriph_Driver/src/stm32f10x_flash.c ****   *       and FLASH_WRProt_Pages124to127
 966:../libraries/STM32F10x_StdPeriph_Driver/src/stm32f10x_flash.c ****   *     @arg For @b STM32_High-density_devices: value between FLASH_WRProt_Pages0to1 and
 967:../libraries/STM32F10x_StdPeriph_Driver/src/stm32f10x_flash.c ****   *       FLASH_WRProt_Pages60to61 or FLASH_WRProt_Pages62to255
 968:../libraries/STM32F10x_StdPeriph_Driver/src/stm32f10x_flash.c ****   *     @arg For @b STM32_Connectivity_line_devices: value between FLASH_WRProt_Pages0to1 and
 969:../libraries/STM32F10x_StdPeriph_Driver/src/stm32f10x_flash.c ****   *       FLASH_WRProt_Pages60to61 or FLASH_WRProt_Pages62to127    
 970:../libraries/STM32F10x_StdPeriph_Driver/src/stm32f10x_flash.c ****   *     @arg For @b STM32_XL-density_devices: value between FLASH_WRProt_Pages0to1 and
 971:../libraries/STM32F10x_StdPeriph_Driver/src/stm32f10x_flash.c ****   *       FLASH_WRProt_Pages60to61 or FLASH_WRProt_Pages62to511
 972:../libraries/STM32F10x_StdPeriph_Driver/src/stm32f10x_flash.c ****   *     @arg FLASH_WRProt_AllPages
 973:../libraries/STM32F10x_StdPeriph_Driver/src/stm32f10x_flash.c ****   * @retval FLASH Status: The returned value can be: FLASH_ERROR_PG,
 974:../libraries/STM32F10x_StdPeriph_Driver/src/stm32f10x_flash.c ****   *         FLASH_ERROR_WRP, FLASH_COMPLETE or FLASH_TIMEOUT.
 975:../libraries/STM32F10x_StdPeriph_Driver/src/stm32f10x_flash.c ****   */
 976:../libraries/STM32F10x_StdPeriph_Driver/src/stm32f10x_flash.c **** FLASH_Status FLASH_EnableWriteProtection(uint32_t FLASH_Pages)
 977:../libraries/STM32F10x_StdPeriph_Driver/src/stm32f10x_flash.c **** {
 986              		.loc 1 977 0
 987              		.cfi_startproc
 988              		@ args = 0, pretend = 0, frame = 24
 989              		@ frame_needed = 1, uses_anonymous_args = 0
 990 0000 80B5     		push	{r7, lr}
 991              	.LCFI38:
 992              		.cfi_def_cfa_offset 8
 993              		.cfi_offset 7, -8
 994              		.cfi_offset 14, -4
 995 0002 86B0     		sub	sp, sp, #24
 996              	.LCFI39:
 997              		.cfi_def_cfa_offset 32
 998 0004 00AF     		add	r7, sp, #0
 999              	.LCFI40:
 1000              		.cfi_def_cfa_register 7
 1001 0006 7860     		str	r0, [r7, #4]
 978:../libraries/STM32F10x_StdPeriph_Driver/src/stm32f10x_flash.c ****   uint16_t WRP0_Data = 0xFFFF, WRP1_Data = 0xFFFF, WRP2_Data = 0xFFFF, WRP3_Data = 0xFFFF;
 1002              		.loc 1 978 0
 1003 0008 4FF6FF73 		movw	r3, #65535
 1004 000c BB82     		strh	r3, [r7, #20]	@ movhi
 1005 000e 4FF6FF73 		movw	r3, #65535
 1006 0012 7B82     		strh	r3, [r7, #18]	@ movhi
 1007 0014 4FF6FF73 		movw	r3, #65535
 1008 0018 3B82     		strh	r3, [r7, #16]	@ movhi
 1009 001a 4FF6FF73 		movw	r3, #65535
 1010 001e FB81     		strh	r3, [r7, #14]	@ movhi
 979:../libraries/STM32F10x_StdPeriph_Driver/src/stm32f10x_flash.c ****   
 980:../libraries/STM32F10x_StdPeriph_Driver/src/stm32f10x_flash.c ****   FLASH_Status status = FLASH_COMPLETE;
 1011              		.loc 1 980 0
 1012 0020 4FF00403 		mov	r3, #4
 1013 0024 FB75     		strb	r3, [r7, #23]
 981:../libraries/STM32F10x_StdPeriph_Driver/src/stm32f10x_flash.c ****   
 982:../libraries/STM32F10x_StdPeriph_Driver/src/stm32f10x_flash.c ****   /* Check the parameters */
 983:../libraries/STM32F10x_StdPeriph_Driver/src/stm32f10x_flash.c ****   assert_param(IS_FLASH_WRPROT_PAGE(FLASH_Pages));
 984:../libraries/STM32F10x_StdPeriph_Driver/src/stm32f10x_flash.c ****   
 985:../libraries/STM32F10x_StdPeriph_Driver/src/stm32f10x_flash.c ****   FLASH_Pages = (uint32_t)(~FLASH_Pages);
 1014              		.loc 1 985 0
 1015 0026 7B68     		ldr	r3, [r7, #4]
 1016 0028 6FEA0303 		mvn	r3, r3
 1017 002c 7B60     		str	r3, [r7, #4]
 986:../libraries/STM32F10x_StdPeriph_Driver/src/stm32f10x_flash.c ****   WRP0_Data = (uint16_t)(FLASH_Pages & WRP0_Mask);
 1018              		.loc 1 986 0
 1019 002e 7B68     		ldr	r3, [r7, #4]
 1020 0030 9BB2     		uxth	r3, r3
 1021 0032 DBB2     		uxtb	r3, r3
 1022 0034 BB82     		strh	r3, [r7, #20]	@ movhi
 987:../libraries/STM32F10x_StdPeriph_Driver/src/stm32f10x_flash.c ****   WRP1_Data = (uint16_t)((FLASH_Pages & WRP1_Mask) >> 8);
 1023              		.loc 1 987 0
 1024 0036 7B68     		ldr	r3, [r7, #4]
 1025 0038 03F47F43 		and	r3, r3, #65280
 1026 003c 4FEA1323 		lsr	r3, r3, #8
 1027 0040 7B82     		strh	r3, [r7, #18]	@ movhi
 988:../libraries/STM32F10x_StdPeriph_Driver/src/stm32f10x_flash.c ****   WRP2_Data = (uint16_t)((FLASH_Pages & WRP2_Mask) >> 16);
 1028              		.loc 1 988 0
 1029 0042 7B68     		ldr	r3, [r7, #4]
 1030 0044 03F47F03 		and	r3, r3, #16711680
 1031 0048 4FEA1343 		lsr	r3, r3, #16
 1032 004c 3B82     		strh	r3, [r7, #16]	@ movhi
 989:../libraries/STM32F10x_StdPeriph_Driver/src/stm32f10x_flash.c ****   WRP3_Data = (uint16_t)((FLASH_Pages & WRP3_Mask) >> 24);
 1033              		.loc 1 989 0
 1034 004e 7B68     		ldr	r3, [r7, #4]
 1035 0050 4FEA1363 		lsr	r3, r3, #24
 1036 0054 FB81     		strh	r3, [r7, #14]	@ movhi
 990:../libraries/STM32F10x_StdPeriph_Driver/src/stm32f10x_flash.c ****   
 991:../libraries/STM32F10x_StdPeriph_Driver/src/stm32f10x_flash.c ****   /* Wait for last operation to be completed */
 992:../libraries/STM32F10x_StdPeriph_Driver/src/stm32f10x_flash.c ****   status = FLASH_WaitForLastOperation(ProgramTimeout);
 1037              		.loc 1 992 0
 1038 0056 4FF40050 		mov	r0, #8192
 1039 005a FFF7FEFF 		bl	FLASH_WaitForLastOperation
 1040 005e 0346     		mov	r3, r0
 1041 0060 FB75     		strb	r3, [r7, #23]
 993:../libraries/STM32F10x_StdPeriph_Driver/src/stm32f10x_flash.c ****   
 994:../libraries/STM32F10x_StdPeriph_Driver/src/stm32f10x_flash.c ****   if(status == FLASH_COMPLETE)
 1042              		.loc 1 994 0
 1043 0062 FB7D     		ldrb	r3, [r7, #23]	@ zero_extendqisi2
 1044 0064 042B     		cmp	r3, #4
 1045 0066 72D1     		bne	.L33
 995:../libraries/STM32F10x_StdPeriph_Driver/src/stm32f10x_flash.c ****   {
 996:../libraries/STM32F10x_StdPeriph_Driver/src/stm32f10x_flash.c ****     /* Authorizes the small information block programming */
 997:../libraries/STM32F10x_StdPeriph_Driver/src/stm32f10x_flash.c ****     FLASH->OPTKEYR = FLASH_KEY1;
 1046              		.loc 1 997 0
 1047 0068 4FF40053 		mov	r3, #8192
 1048 006c C4F20203 		movt	r3, 16386
 1049 0070 40F22312 		movw	r2, #291
 1050 0074 C4F26752 		movt	r2, 17767
 1051 0078 9A60     		str	r2, [r3, #8]
 998:../libraries/STM32F10x_StdPeriph_Driver/src/stm32f10x_flash.c ****     FLASH->OPTKEYR = FLASH_KEY2;
 1052              		.loc 1 998 0
 1053 007a 4FF40053 		mov	r3, #8192
 1054 007e C4F20203 		movt	r3, 16386
 1055 0082 48F6AB12 		movw	r2, #35243
 1056 0086 CCF6EF52 		movt	r2, 52719
 1057 008a 9A60     		str	r2, [r3, #8]
 999:../libraries/STM32F10x_StdPeriph_Driver/src/stm32f10x_flash.c ****     FLASH->CR |= CR_OPTPG_Set;
 1058              		.loc 1 999 0
 1059 008c 4FF40053 		mov	r3, #8192
 1060 0090 C4F20203 		movt	r3, 16386
 1061 0094 4FF40052 		mov	r2, #8192
 1062 0098 C4F20202 		movt	r2, 16386
 1063 009c 1269     		ldr	r2, [r2, #16]
 1064 009e 42F01002 		orr	r2, r2, #16
 1065 00a2 1A61     		str	r2, [r3, #16]
1000:../libraries/STM32F10x_StdPeriph_Driver/src/stm32f10x_flash.c ****     if(WRP0_Data != 0xFF)
 1066              		.loc 1 1000 0
 1067 00a4 BB8A     		ldrh	r3, [r7, #20]
 1068 00a6 FF2B     		cmp	r3, #255
 1069 00a8 0BD0     		beq	.L34
1001:../libraries/STM32F10x_StdPeriph_Driver/src/stm32f10x_flash.c ****     {
1002:../libraries/STM32F10x_StdPeriph_Driver/src/stm32f10x_flash.c ****       OB->WRP0 = WRP0_Data;
 1070              		.loc 1 1002 0
 1071 00aa 4FF47843 		mov	r3, #63488
 1072 00ae C1F6FF73 		movt	r3, 8191
 1073 00b2 BA8A     		ldrh	r2, [r7, #20]	@ movhi
 1074 00b4 1A81     		strh	r2, [r3, #8]	@ movhi
1003:../libraries/STM32F10x_StdPeriph_Driver/src/stm32f10x_flash.c ****       
1004:../libraries/STM32F10x_StdPeriph_Driver/src/stm32f10x_flash.c ****       /* Wait for last operation to be completed */
1005:../libraries/STM32F10x_StdPeriph_Driver/src/stm32f10x_flash.c ****       status = FLASH_WaitForLastOperation(ProgramTimeout);
 1075              		.loc 1 1005 0
 1076 00b6 4FF40050 		mov	r0, #8192
 1077 00ba FFF7FEFF 		bl	FLASH_WaitForLastOperation
 1078 00be 0346     		mov	r3, r0
 1079 00c0 FB75     		strb	r3, [r7, #23]
 1080              	.L34:
1006:../libraries/STM32F10x_StdPeriph_Driver/src/stm32f10x_flash.c ****     }
1007:../libraries/STM32F10x_StdPeriph_Driver/src/stm32f10x_flash.c ****     if((status == FLASH_COMPLETE) && (WRP1_Data != 0xFF))
 1081              		.loc 1 1007 0
 1082 00c2 FB7D     		ldrb	r3, [r7, #23]	@ zero_extendqisi2
 1083 00c4 042B     		cmp	r3, #4
 1084 00c6 0ED1     		bne	.L35
 1085              		.loc 1 1007 0 is_stmt 0 discriminator 1
 1086 00c8 7B8A     		ldrh	r3, [r7, #18]
 1087 00ca FF2B     		cmp	r3, #255
 1088 00cc 0BD0     		beq	.L35
1008:../libraries/STM32F10x_StdPeriph_Driver/src/stm32f10x_flash.c ****     {
1009:../libraries/STM32F10x_StdPeriph_Driver/src/stm32f10x_flash.c ****       OB->WRP1 = WRP1_Data;
 1089              		.loc 1 1009 0 is_stmt 1
 1090 00ce 4FF47843 		mov	r3, #63488
 1091 00d2 C1F6FF73 		movt	r3, 8191
 1092 00d6 7A8A     		ldrh	r2, [r7, #18]	@ movhi
 1093 00d8 5A81     		strh	r2, [r3, #10]	@ movhi
1010:../libraries/STM32F10x_StdPeriph_Driver/src/stm32f10x_flash.c ****       
1011:../libraries/STM32F10x_StdPeriph_Driver/src/stm32f10x_flash.c ****       /* Wait for last operation to be completed */
1012:../libraries/STM32F10x_StdPeriph_Driver/src/stm32f10x_flash.c ****       status = FLASH_WaitForLastOperation(ProgramTimeout);
 1094              		.loc 1 1012 0
 1095 00da 4FF40050 		mov	r0, #8192
 1096 00de FFF7FEFF 		bl	FLASH_WaitForLastOperation
 1097 00e2 0346     		mov	r3, r0
 1098 00e4 FB75     		strb	r3, [r7, #23]
 1099              	.L35:
1013:../libraries/STM32F10x_StdPeriph_Driver/src/stm32f10x_flash.c ****     }
1014:../libraries/STM32F10x_StdPeriph_Driver/src/stm32f10x_flash.c ****     if((status == FLASH_COMPLETE) && (WRP2_Data != 0xFF))
 1100              		.loc 1 1014 0
 1101 00e6 FB7D     		ldrb	r3, [r7, #23]	@ zero_extendqisi2
 1102 00e8 042B     		cmp	r3, #4
 1103 00ea 0ED1     		bne	.L36
 1104              		.loc 1 1014 0 is_stmt 0 discriminator 1
 1105 00ec 3B8A     		ldrh	r3, [r7, #16]
 1106 00ee FF2B     		cmp	r3, #255
 1107 00f0 0BD0     		beq	.L36
1015:../libraries/STM32F10x_StdPeriph_Driver/src/stm32f10x_flash.c ****     {
1016:../libraries/STM32F10x_StdPeriph_Driver/src/stm32f10x_flash.c ****       OB->WRP2 = WRP2_Data;
 1108              		.loc 1 1016 0 is_stmt 1
 1109 00f2 4FF47843 		mov	r3, #63488
 1110 00f6 C1F6FF73 		movt	r3, 8191
 1111 00fa 3A8A     		ldrh	r2, [r7, #16]	@ movhi
 1112 00fc 9A81     		strh	r2, [r3, #12]	@ movhi
1017:../libraries/STM32F10x_StdPeriph_Driver/src/stm32f10x_flash.c ****       
1018:../libraries/STM32F10x_StdPeriph_Driver/src/stm32f10x_flash.c ****       /* Wait for last operation to be completed */
1019:../libraries/STM32F10x_StdPeriph_Driver/src/stm32f10x_flash.c ****       status = FLASH_WaitForLastOperation(ProgramTimeout);
 1113              		.loc 1 1019 0
 1114 00fe 4FF40050 		mov	r0, #8192
 1115 0102 FFF7FEFF 		bl	FLASH_WaitForLastOperation
 1116 0106 0346     		mov	r3, r0
 1117 0108 FB75     		strb	r3, [r7, #23]
 1118              	.L36:
1020:../libraries/STM32F10x_StdPeriph_Driver/src/stm32f10x_flash.c ****     }
1021:../libraries/STM32F10x_StdPeriph_Driver/src/stm32f10x_flash.c ****     
1022:../libraries/STM32F10x_StdPeriph_Driver/src/stm32f10x_flash.c ****     if((status == FLASH_COMPLETE)&& (WRP3_Data != 0xFF))
 1119              		.loc 1 1022 0
 1120 010a FB7D     		ldrb	r3, [r7, #23]	@ zero_extendqisi2
 1121 010c 042B     		cmp	r3, #4
 1122 010e 0ED1     		bne	.L37
 1123              		.loc 1 1022 0 is_stmt 0 discriminator 1
 1124 0110 FB89     		ldrh	r3, [r7, #14]
 1125 0112 FF2B     		cmp	r3, #255
 1126 0114 0BD0     		beq	.L37
1023:../libraries/STM32F10x_StdPeriph_Driver/src/stm32f10x_flash.c ****     {
1024:../libraries/STM32F10x_StdPeriph_Driver/src/stm32f10x_flash.c ****       OB->WRP3 = WRP3_Data;
 1127              		.loc 1 1024 0 is_stmt 1
 1128 0116 4FF47843 		mov	r3, #63488
 1129 011a C1F6FF73 		movt	r3, 8191
 1130 011e FA89     		ldrh	r2, [r7, #14]	@ movhi
 1131 0120 DA81     		strh	r2, [r3, #14]	@ movhi
1025:../libraries/STM32F10x_StdPeriph_Driver/src/stm32f10x_flash.c ****      
1026:../libraries/STM32F10x_StdPeriph_Driver/src/stm32f10x_flash.c ****       /* Wait for last operation to be completed */
1027:../libraries/STM32F10x_StdPeriph_Driver/src/stm32f10x_flash.c ****       status = FLASH_WaitForLastOperation(ProgramTimeout);
 1132              		.loc 1 1027 0
 1133 0122 4FF40050 		mov	r0, #8192
 1134 0126 FFF7FEFF 		bl	FLASH_WaitForLastOperation
 1135 012a 0346     		mov	r3, r0
 1136 012c FB75     		strb	r3, [r7, #23]
 1137              	.L37:
1028:../libraries/STM32F10x_StdPeriph_Driver/src/stm32f10x_flash.c ****     }
1029:../libraries/STM32F10x_StdPeriph_Driver/src/stm32f10x_flash.c ****           
1030:../libraries/STM32F10x_StdPeriph_Driver/src/stm32f10x_flash.c ****     if(status != FLASH_TIMEOUT)
 1138              		.loc 1 1030 0
 1139 012e FB7D     		ldrb	r3, [r7, #23]	@ zero_extendqisi2
 1140 0130 052B     		cmp	r3, #5
 1141 0132 0CD0     		beq	.L33
1031:../libraries/STM32F10x_StdPeriph_Driver/src/stm32f10x_flash.c ****     {
1032:../libraries/STM32F10x_StdPeriph_Driver/src/stm32f10x_flash.c ****       /* if the program operation is completed, disable the OPTPG Bit */
1033:../libraries/STM32F10x_StdPeriph_Driver/src/stm32f10x_flash.c ****       FLASH->CR &= CR_OPTPG_Reset;
 1142              		.loc 1 1033 0
 1143 0134 4FF40053 		mov	r3, #8192
 1144 0138 C4F20203 		movt	r3, 16386
 1145 013c 4FF40052 		mov	r2, #8192
 1146 0140 C4F20202 		movt	r2, 16386
 1147 0144 1169     		ldr	r1, [r2, #16]
 1148 0146 41F6EF72 		movw	r2, #8175
 1149 014a 0A40     		ands	r2, r2, r1
 1150 014c 1A61     		str	r2, [r3, #16]
 1151              	.L33:
1034:../libraries/STM32F10x_StdPeriph_Driver/src/stm32f10x_flash.c ****     }
1035:../libraries/STM32F10x_StdPeriph_Driver/src/stm32f10x_flash.c ****   } 
1036:../libraries/STM32F10x_StdPeriph_Driver/src/stm32f10x_flash.c ****   /* Return the write protection operation Status */
1037:../libraries/STM32F10x_StdPeriph_Driver/src/stm32f10x_flash.c ****   return status;       
 1152              		.loc 1 1037 0
 1153 014e FB7D     		ldrb	r3, [r7, #23]	@ zero_extendqisi2
1038:../libraries/STM32F10x_StdPeriph_Driver/src/stm32f10x_flash.c **** }
 1154              		.loc 1 1038 0
 1155 0150 1846     		mov	r0, r3
 1156 0152 07F11807 		add	r7, r7, #24
 1157 0156 BD46     		mov	sp, r7
 1158 0158 80BD     		pop	{r7, pc}
 1159              		.cfi_endproc
 1160              	.LFE70:
 1162 015a 00BF     		.section	.text.FLASH_ReadOutProtection,"ax",%progbits
 1163              		.align	2
 1164              		.global	FLASH_ReadOutProtection
 1165              		.thumb
 1166              		.thumb_func
 1168              	FLASH_ReadOutProtection:
 1169              	.LFB71:
1039:../libraries/STM32F10x_StdPeriph_Driver/src/stm32f10x_flash.c **** 
1040:../libraries/STM32F10x_StdPeriph_Driver/src/stm32f10x_flash.c **** /**
1041:../libraries/STM32F10x_StdPeriph_Driver/src/stm32f10x_flash.c ****   * @brief  Enables or disables the read out protection.
1042:../libraries/STM32F10x_StdPeriph_Driver/src/stm32f10x_flash.c ****   * @note   If the user has already programmed the other option bytes before calling 
1043:../libraries/STM32F10x_StdPeriph_Driver/src/stm32f10x_flash.c ****   *   this function, he must re-program them since this function erases all option bytes.
1044:../libraries/STM32F10x_StdPeriph_Driver/src/stm32f10x_flash.c ****   * @note   This function can be used for all STM32F10x devices.
1045:../libraries/STM32F10x_StdPeriph_Driver/src/stm32f10x_flash.c ****   * @param  Newstate: new state of the ReadOut Protection.
1046:../libraries/STM32F10x_StdPeriph_Driver/src/stm32f10x_flash.c ****   *   This parameter can be: ENABLE or DISABLE.
1047:../libraries/STM32F10x_StdPeriph_Driver/src/stm32f10x_flash.c ****   * @retval FLASH Status: The returned value can be: FLASH_ERROR_PG,
1048:../libraries/STM32F10x_StdPeriph_Driver/src/stm32f10x_flash.c ****   *         FLASH_ERROR_WRP, FLASH_COMPLETE or FLASH_TIMEOUT.
1049:../libraries/STM32F10x_StdPeriph_Driver/src/stm32f10x_flash.c ****   */
1050:../libraries/STM32F10x_StdPeriph_Driver/src/stm32f10x_flash.c **** FLASH_Status FLASH_ReadOutProtection(FunctionalState NewState)
1051:../libraries/STM32F10x_StdPeriph_Driver/src/stm32f10x_flash.c **** {
 1170              		.loc 1 1051 0
 1171              		.cfi_startproc
 1172              		@ args = 0, pretend = 0, frame = 16
 1173              		@ frame_needed = 1, uses_anonymous_args = 0
 1174 0000 80B5     		push	{r7, lr}
 1175              	.LCFI41:
 1176              		.cfi_def_cfa_offset 8
 1177              		.cfi_offset 7, -8
 1178              		.cfi_offset 14, -4
 1179 0002 84B0     		sub	sp, sp, #16
 1180              	.LCFI42:
 1181              		.cfi_def_cfa_offset 24
 1182 0004 00AF     		add	r7, sp, #0
 1183              	.LCFI43:
 1184              		.cfi_def_cfa_register 7
 1185 0006 0346     		mov	r3, r0
 1186 0008 FB71     		strb	r3, [r7, #7]
1052:../libraries/STM32F10x_StdPeriph_Driver/src/stm32f10x_flash.c ****   FLASH_Status status = FLASH_COMPLETE;
 1187              		.loc 1 1052 0
 1188 000a 4FF00403 		mov	r3, #4
 1189 000e FB73     		strb	r3, [r7, #15]
1053:../libraries/STM32F10x_StdPeriph_Driver/src/stm32f10x_flash.c ****   /* Check the parameters */
1054:../libraries/STM32F10x_StdPeriph_Driver/src/stm32f10x_flash.c ****   assert_param(IS_FUNCTIONAL_STATE(NewState));
1055:../libraries/STM32F10x_StdPeriph_Driver/src/stm32f10x_flash.c ****   status = FLASH_WaitForLastOperation(EraseTimeout);
 1190              		.loc 1 1055 0
 1191 0010 4FF43020 		mov	r0, #720896
 1192 0014 FFF7FEFF 		bl	FLASH_WaitForLastOperation
 1193 0018 0346     		mov	r3, r0
 1194 001a FB73     		strb	r3, [r7, #15]
1056:../libraries/STM32F10x_StdPeriph_Driver/src/stm32f10x_flash.c ****   if(status == FLASH_COMPLETE)
 1195              		.loc 1 1056 0
 1196 001c FB7B     		ldrb	r3, [r7, #15]	@ zero_extendqisi2
 1197 001e 042B     		cmp	r3, #4
 1198 0020 40F08580 		bne	.L40
1057:../libraries/STM32F10x_StdPeriph_Driver/src/stm32f10x_flash.c ****   {
1058:../libraries/STM32F10x_StdPeriph_Driver/src/stm32f10x_flash.c ****     /* Authorizes the small information block programming */
1059:../libraries/STM32F10x_StdPeriph_Driver/src/stm32f10x_flash.c ****     FLASH->OPTKEYR = FLASH_KEY1;
 1199              		.loc 1 1059 0
 1200 0024 4FF40053 		mov	r3, #8192
 1201 0028 C4F20203 		movt	r3, 16386
 1202 002c 40F22312 		movw	r2, #291
 1203 0030 C4F26752 		movt	r2, 17767
 1204 0034 9A60     		str	r2, [r3, #8]
1060:../libraries/STM32F10x_StdPeriph_Driver/src/stm32f10x_flash.c ****     FLASH->OPTKEYR = FLASH_KEY2;
 1205              		.loc 1 1060 0
 1206 0036 4FF40053 		mov	r3, #8192
 1207 003a C4F20203 		movt	r3, 16386
 1208 003e 48F6AB12 		movw	r2, #35243
 1209 0042 CCF6EF52 		movt	r2, 52719
 1210 0046 9A60     		str	r2, [r3, #8]
1061:../libraries/STM32F10x_StdPeriph_Driver/src/stm32f10x_flash.c ****     FLASH->CR |= CR_OPTER_Set;
 1211              		.loc 1 1061 0
 1212 0048 4FF40053 		mov	r3, #8192
 1213 004c C4F20203 		movt	r3, 16386
 1214 0050 4FF40052 		mov	r2, #8192
 1215 0054 C4F20202 		movt	r2, 16386
 1216 0058 1269     		ldr	r2, [r2, #16]
 1217 005a 42F02002 		orr	r2, r2, #32
 1218 005e 1A61     		str	r2, [r3, #16]
1062:../libraries/STM32F10x_StdPeriph_Driver/src/stm32f10x_flash.c ****     FLASH->CR |= CR_STRT_Set;
 1219              		.loc 1 1062 0
 1220 0060 4FF40053 		mov	r3, #8192
 1221 0064 C4F20203 		movt	r3, 16386
 1222 0068 4FF40052 		mov	r2, #8192
 1223 006c C4F20202 		movt	r2, 16386
 1224 0070 1269     		ldr	r2, [r2, #16]
 1225 0072 42F04002 		orr	r2, r2, #64
 1226 0076 1A61     		str	r2, [r3, #16]
1063:../libraries/STM32F10x_StdPeriph_Driver/src/stm32f10x_flash.c ****     /* Wait for last operation to be completed */
1064:../libraries/STM32F10x_StdPeriph_Driver/src/stm32f10x_flash.c ****     status = FLASH_WaitForLastOperation(EraseTimeout);
 1227              		.loc 1 1064 0
 1228 0078 4FF43020 		mov	r0, #720896
 1229 007c FFF7FEFF 		bl	FLASH_WaitForLastOperation
 1230 0080 0346     		mov	r3, r0
 1231 0082 FB73     		strb	r3, [r7, #15]
1065:../libraries/STM32F10x_StdPeriph_Driver/src/stm32f10x_flash.c ****     if(status == FLASH_COMPLETE)
 1232              		.loc 1 1065 0
 1233 0084 FB7B     		ldrb	r3, [r7, #15]	@ zero_extendqisi2
 1234 0086 042B     		cmp	r3, #4
 1235 0088 41D1     		bne	.L41
1066:../libraries/STM32F10x_StdPeriph_Driver/src/stm32f10x_flash.c ****     {
1067:../libraries/STM32F10x_StdPeriph_Driver/src/stm32f10x_flash.c ****       /* if the erase operation is completed, disable the OPTER Bit */
1068:../libraries/STM32F10x_StdPeriph_Driver/src/stm32f10x_flash.c ****       FLASH->CR &= CR_OPTER_Reset;
 1236              		.loc 1 1068 0
 1237 008a 4FF40053 		mov	r3, #8192
 1238 008e C4F20203 		movt	r3, 16386
 1239 0092 4FF40052 		mov	r2, #8192
 1240 0096 C4F20202 		movt	r2, 16386
 1241 009a 1169     		ldr	r1, [r2, #16]
 1242 009c 41F6DF72 		movw	r2, #8159
 1243 00a0 0A40     		ands	r2, r2, r1
 1244 00a2 1A61     		str	r2, [r3, #16]
1069:../libraries/STM32F10x_StdPeriph_Driver/src/stm32f10x_flash.c ****       /* Enable the Option Bytes Programming operation */
1070:../libraries/STM32F10x_StdPeriph_Driver/src/stm32f10x_flash.c ****       FLASH->CR |= CR_OPTPG_Set; 
 1245              		.loc 1 1070 0
 1246 00a4 4FF40053 		mov	r3, #8192
 1247 00a8 C4F20203 		movt	r3, 16386
 1248 00ac 4FF40052 		mov	r2, #8192
 1249 00b0 C4F20202 		movt	r2, 16386
 1250 00b4 1269     		ldr	r2, [r2, #16]
 1251 00b6 42F01002 		orr	r2, r2, #16
 1252 00ba 1A61     		str	r2, [r3, #16]
1071:../libraries/STM32F10x_StdPeriph_Driver/src/stm32f10x_flash.c ****       if(NewState != DISABLE)
 1253              		.loc 1 1071 0
 1254 00bc FB79     		ldrb	r3, [r7, #7]	@ zero_extendqisi2
 1255 00be 002B     		cmp	r3, #0
 1256 00c0 07D0     		beq	.L42
1072:../libraries/STM32F10x_StdPeriph_Driver/src/stm32f10x_flash.c ****       {
1073:../libraries/STM32F10x_StdPeriph_Driver/src/stm32f10x_flash.c ****         OB->RDP = 0x00;
 1257              		.loc 1 1073 0
 1258 00c2 4FF47843 		mov	r3, #63488
 1259 00c6 C1F6FF73 		movt	r3, 8191
 1260 00ca 4FF00002 		mov	r2, #0
 1261 00ce 1A80     		strh	r2, [r3, #0]	@ movhi
 1262 00d0 06E0     		b	.L43
 1263              	.L42:
1074:../libraries/STM32F10x_StdPeriph_Driver/src/stm32f10x_flash.c ****       }
1075:../libraries/STM32F10x_StdPeriph_Driver/src/stm32f10x_flash.c ****       else
1076:../libraries/STM32F10x_StdPeriph_Driver/src/stm32f10x_flash.c ****       {
1077:../libraries/STM32F10x_StdPeriph_Driver/src/stm32f10x_flash.c ****         OB->RDP = RDP_Key;  
 1264              		.loc 1 1077 0
 1265 00d2 4FF47843 		mov	r3, #63488
 1266 00d6 C1F6FF73 		movt	r3, 8191
 1267 00da 4FF0A502 		mov	r2, #165
 1268 00de 1A80     		strh	r2, [r3, #0]	@ movhi
 1269              	.L43:
1078:../libraries/STM32F10x_StdPeriph_Driver/src/stm32f10x_flash.c ****       }
1079:../libraries/STM32F10x_StdPeriph_Driver/src/stm32f10x_flash.c ****       /* Wait for last operation to be completed */
1080:../libraries/STM32F10x_StdPeriph_Driver/src/stm32f10x_flash.c ****       status = FLASH_WaitForLastOperation(EraseTimeout); 
 1270              		.loc 1 1080 0
 1271 00e0 4FF43020 		mov	r0, #720896
 1272 00e4 FFF7FEFF 		bl	FLASH_WaitForLastOperation
 1273 00e8 0346     		mov	r3, r0
 1274 00ea FB73     		strb	r3, [r7, #15]
1081:../libraries/STM32F10x_StdPeriph_Driver/src/stm32f10x_flash.c ****     
1082:../libraries/STM32F10x_StdPeriph_Driver/src/stm32f10x_flash.c ****       if(status != FLASH_TIMEOUT)
 1275              		.loc 1 1082 0
 1276 00ec FB7B     		ldrb	r3, [r7, #15]	@ zero_extendqisi2
 1277 00ee 052B     		cmp	r3, #5
 1278 00f0 1DD0     		beq	.L40
1083:../libraries/STM32F10x_StdPeriph_Driver/src/stm32f10x_flash.c ****       {
1084:../libraries/STM32F10x_StdPeriph_Driver/src/stm32f10x_flash.c ****         /* if the program operation is completed, disable the OPTPG Bit */
1085:../libraries/STM32F10x_StdPeriph_Driver/src/stm32f10x_flash.c ****         FLASH->CR &= CR_OPTPG_Reset;
 1279              		.loc 1 1085 0
 1280 00f2 4FF40053 		mov	r3, #8192
 1281 00f6 C4F20203 		movt	r3, 16386
 1282 00fa 4FF40052 		mov	r2, #8192
 1283 00fe C4F20202 		movt	r2, 16386
 1284 0102 1169     		ldr	r1, [r2, #16]
 1285 0104 41F6EF72 		movw	r2, #8175
 1286 0108 0A40     		ands	r2, r2, r1
 1287 010a 1A61     		str	r2, [r3, #16]
 1288 010c 0FE0     		b	.L40
 1289              	.L41:
1086:../libraries/STM32F10x_StdPeriph_Driver/src/stm32f10x_flash.c ****       }
1087:../libraries/STM32F10x_StdPeriph_Driver/src/stm32f10x_flash.c ****     }
1088:../libraries/STM32F10x_StdPeriph_Driver/src/stm32f10x_flash.c ****     else 
1089:../libraries/STM32F10x_StdPeriph_Driver/src/stm32f10x_flash.c ****     {
1090:../libraries/STM32F10x_StdPeriph_Driver/src/stm32f10x_flash.c ****       if(status != FLASH_TIMEOUT)
 1290              		.loc 1 1090 0
 1291 010e FB7B     		ldrb	r3, [r7, #15]	@ zero_extendqisi2
 1292 0110 052B     		cmp	r3, #5
 1293 0112 0CD0     		beq	.L40
1091:../libraries/STM32F10x_StdPeriph_Driver/src/stm32f10x_flash.c ****       {
1092:../libraries/STM32F10x_StdPeriph_Driver/src/stm32f10x_flash.c ****         /* Disable the OPTER Bit */
1093:../libraries/STM32F10x_StdPeriph_Driver/src/stm32f10x_flash.c ****         FLASH->CR &= CR_OPTER_Reset;
 1294              		.loc 1 1093 0
 1295 0114 4FF40053 		mov	r3, #8192
 1296 0118 C4F20203 		movt	r3, 16386
 1297 011c 4FF40052 		mov	r2, #8192
 1298 0120 C4F20202 		movt	r2, 16386
 1299 0124 1169     		ldr	r1, [r2, #16]
 1300 0126 41F6DF72 		movw	r2, #8159
 1301 012a 0A40     		ands	r2, r2, r1
 1302 012c 1A61     		str	r2, [r3, #16]
 1303              	.L40:
1094:../libraries/STM32F10x_StdPeriph_Driver/src/stm32f10x_flash.c ****       }
1095:../libraries/STM32F10x_StdPeriph_Driver/src/stm32f10x_flash.c ****     }
1096:../libraries/STM32F10x_StdPeriph_Driver/src/stm32f10x_flash.c ****   }
1097:../libraries/STM32F10x_StdPeriph_Driver/src/stm32f10x_flash.c ****   /* Return the protection operation Status */
1098:../libraries/STM32F10x_StdPeriph_Driver/src/stm32f10x_flash.c ****   return status;       
 1304              		.loc 1 1098 0
 1305 012e FB7B     		ldrb	r3, [r7, #15]	@ zero_extendqisi2
1099:../libraries/STM32F10x_StdPeriph_Driver/src/stm32f10x_flash.c **** }
 1306              		.loc 1 1099 0
 1307 0130 1846     		mov	r0, r3
 1308 0132 07F11007 		add	r7, r7, #16
 1309 0136 BD46     		mov	sp, r7
 1310 0138 80BD     		pop	{r7, pc}
 1311              		.cfi_endproc
 1312              	.LFE71:
 1314 013a 00BF     		.section	.text.FLASH_UserOptionByteConfig,"ax",%progbits
 1315              		.align	2
 1316              		.global	FLASH_UserOptionByteConfig
 1317              		.thumb
 1318              		.thumb_func
 1320              	FLASH_UserOptionByteConfig:
 1321              	.LFB72:
1100:../libraries/STM32F10x_StdPeriph_Driver/src/stm32f10x_flash.c **** 
1101:../libraries/STM32F10x_StdPeriph_Driver/src/stm32f10x_flash.c **** /**
1102:../libraries/STM32F10x_StdPeriph_Driver/src/stm32f10x_flash.c ****   * @brief  Programs the FLASH User Option Byte: IWDG_SW / RST_STOP / RST_STDBY.
1103:../libraries/STM32F10x_StdPeriph_Driver/src/stm32f10x_flash.c ****   * @note   This function can be used for all STM32F10x devices.
1104:../libraries/STM32F10x_StdPeriph_Driver/src/stm32f10x_flash.c ****   * @param  OB_IWDG: Selects the IWDG mode
1105:../libraries/STM32F10x_StdPeriph_Driver/src/stm32f10x_flash.c ****   *   This parameter can be one of the following values:
1106:../libraries/STM32F10x_StdPeriph_Driver/src/stm32f10x_flash.c ****   *     @arg OB_IWDG_SW: Software IWDG selected
1107:../libraries/STM32F10x_StdPeriph_Driver/src/stm32f10x_flash.c ****   *     @arg OB_IWDG_HW: Hardware IWDG selected
1108:../libraries/STM32F10x_StdPeriph_Driver/src/stm32f10x_flash.c ****   * @param  OB_STOP: Reset event when entering STOP mode.
1109:../libraries/STM32F10x_StdPeriph_Driver/src/stm32f10x_flash.c ****   *   This parameter can be one of the following values:
1110:../libraries/STM32F10x_StdPeriph_Driver/src/stm32f10x_flash.c ****   *     @arg OB_STOP_NoRST: No reset generated when entering in STOP
1111:../libraries/STM32F10x_StdPeriph_Driver/src/stm32f10x_flash.c ****   *     @arg OB_STOP_RST: Reset generated when entering in STOP
1112:../libraries/STM32F10x_StdPeriph_Driver/src/stm32f10x_flash.c ****   * @param  OB_STDBY: Reset event when entering Standby mode.
1113:../libraries/STM32F10x_StdPeriph_Driver/src/stm32f10x_flash.c ****   *   This parameter can be one of the following values:
1114:../libraries/STM32F10x_StdPeriph_Driver/src/stm32f10x_flash.c ****   *     @arg OB_STDBY_NoRST: No reset generated when entering in STANDBY
1115:../libraries/STM32F10x_StdPeriph_Driver/src/stm32f10x_flash.c ****   *     @arg OB_STDBY_RST: Reset generated when entering in STANDBY
1116:../libraries/STM32F10x_StdPeriph_Driver/src/stm32f10x_flash.c ****   * @retval FLASH Status: The returned value can be: FLASH_ERROR_PG, 
1117:../libraries/STM32F10x_StdPeriph_Driver/src/stm32f10x_flash.c ****   *         FLASH_ERROR_WRP, FLASH_COMPLETE or FLASH_TIMEOUT.
1118:../libraries/STM32F10x_StdPeriph_Driver/src/stm32f10x_flash.c ****   */
1119:../libraries/STM32F10x_StdPeriph_Driver/src/stm32f10x_flash.c **** FLASH_Status FLASH_UserOptionByteConfig(uint16_t OB_IWDG, uint16_t OB_STOP, uint16_t OB_STDBY)
1120:../libraries/STM32F10x_StdPeriph_Driver/src/stm32f10x_flash.c **** {
 1322              		.loc 1 1120 0
 1323              		.cfi_startproc
 1324              		@ args = 0, pretend = 0, frame = 16
 1325              		@ frame_needed = 1, uses_anonymous_args = 0
 1326 0000 80B5     		push	{r7, lr}
 1327              	.LCFI44:
 1328              		.cfi_def_cfa_offset 8
 1329              		.cfi_offset 7, -8
 1330              		.cfi_offset 14, -4
 1331 0002 84B0     		sub	sp, sp, #16
 1332              	.LCFI45:
 1333              		.cfi_def_cfa_offset 24
 1334 0004 00AF     		add	r7, sp, #0
 1335              	.LCFI46:
 1336              		.cfi_def_cfa_register 7
 1337 0006 1346     		mov	r3, r2
 1338 0008 0246     		mov	r2, r0	@ movhi
 1339 000a FA80     		strh	r2, [r7, #6]	@ movhi
 1340 000c 0A46     		mov	r2, r1	@ movhi
 1341 000e BA80     		strh	r2, [r7, #4]	@ movhi
 1342 0010 7B80     		strh	r3, [r7, #2]	@ movhi
1121:../libraries/STM32F10x_StdPeriph_Driver/src/stm32f10x_flash.c ****   FLASH_Status status = FLASH_COMPLETE; 
 1343              		.loc 1 1121 0
 1344 0012 4FF00403 		mov	r3, #4
 1345 0016 FB73     		strb	r3, [r7, #15]
1122:../libraries/STM32F10x_StdPeriph_Driver/src/stm32f10x_flash.c **** 
1123:../libraries/STM32F10x_StdPeriph_Driver/src/stm32f10x_flash.c ****   /* Check the parameters */
1124:../libraries/STM32F10x_StdPeriph_Driver/src/stm32f10x_flash.c ****   assert_param(IS_OB_IWDG_SOURCE(OB_IWDG));
1125:../libraries/STM32F10x_StdPeriph_Driver/src/stm32f10x_flash.c ****   assert_param(IS_OB_STOP_SOURCE(OB_STOP));
1126:../libraries/STM32F10x_StdPeriph_Driver/src/stm32f10x_flash.c ****   assert_param(IS_OB_STDBY_SOURCE(OB_STDBY));
1127:../libraries/STM32F10x_StdPeriph_Driver/src/stm32f10x_flash.c **** 
1128:../libraries/STM32F10x_StdPeriph_Driver/src/stm32f10x_flash.c ****   /* Authorize the small information block programming */
1129:../libraries/STM32F10x_StdPeriph_Driver/src/stm32f10x_flash.c ****   FLASH->OPTKEYR = FLASH_KEY1;
 1346              		.loc 1 1129 0
 1347 0018 4FF40053 		mov	r3, #8192
 1348 001c C4F20203 		movt	r3, 16386
 1349 0020 40F22312 		movw	r2, #291
 1350 0024 C4F26752 		movt	r2, 17767
 1351 0028 9A60     		str	r2, [r3, #8]
1130:../libraries/STM32F10x_StdPeriph_Driver/src/stm32f10x_flash.c ****   FLASH->OPTKEYR = FLASH_KEY2;
 1352              		.loc 1 1130 0
 1353 002a 4FF40053 		mov	r3, #8192
 1354 002e C4F20203 		movt	r3, 16386
 1355 0032 48F6AB12 		movw	r2, #35243
 1356 0036 CCF6EF52 		movt	r2, 52719
 1357 003a 9A60     		str	r2, [r3, #8]
1131:../libraries/STM32F10x_StdPeriph_Driver/src/stm32f10x_flash.c ****   
1132:../libraries/STM32F10x_StdPeriph_Driver/src/stm32f10x_flash.c ****   /* Wait for last operation to be completed */
1133:../libraries/STM32F10x_StdPeriph_Driver/src/stm32f10x_flash.c ****   status = FLASH_WaitForLastOperation(ProgramTimeout);
 1358              		.loc 1 1133 0
 1359 003c 4FF40050 		mov	r0, #8192
 1360 0040 FFF7FEFF 		bl	FLASH_WaitForLastOperation
 1361 0044 0346     		mov	r3, r0
 1362 0046 FB73     		strb	r3, [r7, #15]
1134:../libraries/STM32F10x_StdPeriph_Driver/src/stm32f10x_flash.c ****   
1135:../libraries/STM32F10x_StdPeriph_Driver/src/stm32f10x_flash.c ****   if(status == FLASH_COMPLETE)
 1363              		.loc 1 1135 0
 1364 0048 FB7B     		ldrb	r3, [r7, #15]	@ zero_extendqisi2
 1365 004a 042B     		cmp	r3, #4
 1366 004c 30D1     		bne	.L46
1136:../libraries/STM32F10x_StdPeriph_Driver/src/stm32f10x_flash.c ****   {  
1137:../libraries/STM32F10x_StdPeriph_Driver/src/stm32f10x_flash.c ****     /* Enable the Option Bytes Programming operation */
1138:../libraries/STM32F10x_StdPeriph_Driver/src/stm32f10x_flash.c ****     FLASH->CR |= CR_OPTPG_Set; 
 1367              		.loc 1 1138 0
 1368 004e 4FF40053 		mov	r3, #8192
 1369 0052 C4F20203 		movt	r3, 16386
 1370 0056 4FF40052 		mov	r2, #8192
 1371 005a C4F20202 		movt	r2, 16386
 1372 005e 1269     		ldr	r2, [r2, #16]
 1373 0060 42F01002 		orr	r2, r2, #16
 1374 0064 1A61     		str	r2, [r3, #16]
1139:../libraries/STM32F10x_StdPeriph_Driver/src/stm32f10x_flash.c ****            
1140:../libraries/STM32F10x_StdPeriph_Driver/src/stm32f10x_flash.c ****     OB->USER = OB_IWDG | (uint16_t)(OB_STOP | (uint16_t)(OB_STDBY | ((uint16_t)0xF8))); 
 1375              		.loc 1 1140 0
 1376 0066 4FF47843 		mov	r3, #63488
 1377 006a C1F6FF73 		movt	r3, 8191
 1378 006e 7988     		ldrh	r1, [r7, #2]	@ movhi
 1379 0070 BA88     		ldrh	r2, [r7, #4]	@ movhi
 1380 0072 0A43     		orrs	r2, r2, r1
 1381 0074 91B2     		uxth	r1, r2
 1382 0076 FA88     		ldrh	r2, [r7, #6]	@ movhi
 1383 0078 0A43     		orrs	r2, r2, r1
 1384 007a 92B2     		uxth	r2, r2
 1385 007c 42F0F802 		orr	r2, r2, #248
 1386 0080 92B2     		uxth	r2, r2
 1387 0082 5A80     		strh	r2, [r3, #2]	@ movhi
1141:../libraries/STM32F10x_StdPeriph_Driver/src/stm32f10x_flash.c ****   
1142:../libraries/STM32F10x_StdPeriph_Driver/src/stm32f10x_flash.c ****     /* Wait for last operation to be completed */
1143:../libraries/STM32F10x_StdPeriph_Driver/src/stm32f10x_flash.c ****     status = FLASH_WaitForLastOperation(ProgramTimeout);
 1388              		.loc 1 1143 0
 1389 0084 4FF40050 		mov	r0, #8192
 1390 0088 FFF7FEFF 		bl	FLASH_WaitForLastOperation
 1391 008c 0346     		mov	r3, r0
 1392 008e FB73     		strb	r3, [r7, #15]
1144:../libraries/STM32F10x_StdPeriph_Driver/src/stm32f10x_flash.c ****     if(status != FLASH_TIMEOUT)
 1393              		.loc 1 1144 0
 1394 0090 FB7B     		ldrb	r3, [r7, #15]	@ zero_extendqisi2
 1395 0092 052B     		cmp	r3, #5
 1396 0094 0CD0     		beq	.L46
1145:../libraries/STM32F10x_StdPeriph_Driver/src/stm32f10x_flash.c ****     {
1146:../libraries/STM32F10x_StdPeriph_Driver/src/stm32f10x_flash.c ****       /* if the program operation is completed, disable the OPTPG Bit */
1147:../libraries/STM32F10x_StdPeriph_Driver/src/stm32f10x_flash.c ****       FLASH->CR &= CR_OPTPG_Reset;
 1397              		.loc 1 1147 0
 1398 0096 4FF40053 		mov	r3, #8192
 1399 009a C4F20203 		movt	r3, 16386
 1400 009e 4FF40052 		mov	r2, #8192
 1401 00a2 C4F20202 		movt	r2, 16386
 1402 00a6 1169     		ldr	r1, [r2, #16]
 1403 00a8 41F6EF72 		movw	r2, #8175
 1404 00ac 0A40     		ands	r2, r2, r1
 1405 00ae 1A61     		str	r2, [r3, #16]
 1406              	.L46:
1148:../libraries/STM32F10x_StdPeriph_Driver/src/stm32f10x_flash.c ****     }
1149:../libraries/STM32F10x_StdPeriph_Driver/src/stm32f10x_flash.c ****   }    
1150:../libraries/STM32F10x_StdPeriph_Driver/src/stm32f10x_flash.c ****   /* Return the Option Byte program Status */
1151:../libraries/STM32F10x_StdPeriph_Driver/src/stm32f10x_flash.c ****   return status;
 1407              		.loc 1 1151 0
 1408 00b0 FB7B     		ldrb	r3, [r7, #15]	@ zero_extendqisi2
1152:../libraries/STM32F10x_StdPeriph_Driver/src/stm32f10x_flash.c **** }
 1409              		.loc 1 1152 0
 1410 00b2 1846     		mov	r0, r3
 1411 00b4 07F11007 		add	r7, r7, #16
 1412 00b8 BD46     		mov	sp, r7
 1413 00ba 80BD     		pop	{r7, pc}
 1414              		.cfi_endproc
 1415              	.LFE72:
 1417              		.section	.text.FLASH_GetUserOptionByte,"ax",%progbits
 1418              		.align	2
 1419              		.global	FLASH_GetUserOptionByte
 1420              		.thumb
 1421              		.thumb_func
 1423              	FLASH_GetUserOptionByte:
 1424              	.LFB73:
1153:../libraries/STM32F10x_StdPeriph_Driver/src/stm32f10x_flash.c **** 
1154:../libraries/STM32F10x_StdPeriph_Driver/src/stm32f10x_flash.c **** #ifdef STM32F10X_XL
1155:../libraries/STM32F10x_StdPeriph_Driver/src/stm32f10x_flash.c **** /**
1156:../libraries/STM32F10x_StdPeriph_Driver/src/stm32f10x_flash.c ****   * @brief  Configures to boot from Bank1 or Bank2.  
1157:../libraries/STM32F10x_StdPeriph_Driver/src/stm32f10x_flash.c ****   * @note   This function can be used only for STM32F10x_XL density devices.
1158:../libraries/STM32F10x_StdPeriph_Driver/src/stm32f10x_flash.c ****   * @param  FLASH_BOOT: select the FLASH Bank to boot from.
1159:../libraries/STM32F10x_StdPeriph_Driver/src/stm32f10x_flash.c ****   *   This parameter can be one of the following values:
1160:../libraries/STM32F10x_StdPeriph_Driver/src/stm32f10x_flash.c ****   *     @arg FLASH_BOOT_Bank1: At startup, if boot pins are set in boot from user Flash
1161:../libraries/STM32F10x_StdPeriph_Driver/src/stm32f10x_flash.c ****   *        position and this parameter is selected the device will boot from Bank1(Default).
1162:../libraries/STM32F10x_StdPeriph_Driver/src/stm32f10x_flash.c ****   *     @arg FLASH_BOOT_Bank2: At startup, if boot pins are set in boot from user Flash
1163:../libraries/STM32F10x_StdPeriph_Driver/src/stm32f10x_flash.c ****   *        position and this parameter is selected the device will boot from Bank2 or Bank1,
1164:../libraries/STM32F10x_StdPeriph_Driver/src/stm32f10x_flash.c ****   *        depending on the activation of the bank. The active banks are checked in
1165:../libraries/STM32F10x_StdPeriph_Driver/src/stm32f10x_flash.c ****   *        the following order: Bank2, followed by Bank1.
1166:../libraries/STM32F10x_StdPeriph_Driver/src/stm32f10x_flash.c ****   *        The active bank is recognized by the value programmed at the base address
1167:../libraries/STM32F10x_StdPeriph_Driver/src/stm32f10x_flash.c ****   *        of the respective bank (corresponding to the initial stack pointer value
1168:../libraries/STM32F10x_StdPeriph_Driver/src/stm32f10x_flash.c ****   *        in the interrupt vector table).
1169:../libraries/STM32F10x_StdPeriph_Driver/src/stm32f10x_flash.c ****   *        For more information, please refer to AN2606 from www.st.com.    
1170:../libraries/STM32F10x_StdPeriph_Driver/src/stm32f10x_flash.c ****   * @retval FLASH Status: The returned value can be: FLASH_ERROR_PG, 
1171:../libraries/STM32F10x_StdPeriph_Driver/src/stm32f10x_flash.c ****   *         FLASH_ERROR_WRP, FLASH_COMPLETE or FLASH_TIMEOUT.
1172:../libraries/STM32F10x_StdPeriph_Driver/src/stm32f10x_flash.c ****   */
1173:../libraries/STM32F10x_StdPeriph_Driver/src/stm32f10x_flash.c **** FLASH_Status FLASH_BootConfig(uint16_t FLASH_BOOT)
1174:../libraries/STM32F10x_StdPeriph_Driver/src/stm32f10x_flash.c **** { 
1175:../libraries/STM32F10x_StdPeriph_Driver/src/stm32f10x_flash.c ****   FLASH_Status status = FLASH_COMPLETE; 
1176:../libraries/STM32F10x_StdPeriph_Driver/src/stm32f10x_flash.c ****   assert_param(IS_FLASH_BOOT(FLASH_BOOT));
1177:../libraries/STM32F10x_StdPeriph_Driver/src/stm32f10x_flash.c ****   /* Authorize the small information block programming */
1178:../libraries/STM32F10x_StdPeriph_Driver/src/stm32f10x_flash.c ****   FLASH->OPTKEYR = FLASH_KEY1;
1179:../libraries/STM32F10x_StdPeriph_Driver/src/stm32f10x_flash.c ****   FLASH->OPTKEYR = FLASH_KEY2;
1180:../libraries/STM32F10x_StdPeriph_Driver/src/stm32f10x_flash.c ****   
1181:../libraries/STM32F10x_StdPeriph_Driver/src/stm32f10x_flash.c ****   /* Wait for last operation to be completed */
1182:../libraries/STM32F10x_StdPeriph_Driver/src/stm32f10x_flash.c ****   status = FLASH_WaitForLastOperation(ProgramTimeout);
1183:../libraries/STM32F10x_StdPeriph_Driver/src/stm32f10x_flash.c ****   
1184:../libraries/STM32F10x_StdPeriph_Driver/src/stm32f10x_flash.c ****   if(status == FLASH_COMPLETE)
1185:../libraries/STM32F10x_StdPeriph_Driver/src/stm32f10x_flash.c ****   {  
1186:../libraries/STM32F10x_StdPeriph_Driver/src/stm32f10x_flash.c ****     /* Enable the Option Bytes Programming operation */
1187:../libraries/STM32F10x_StdPeriph_Driver/src/stm32f10x_flash.c ****     FLASH->CR |= CR_OPTPG_Set; 
1188:../libraries/STM32F10x_StdPeriph_Driver/src/stm32f10x_flash.c **** 
1189:../libraries/STM32F10x_StdPeriph_Driver/src/stm32f10x_flash.c ****     if(FLASH_BOOT == FLASH_BOOT_Bank1)
1190:../libraries/STM32F10x_StdPeriph_Driver/src/stm32f10x_flash.c ****     {
1191:../libraries/STM32F10x_StdPeriph_Driver/src/stm32f10x_flash.c ****       OB->USER |= OB_USER_BFB2;
1192:../libraries/STM32F10x_StdPeriph_Driver/src/stm32f10x_flash.c ****     }
1193:../libraries/STM32F10x_StdPeriph_Driver/src/stm32f10x_flash.c ****     else
1194:../libraries/STM32F10x_StdPeriph_Driver/src/stm32f10x_flash.c ****     {
1195:../libraries/STM32F10x_StdPeriph_Driver/src/stm32f10x_flash.c ****       OB->USER &= (uint16_t)(~(uint16_t)(OB_USER_BFB2));
1196:../libraries/STM32F10x_StdPeriph_Driver/src/stm32f10x_flash.c ****     }
1197:../libraries/STM32F10x_StdPeriph_Driver/src/stm32f10x_flash.c ****     /* Wait for last operation to be completed */
1198:../libraries/STM32F10x_StdPeriph_Driver/src/stm32f10x_flash.c ****     status = FLASH_WaitForLastOperation(ProgramTimeout);
1199:../libraries/STM32F10x_StdPeriph_Driver/src/stm32f10x_flash.c ****     if(status != FLASH_TIMEOUT)
1200:../libraries/STM32F10x_StdPeriph_Driver/src/stm32f10x_flash.c ****     {
1201:../libraries/STM32F10x_StdPeriph_Driver/src/stm32f10x_flash.c ****       /* if the program operation is completed, disable the OPTPG Bit */
1202:../libraries/STM32F10x_StdPeriph_Driver/src/stm32f10x_flash.c ****       FLASH->CR &= CR_OPTPG_Reset;
1203:../libraries/STM32F10x_StdPeriph_Driver/src/stm32f10x_flash.c ****     }
1204:../libraries/STM32F10x_StdPeriph_Driver/src/stm32f10x_flash.c ****   }    
1205:../libraries/STM32F10x_StdPeriph_Driver/src/stm32f10x_flash.c ****   /* Return the Option Byte program Status */
1206:../libraries/STM32F10x_StdPeriph_Driver/src/stm32f10x_flash.c ****   return status;
1207:../libraries/STM32F10x_StdPeriph_Driver/src/stm32f10x_flash.c **** }
1208:../libraries/STM32F10x_StdPeriph_Driver/src/stm32f10x_flash.c **** #endif /* STM32F10X_XL */
1209:../libraries/STM32F10x_StdPeriph_Driver/src/stm32f10x_flash.c **** 
1210:../libraries/STM32F10x_StdPeriph_Driver/src/stm32f10x_flash.c **** /**
1211:../libraries/STM32F10x_StdPeriph_Driver/src/stm32f10x_flash.c ****   * @brief  Returns the FLASH User Option Bytes values.
1212:../libraries/STM32F10x_StdPeriph_Driver/src/stm32f10x_flash.c ****   * @note   This function can be used for all STM32F10x devices.
1213:../libraries/STM32F10x_StdPeriph_Driver/src/stm32f10x_flash.c ****   * @param  None
1214:../libraries/STM32F10x_StdPeriph_Driver/src/stm32f10x_flash.c ****   * @retval The FLASH User Option Bytes values:IWDG_SW(Bit0), RST_STOP(Bit1)
1215:../libraries/STM32F10x_StdPeriph_Driver/src/stm32f10x_flash.c ****   *         and RST_STDBY(Bit2).
1216:../libraries/STM32F10x_StdPeriph_Driver/src/stm32f10x_flash.c ****   */
1217:../libraries/STM32F10x_StdPeriph_Driver/src/stm32f10x_flash.c **** uint32_t FLASH_GetUserOptionByte(void)
1218:../libraries/STM32F10x_StdPeriph_Driver/src/stm32f10x_flash.c **** {
 1425              		.loc 1 1218 0
 1426              		.cfi_startproc
 1427              		@ args = 0, pretend = 0, frame = 0
 1428              		@ frame_needed = 1, uses_anonymous_args = 0
 1429              		@ link register save eliminated.
 1430 0000 80B4     		push	{r7}
 1431              	.LCFI47:
 1432              		.cfi_def_cfa_offset 4
 1433              		.cfi_offset 7, -4
 1434 0002 00AF     		add	r7, sp, #0
 1435              	.LCFI48:
 1436              		.cfi_def_cfa_register 7
1219:../libraries/STM32F10x_StdPeriph_Driver/src/stm32f10x_flash.c ****   /* Return the User Option Byte */
1220:../libraries/STM32F10x_StdPeriph_Driver/src/stm32f10x_flash.c ****   return (uint32_t)(FLASH->OBR >> 2);
 1437              		.loc 1 1220 0
 1438 0004 4FF40053 		mov	r3, #8192
 1439 0008 C4F20203 		movt	r3, 16386
 1440 000c DB69     		ldr	r3, [r3, #28]
 1441 000e 4FEA9303 		lsr	r3, r3, #2
1221:../libraries/STM32F10x_StdPeriph_Driver/src/stm32f10x_flash.c **** }
 1442              		.loc 1 1221 0
 1443 0012 1846     		mov	r0, r3
 1444 0014 BD46     		mov	sp, r7
 1445 0016 80BC     		pop	{r7}
 1446 0018 7047     		bx	lr
 1447              		.cfi_endproc
 1448              	.LFE73:
 1450 001a 00BF     		.section	.text.FLASH_GetWriteProtectionOptionByte,"ax",%progbits
 1451              		.align	2
 1452              		.global	FLASH_GetWriteProtectionOptionByte
 1453              		.thumb
 1454              		.thumb_func
 1456              	FLASH_GetWriteProtectionOptionByte:
 1457              	.LFB74:
1222:../libraries/STM32F10x_StdPeriph_Driver/src/stm32f10x_flash.c **** 
1223:../libraries/STM32F10x_StdPeriph_Driver/src/stm32f10x_flash.c **** /**
1224:../libraries/STM32F10x_StdPeriph_Driver/src/stm32f10x_flash.c ****   * @brief  Returns the FLASH Write Protection Option Bytes Register value.
1225:../libraries/STM32F10x_StdPeriph_Driver/src/stm32f10x_flash.c ****   * @note   This function can be used for all STM32F10x devices.
1226:../libraries/STM32F10x_StdPeriph_Driver/src/stm32f10x_flash.c ****   * @param  None
1227:../libraries/STM32F10x_StdPeriph_Driver/src/stm32f10x_flash.c ****   * @retval The FLASH Write Protection  Option Bytes Register value
1228:../libraries/STM32F10x_StdPeriph_Driver/src/stm32f10x_flash.c ****   */
1229:../libraries/STM32F10x_StdPeriph_Driver/src/stm32f10x_flash.c **** uint32_t FLASH_GetWriteProtectionOptionByte(void)
1230:../libraries/STM32F10x_StdPeriph_Driver/src/stm32f10x_flash.c **** {
 1458              		.loc 1 1230 0
 1459              		.cfi_startproc
 1460              		@ args = 0, pretend = 0, frame = 0
 1461              		@ frame_needed = 1, uses_anonymous_args = 0
 1462              		@ link register save eliminated.
 1463 0000 80B4     		push	{r7}
 1464              	.LCFI49:
 1465              		.cfi_def_cfa_offset 4
 1466              		.cfi_offset 7, -4
 1467 0002 00AF     		add	r7, sp, #0
 1468              	.LCFI50:
 1469              		.cfi_def_cfa_register 7
1231:../libraries/STM32F10x_StdPeriph_Driver/src/stm32f10x_flash.c ****   /* Return the Flash write protection Register value */
1232:../libraries/STM32F10x_StdPeriph_Driver/src/stm32f10x_flash.c ****   return (uint32_t)(FLASH->WRPR);
 1470              		.loc 1 1232 0
 1471 0004 4FF40053 		mov	r3, #8192
 1472 0008 C4F20203 		movt	r3, 16386
 1473 000c 1B6A     		ldr	r3, [r3, #32]
1233:../libraries/STM32F10x_StdPeriph_Driver/src/stm32f10x_flash.c **** }
 1474              		.loc 1 1233 0
 1475 000e 1846     		mov	r0, r3
 1476 0010 BD46     		mov	sp, r7
 1477 0012 80BC     		pop	{r7}
 1478 0014 7047     		bx	lr
 1479              		.cfi_endproc
 1480              	.LFE74:
 1482 0016 00BF     		.section	.text.FLASH_GetReadOutProtectionStatus,"ax",%progbits
 1483              		.align	2
 1484              		.global	FLASH_GetReadOutProtectionStatus
 1485              		.thumb
 1486              		.thumb_func
 1488              	FLASH_GetReadOutProtectionStatus:
 1489              	.LFB75:
1234:../libraries/STM32F10x_StdPeriph_Driver/src/stm32f10x_flash.c **** 
1235:../libraries/STM32F10x_StdPeriph_Driver/src/stm32f10x_flash.c **** /**
1236:../libraries/STM32F10x_StdPeriph_Driver/src/stm32f10x_flash.c ****   * @brief  Checks whether the FLASH Read Out Protection Status is set or not.
1237:../libraries/STM32F10x_StdPeriph_Driver/src/stm32f10x_flash.c ****   * @note   This function can be used for all STM32F10x devices.
1238:../libraries/STM32F10x_StdPeriph_Driver/src/stm32f10x_flash.c ****   * @param  None
1239:../libraries/STM32F10x_StdPeriph_Driver/src/stm32f10x_flash.c ****   * @retval FLASH ReadOut Protection Status(SET or RESET)
1240:../libraries/STM32F10x_StdPeriph_Driver/src/stm32f10x_flash.c ****   */
1241:../libraries/STM32F10x_StdPeriph_Driver/src/stm32f10x_flash.c **** FlagStatus FLASH_GetReadOutProtectionStatus(void)
1242:../libraries/STM32F10x_StdPeriph_Driver/src/stm32f10x_flash.c **** {
 1490              		.loc 1 1242 0
 1491              		.cfi_startproc
 1492              		@ args = 0, pretend = 0, frame = 8
 1493              		@ frame_needed = 1, uses_anonymous_args = 0
 1494              		@ link register save eliminated.
 1495 0000 80B4     		push	{r7}
 1496              	.LCFI51:
 1497              		.cfi_def_cfa_offset 4
 1498              		.cfi_offset 7, -4
 1499 0002 83B0     		sub	sp, sp, #12
 1500              	.LCFI52:
 1501              		.cfi_def_cfa_offset 16
 1502 0004 00AF     		add	r7, sp, #0
 1503              	.LCFI53:
 1504              		.cfi_def_cfa_register 7
1243:../libraries/STM32F10x_StdPeriph_Driver/src/stm32f10x_flash.c ****   FlagStatus readoutstatus = RESET;
 1505              		.loc 1 1243 0
 1506 0006 4FF00003 		mov	r3, #0
 1507 000a FB71     		strb	r3, [r7, #7]
1244:../libraries/STM32F10x_StdPeriph_Driver/src/stm32f10x_flash.c ****   if ((FLASH->OBR & RDPRT_Mask) != (uint32_t)RESET)
 1508              		.loc 1 1244 0
 1509 000c 4FF40053 		mov	r3, #8192
 1510 0010 C4F20203 		movt	r3, 16386
 1511 0014 DB69     		ldr	r3, [r3, #28]
 1512 0016 03F00203 		and	r3, r3, #2
 1513 001a 002B     		cmp	r3, #0
 1514 001c 03D0     		beq	.L53
1245:../libraries/STM32F10x_StdPeriph_Driver/src/stm32f10x_flash.c ****   {
1246:../libraries/STM32F10x_StdPeriph_Driver/src/stm32f10x_flash.c ****     readoutstatus = SET;
 1515              		.loc 1 1246 0
 1516 001e 4FF00103 		mov	r3, #1
 1517 0022 FB71     		strb	r3, [r7, #7]
 1518 0024 02E0     		b	.L54
 1519              	.L53:
1247:../libraries/STM32F10x_StdPeriph_Driver/src/stm32f10x_flash.c ****   }
1248:../libraries/STM32F10x_StdPeriph_Driver/src/stm32f10x_flash.c ****   else
1249:../libraries/STM32F10x_StdPeriph_Driver/src/stm32f10x_flash.c ****   {
1250:../libraries/STM32F10x_StdPeriph_Driver/src/stm32f10x_flash.c ****     readoutstatus = RESET;
 1520              		.loc 1 1250 0
 1521 0026 4FF00003 		mov	r3, #0
 1522 002a FB71     		strb	r3, [r7, #7]
 1523              	.L54:
1251:../libraries/STM32F10x_StdPeriph_Driver/src/stm32f10x_flash.c ****   }
1252:../libraries/STM32F10x_StdPeriph_Driver/src/stm32f10x_flash.c ****   return readoutstatus;
 1524              		.loc 1 1252 0
 1525 002c FB79     		ldrb	r3, [r7, #7]	@ zero_extendqisi2
1253:../libraries/STM32F10x_StdPeriph_Driver/src/stm32f10x_flash.c **** }
 1526              		.loc 1 1253 0
 1527 002e 1846     		mov	r0, r3
 1528 0030 07F10C07 		add	r7, r7, #12
 1529 0034 BD46     		mov	sp, r7
 1530 0036 80BC     		pop	{r7}
 1531 0038 7047     		bx	lr
 1532              		.cfi_endproc
 1533              	.LFE75:
 1535 003a 00BF     		.section	.text.FLASH_GetPrefetchBufferStatus,"ax",%progbits
 1536              		.align	2
 1537              		.global	FLASH_GetPrefetchBufferStatus
 1538              		.thumb
 1539              		.thumb_func
 1541              	FLASH_GetPrefetchBufferStatus:
 1542              	.LFB76:
1254:../libraries/STM32F10x_StdPeriph_Driver/src/stm32f10x_flash.c **** 
1255:../libraries/STM32F10x_StdPeriph_Driver/src/stm32f10x_flash.c **** /**
1256:../libraries/STM32F10x_StdPeriph_Driver/src/stm32f10x_flash.c ****   * @brief  Checks whether the FLASH Prefetch Buffer status is set or not.
1257:../libraries/STM32F10x_StdPeriph_Driver/src/stm32f10x_flash.c ****   * @note   This function can be used for all STM32F10x devices.
1258:../libraries/STM32F10x_StdPeriph_Driver/src/stm32f10x_flash.c ****   * @param  None
1259:../libraries/STM32F10x_StdPeriph_Driver/src/stm32f10x_flash.c ****   * @retval FLASH Prefetch Buffer Status (SET or RESET).
1260:../libraries/STM32F10x_StdPeriph_Driver/src/stm32f10x_flash.c ****   */
1261:../libraries/STM32F10x_StdPeriph_Driver/src/stm32f10x_flash.c **** FlagStatus FLASH_GetPrefetchBufferStatus(void)
1262:../libraries/STM32F10x_StdPeriph_Driver/src/stm32f10x_flash.c **** {
 1543              		.loc 1 1262 0
 1544              		.cfi_startproc
 1545              		@ args = 0, pretend = 0, frame = 8
 1546              		@ frame_needed = 1, uses_anonymous_args = 0
 1547              		@ link register save eliminated.
 1548 0000 80B4     		push	{r7}
 1549              	.LCFI54:
 1550              		.cfi_def_cfa_offset 4
 1551              		.cfi_offset 7, -4
 1552 0002 83B0     		sub	sp, sp, #12
 1553              	.LCFI55:
 1554              		.cfi_def_cfa_offset 16
 1555 0004 00AF     		add	r7, sp, #0
 1556              	.LCFI56:
 1557              		.cfi_def_cfa_register 7
1263:../libraries/STM32F10x_StdPeriph_Driver/src/stm32f10x_flash.c ****   FlagStatus bitstatus = RESET;
 1558              		.loc 1 1263 0
 1559 0006 4FF00003 		mov	r3, #0
 1560 000a FB71     		strb	r3, [r7, #7]
1264:../libraries/STM32F10x_StdPeriph_Driver/src/stm32f10x_flash.c ****   
1265:../libraries/STM32F10x_StdPeriph_Driver/src/stm32f10x_flash.c ****   if ((FLASH->ACR & ACR_PRFTBS_Mask) != (uint32_t)RESET)
 1561              		.loc 1 1265 0
 1562 000c 4FF40053 		mov	r3, #8192
 1563 0010 C4F20203 		movt	r3, 16386
 1564 0014 1B68     		ldr	r3, [r3, #0]
 1565 0016 03F02003 		and	r3, r3, #32
 1566 001a 002B     		cmp	r3, #0
 1567 001c 03D0     		beq	.L57
1266:../libraries/STM32F10x_StdPeriph_Driver/src/stm32f10x_flash.c ****   {
1267:../libraries/STM32F10x_StdPeriph_Driver/src/stm32f10x_flash.c ****     bitstatus = SET;
 1568              		.loc 1 1267 0
 1569 001e 4FF00103 		mov	r3, #1
 1570 0022 FB71     		strb	r3, [r7, #7]
 1571 0024 02E0     		b	.L58
 1572              	.L57:
1268:../libraries/STM32F10x_StdPeriph_Driver/src/stm32f10x_flash.c ****   }
1269:../libraries/STM32F10x_StdPeriph_Driver/src/stm32f10x_flash.c ****   else
1270:../libraries/STM32F10x_StdPeriph_Driver/src/stm32f10x_flash.c ****   {
1271:../libraries/STM32F10x_StdPeriph_Driver/src/stm32f10x_flash.c ****     bitstatus = RESET;
 1573              		.loc 1 1271 0
 1574 0026 4FF00003 		mov	r3, #0
 1575 002a FB71     		strb	r3, [r7, #7]
 1576              	.L58:
1272:../libraries/STM32F10x_StdPeriph_Driver/src/stm32f10x_flash.c ****   }
1273:../libraries/STM32F10x_StdPeriph_Driver/src/stm32f10x_flash.c ****   /* Return the new state of FLASH Prefetch Buffer Status (SET or RESET) */
1274:../libraries/STM32F10x_StdPeriph_Driver/src/stm32f10x_flash.c ****   return bitstatus; 
 1577              		.loc 1 1274 0
 1578 002c FB79     		ldrb	r3, [r7, #7]	@ zero_extendqisi2
1275:../libraries/STM32F10x_StdPeriph_Driver/src/stm32f10x_flash.c **** }
 1579              		.loc 1 1275 0
 1580 002e 1846     		mov	r0, r3
 1581 0030 07F10C07 		add	r7, r7, #12
 1582 0034 BD46     		mov	sp, r7
 1583 0036 80BC     		pop	{r7}
 1584 0038 7047     		bx	lr
 1585              		.cfi_endproc
 1586              	.LFE76:
 1588 003a 00BF     		.section	.text.FLASH_ITConfig,"ax",%progbits
 1589              		.align	2
 1590              		.global	FLASH_ITConfig
 1591              		.thumb
 1592              		.thumb_func
 1594              	FLASH_ITConfig:
 1595              	.LFB77:
1276:../libraries/STM32F10x_StdPeriph_Driver/src/stm32f10x_flash.c **** 
1277:../libraries/STM32F10x_StdPeriph_Driver/src/stm32f10x_flash.c **** /**
1278:../libraries/STM32F10x_StdPeriph_Driver/src/stm32f10x_flash.c ****   * @brief  Enables or disables the specified FLASH interrupts.
1279:../libraries/STM32F10x_StdPeriph_Driver/src/stm32f10x_flash.c ****   * @note   This function can be used for all STM32F10x devices.
1280:../libraries/STM32F10x_StdPeriph_Driver/src/stm32f10x_flash.c ****   *         - For STM32F10X_XL devices, enables or disables the specified FLASH interrupts
1281:../libraries/STM32F10x_StdPeriph_Driver/src/stm32f10x_flash.c ****               for Bank1 and Bank2.
1282:../libraries/STM32F10x_StdPeriph_Driver/src/stm32f10x_flash.c ****   *         - For other devices it enables or disables the specified FLASH interrupts for Bank1.
1283:../libraries/STM32F10x_StdPeriph_Driver/src/stm32f10x_flash.c ****   * @param  FLASH_IT: specifies the FLASH interrupt sources to be enabled or disabled.
1284:../libraries/STM32F10x_StdPeriph_Driver/src/stm32f10x_flash.c ****   *   This parameter can be any combination of the following values:
1285:../libraries/STM32F10x_StdPeriph_Driver/src/stm32f10x_flash.c ****   *     @arg FLASH_IT_ERROR: FLASH Error Interrupt
1286:../libraries/STM32F10x_StdPeriph_Driver/src/stm32f10x_flash.c ****   *     @arg FLASH_IT_EOP: FLASH end of operation Interrupt
1287:../libraries/STM32F10x_StdPeriph_Driver/src/stm32f10x_flash.c ****   * @param  NewState: new state of the specified Flash interrupts.
1288:../libraries/STM32F10x_StdPeriph_Driver/src/stm32f10x_flash.c ****   *   This parameter can be: ENABLE or DISABLE.      
1289:../libraries/STM32F10x_StdPeriph_Driver/src/stm32f10x_flash.c ****   * @retval None 
1290:../libraries/STM32F10x_StdPeriph_Driver/src/stm32f10x_flash.c ****   */
1291:../libraries/STM32F10x_StdPeriph_Driver/src/stm32f10x_flash.c **** void FLASH_ITConfig(uint32_t FLASH_IT, FunctionalState NewState)
1292:../libraries/STM32F10x_StdPeriph_Driver/src/stm32f10x_flash.c **** {
 1596              		.loc 1 1292 0
 1597              		.cfi_startproc
 1598              		@ args = 0, pretend = 0, frame = 8
 1599              		@ frame_needed = 1, uses_anonymous_args = 0
 1600              		@ link register save eliminated.
 1601 0000 80B4     		push	{r7}
 1602              	.LCFI57:
 1603              		.cfi_def_cfa_offset 4
 1604              		.cfi_offset 7, -4
 1605 0002 83B0     		sub	sp, sp, #12
 1606              	.LCFI58:
 1607              		.cfi_def_cfa_offset 16
 1608 0004 00AF     		add	r7, sp, #0
 1609              	.LCFI59:
 1610              		.cfi_def_cfa_register 7
 1611 0006 7860     		str	r0, [r7, #4]
 1612 0008 0B46     		mov	r3, r1
 1613 000a FB70     		strb	r3, [r7, #3]
1293:../libraries/STM32F10x_StdPeriph_Driver/src/stm32f10x_flash.c **** #ifdef STM32F10X_XL
1294:../libraries/STM32F10x_StdPeriph_Driver/src/stm32f10x_flash.c ****   /* Check the parameters */
1295:../libraries/STM32F10x_StdPeriph_Driver/src/stm32f10x_flash.c ****   assert_param(IS_FLASH_IT(FLASH_IT)); 
1296:../libraries/STM32F10x_StdPeriph_Driver/src/stm32f10x_flash.c ****   assert_param(IS_FUNCTIONAL_STATE(NewState));
1297:../libraries/STM32F10x_StdPeriph_Driver/src/stm32f10x_flash.c **** 
1298:../libraries/STM32F10x_StdPeriph_Driver/src/stm32f10x_flash.c ****   if((FLASH_IT & 0x80000000) != 0x0)
1299:../libraries/STM32F10x_StdPeriph_Driver/src/stm32f10x_flash.c ****   {
1300:../libraries/STM32F10x_StdPeriph_Driver/src/stm32f10x_flash.c ****     if(NewState != DISABLE)
1301:../libraries/STM32F10x_StdPeriph_Driver/src/stm32f10x_flash.c ****     {
1302:../libraries/STM32F10x_StdPeriph_Driver/src/stm32f10x_flash.c ****       /* Enable the interrupt sources */
1303:../libraries/STM32F10x_StdPeriph_Driver/src/stm32f10x_flash.c ****       FLASH->CR2 |= (FLASH_IT & 0x7FFFFFFF);
1304:../libraries/STM32F10x_StdPeriph_Driver/src/stm32f10x_flash.c ****     }
1305:../libraries/STM32F10x_StdPeriph_Driver/src/stm32f10x_flash.c ****     else
1306:../libraries/STM32F10x_StdPeriph_Driver/src/stm32f10x_flash.c ****     {
1307:../libraries/STM32F10x_StdPeriph_Driver/src/stm32f10x_flash.c ****       /* Disable the interrupt sources */
1308:../libraries/STM32F10x_StdPeriph_Driver/src/stm32f10x_flash.c ****       FLASH->CR2 &= ~(uint32_t)(FLASH_IT & 0x7FFFFFFF);
1309:../libraries/STM32F10x_StdPeriph_Driver/src/stm32f10x_flash.c ****     }
1310:../libraries/STM32F10x_StdPeriph_Driver/src/stm32f10x_flash.c ****   }
1311:../libraries/STM32F10x_StdPeriph_Driver/src/stm32f10x_flash.c ****   else
1312:../libraries/STM32F10x_StdPeriph_Driver/src/stm32f10x_flash.c ****   {
1313:../libraries/STM32F10x_StdPeriph_Driver/src/stm32f10x_flash.c ****     if(NewState != DISABLE)
1314:../libraries/STM32F10x_StdPeriph_Driver/src/stm32f10x_flash.c ****     {
1315:../libraries/STM32F10x_StdPeriph_Driver/src/stm32f10x_flash.c ****       /* Enable the interrupt sources */
1316:../libraries/STM32F10x_StdPeriph_Driver/src/stm32f10x_flash.c ****       FLASH->CR |= FLASH_IT;
1317:../libraries/STM32F10x_StdPeriph_Driver/src/stm32f10x_flash.c ****     }
1318:../libraries/STM32F10x_StdPeriph_Driver/src/stm32f10x_flash.c ****     else
1319:../libraries/STM32F10x_StdPeriph_Driver/src/stm32f10x_flash.c ****     {
1320:../libraries/STM32F10x_StdPeriph_Driver/src/stm32f10x_flash.c ****       /* Disable the interrupt sources */
1321:../libraries/STM32F10x_StdPeriph_Driver/src/stm32f10x_flash.c ****       FLASH->CR &= ~(uint32_t)FLASH_IT;
1322:../libraries/STM32F10x_StdPeriph_Driver/src/stm32f10x_flash.c ****     }
1323:../libraries/STM32F10x_StdPeriph_Driver/src/stm32f10x_flash.c ****   }
1324:../libraries/STM32F10x_StdPeriph_Driver/src/stm32f10x_flash.c **** #else
1325:../libraries/STM32F10x_StdPeriph_Driver/src/stm32f10x_flash.c ****   /* Check the parameters */
1326:../libraries/STM32F10x_StdPeriph_Driver/src/stm32f10x_flash.c ****   assert_param(IS_FLASH_IT(FLASH_IT)); 
1327:../libraries/STM32F10x_StdPeriph_Driver/src/stm32f10x_flash.c ****   assert_param(IS_FUNCTIONAL_STATE(NewState));
1328:../libraries/STM32F10x_StdPeriph_Driver/src/stm32f10x_flash.c **** 
1329:../libraries/STM32F10x_StdPeriph_Driver/src/stm32f10x_flash.c ****   if(NewState != DISABLE)
 1614              		.loc 1 1329 0
 1615 000c FB78     		ldrb	r3, [r7, #3]	@ zero_extendqisi2
 1616 000e 002B     		cmp	r3, #0
 1617 0010 0CD0     		beq	.L61
1330:../libraries/STM32F10x_StdPeriph_Driver/src/stm32f10x_flash.c ****   {
1331:../libraries/STM32F10x_StdPeriph_Driver/src/stm32f10x_flash.c ****     /* Enable the interrupt sources */
1332:../libraries/STM32F10x_StdPeriph_Driver/src/stm32f10x_flash.c ****     FLASH->CR |= FLASH_IT;
 1618              		.loc 1 1332 0
 1619 0012 4FF40053 		mov	r3, #8192
 1620 0016 C4F20203 		movt	r3, 16386
 1621 001a 4FF40052 		mov	r2, #8192
 1622 001e C4F20202 		movt	r2, 16386
 1623 0022 1169     		ldr	r1, [r2, #16]
 1624 0024 7A68     		ldr	r2, [r7, #4]
 1625 0026 0A43     		orrs	r2, r2, r1
 1626 0028 1A61     		str	r2, [r3, #16]
 1627 002a 0DE0     		b	.L60
 1628              	.L61:
1333:../libraries/STM32F10x_StdPeriph_Driver/src/stm32f10x_flash.c ****   }
1334:../libraries/STM32F10x_StdPeriph_Driver/src/stm32f10x_flash.c ****   else
1335:../libraries/STM32F10x_StdPeriph_Driver/src/stm32f10x_flash.c ****   {
1336:../libraries/STM32F10x_StdPeriph_Driver/src/stm32f10x_flash.c ****     /* Disable the interrupt sources */
1337:../libraries/STM32F10x_StdPeriph_Driver/src/stm32f10x_flash.c ****     FLASH->CR &= ~(uint32_t)FLASH_IT;
 1629              		.loc 1 1337 0
 1630 002c 4FF40053 		mov	r3, #8192
 1631 0030 C4F20203 		movt	r3, 16386
 1632 0034 4FF40052 		mov	r2, #8192
 1633 0038 C4F20202 		movt	r2, 16386
 1634 003c 1169     		ldr	r1, [r2, #16]
 1635 003e 7A68     		ldr	r2, [r7, #4]
 1636 0040 6FEA0202 		mvn	r2, r2
 1637 0044 0A40     		ands	r2, r2, r1
 1638 0046 1A61     		str	r2, [r3, #16]
 1639              	.L60:
1338:../libraries/STM32F10x_StdPeriph_Driver/src/stm32f10x_flash.c ****   }
1339:../libraries/STM32F10x_StdPeriph_Driver/src/stm32f10x_flash.c **** #endif /* STM32F10X_XL */
1340:../libraries/STM32F10x_StdPeriph_Driver/src/stm32f10x_flash.c **** }
 1640              		.loc 1 1340 0
 1641 0048 07F10C07 		add	r7, r7, #12
 1642 004c BD46     		mov	sp, r7
 1643 004e 80BC     		pop	{r7}
 1644 0050 7047     		bx	lr
 1645              		.cfi_endproc
 1646              	.LFE77:
 1648 0052 00BF     		.section	.text.FLASH_GetFlagStatus,"ax",%progbits
 1649              		.align	2
 1650              		.global	FLASH_GetFlagStatus
 1651              		.thumb
 1652              		.thumb_func
 1654              	FLASH_GetFlagStatus:
 1655              	.LFB78:
1341:../libraries/STM32F10x_StdPeriph_Driver/src/stm32f10x_flash.c **** 
1342:../libraries/STM32F10x_StdPeriph_Driver/src/stm32f10x_flash.c **** /**
1343:../libraries/STM32F10x_StdPeriph_Driver/src/stm32f10x_flash.c ****   * @brief  Checks whether the specified FLASH flag is set or not.
1344:../libraries/STM32F10x_StdPeriph_Driver/src/stm32f10x_flash.c ****   * @note   This function can be used for all STM32F10x devices.
1345:../libraries/STM32F10x_StdPeriph_Driver/src/stm32f10x_flash.c ****   *         - For STM32F10X_XL devices, this function checks whether the specified 
1346:../libraries/STM32F10x_StdPeriph_Driver/src/stm32f10x_flash.c ****   *           Bank1 or Bank2 flag is set or not.
1347:../libraries/STM32F10x_StdPeriph_Driver/src/stm32f10x_flash.c ****   *         - For other devices, it checks whether the specified Bank1 flag is 
1348:../libraries/STM32F10x_StdPeriph_Driver/src/stm32f10x_flash.c ****   *           set or not.
1349:../libraries/STM32F10x_StdPeriph_Driver/src/stm32f10x_flash.c ****   * @param  FLASH_FLAG: specifies the FLASH flag to check.
1350:../libraries/STM32F10x_StdPeriph_Driver/src/stm32f10x_flash.c ****   *   This parameter can be one of the following values:
1351:../libraries/STM32F10x_StdPeriph_Driver/src/stm32f10x_flash.c ****   *     @arg FLASH_FLAG_BSY: FLASH Busy flag           
1352:../libraries/STM32F10x_StdPeriph_Driver/src/stm32f10x_flash.c ****   *     @arg FLASH_FLAG_PGERR: FLASH Program error flag       
1353:../libraries/STM32F10x_StdPeriph_Driver/src/stm32f10x_flash.c ****   *     @arg FLASH_FLAG_WRPRTERR: FLASH Write protected error flag      
1354:../libraries/STM32F10x_StdPeriph_Driver/src/stm32f10x_flash.c ****   *     @arg FLASH_FLAG_EOP: FLASH End of Operation flag           
1355:../libraries/STM32F10x_StdPeriph_Driver/src/stm32f10x_flash.c ****   *     @arg FLASH_FLAG_OPTERR:  FLASH Option Byte error flag     
1356:../libraries/STM32F10x_StdPeriph_Driver/src/stm32f10x_flash.c ****   * @retval The new state of FLASH_FLAG (SET or RESET).
1357:../libraries/STM32F10x_StdPeriph_Driver/src/stm32f10x_flash.c ****   */
1358:../libraries/STM32F10x_StdPeriph_Driver/src/stm32f10x_flash.c **** FlagStatus FLASH_GetFlagStatus(uint32_t FLASH_FLAG)
1359:../libraries/STM32F10x_StdPeriph_Driver/src/stm32f10x_flash.c **** {
 1656              		.loc 1 1359 0
 1657              		.cfi_startproc
 1658              		@ args = 0, pretend = 0, frame = 16
 1659              		@ frame_needed = 1, uses_anonymous_args = 0
 1660              		@ link register save eliminated.
 1661 0000 80B4     		push	{r7}
 1662              	.LCFI60:
 1663              		.cfi_def_cfa_offset 4
 1664              		.cfi_offset 7, -4
 1665 0002 85B0     		sub	sp, sp, #20
 1666              	.LCFI61:
 1667              		.cfi_def_cfa_offset 24
 1668 0004 00AF     		add	r7, sp, #0
 1669              	.LCFI62:
 1670              		.cfi_def_cfa_register 7
 1671 0006 7860     		str	r0, [r7, #4]
1360:../libraries/STM32F10x_StdPeriph_Driver/src/stm32f10x_flash.c ****   FlagStatus bitstatus = RESET;
 1672              		.loc 1 1360 0
 1673 0008 4FF00003 		mov	r3, #0
 1674 000c FB73     		strb	r3, [r7, #15]
1361:../libraries/STM32F10x_StdPeriph_Driver/src/stm32f10x_flash.c **** 
1362:../libraries/STM32F10x_StdPeriph_Driver/src/stm32f10x_flash.c **** #ifdef STM32F10X_XL
1363:../libraries/STM32F10x_StdPeriph_Driver/src/stm32f10x_flash.c ****   /* Check the parameters */
1364:../libraries/STM32F10x_StdPeriph_Driver/src/stm32f10x_flash.c ****   assert_param(IS_FLASH_GET_FLAG(FLASH_FLAG)) ;
1365:../libraries/STM32F10x_StdPeriph_Driver/src/stm32f10x_flash.c ****   if(FLASH_FLAG == FLASH_FLAG_OPTERR) 
1366:../libraries/STM32F10x_StdPeriph_Driver/src/stm32f10x_flash.c ****   {
1367:../libraries/STM32F10x_StdPeriph_Driver/src/stm32f10x_flash.c ****     if((FLASH->OBR & FLASH_FLAG_OPTERR) != (uint32_t)RESET)
1368:../libraries/STM32F10x_StdPeriph_Driver/src/stm32f10x_flash.c ****     {
1369:../libraries/STM32F10x_StdPeriph_Driver/src/stm32f10x_flash.c ****       bitstatus = SET;
1370:../libraries/STM32F10x_StdPeriph_Driver/src/stm32f10x_flash.c ****     }
1371:../libraries/STM32F10x_StdPeriph_Driver/src/stm32f10x_flash.c ****     else
1372:../libraries/STM32F10x_StdPeriph_Driver/src/stm32f10x_flash.c ****     {
1373:../libraries/STM32F10x_StdPeriph_Driver/src/stm32f10x_flash.c ****       bitstatus = RESET;
1374:../libraries/STM32F10x_StdPeriph_Driver/src/stm32f10x_flash.c ****     }
1375:../libraries/STM32F10x_StdPeriph_Driver/src/stm32f10x_flash.c ****   }
1376:../libraries/STM32F10x_StdPeriph_Driver/src/stm32f10x_flash.c ****   else
1377:../libraries/STM32F10x_StdPeriph_Driver/src/stm32f10x_flash.c ****   {
1378:../libraries/STM32F10x_StdPeriph_Driver/src/stm32f10x_flash.c ****     if((FLASH_FLAG & 0x80000000) != 0x0)
1379:../libraries/STM32F10x_StdPeriph_Driver/src/stm32f10x_flash.c ****     {
1380:../libraries/STM32F10x_StdPeriph_Driver/src/stm32f10x_flash.c ****       if((FLASH->SR2 & FLASH_FLAG) != (uint32_t)RESET)
1381:../libraries/STM32F10x_StdPeriph_Driver/src/stm32f10x_flash.c ****       {
1382:../libraries/STM32F10x_StdPeriph_Driver/src/stm32f10x_flash.c ****         bitstatus = SET;
1383:../libraries/STM32F10x_StdPeriph_Driver/src/stm32f10x_flash.c ****       }
1384:../libraries/STM32F10x_StdPeriph_Driver/src/stm32f10x_flash.c ****       else
1385:../libraries/STM32F10x_StdPeriph_Driver/src/stm32f10x_flash.c ****       {
1386:../libraries/STM32F10x_StdPeriph_Driver/src/stm32f10x_flash.c ****         bitstatus = RESET;
1387:../libraries/STM32F10x_StdPeriph_Driver/src/stm32f10x_flash.c ****       }
1388:../libraries/STM32F10x_StdPeriph_Driver/src/stm32f10x_flash.c ****     }
1389:../libraries/STM32F10x_StdPeriph_Driver/src/stm32f10x_flash.c ****     else
1390:../libraries/STM32F10x_StdPeriph_Driver/src/stm32f10x_flash.c ****     {
1391:../libraries/STM32F10x_StdPeriph_Driver/src/stm32f10x_flash.c ****       if((FLASH->SR & FLASH_FLAG) != (uint32_t)RESET)
1392:../libraries/STM32F10x_StdPeriph_Driver/src/stm32f10x_flash.c ****       {
1393:../libraries/STM32F10x_StdPeriph_Driver/src/stm32f10x_flash.c ****         bitstatus = SET;
1394:../libraries/STM32F10x_StdPeriph_Driver/src/stm32f10x_flash.c ****       }
1395:../libraries/STM32F10x_StdPeriph_Driver/src/stm32f10x_flash.c ****       else
1396:../libraries/STM32F10x_StdPeriph_Driver/src/stm32f10x_flash.c ****       {
1397:../libraries/STM32F10x_StdPeriph_Driver/src/stm32f10x_flash.c ****         bitstatus = RESET;
1398:../libraries/STM32F10x_StdPeriph_Driver/src/stm32f10x_flash.c ****       }
1399:../libraries/STM32F10x_StdPeriph_Driver/src/stm32f10x_flash.c ****     }
1400:../libraries/STM32F10x_StdPeriph_Driver/src/stm32f10x_flash.c ****   }
1401:../libraries/STM32F10x_StdPeriph_Driver/src/stm32f10x_flash.c **** #else
1402:../libraries/STM32F10x_StdPeriph_Driver/src/stm32f10x_flash.c ****   /* Check the parameters */
1403:../libraries/STM32F10x_StdPeriph_Driver/src/stm32f10x_flash.c ****   assert_param(IS_FLASH_GET_FLAG(FLASH_FLAG)) ;
1404:../libraries/STM32F10x_StdPeriph_Driver/src/stm32f10x_flash.c ****   if(FLASH_FLAG == FLASH_FLAG_OPTERR) 
 1675              		.loc 1 1404 0
 1676 000e 7B68     		ldr	r3, [r7, #4]
 1677 0010 012B     		cmp	r3, #1
 1678 0012 10D1     		bne	.L64
1405:../libraries/STM32F10x_StdPeriph_Driver/src/stm32f10x_flash.c ****   {
1406:../libraries/STM32F10x_StdPeriph_Driver/src/stm32f10x_flash.c ****     if((FLASH->OBR & FLASH_FLAG_OPTERR) != (uint32_t)RESET)
 1679              		.loc 1 1406 0
 1680 0014 4FF40053 		mov	r3, #8192
 1681 0018 C4F20203 		movt	r3, 16386
 1682 001c DB69     		ldr	r3, [r3, #28]
 1683 001e 03F00103 		and	r3, r3, #1
 1684 0022 002B     		cmp	r3, #0
 1685 0024 03D0     		beq	.L65
1407:../libraries/STM32F10x_StdPeriph_Driver/src/stm32f10x_flash.c ****     {
1408:../libraries/STM32F10x_StdPeriph_Driver/src/stm32f10x_flash.c ****       bitstatus = SET;
 1686              		.loc 1 1408 0
 1687 0026 4FF00103 		mov	r3, #1
 1688 002a FB73     		strb	r3, [r7, #15]
 1689 002c 13E0     		b	.L66
 1690              	.L65:
1409:../libraries/STM32F10x_StdPeriph_Driver/src/stm32f10x_flash.c ****     }
1410:../libraries/STM32F10x_StdPeriph_Driver/src/stm32f10x_flash.c ****     else
1411:../libraries/STM32F10x_StdPeriph_Driver/src/stm32f10x_flash.c ****     {
1412:../libraries/STM32F10x_StdPeriph_Driver/src/stm32f10x_flash.c ****       bitstatus = RESET;
 1691              		.loc 1 1412 0
 1692 002e 4FF00003 		mov	r3, #0
 1693 0032 FB73     		strb	r3, [r7, #15]
 1694 0034 0FE0     		b	.L66
 1695              	.L64:
1413:../libraries/STM32F10x_StdPeriph_Driver/src/stm32f10x_flash.c ****     }
1414:../libraries/STM32F10x_StdPeriph_Driver/src/stm32f10x_flash.c ****   }
1415:../libraries/STM32F10x_StdPeriph_Driver/src/stm32f10x_flash.c ****   else
1416:../libraries/STM32F10x_StdPeriph_Driver/src/stm32f10x_flash.c ****   {
1417:../libraries/STM32F10x_StdPeriph_Driver/src/stm32f10x_flash.c ****    if((FLASH->SR & FLASH_FLAG) != (uint32_t)RESET)
 1696              		.loc 1 1417 0
 1697 0036 4FF40053 		mov	r3, #8192
 1698 003a C4F20203 		movt	r3, 16386
 1699 003e DA68     		ldr	r2, [r3, #12]
 1700 0040 7B68     		ldr	r3, [r7, #4]
 1701 0042 1340     		ands	r3, r3, r2
 1702 0044 002B     		cmp	r3, #0
 1703 0046 03D0     		beq	.L67
1418:../libraries/STM32F10x_StdPeriph_Driver/src/stm32f10x_flash.c ****     {
1419:../libraries/STM32F10x_StdPeriph_Driver/src/stm32f10x_flash.c ****       bitstatus = SET;
 1704              		.loc 1 1419 0
 1705 0048 4FF00103 		mov	r3, #1
 1706 004c FB73     		strb	r3, [r7, #15]
 1707 004e 02E0     		b	.L66
 1708              	.L67:
1420:../libraries/STM32F10x_StdPeriph_Driver/src/stm32f10x_flash.c ****     }
1421:../libraries/STM32F10x_StdPeriph_Driver/src/stm32f10x_flash.c ****     else
1422:../libraries/STM32F10x_StdPeriph_Driver/src/stm32f10x_flash.c ****     {
1423:../libraries/STM32F10x_StdPeriph_Driver/src/stm32f10x_flash.c ****       bitstatus = RESET;
 1709              		.loc 1 1423 0
 1710 0050 4FF00003 		mov	r3, #0
 1711 0054 FB73     		strb	r3, [r7, #15]
 1712              	.L66:
1424:../libraries/STM32F10x_StdPeriph_Driver/src/stm32f10x_flash.c ****     }
1425:../libraries/STM32F10x_StdPeriph_Driver/src/stm32f10x_flash.c ****   }
1426:../libraries/STM32F10x_StdPeriph_Driver/src/stm32f10x_flash.c **** #endif /* STM32F10X_XL */
1427:../libraries/STM32F10x_StdPeriph_Driver/src/stm32f10x_flash.c **** 
1428:../libraries/STM32F10x_StdPeriph_Driver/src/stm32f10x_flash.c ****   /* Return the new state of FLASH_FLAG (SET or RESET) */
1429:../libraries/STM32F10x_StdPeriph_Driver/src/stm32f10x_flash.c ****   return bitstatus;
 1713              		.loc 1 1429 0
 1714 0056 FB7B     		ldrb	r3, [r7, #15]	@ zero_extendqisi2
1430:../libraries/STM32F10x_StdPeriph_Driver/src/stm32f10x_flash.c **** }
 1715              		.loc 1 1430 0
 1716 0058 1846     		mov	r0, r3
 1717 005a 07F11407 		add	r7, r7, #20
 1718 005e BD46     		mov	sp, r7
 1719 0060 80BC     		pop	{r7}
 1720 0062 7047     		bx	lr
 1721              		.cfi_endproc
 1722              	.LFE78:
 1724              		.section	.text.FLASH_ClearFlag,"ax",%progbits
 1725              		.align	2
 1726              		.global	FLASH_ClearFlag
 1727              		.thumb
 1728              		.thumb_func
 1730              	FLASH_ClearFlag:
 1731              	.LFB79:
1431:../libraries/STM32F10x_StdPeriph_Driver/src/stm32f10x_flash.c **** 
1432:../libraries/STM32F10x_StdPeriph_Driver/src/stm32f10x_flash.c **** /**
1433:../libraries/STM32F10x_StdPeriph_Driver/src/stm32f10x_flash.c ****   * @brief  Clears the FLASH's pending flags.
1434:../libraries/STM32F10x_StdPeriph_Driver/src/stm32f10x_flash.c ****   * @note   This function can be used for all STM32F10x devices.
1435:../libraries/STM32F10x_StdPeriph_Driver/src/stm32f10x_flash.c ****   *         - For STM32F10X_XL devices, this function clears Bank1 or Bank2s pending flags
1436:../libraries/STM32F10x_StdPeriph_Driver/src/stm32f10x_flash.c ****   *         - For other devices, it clears Bank1s pending flags.
1437:../libraries/STM32F10x_StdPeriph_Driver/src/stm32f10x_flash.c ****   * @param  FLASH_FLAG: specifies the FLASH flags to clear.
1438:../libraries/STM32F10x_StdPeriph_Driver/src/stm32f10x_flash.c ****   *   This parameter can be any combination of the following values:         
1439:../libraries/STM32F10x_StdPeriph_Driver/src/stm32f10x_flash.c ****   *     @arg FLASH_FLAG_PGERR: FLASH Program error flag       
1440:../libraries/STM32F10x_StdPeriph_Driver/src/stm32f10x_flash.c ****   *     @arg FLASH_FLAG_WRPRTERR: FLASH Write protected error flag      
1441:../libraries/STM32F10x_StdPeriph_Driver/src/stm32f10x_flash.c ****   *     @arg FLASH_FLAG_EOP: FLASH End of Operation flag           
1442:../libraries/STM32F10x_StdPeriph_Driver/src/stm32f10x_flash.c ****   * @retval None
1443:../libraries/STM32F10x_StdPeriph_Driver/src/stm32f10x_flash.c ****   */
1444:../libraries/STM32F10x_StdPeriph_Driver/src/stm32f10x_flash.c **** void FLASH_ClearFlag(uint32_t FLASH_FLAG)
1445:../libraries/STM32F10x_StdPeriph_Driver/src/stm32f10x_flash.c **** {
 1732              		.loc 1 1445 0
 1733              		.cfi_startproc
 1734              		@ args = 0, pretend = 0, frame = 8
 1735              		@ frame_needed = 1, uses_anonymous_args = 0
 1736              		@ link register save eliminated.
 1737 0000 80B4     		push	{r7}
 1738              	.LCFI63:
 1739              		.cfi_def_cfa_offset 4
 1740              		.cfi_offset 7, -4
 1741 0002 83B0     		sub	sp, sp, #12
 1742              	.LCFI64:
 1743              		.cfi_def_cfa_offset 16
 1744 0004 00AF     		add	r7, sp, #0
 1745              	.LCFI65:
 1746              		.cfi_def_cfa_register 7
 1747 0006 7860     		str	r0, [r7, #4]
1446:../libraries/STM32F10x_StdPeriph_Driver/src/stm32f10x_flash.c **** #ifdef STM32F10X_XL
1447:../libraries/STM32F10x_StdPeriph_Driver/src/stm32f10x_flash.c ****   /* Check the parameters */
1448:../libraries/STM32F10x_StdPeriph_Driver/src/stm32f10x_flash.c ****   assert_param(IS_FLASH_CLEAR_FLAG(FLASH_FLAG)) ;
1449:../libraries/STM32F10x_StdPeriph_Driver/src/stm32f10x_flash.c **** 
1450:../libraries/STM32F10x_StdPeriph_Driver/src/stm32f10x_flash.c ****   if((FLASH_FLAG & 0x80000000) != 0x0)
1451:../libraries/STM32F10x_StdPeriph_Driver/src/stm32f10x_flash.c ****   {
1452:../libraries/STM32F10x_StdPeriph_Driver/src/stm32f10x_flash.c ****     /* Clear the flags */
1453:../libraries/STM32F10x_StdPeriph_Driver/src/stm32f10x_flash.c ****     FLASH->SR2 = FLASH_FLAG;
1454:../libraries/STM32F10x_StdPeriph_Driver/src/stm32f10x_flash.c ****   }
1455:../libraries/STM32F10x_StdPeriph_Driver/src/stm32f10x_flash.c ****   else
1456:../libraries/STM32F10x_StdPeriph_Driver/src/stm32f10x_flash.c ****   {
1457:../libraries/STM32F10x_StdPeriph_Driver/src/stm32f10x_flash.c ****     /* Clear the flags */
1458:../libraries/STM32F10x_StdPeriph_Driver/src/stm32f10x_flash.c ****     FLASH->SR = FLASH_FLAG;
1459:../libraries/STM32F10x_StdPeriph_Driver/src/stm32f10x_flash.c ****   }  
1460:../libraries/STM32F10x_StdPeriph_Driver/src/stm32f10x_flash.c **** 
1461:../libraries/STM32F10x_StdPeriph_Driver/src/stm32f10x_flash.c **** #else
1462:../libraries/STM32F10x_StdPeriph_Driver/src/stm32f10x_flash.c ****   /* Check the parameters */
1463:../libraries/STM32F10x_StdPeriph_Driver/src/stm32f10x_flash.c ****   assert_param(IS_FLASH_CLEAR_FLAG(FLASH_FLAG)) ;
1464:../libraries/STM32F10x_StdPeriph_Driver/src/stm32f10x_flash.c ****   
1465:../libraries/STM32F10x_StdPeriph_Driver/src/stm32f10x_flash.c ****   /* Clear the flags */
1466:../libraries/STM32F10x_StdPeriph_Driver/src/stm32f10x_flash.c ****   FLASH->SR = FLASH_FLAG;
 1748              		.loc 1 1466 0
 1749 0008 4FF40053 		mov	r3, #8192
 1750 000c C4F20203 		movt	r3, 16386
 1751 0010 7A68     		ldr	r2, [r7, #4]
 1752 0012 DA60     		str	r2, [r3, #12]
1467:../libraries/STM32F10x_StdPeriph_Driver/src/stm32f10x_flash.c **** #endif /* STM32F10X_XL */
1468:../libraries/STM32F10x_StdPeriph_Driver/src/stm32f10x_flash.c **** }
 1753              		.loc 1 1468 0
 1754 0014 07F10C07 		add	r7, r7, #12
 1755 0018 BD46     		mov	sp, r7
 1756 001a 80BC     		pop	{r7}
 1757 001c 7047     		bx	lr
 1758              		.cfi_endproc
 1759              	.LFE79:
 1761 001e 00BF     		.section	.text.FLASH_GetStatus,"ax",%progbits
 1762              		.align	2
 1763              		.global	FLASH_GetStatus
 1764              		.thumb
 1765              		.thumb_func
 1767              	FLASH_GetStatus:
 1768              	.LFB80:
1469:../libraries/STM32F10x_StdPeriph_Driver/src/stm32f10x_flash.c **** 
1470:../libraries/STM32F10x_StdPeriph_Driver/src/stm32f10x_flash.c **** /**
1471:../libraries/STM32F10x_StdPeriph_Driver/src/stm32f10x_flash.c ****   * @brief  Returns the FLASH Status.
1472:../libraries/STM32F10x_StdPeriph_Driver/src/stm32f10x_flash.c ****   * @note   This function can be used for all STM32F10x devices, it is equivalent
1473:../libraries/STM32F10x_StdPeriph_Driver/src/stm32f10x_flash.c ****   *         to FLASH_GetBank1Status function.
1474:../libraries/STM32F10x_StdPeriph_Driver/src/stm32f10x_flash.c ****   * @param  None
1475:../libraries/STM32F10x_StdPeriph_Driver/src/stm32f10x_flash.c ****   * @retval FLASH Status: The returned value can be: FLASH_BUSY, FLASH_ERROR_PG,
1476:../libraries/STM32F10x_StdPeriph_Driver/src/stm32f10x_flash.c ****   *         FLASH_ERROR_WRP or FLASH_COMPLETE
1477:../libraries/STM32F10x_StdPeriph_Driver/src/stm32f10x_flash.c ****   */
1478:../libraries/STM32F10x_StdPeriph_Driver/src/stm32f10x_flash.c **** FLASH_Status FLASH_GetStatus(void)
1479:../libraries/STM32F10x_StdPeriph_Driver/src/stm32f10x_flash.c **** {
 1769              		.loc 1 1479 0
 1770              		.cfi_startproc
 1771              		@ args = 0, pretend = 0, frame = 8
 1772              		@ frame_needed = 1, uses_anonymous_args = 0
 1773              		@ link register save eliminated.
 1774 0000 80B4     		push	{r7}
 1775              	.LCFI66:
 1776              		.cfi_def_cfa_offset 4
 1777              		.cfi_offset 7, -4
 1778 0002 83B0     		sub	sp, sp, #12
 1779              	.LCFI67:
 1780              		.cfi_def_cfa_offset 16
 1781 0004 00AF     		add	r7, sp, #0
 1782              	.LCFI68:
 1783              		.cfi_def_cfa_register 7
1480:../libraries/STM32F10x_StdPeriph_Driver/src/stm32f10x_flash.c ****   FLASH_Status flashstatus = FLASH_COMPLETE;
 1784              		.loc 1 1480 0
 1785 0006 4FF00403 		mov	r3, #4
 1786 000a FB71     		strb	r3, [r7, #7]
1481:../libraries/STM32F10x_StdPeriph_Driver/src/stm32f10x_flash.c ****   
1482:../libraries/STM32F10x_StdPeriph_Driver/src/stm32f10x_flash.c ****   if((FLASH->SR & FLASH_FLAG_BSY) == FLASH_FLAG_BSY) 
 1787              		.loc 1 1482 0
 1788 000c 4FF40053 		mov	r3, #8192
 1789 0010 C4F20203 		movt	r3, 16386
 1790 0014 DB68     		ldr	r3, [r3, #12]
 1791 0016 03F00103 		and	r3, r3, #1
 1792 001a 002B     		cmp	r3, #0
 1793 001c 03D0     		beq	.L71
1483:../libraries/STM32F10x_StdPeriph_Driver/src/stm32f10x_flash.c ****   {
1484:../libraries/STM32F10x_StdPeriph_Driver/src/stm32f10x_flash.c ****     flashstatus = FLASH_BUSY;
 1794              		.loc 1 1484 0
 1795 001e 4FF00103 		mov	r3, #1
 1796 0022 FB71     		strb	r3, [r7, #7]
 1797 0024 1CE0     		b	.L72
 1798              	.L71:
1485:../libraries/STM32F10x_StdPeriph_Driver/src/stm32f10x_flash.c ****   }
1486:../libraries/STM32F10x_StdPeriph_Driver/src/stm32f10x_flash.c ****   else 
1487:../libraries/STM32F10x_StdPeriph_Driver/src/stm32f10x_flash.c ****   {  
1488:../libraries/STM32F10x_StdPeriph_Driver/src/stm32f10x_flash.c ****     if((FLASH->SR & FLASH_FLAG_PGERR) != 0)
 1799              		.loc 1 1488 0
 1800 0026 4FF40053 		mov	r3, #8192
 1801 002a C4F20203 		movt	r3, 16386
 1802 002e DB68     		ldr	r3, [r3, #12]
 1803 0030 03F00403 		and	r3, r3, #4
 1804 0034 002B     		cmp	r3, #0
 1805 0036 03D0     		beq	.L73
1489:../libraries/STM32F10x_StdPeriph_Driver/src/stm32f10x_flash.c ****     { 
1490:../libraries/STM32F10x_StdPeriph_Driver/src/stm32f10x_flash.c ****       flashstatus = FLASH_ERROR_PG;
 1806              		.loc 1 1490 0
 1807 0038 4FF00203 		mov	r3, #2
 1808 003c FB71     		strb	r3, [r7, #7]
 1809 003e 0FE0     		b	.L72
 1810              	.L73:
1491:../libraries/STM32F10x_StdPeriph_Driver/src/stm32f10x_flash.c ****     }
1492:../libraries/STM32F10x_StdPeriph_Driver/src/stm32f10x_flash.c ****     else 
1493:../libraries/STM32F10x_StdPeriph_Driver/src/stm32f10x_flash.c ****     {
1494:../libraries/STM32F10x_StdPeriph_Driver/src/stm32f10x_flash.c ****       if((FLASH->SR & FLASH_FLAG_WRPRTERR) != 0 )
 1811              		.loc 1 1494 0
 1812 0040 4FF40053 		mov	r3, #8192
 1813 0044 C4F20203 		movt	r3, 16386
 1814 0048 DB68     		ldr	r3, [r3, #12]
 1815 004a 03F01003 		and	r3, r3, #16
 1816 004e 002B     		cmp	r3, #0
 1817 0050 03D0     		beq	.L74
1495:../libraries/STM32F10x_StdPeriph_Driver/src/stm32f10x_flash.c ****       {
1496:../libraries/STM32F10x_StdPeriph_Driver/src/stm32f10x_flash.c ****         flashstatus = FLASH_ERROR_WRP;
 1818              		.loc 1 1496 0
 1819 0052 4FF00303 		mov	r3, #3
 1820 0056 FB71     		strb	r3, [r7, #7]
 1821 0058 02E0     		b	.L72
 1822              	.L74:
1497:../libraries/STM32F10x_StdPeriph_Driver/src/stm32f10x_flash.c ****       }
1498:../libraries/STM32F10x_StdPeriph_Driver/src/stm32f10x_flash.c ****       else
1499:../libraries/STM32F10x_StdPeriph_Driver/src/stm32f10x_flash.c ****       {
1500:../libraries/STM32F10x_StdPeriph_Driver/src/stm32f10x_flash.c ****         flashstatus = FLASH_COMPLETE;
 1823              		.loc 1 1500 0
 1824 005a 4FF00403 		mov	r3, #4
 1825 005e FB71     		strb	r3, [r7, #7]
 1826              	.L72:
1501:../libraries/STM32F10x_StdPeriph_Driver/src/stm32f10x_flash.c ****       }
1502:../libraries/STM32F10x_StdPeriph_Driver/src/stm32f10x_flash.c ****     }
1503:../libraries/STM32F10x_StdPeriph_Driver/src/stm32f10x_flash.c ****   }
1504:../libraries/STM32F10x_StdPeriph_Driver/src/stm32f10x_flash.c ****   /* Return the Flash Status */
1505:../libraries/STM32F10x_StdPeriph_Driver/src/stm32f10x_flash.c ****   return flashstatus;
 1827              		.loc 1 1505 0
 1828 0060 FB79     		ldrb	r3, [r7, #7]	@ zero_extendqisi2
1506:../libraries/STM32F10x_StdPeriph_Driver/src/stm32f10x_flash.c **** }
 1829              		.loc 1 1506 0
 1830 0062 1846     		mov	r0, r3
 1831 0064 07F10C07 		add	r7, r7, #12
 1832 0068 BD46     		mov	sp, r7
 1833 006a 80BC     		pop	{r7}
 1834 006c 7047     		bx	lr
 1835              		.cfi_endproc
 1836              	.LFE80:
 1838 006e 00BF     		.section	.text.FLASH_GetBank1Status,"ax",%progbits
 1839              		.align	2
 1840              		.global	FLASH_GetBank1Status
 1841              		.thumb
 1842              		.thumb_func
 1844              	FLASH_GetBank1Status:
 1845              	.LFB81:
1507:../libraries/STM32F10x_StdPeriph_Driver/src/stm32f10x_flash.c **** 
1508:../libraries/STM32F10x_StdPeriph_Driver/src/stm32f10x_flash.c **** /**
1509:../libraries/STM32F10x_StdPeriph_Driver/src/stm32f10x_flash.c ****   * @brief  Returns the FLASH Bank1 Status.
1510:../libraries/STM32F10x_StdPeriph_Driver/src/stm32f10x_flash.c ****   * @note   This function can be used for all STM32F10x devices, it is equivalent
1511:../libraries/STM32F10x_StdPeriph_Driver/src/stm32f10x_flash.c ****   *         to FLASH_GetStatus function.
1512:../libraries/STM32F10x_StdPeriph_Driver/src/stm32f10x_flash.c ****   * @param  None
1513:../libraries/STM32F10x_StdPeriph_Driver/src/stm32f10x_flash.c ****   * @retval FLASH Status: The returned value can be: FLASH_BUSY, FLASH_ERROR_PG,
1514:../libraries/STM32F10x_StdPeriph_Driver/src/stm32f10x_flash.c ****   *         FLASH_ERROR_WRP or FLASH_COMPLETE
1515:../libraries/STM32F10x_StdPeriph_Driver/src/stm32f10x_flash.c ****   */
1516:../libraries/STM32F10x_StdPeriph_Driver/src/stm32f10x_flash.c **** FLASH_Status FLASH_GetBank1Status(void)
1517:../libraries/STM32F10x_StdPeriph_Driver/src/stm32f10x_flash.c **** {
 1846              		.loc 1 1517 0
 1847              		.cfi_startproc
 1848              		@ args = 0, pretend = 0, frame = 8
 1849              		@ frame_needed = 1, uses_anonymous_args = 0
 1850              		@ link register save eliminated.
 1851 0000 80B4     		push	{r7}
 1852              	.LCFI69:
 1853              		.cfi_def_cfa_offset 4
 1854              		.cfi_offset 7, -4
 1855 0002 83B0     		sub	sp, sp, #12
 1856              	.LCFI70:
 1857              		.cfi_def_cfa_offset 16
 1858 0004 00AF     		add	r7, sp, #0
 1859              	.LCFI71:
 1860              		.cfi_def_cfa_register 7
1518:../libraries/STM32F10x_StdPeriph_Driver/src/stm32f10x_flash.c ****   FLASH_Status flashstatus = FLASH_COMPLETE;
 1861              		.loc 1 1518 0
 1862 0006 4FF00403 		mov	r3, #4
 1863 000a FB71     		strb	r3, [r7, #7]
1519:../libraries/STM32F10x_StdPeriph_Driver/src/stm32f10x_flash.c ****   
1520:../libraries/STM32F10x_StdPeriph_Driver/src/stm32f10x_flash.c ****   if((FLASH->SR & FLASH_FLAG_BANK1_BSY) == FLASH_FLAG_BSY) 
 1864              		.loc 1 1520 0
 1865 000c 4FF40053 		mov	r3, #8192
 1866 0010 C4F20203 		movt	r3, 16386
 1867 0014 DB68     		ldr	r3, [r3, #12]
 1868 0016 03F00103 		and	r3, r3, #1
 1869 001a 002B     		cmp	r3, #0
 1870 001c 03D0     		beq	.L77
1521:../libraries/STM32F10x_StdPeriph_Driver/src/stm32f10x_flash.c ****   {
1522:../libraries/STM32F10x_StdPeriph_Driver/src/stm32f10x_flash.c ****     flashstatus = FLASH_BUSY;
 1871              		.loc 1 1522 0
 1872 001e 4FF00103 		mov	r3, #1
 1873 0022 FB71     		strb	r3, [r7, #7]
 1874 0024 1CE0     		b	.L78
 1875              	.L77:
1523:../libraries/STM32F10x_StdPeriph_Driver/src/stm32f10x_flash.c ****   }
1524:../libraries/STM32F10x_StdPeriph_Driver/src/stm32f10x_flash.c ****   else 
1525:../libraries/STM32F10x_StdPeriph_Driver/src/stm32f10x_flash.c ****   {  
1526:../libraries/STM32F10x_StdPeriph_Driver/src/stm32f10x_flash.c ****     if((FLASH->SR & FLASH_FLAG_BANK1_PGERR) != 0)
 1876              		.loc 1 1526 0
 1877 0026 4FF40053 		mov	r3, #8192
 1878 002a C4F20203 		movt	r3, 16386
 1879 002e DB68     		ldr	r3, [r3, #12]
 1880 0030 03F00403 		and	r3, r3, #4
 1881 0034 002B     		cmp	r3, #0
 1882 0036 03D0     		beq	.L79
1527:../libraries/STM32F10x_StdPeriph_Driver/src/stm32f10x_flash.c ****     { 
1528:../libraries/STM32F10x_StdPeriph_Driver/src/stm32f10x_flash.c ****       flashstatus = FLASH_ERROR_PG;
 1883              		.loc 1 1528 0
 1884 0038 4FF00203 		mov	r3, #2
 1885 003c FB71     		strb	r3, [r7, #7]
 1886 003e 0FE0     		b	.L78
 1887              	.L79:
1529:../libraries/STM32F10x_StdPeriph_Driver/src/stm32f10x_flash.c ****     }
1530:../libraries/STM32F10x_StdPeriph_Driver/src/stm32f10x_flash.c ****     else 
1531:../libraries/STM32F10x_StdPeriph_Driver/src/stm32f10x_flash.c ****     {
1532:../libraries/STM32F10x_StdPeriph_Driver/src/stm32f10x_flash.c ****       if((FLASH->SR & FLASH_FLAG_BANK1_WRPRTERR) != 0 )
 1888              		.loc 1 1532 0
 1889 0040 4FF40053 		mov	r3, #8192
 1890 0044 C4F20203 		movt	r3, 16386
 1891 0048 DB68     		ldr	r3, [r3, #12]
 1892 004a 03F01003 		and	r3, r3, #16
 1893 004e 002B     		cmp	r3, #0
 1894 0050 03D0     		beq	.L80
1533:../libraries/STM32F10x_StdPeriph_Driver/src/stm32f10x_flash.c ****       {
1534:../libraries/STM32F10x_StdPeriph_Driver/src/stm32f10x_flash.c ****         flashstatus = FLASH_ERROR_WRP;
 1895              		.loc 1 1534 0
 1896 0052 4FF00303 		mov	r3, #3
 1897 0056 FB71     		strb	r3, [r7, #7]
 1898 0058 02E0     		b	.L78
 1899              	.L80:
1535:../libraries/STM32F10x_StdPeriph_Driver/src/stm32f10x_flash.c ****       }
1536:../libraries/STM32F10x_StdPeriph_Driver/src/stm32f10x_flash.c ****       else
1537:../libraries/STM32F10x_StdPeriph_Driver/src/stm32f10x_flash.c ****       {
1538:../libraries/STM32F10x_StdPeriph_Driver/src/stm32f10x_flash.c ****         flashstatus = FLASH_COMPLETE;
 1900              		.loc 1 1538 0
 1901 005a 4FF00403 		mov	r3, #4
 1902 005e FB71     		strb	r3, [r7, #7]
 1903              	.L78:
1539:../libraries/STM32F10x_StdPeriph_Driver/src/stm32f10x_flash.c ****       }
1540:../libraries/STM32F10x_StdPeriph_Driver/src/stm32f10x_flash.c ****     }
1541:../libraries/STM32F10x_StdPeriph_Driver/src/stm32f10x_flash.c ****   }
1542:../libraries/STM32F10x_StdPeriph_Driver/src/stm32f10x_flash.c ****   /* Return the Flash Status */
1543:../libraries/STM32F10x_StdPeriph_Driver/src/stm32f10x_flash.c ****   return flashstatus;
 1904              		.loc 1 1543 0
 1905 0060 FB79     		ldrb	r3, [r7, #7]	@ zero_extendqisi2
1544:../libraries/STM32F10x_StdPeriph_Driver/src/stm32f10x_flash.c **** }
 1906              		.loc 1 1544 0
 1907 0062 1846     		mov	r0, r3
 1908 0064 07F10C07 		add	r7, r7, #12
 1909 0068 BD46     		mov	sp, r7
 1910 006a 80BC     		pop	{r7}
 1911 006c 7047     		bx	lr
 1912              		.cfi_endproc
 1913              	.LFE81:
 1915 006e 00BF     		.section	.text.FLASH_WaitForLastOperation,"ax",%progbits
 1916              		.align	2
 1917              		.global	FLASH_WaitForLastOperation
 1918              		.thumb
 1919              		.thumb_func
 1921              	FLASH_WaitForLastOperation:
 1922              	.LFB82:
1545:../libraries/STM32F10x_StdPeriph_Driver/src/stm32f10x_flash.c **** 
1546:../libraries/STM32F10x_StdPeriph_Driver/src/stm32f10x_flash.c **** #ifdef STM32F10X_XL
1547:../libraries/STM32F10x_StdPeriph_Driver/src/stm32f10x_flash.c **** /**
1548:../libraries/STM32F10x_StdPeriph_Driver/src/stm32f10x_flash.c ****   * @brief  Returns the FLASH Bank2 Status.
1549:../libraries/STM32F10x_StdPeriph_Driver/src/stm32f10x_flash.c ****   * @note   This function can be used for STM32F10x_XL density devices.
1550:../libraries/STM32F10x_StdPeriph_Driver/src/stm32f10x_flash.c ****   * @param  None
1551:../libraries/STM32F10x_StdPeriph_Driver/src/stm32f10x_flash.c ****   * @retval FLASH Status: The returned value can be: FLASH_BUSY, FLASH_ERROR_PG,
1552:../libraries/STM32F10x_StdPeriph_Driver/src/stm32f10x_flash.c ****   *        FLASH_ERROR_WRP or FLASH_COMPLETE
1553:../libraries/STM32F10x_StdPeriph_Driver/src/stm32f10x_flash.c ****   */
1554:../libraries/STM32F10x_StdPeriph_Driver/src/stm32f10x_flash.c **** FLASH_Status FLASH_GetBank2Status(void)
1555:../libraries/STM32F10x_StdPeriph_Driver/src/stm32f10x_flash.c **** {
1556:../libraries/STM32F10x_StdPeriph_Driver/src/stm32f10x_flash.c ****   FLASH_Status flashstatus = FLASH_COMPLETE;
1557:../libraries/STM32F10x_StdPeriph_Driver/src/stm32f10x_flash.c ****   
1558:../libraries/STM32F10x_StdPeriph_Driver/src/stm32f10x_flash.c ****   if((FLASH->SR2 & (FLASH_FLAG_BANK2_BSY & 0x7FFFFFFF)) == (FLASH_FLAG_BANK2_BSY & 0x7FFFFFFF)) 
1559:../libraries/STM32F10x_StdPeriph_Driver/src/stm32f10x_flash.c ****   {
1560:../libraries/STM32F10x_StdPeriph_Driver/src/stm32f10x_flash.c ****     flashstatus = FLASH_BUSY;
1561:../libraries/STM32F10x_StdPeriph_Driver/src/stm32f10x_flash.c ****   }
1562:../libraries/STM32F10x_StdPeriph_Driver/src/stm32f10x_flash.c ****   else 
1563:../libraries/STM32F10x_StdPeriph_Driver/src/stm32f10x_flash.c ****   {  
1564:../libraries/STM32F10x_StdPeriph_Driver/src/stm32f10x_flash.c ****     if((FLASH->SR2 & (FLASH_FLAG_BANK2_PGERR & 0x7FFFFFFF)) != 0)
1565:../libraries/STM32F10x_StdPeriph_Driver/src/stm32f10x_flash.c ****     { 
1566:../libraries/STM32F10x_StdPeriph_Driver/src/stm32f10x_flash.c ****       flashstatus = FLASH_ERROR_PG;
1567:../libraries/STM32F10x_StdPeriph_Driver/src/stm32f10x_flash.c ****     }
1568:../libraries/STM32F10x_StdPeriph_Driver/src/stm32f10x_flash.c ****     else 
1569:../libraries/STM32F10x_StdPeriph_Driver/src/stm32f10x_flash.c ****     {
1570:../libraries/STM32F10x_StdPeriph_Driver/src/stm32f10x_flash.c ****       if((FLASH->SR2 & (FLASH_FLAG_BANK2_WRPRTERR & 0x7FFFFFFF)) != 0 )
1571:../libraries/STM32F10x_StdPeriph_Driver/src/stm32f10x_flash.c ****       {
1572:../libraries/STM32F10x_StdPeriph_Driver/src/stm32f10x_flash.c ****         flashstatus = FLASH_ERROR_WRP;
1573:../libraries/STM32F10x_StdPeriph_Driver/src/stm32f10x_flash.c ****       }
1574:../libraries/STM32F10x_StdPeriph_Driver/src/stm32f10x_flash.c ****       else
1575:../libraries/STM32F10x_StdPeriph_Driver/src/stm32f10x_flash.c ****       {
1576:../libraries/STM32F10x_StdPeriph_Driver/src/stm32f10x_flash.c ****         flashstatus = FLASH_COMPLETE;
1577:../libraries/STM32F10x_StdPeriph_Driver/src/stm32f10x_flash.c ****       }
1578:../libraries/STM32F10x_StdPeriph_Driver/src/stm32f10x_flash.c ****     }
1579:../libraries/STM32F10x_StdPeriph_Driver/src/stm32f10x_flash.c ****   }
1580:../libraries/STM32F10x_StdPeriph_Driver/src/stm32f10x_flash.c ****   /* Return the Flash Status */
1581:../libraries/STM32F10x_StdPeriph_Driver/src/stm32f10x_flash.c ****   return flashstatus;
1582:../libraries/STM32F10x_StdPeriph_Driver/src/stm32f10x_flash.c **** }
1583:../libraries/STM32F10x_StdPeriph_Driver/src/stm32f10x_flash.c **** #endif /* STM32F10X_XL */
1584:../libraries/STM32F10x_StdPeriph_Driver/src/stm32f10x_flash.c **** /**
1585:../libraries/STM32F10x_StdPeriph_Driver/src/stm32f10x_flash.c ****   * @brief  Waits for a Flash operation to complete or a TIMEOUT to occur.
1586:../libraries/STM32F10x_StdPeriph_Driver/src/stm32f10x_flash.c ****   * @note   This function can be used for all STM32F10x devices, 
1587:../libraries/STM32F10x_StdPeriph_Driver/src/stm32f10x_flash.c ****   *         it is equivalent to FLASH_WaitForLastBank1Operation.
1588:../libraries/STM32F10x_StdPeriph_Driver/src/stm32f10x_flash.c ****   *         - For STM32F10X_XL devices this function waits for a Bank1 Flash operation
1589:../libraries/STM32F10x_StdPeriph_Driver/src/stm32f10x_flash.c ****   *           to complete or a TIMEOUT to occur.
1590:../libraries/STM32F10x_StdPeriph_Driver/src/stm32f10x_flash.c ****   *         - For all other devices it waits for a Flash operation to complete 
1591:../libraries/STM32F10x_StdPeriph_Driver/src/stm32f10x_flash.c ****   *           or a TIMEOUT to occur.
1592:../libraries/STM32F10x_StdPeriph_Driver/src/stm32f10x_flash.c ****   * @param  Timeout: FLASH programming Timeout
1593:../libraries/STM32F10x_StdPeriph_Driver/src/stm32f10x_flash.c ****   * @retval FLASH Status: The returned value can be: FLASH_ERROR_PG,
1594:../libraries/STM32F10x_StdPeriph_Driver/src/stm32f10x_flash.c ****   *         FLASH_ERROR_WRP, FLASH_COMPLETE or FLASH_TIMEOUT.
1595:../libraries/STM32F10x_StdPeriph_Driver/src/stm32f10x_flash.c ****   */
1596:../libraries/STM32F10x_StdPeriph_Driver/src/stm32f10x_flash.c **** FLASH_Status FLASH_WaitForLastOperation(uint32_t Timeout)
1597:../libraries/STM32F10x_StdPeriph_Driver/src/stm32f10x_flash.c **** { 
 1923              		.loc 1 1597 0
 1924              		.cfi_startproc
 1925              		@ args = 0, pretend = 0, frame = 16
 1926              		@ frame_needed = 1, uses_anonymous_args = 0
 1927 0000 80B5     		push	{r7, lr}
 1928              	.LCFI72:
 1929              		.cfi_def_cfa_offset 8
 1930              		.cfi_offset 7, -8
 1931              		.cfi_offset 14, -4
 1932 0002 84B0     		sub	sp, sp, #16
 1933              	.LCFI73:
 1934              		.cfi_def_cfa_offset 24
 1935 0004 00AF     		add	r7, sp, #0
 1936              	.LCFI74:
 1937              		.cfi_def_cfa_register 7
 1938 0006 7860     		str	r0, [r7, #4]
1598:../libraries/STM32F10x_StdPeriph_Driver/src/stm32f10x_flash.c ****   FLASH_Status status = FLASH_COMPLETE;
 1939              		.loc 1 1598 0
 1940 0008 4FF00403 		mov	r3, #4
 1941 000c FB73     		strb	r3, [r7, #15]
1599:../libraries/STM32F10x_StdPeriph_Driver/src/stm32f10x_flash.c ****    
1600:../libraries/STM32F10x_StdPeriph_Driver/src/stm32f10x_flash.c ****   /* Check for the Flash Status */
1601:../libraries/STM32F10x_StdPeriph_Driver/src/stm32f10x_flash.c ****   status = FLASH_GetBank1Status();
 1942              		.loc 1 1601 0
 1943 000e FFF7FEFF 		bl	FLASH_GetBank1Status
 1944 0012 0346     		mov	r3, r0
 1945 0014 FB73     		strb	r3, [r7, #15]
1602:../libraries/STM32F10x_StdPeriph_Driver/src/stm32f10x_flash.c ****   /* Wait for a Flash operation to complete or a TIMEOUT to occur */
1603:../libraries/STM32F10x_StdPeriph_Driver/src/stm32f10x_flash.c ****   while((status == FLASH_BUSY) && (Timeout != 0x00))
 1946              		.loc 1 1603 0
 1947 0016 07E0     		b	.L83
 1948              	.L85:
1604:../libraries/STM32F10x_StdPeriph_Driver/src/stm32f10x_flash.c ****   {
1605:../libraries/STM32F10x_StdPeriph_Driver/src/stm32f10x_flash.c ****     status = FLASH_GetBank1Status();
 1949              		.loc 1 1605 0
 1950 0018 FFF7FEFF 		bl	FLASH_GetBank1Status
 1951 001c 0346     		mov	r3, r0
 1952 001e FB73     		strb	r3, [r7, #15]
1606:../libraries/STM32F10x_StdPeriph_Driver/src/stm32f10x_flash.c ****     Timeout--;
 1953              		.loc 1 1606 0
 1954 0020 7B68     		ldr	r3, [r7, #4]
 1955 0022 03F1FF33 		add	r3, r3, #-1
 1956 0026 7B60     		str	r3, [r7, #4]
 1957              	.L83:
1603:../libraries/STM32F10x_StdPeriph_Driver/src/stm32f10x_flash.c ****   while((status == FLASH_BUSY) && (Timeout != 0x00))
 1958              		.loc 1 1603 0 discriminator 1
 1959 0028 FB7B     		ldrb	r3, [r7, #15]	@ zero_extendqisi2
 1960 002a 012B     		cmp	r3, #1
 1961 002c 02D1     		bne	.L84
1603:../libraries/STM32F10x_StdPeriph_Driver/src/stm32f10x_flash.c ****   while((status == FLASH_BUSY) && (Timeout != 0x00))
 1962              		.loc 1 1603 0 is_stmt 0 discriminator 2
 1963 002e 7B68     		ldr	r3, [r7, #4]
 1964 0030 002B     		cmp	r3, #0
 1965 0032 F1D1     		bne	.L85
 1966              	.L84:
1607:../libraries/STM32F10x_StdPeriph_Driver/src/stm32f10x_flash.c ****   }
1608:../libraries/STM32F10x_StdPeriph_Driver/src/stm32f10x_flash.c ****   if(Timeout == 0x00 )
 1967              		.loc 1 1608 0 is_stmt 1
 1968 0034 7B68     		ldr	r3, [r7, #4]
 1969 0036 002B     		cmp	r3, #0
 1970 0038 02D1     		bne	.L86
1609:../libraries/STM32F10x_StdPeriph_Driver/src/stm32f10x_flash.c ****   {
1610:../libraries/STM32F10x_StdPeriph_Driver/src/stm32f10x_flash.c ****     status = FLASH_TIMEOUT;
 1971              		.loc 1 1610 0
 1972 003a 4FF00503 		mov	r3, #5
 1973 003e FB73     		strb	r3, [r7, #15]
 1974              	.L86:
1611:../libraries/STM32F10x_StdPeriph_Driver/src/stm32f10x_flash.c ****   }
1612:../libraries/STM32F10x_StdPeriph_Driver/src/stm32f10x_flash.c ****   /* Return the operation status */
1613:../libraries/STM32F10x_StdPeriph_Driver/src/stm32f10x_flash.c ****   return status;
 1975              		.loc 1 1613 0
 1976 0040 FB7B     		ldrb	r3, [r7, #15]	@ zero_extendqisi2
1614:../libraries/STM32F10x_StdPeriph_Driver/src/stm32f10x_flash.c **** }
 1977              		.loc 1 1614 0
 1978 0042 1846     		mov	r0, r3
 1979 0044 07F11007 		add	r7, r7, #16
 1980 0048 BD46     		mov	sp, r7
 1981 004a 80BD     		pop	{r7, pc}
 1982              		.cfi_endproc
 1983              	.LFE82:
 1985              		.section	.text.FLASH_WaitForLastBank1Operation,"ax",%progbits
 1986              		.align	2
 1987              		.global	FLASH_WaitForLastBank1Operation
 1988              		.thumb
 1989              		.thumb_func
 1991              	FLASH_WaitForLastBank1Operation:
 1992              	.LFB83:
1615:../libraries/STM32F10x_StdPeriph_Driver/src/stm32f10x_flash.c **** 
1616:../libraries/STM32F10x_StdPeriph_Driver/src/stm32f10x_flash.c **** /**
1617:../libraries/STM32F10x_StdPeriph_Driver/src/stm32f10x_flash.c ****   * @brief  Waits for a Flash operation on Bank1 to complete or a TIMEOUT to occur.
1618:../libraries/STM32F10x_StdPeriph_Driver/src/stm32f10x_flash.c ****   * @note   This function can be used for all STM32F10x devices, 
1619:../libraries/STM32F10x_StdPeriph_Driver/src/stm32f10x_flash.c ****   *         it is equivalent to FLASH_WaitForLastOperation.
1620:../libraries/STM32F10x_StdPeriph_Driver/src/stm32f10x_flash.c ****   * @param  Timeout: FLASH programming Timeout
1621:../libraries/STM32F10x_StdPeriph_Driver/src/stm32f10x_flash.c ****   * @retval FLASH Status: The returned value can be: FLASH_ERROR_PG,
1622:../libraries/STM32F10x_StdPeriph_Driver/src/stm32f10x_flash.c ****   *         FLASH_ERROR_WRP, FLASH_COMPLETE or FLASH_TIMEOUT.
1623:../libraries/STM32F10x_StdPeriph_Driver/src/stm32f10x_flash.c ****   */
1624:../libraries/STM32F10x_StdPeriph_Driver/src/stm32f10x_flash.c **** FLASH_Status FLASH_WaitForLastBank1Operation(uint32_t Timeout)
1625:../libraries/STM32F10x_StdPeriph_Driver/src/stm32f10x_flash.c **** { 
 1993              		.loc 1 1625 0
 1994              		.cfi_startproc
 1995              		@ args = 0, pretend = 0, frame = 16
 1996              		@ frame_needed = 1, uses_anonymous_args = 0
 1997 0000 80B5     		push	{r7, lr}
 1998              	.LCFI75:
 1999              		.cfi_def_cfa_offset 8
 2000              		.cfi_offset 7, -8
 2001              		.cfi_offset 14, -4
 2002 0002 84B0     		sub	sp, sp, #16
 2003              	.LCFI76:
 2004              		.cfi_def_cfa_offset 24
 2005 0004 00AF     		add	r7, sp, #0
 2006              	.LCFI77:
 2007              		.cfi_def_cfa_register 7
 2008 0006 7860     		str	r0, [r7, #4]
1626:../libraries/STM32F10x_StdPeriph_Driver/src/stm32f10x_flash.c ****   FLASH_Status status = FLASH_COMPLETE;
 2009              		.loc 1 1626 0
 2010 0008 4FF00403 		mov	r3, #4
 2011 000c FB73     		strb	r3, [r7, #15]
1627:../libraries/STM32F10x_StdPeriph_Driver/src/stm32f10x_flash.c ****    
1628:../libraries/STM32F10x_StdPeriph_Driver/src/stm32f10x_flash.c ****   /* Check for the Flash Status */
1629:../libraries/STM32F10x_StdPeriph_Driver/src/stm32f10x_flash.c ****   status = FLASH_GetBank1Status();
 2012              		.loc 1 1629 0
 2013 000e FFF7FEFF 		bl	FLASH_GetBank1Status
 2014 0012 0346     		mov	r3, r0
 2015 0014 FB73     		strb	r3, [r7, #15]
1630:../libraries/STM32F10x_StdPeriph_Driver/src/stm32f10x_flash.c ****   /* Wait for a Flash operation to complete or a TIMEOUT to occur */
1631:../libraries/STM32F10x_StdPeriph_Driver/src/stm32f10x_flash.c ****   while((status == FLASH_FLAG_BANK1_BSY) && (Timeout != 0x00))
 2016              		.loc 1 1631 0
 2017 0016 07E0     		b	.L89
 2018              	.L91:
1632:../libraries/STM32F10x_StdPeriph_Driver/src/stm32f10x_flash.c ****   {
1633:../libraries/STM32F10x_StdPeriph_Driver/src/stm32f10x_flash.c ****     status = FLASH_GetBank1Status();
 2019              		.loc 1 1633 0
 2020 0018 FFF7FEFF 		bl	FLASH_GetBank1Status
 2021 001c 0346     		mov	r3, r0
 2022 001e FB73     		strb	r3, [r7, #15]
1634:../libraries/STM32F10x_StdPeriph_Driver/src/stm32f10x_flash.c ****     Timeout--;
 2023              		.loc 1 1634 0
 2024 0020 7B68     		ldr	r3, [r7, #4]
 2025 0022 03F1FF33 		add	r3, r3, #-1
 2026 0026 7B60     		str	r3, [r7, #4]
 2027              	.L89:
1631:../libraries/STM32F10x_StdPeriph_Driver/src/stm32f10x_flash.c ****   while((status == FLASH_FLAG_BANK1_BSY) && (Timeout != 0x00))
 2028              		.loc 1 1631 0 discriminator 1
 2029 0028 FB7B     		ldrb	r3, [r7, #15]	@ zero_extendqisi2
 2030 002a 012B     		cmp	r3, #1
 2031 002c 02D1     		bne	.L90
1631:../libraries/STM32F10x_StdPeriph_Driver/src/stm32f10x_flash.c ****   while((status == FLASH_FLAG_BANK1_BSY) && (Timeout != 0x00))
 2032              		.loc 1 1631 0 is_stmt 0 discriminator 2
 2033 002e 7B68     		ldr	r3, [r7, #4]
 2034 0030 002B     		cmp	r3, #0
 2035 0032 F1D1     		bne	.L91
 2036              	.L90:
1635:../libraries/STM32F10x_StdPeriph_Driver/src/stm32f10x_flash.c ****   }
1636:../libraries/STM32F10x_StdPeriph_Driver/src/stm32f10x_flash.c ****   if(Timeout == 0x00 )
 2037              		.loc 1 1636 0 is_stmt 1
 2038 0034 7B68     		ldr	r3, [r7, #4]
 2039 0036 002B     		cmp	r3, #0
 2040 0038 02D1     		bne	.L92
1637:../libraries/STM32F10x_StdPeriph_Driver/src/stm32f10x_flash.c ****   {
1638:../libraries/STM32F10x_StdPeriph_Driver/src/stm32f10x_flash.c ****     status = FLASH_TIMEOUT;
 2041              		.loc 1 1638 0
 2042 003a 4FF00503 		mov	r3, #5
 2043 003e FB73     		strb	r3, [r7, #15]
 2044              	.L92:
1639:../libraries/STM32F10x_StdPeriph_Driver/src/stm32f10x_flash.c ****   }
1640:../libraries/STM32F10x_StdPeriph_Driver/src/stm32f10x_flash.c ****   /* Return the operation status */
1641:../libraries/STM32F10x_StdPeriph_Driver/src/stm32f10x_flash.c ****   return status;
 2045              		.loc 1 1641 0
 2046 0040 FB7B     		ldrb	r3, [r7, #15]	@ zero_extendqisi2
1642:../libraries/STM32F10x_StdPeriph_Driver/src/stm32f10x_flash.c **** }
 2047              		.loc 1 1642 0
 2048 0042 1846     		mov	r0, r3
 2049 0044 07F11007 		add	r7, r7, #16
 2050 0048 BD46     		mov	sp, r7
 2051 004a 80BD     		pop	{r7, pc}
 2052              		.cfi_endproc
 2053              	.LFE83:
 2055              		.text
 2056              	.Letext0:
 2057              		.file 2 "/usr/local/gcc-arm-none-eabi-4_7-2013q1/bin/../lib/gcc/arm-none-eabi/4.7.3/../../../../ar
 2058              		.file 3 "/Users/zac/code/spark/marvin/libraries/CMSIS/Device/ST/STM32F10x/Include/stm32f10x.h"
 2059              		.file 4 "/Users/zac/code/spark/marvin/libraries/STM32F10x_StdPeriph_Driver/inc/stm32f10x_flash.h"
 2060              		.file 5 "/Users/zac/code/spark/marvin/libraries/CMSIS/Include/core_cm3.h"
DEFINED SYMBOLS
                            *ABS*:0000000000000000 stm32f10x_flash.c
/var/folders/d1/846xqcps64v4wybnmd7kk8540000gn/T//ccwRcICY.s:19     .text.FLASH_SetLatency:0000000000000000 $t
/var/folders/d1/846xqcps64v4wybnmd7kk8540000gn/T//ccwRcICY.s:24     .text.FLASH_SetLatency:0000000000000000 FLASH_SetLatency
/var/folders/d1/846xqcps64v4wybnmd7kk8540000gn/T//ccwRcICY.s:74     .text.FLASH_HalfCycleAccessCmd:0000000000000000 $t
/var/folders/d1/846xqcps64v4wybnmd7kk8540000gn/T//ccwRcICY.s:79     .text.FLASH_HalfCycleAccessCmd:0000000000000000 FLASH_HalfCycleAccessCmd
/var/folders/d1/846xqcps64v4wybnmd7kk8540000gn/T//ccwRcICY.s:123    .text.FLASH_PrefetchBufferCmd:0000000000000000 $t
/var/folders/d1/846xqcps64v4wybnmd7kk8540000gn/T//ccwRcICY.s:128    .text.FLASH_PrefetchBufferCmd:0000000000000000 FLASH_PrefetchBufferCmd
/var/folders/d1/846xqcps64v4wybnmd7kk8540000gn/T//ccwRcICY.s:172    .text.FLASH_Unlock:0000000000000000 $t
/var/folders/d1/846xqcps64v4wybnmd7kk8540000gn/T//ccwRcICY.s:177    .text.FLASH_Unlock:0000000000000000 FLASH_Unlock
/var/folders/d1/846xqcps64v4wybnmd7kk8540000gn/T//ccwRcICY.s:211    .text.FLASH_UnlockBank1:0000000000000000 $t
/var/folders/d1/846xqcps64v4wybnmd7kk8540000gn/T//ccwRcICY.s:216    .text.FLASH_UnlockBank1:0000000000000000 FLASH_UnlockBank1
/var/folders/d1/846xqcps64v4wybnmd7kk8540000gn/T//ccwRcICY.s:250    .text.FLASH_Lock:0000000000000000 $t
/var/folders/d1/846xqcps64v4wybnmd7kk8540000gn/T//ccwRcICY.s:255    .text.FLASH_Lock:0000000000000000 FLASH_Lock
/var/folders/d1/846xqcps64v4wybnmd7kk8540000gn/T//ccwRcICY.s:285    .text.FLASH_LockBank1:0000000000000000 $t
/var/folders/d1/846xqcps64v4wybnmd7kk8540000gn/T//ccwRcICY.s:290    .text.FLASH_LockBank1:0000000000000000 FLASH_LockBank1
/var/folders/d1/846xqcps64v4wybnmd7kk8540000gn/T//ccwRcICY.s:320    .text.FLASH_ErasePage:0000000000000000 $t
/var/folders/d1/846xqcps64v4wybnmd7kk8540000gn/T//ccwRcICY.s:325    .text.FLASH_ErasePage:0000000000000000 FLASH_ErasePage
/var/folders/d1/846xqcps64v4wybnmd7kk8540000gn/T//ccwRcICY.s:1921   .text.FLASH_WaitForLastOperation:0000000000000000 FLASH_WaitForLastOperation
/var/folders/d1/846xqcps64v4wybnmd7kk8540000gn/T//ccwRcICY.s:402    .text.FLASH_EraseAllPages:0000000000000000 $t
/var/folders/d1/846xqcps64v4wybnmd7kk8540000gn/T//ccwRcICY.s:407    .text.FLASH_EraseAllPages:0000000000000000 FLASH_EraseAllPages
/var/folders/d1/846xqcps64v4wybnmd7kk8540000gn/T//ccwRcICY.s:478    .text.FLASH_EraseAllBank1Pages:0000000000000000 $t
/var/folders/d1/846xqcps64v4wybnmd7kk8540000gn/T//ccwRcICY.s:483    .text.FLASH_EraseAllBank1Pages:0000000000000000 FLASH_EraseAllBank1Pages
/var/folders/d1/846xqcps64v4wybnmd7kk8540000gn/T//ccwRcICY.s:1991   .text.FLASH_WaitForLastBank1Operation:0000000000000000 FLASH_WaitForLastBank1Operation
/var/folders/d1/846xqcps64v4wybnmd7kk8540000gn/T//ccwRcICY.s:554    .text.FLASH_EraseOptionBytes:0000000000000000 $t
/var/folders/d1/846xqcps64v4wybnmd7kk8540000gn/T//ccwRcICY.s:559    .text.FLASH_EraseOptionBytes:0000000000000000 FLASH_EraseOptionBytes
/var/folders/d1/846xqcps64v4wybnmd7kk8540000gn/T//ccwRcICY.s:1488   .text.FLASH_GetReadOutProtectionStatus:0000000000000000 FLASH_GetReadOutProtectionStatus
/var/folders/d1/846xqcps64v4wybnmd7kk8540000gn/T//ccwRcICY.s:704    .text.FLASH_ProgramWord:0000000000000000 $t
/var/folders/d1/846xqcps64v4wybnmd7kk8540000gn/T//ccwRcICY.s:709    .text.FLASH_ProgramWord:0000000000000000 FLASH_ProgramWord
/var/folders/d1/846xqcps64v4wybnmd7kk8540000gn/T//ccwRcICY.s:812    .text.FLASH_ProgramHalfWord:0000000000000000 $t
/var/folders/d1/846xqcps64v4wybnmd7kk8540000gn/T//ccwRcICY.s:817    .text.FLASH_ProgramHalfWord:0000000000000000 FLASH_ProgramHalfWord
/var/folders/d1/846xqcps64v4wybnmd7kk8540000gn/T//ccwRcICY.s:887    .text.FLASH_ProgramOptionByteData:0000000000000000 $t
/var/folders/d1/846xqcps64v4wybnmd7kk8540000gn/T//ccwRcICY.s:892    .text.FLASH_ProgramOptionByteData:0000000000000000 FLASH_ProgramOptionByteData
/var/folders/d1/846xqcps64v4wybnmd7kk8540000gn/T//ccwRcICY.s:979    .text.FLASH_EnableWriteProtection:0000000000000000 $t
/var/folders/d1/846xqcps64v4wybnmd7kk8540000gn/T//ccwRcICY.s:984    .text.FLASH_EnableWriteProtection:0000000000000000 FLASH_EnableWriteProtection
/var/folders/d1/846xqcps64v4wybnmd7kk8540000gn/T//ccwRcICY.s:1163   .text.FLASH_ReadOutProtection:0000000000000000 $t
/var/folders/d1/846xqcps64v4wybnmd7kk8540000gn/T//ccwRcICY.s:1168   .text.FLASH_ReadOutProtection:0000000000000000 FLASH_ReadOutProtection
/var/folders/d1/846xqcps64v4wybnmd7kk8540000gn/T//ccwRcICY.s:1315   .text.FLASH_UserOptionByteConfig:0000000000000000 $t
/var/folders/d1/846xqcps64v4wybnmd7kk8540000gn/T//ccwRcICY.s:1320   .text.FLASH_UserOptionByteConfig:0000000000000000 FLASH_UserOptionByteConfig
/var/folders/d1/846xqcps64v4wybnmd7kk8540000gn/T//ccwRcICY.s:1418   .text.FLASH_GetUserOptionByte:0000000000000000 $t
/var/folders/d1/846xqcps64v4wybnmd7kk8540000gn/T//ccwRcICY.s:1423   .text.FLASH_GetUserOptionByte:0000000000000000 FLASH_GetUserOptionByte
/var/folders/d1/846xqcps64v4wybnmd7kk8540000gn/T//ccwRcICY.s:1451   .text.FLASH_GetWriteProtectionOptionByte:0000000000000000 $t
/var/folders/d1/846xqcps64v4wybnmd7kk8540000gn/T//ccwRcICY.s:1456   .text.FLASH_GetWriteProtectionOptionByte:0000000000000000 FLASH_GetWriteProtectionOptionByte
/var/folders/d1/846xqcps64v4wybnmd7kk8540000gn/T//ccwRcICY.s:1483   .text.FLASH_GetReadOutProtectionStatus:0000000000000000 $t
/var/folders/d1/846xqcps64v4wybnmd7kk8540000gn/T//ccwRcICY.s:1536   .text.FLASH_GetPrefetchBufferStatus:0000000000000000 $t
/var/folders/d1/846xqcps64v4wybnmd7kk8540000gn/T//ccwRcICY.s:1541   .text.FLASH_GetPrefetchBufferStatus:0000000000000000 FLASH_GetPrefetchBufferStatus
/var/folders/d1/846xqcps64v4wybnmd7kk8540000gn/T//ccwRcICY.s:1589   .text.FLASH_ITConfig:0000000000000000 $t
/var/folders/d1/846xqcps64v4wybnmd7kk8540000gn/T//ccwRcICY.s:1594   .text.FLASH_ITConfig:0000000000000000 FLASH_ITConfig
/var/folders/d1/846xqcps64v4wybnmd7kk8540000gn/T//ccwRcICY.s:1649   .text.FLASH_GetFlagStatus:0000000000000000 $t
/var/folders/d1/846xqcps64v4wybnmd7kk8540000gn/T//ccwRcICY.s:1654   .text.FLASH_GetFlagStatus:0000000000000000 FLASH_GetFlagStatus
/var/folders/d1/846xqcps64v4wybnmd7kk8540000gn/T//ccwRcICY.s:1725   .text.FLASH_ClearFlag:0000000000000000 $t
/var/folders/d1/846xqcps64v4wybnmd7kk8540000gn/T//ccwRcICY.s:1730   .text.FLASH_ClearFlag:0000000000000000 FLASH_ClearFlag
/var/folders/d1/846xqcps64v4wybnmd7kk8540000gn/T//ccwRcICY.s:1762   .text.FLASH_GetStatus:0000000000000000 $t
/var/folders/d1/846xqcps64v4wybnmd7kk8540000gn/T//ccwRcICY.s:1767   .text.FLASH_GetStatus:0000000000000000 FLASH_GetStatus
/var/folders/d1/846xqcps64v4wybnmd7kk8540000gn/T//ccwRcICY.s:1839   .text.FLASH_GetBank1Status:0000000000000000 $t
/var/folders/d1/846xqcps64v4wybnmd7kk8540000gn/T//ccwRcICY.s:1844   .text.FLASH_GetBank1Status:0000000000000000 FLASH_GetBank1Status
/var/folders/d1/846xqcps64v4wybnmd7kk8540000gn/T//ccwRcICY.s:1916   .text.FLASH_WaitForLastOperation:0000000000000000 $t
/var/folders/d1/846xqcps64v4wybnmd7kk8540000gn/T//ccwRcICY.s:1986   .text.FLASH_WaitForLastBank1Operation:0000000000000000 $t
                     .debug_frame:0000000000000010 $d
                           .group:0000000000000000 wm4.1.8991b0b359e9e91a82acb66692cb6642
                           .group:0000000000000000 wm4.stm32f10x.h.57.69ab29c83f735418a543aa508b559235
                           .group:0000000000000000 wm4.core_cm3.h.32.8e21fbd14bb96c2b40e026c4d2c8fe1f
                           .group:0000000000000000 wm4.newlib.h.8.a9901dc52d1357e3e94003403d43f8b5
                           .group:0000000000000000 wm4.features.h.22.b72b3baab2bb2eab3661375590100b6b
                           .group:0000000000000000 wm4.config.h.193.5fb8ef056cdff92dec3dee9552839d8c
                           .group:0000000000000000 wm4._ansi.h.23.b5bb84d7ba97d82b5b1dc1826a7ae811
                           .group:0000000000000000 wm4.stdint.h.20.54ad762faa59e3c05491630641c8d8bf
                           .group:0000000000000000 wm4.core_cmInstr.h.25.d8165482ef3061013a2fc83e2d85f3d9
                           .group:0000000000000000 wm4.core_cm3.h.129.e08b7204181ea22e6a9fa84cb9ad0924
                           .group:0000000000000000 wm4.stm32f10x.h.532.91bd57525f6c583f00129a351847d405
                           .group:0000000000000000 wm4.stm32f10x_adc.h.89.9f2b285fa0070185d48a05b61a05798c
                           .group:0000000000000000 wm4.stm32f10x_bkp.h.31.74a586c036c8ee5d9205c6728cc8d6ab
                           .group:0000000000000000 wm4.stm32f10x_dma.h.31.ef16218235edc52b414c0353f44b4bf0
                           .group:0000000000000000 wm4.stm32f10x_exti.h.31.b25bcb4f1a2daad39d2d7dfa4e901646
                           .group:0000000000000000 wm4.stm32f10x_gpio.h.31.0a32659dbac1fc1055c7cbdc248963be
                           .group:0000000000000000 wm4.stm32f10x_i2c.h.31.93d7dc2d477856f119d957730d4c6f1c
                           .group:0000000000000000 wm4.stm32f10x_pwr.h.31.9168b6921e0cf03b467c7ed90861c701
                           .group:0000000000000000 wm4.stm32f10x_rcc.h.31.2ee3219a25ef4ced658f2fe9d8cd94aa
                           .group:0000000000000000 wm4.stm32f10x_rtc.h.31.00ba78fc0dbb06b6e6783a1e7fccf5a0
                           .group:0000000000000000 wm4.stm32f10x_spi.h.31.d2f6e4626887cabe8c98f3a185590a36
                           .group:0000000000000000 wm4.stm32f10x_tim.h.31.6c06f7f26e0864f9cd59597f46ca2c7c
                           .group:0000000000000000 wm4.stm32f10x_usart.h.31.28d75d6af05cefbbfa00cf30a7c8a335
                           .group:0000000000000000 wm4.misc.h.31.a89fba2040036f6f8c835a78a213e0cd
                           .group:0000000000000000 wm4.stm32f10x.h.8356.9fd2fa84655112ac7dfc5c88beeb383d
                           .group:0000000000000000 wm4.stm32f10x_flash.h.77.969ce41ea63270985475bb296c7a298f

NO UNDEFINED SYMBOLS
