   1              		.syntax unified
   2              		.cpu cortex-m3
   3              		.fpu softvfp
   4              		.eabi_attribute 20, 1
   5              		.eabi_attribute 21, 1
   6              		.eabi_attribute 23, 3
   7              		.eabi_attribute 24, 1
   8              		.eabi_attribute 25, 1
   9              		.eabi_attribute 26, 1
  10              		.eabi_attribute 30, 4
  11              		.eabi_attribute 34, 1
  12              		.eabi_attribute 18, 4
  13              		.thumb
  14              		.file	"stm32f10x_bkp.c"
  15              		.text
  16              	.Ltext0:
  17              		.cfi_sections	.debug_frame
  18              		.section	.text.BKP_DeInit,"ax",%progbits
  19              		.align	1
  20              		.global	BKP_DeInit
  21              		.thumb
  22              		.thumb_func
  24              	BKP_DeInit:
  25              	.LFB56:
  26              		.file 1 "../libraries/STM32F10x_StdPeriph_Driver/src/stm32f10x_bkp.c"
   1:../libraries/STM32F10x_StdPeriph_Driver/src/stm32f10x_bkp.c **** /**
   2:../libraries/STM32F10x_StdPeriph_Driver/src/stm32f10x_bkp.c ****   ******************************************************************************
   3:../libraries/STM32F10x_StdPeriph_Driver/src/stm32f10x_bkp.c ****   * @file    stm32f10x_bkp.c
   4:../libraries/STM32F10x_StdPeriph_Driver/src/stm32f10x_bkp.c ****   * @author  MCD Application Team
   5:../libraries/STM32F10x_StdPeriph_Driver/src/stm32f10x_bkp.c ****   * @version V3.6.1
   6:../libraries/STM32F10x_StdPeriph_Driver/src/stm32f10x_bkp.c ****   * @date    05-March-2012
   7:../libraries/STM32F10x_StdPeriph_Driver/src/stm32f10x_bkp.c ****   * @brief   This file provides all the BKP firmware functions.
   8:../libraries/STM32F10x_StdPeriph_Driver/src/stm32f10x_bkp.c ****   ******************************************************************************
   9:../libraries/STM32F10x_StdPeriph_Driver/src/stm32f10x_bkp.c ****   * @attention
  10:../libraries/STM32F10x_StdPeriph_Driver/src/stm32f10x_bkp.c ****   *
  11:../libraries/STM32F10x_StdPeriph_Driver/src/stm32f10x_bkp.c ****   * <h2><center>&copy; COPYRIGHT 2012 STMicroelectronics</center></h2>
  12:../libraries/STM32F10x_StdPeriph_Driver/src/stm32f10x_bkp.c ****   *
  13:../libraries/STM32F10x_StdPeriph_Driver/src/stm32f10x_bkp.c ****   * Licensed under MCD-ST Liberty SW License Agreement V2, (the "License");
  14:../libraries/STM32F10x_StdPeriph_Driver/src/stm32f10x_bkp.c ****   * You may not use this file except in compliance with the License.
  15:../libraries/STM32F10x_StdPeriph_Driver/src/stm32f10x_bkp.c ****   * You may obtain a copy of the License at:
  16:../libraries/STM32F10x_StdPeriph_Driver/src/stm32f10x_bkp.c ****   *
  17:../libraries/STM32F10x_StdPeriph_Driver/src/stm32f10x_bkp.c ****   *        http://www.st.com/software_license_agreement_liberty_v2
  18:../libraries/STM32F10x_StdPeriph_Driver/src/stm32f10x_bkp.c ****   *
  19:../libraries/STM32F10x_StdPeriph_Driver/src/stm32f10x_bkp.c ****   * Unless required by applicable law or agreed to in writing, software 
  20:../libraries/STM32F10x_StdPeriph_Driver/src/stm32f10x_bkp.c ****   * distributed under the License is distributed on an "AS IS" BASIS, 
  21:../libraries/STM32F10x_StdPeriph_Driver/src/stm32f10x_bkp.c ****   * WITHOUT WARRANTIES OR CONDITIONS OF ANY KIND, either express or implied.
  22:../libraries/STM32F10x_StdPeriph_Driver/src/stm32f10x_bkp.c ****   * See the License for the specific language governing permissions and
  23:../libraries/STM32F10x_StdPeriph_Driver/src/stm32f10x_bkp.c ****   * limitations under the License.
  24:../libraries/STM32F10x_StdPeriph_Driver/src/stm32f10x_bkp.c ****   *
  25:../libraries/STM32F10x_StdPeriph_Driver/src/stm32f10x_bkp.c ****   ******************************************************************************
  26:../libraries/STM32F10x_StdPeriph_Driver/src/stm32f10x_bkp.c ****   */
  27:../libraries/STM32F10x_StdPeriph_Driver/src/stm32f10x_bkp.c **** 
  28:../libraries/STM32F10x_StdPeriph_Driver/src/stm32f10x_bkp.c **** /* Includes ------------------------------------------------------------------*/
  29:../libraries/STM32F10x_StdPeriph_Driver/src/stm32f10x_bkp.c **** #include "stm32f10x_bkp.h"
  30:../libraries/STM32F10x_StdPeriph_Driver/src/stm32f10x_bkp.c **** #include "stm32f10x_rcc.h"
  31:../libraries/STM32F10x_StdPeriph_Driver/src/stm32f10x_bkp.c **** 
  32:../libraries/STM32F10x_StdPeriph_Driver/src/stm32f10x_bkp.c **** /** @addtogroup STM32F10x_StdPeriph_Driver
  33:../libraries/STM32F10x_StdPeriph_Driver/src/stm32f10x_bkp.c ****   * @{
  34:../libraries/STM32F10x_StdPeriph_Driver/src/stm32f10x_bkp.c ****   */
  35:../libraries/STM32F10x_StdPeriph_Driver/src/stm32f10x_bkp.c **** 
  36:../libraries/STM32F10x_StdPeriph_Driver/src/stm32f10x_bkp.c **** /** @defgroup BKP 
  37:../libraries/STM32F10x_StdPeriph_Driver/src/stm32f10x_bkp.c ****   * @brief BKP driver modules
  38:../libraries/STM32F10x_StdPeriph_Driver/src/stm32f10x_bkp.c ****   * @{
  39:../libraries/STM32F10x_StdPeriph_Driver/src/stm32f10x_bkp.c ****   */
  40:../libraries/STM32F10x_StdPeriph_Driver/src/stm32f10x_bkp.c **** 
  41:../libraries/STM32F10x_StdPeriph_Driver/src/stm32f10x_bkp.c **** /** @defgroup BKP_Private_TypesDefinitions
  42:../libraries/STM32F10x_StdPeriph_Driver/src/stm32f10x_bkp.c ****   * @{
  43:../libraries/STM32F10x_StdPeriph_Driver/src/stm32f10x_bkp.c ****   */
  44:../libraries/STM32F10x_StdPeriph_Driver/src/stm32f10x_bkp.c **** 
  45:../libraries/STM32F10x_StdPeriph_Driver/src/stm32f10x_bkp.c **** /**
  46:../libraries/STM32F10x_StdPeriph_Driver/src/stm32f10x_bkp.c ****   * @}
  47:../libraries/STM32F10x_StdPeriph_Driver/src/stm32f10x_bkp.c ****   */
  48:../libraries/STM32F10x_StdPeriph_Driver/src/stm32f10x_bkp.c **** 
  49:../libraries/STM32F10x_StdPeriph_Driver/src/stm32f10x_bkp.c **** /** @defgroup BKP_Private_Defines
  50:../libraries/STM32F10x_StdPeriph_Driver/src/stm32f10x_bkp.c ****   * @{
  51:../libraries/STM32F10x_StdPeriph_Driver/src/stm32f10x_bkp.c ****   */
  52:../libraries/STM32F10x_StdPeriph_Driver/src/stm32f10x_bkp.c **** 
  53:../libraries/STM32F10x_StdPeriph_Driver/src/stm32f10x_bkp.c **** /* ------------ BKP registers bit address in the alias region --------------- */
  54:../libraries/STM32F10x_StdPeriph_Driver/src/stm32f10x_bkp.c **** #define BKP_OFFSET        (BKP_BASE - PERIPH_BASE)
  55:../libraries/STM32F10x_StdPeriph_Driver/src/stm32f10x_bkp.c **** 
  56:../libraries/STM32F10x_StdPeriph_Driver/src/stm32f10x_bkp.c **** /* --- CR Register ----*/
  57:../libraries/STM32F10x_StdPeriph_Driver/src/stm32f10x_bkp.c **** 
  58:../libraries/STM32F10x_StdPeriph_Driver/src/stm32f10x_bkp.c **** /* Alias word address of TPAL bit */
  59:../libraries/STM32F10x_StdPeriph_Driver/src/stm32f10x_bkp.c **** #define CR_OFFSET         (BKP_OFFSET + 0x30)
  60:../libraries/STM32F10x_StdPeriph_Driver/src/stm32f10x_bkp.c **** #define TPAL_BitNumber    0x01
  61:../libraries/STM32F10x_StdPeriph_Driver/src/stm32f10x_bkp.c **** #define CR_TPAL_BB        (PERIPH_BB_BASE + (CR_OFFSET * 32) + (TPAL_BitNumber * 4))
  62:../libraries/STM32F10x_StdPeriph_Driver/src/stm32f10x_bkp.c **** 
  63:../libraries/STM32F10x_StdPeriph_Driver/src/stm32f10x_bkp.c **** /* Alias word address of TPE bit */
  64:../libraries/STM32F10x_StdPeriph_Driver/src/stm32f10x_bkp.c **** #define TPE_BitNumber     0x00
  65:../libraries/STM32F10x_StdPeriph_Driver/src/stm32f10x_bkp.c **** #define CR_TPE_BB         (PERIPH_BB_BASE + (CR_OFFSET * 32) + (TPE_BitNumber * 4))
  66:../libraries/STM32F10x_StdPeriph_Driver/src/stm32f10x_bkp.c **** 
  67:../libraries/STM32F10x_StdPeriph_Driver/src/stm32f10x_bkp.c **** /* --- CSR Register ---*/
  68:../libraries/STM32F10x_StdPeriph_Driver/src/stm32f10x_bkp.c **** 
  69:../libraries/STM32F10x_StdPeriph_Driver/src/stm32f10x_bkp.c **** /* Alias word address of TPIE bit */
  70:../libraries/STM32F10x_StdPeriph_Driver/src/stm32f10x_bkp.c **** #define CSR_OFFSET        (BKP_OFFSET + 0x34)
  71:../libraries/STM32F10x_StdPeriph_Driver/src/stm32f10x_bkp.c **** #define TPIE_BitNumber    0x02
  72:../libraries/STM32F10x_StdPeriph_Driver/src/stm32f10x_bkp.c **** #define CSR_TPIE_BB       (PERIPH_BB_BASE + (CSR_OFFSET * 32) + (TPIE_BitNumber * 4))
  73:../libraries/STM32F10x_StdPeriph_Driver/src/stm32f10x_bkp.c **** 
  74:../libraries/STM32F10x_StdPeriph_Driver/src/stm32f10x_bkp.c **** /* Alias word address of TIF bit */
  75:../libraries/STM32F10x_StdPeriph_Driver/src/stm32f10x_bkp.c **** #define TIF_BitNumber     0x09
  76:../libraries/STM32F10x_StdPeriph_Driver/src/stm32f10x_bkp.c **** #define CSR_TIF_BB        (PERIPH_BB_BASE + (CSR_OFFSET * 32) + (TIF_BitNumber * 4))
  77:../libraries/STM32F10x_StdPeriph_Driver/src/stm32f10x_bkp.c **** 
  78:../libraries/STM32F10x_StdPeriph_Driver/src/stm32f10x_bkp.c **** /* Alias word address of TEF bit */
  79:../libraries/STM32F10x_StdPeriph_Driver/src/stm32f10x_bkp.c **** #define TEF_BitNumber     0x08
  80:../libraries/STM32F10x_StdPeriph_Driver/src/stm32f10x_bkp.c **** #define CSR_TEF_BB        (PERIPH_BB_BASE + (CSR_OFFSET * 32) + (TEF_BitNumber * 4))
  81:../libraries/STM32F10x_StdPeriph_Driver/src/stm32f10x_bkp.c **** 
  82:../libraries/STM32F10x_StdPeriph_Driver/src/stm32f10x_bkp.c **** /* ---------------------- BKP registers bit mask ------------------------ */
  83:../libraries/STM32F10x_StdPeriph_Driver/src/stm32f10x_bkp.c **** 
  84:../libraries/STM32F10x_StdPeriph_Driver/src/stm32f10x_bkp.c **** /* RTCCR register bit mask */
  85:../libraries/STM32F10x_StdPeriph_Driver/src/stm32f10x_bkp.c **** #define RTCCR_CAL_MASK    ((uint16_t)0xFF80)
  86:../libraries/STM32F10x_StdPeriph_Driver/src/stm32f10x_bkp.c **** #define RTCCR_MASK        ((uint16_t)0xFC7F)
  87:../libraries/STM32F10x_StdPeriph_Driver/src/stm32f10x_bkp.c **** 
  88:../libraries/STM32F10x_StdPeriph_Driver/src/stm32f10x_bkp.c **** /**
  89:../libraries/STM32F10x_StdPeriph_Driver/src/stm32f10x_bkp.c ****   * @}
  90:../libraries/STM32F10x_StdPeriph_Driver/src/stm32f10x_bkp.c ****   */ 
  91:../libraries/STM32F10x_StdPeriph_Driver/src/stm32f10x_bkp.c **** 
  92:../libraries/STM32F10x_StdPeriph_Driver/src/stm32f10x_bkp.c **** 
  93:../libraries/STM32F10x_StdPeriph_Driver/src/stm32f10x_bkp.c **** /** @defgroup BKP_Private_Macros
  94:../libraries/STM32F10x_StdPeriph_Driver/src/stm32f10x_bkp.c ****   * @{
  95:../libraries/STM32F10x_StdPeriph_Driver/src/stm32f10x_bkp.c ****   */
  96:../libraries/STM32F10x_StdPeriph_Driver/src/stm32f10x_bkp.c **** 
  97:../libraries/STM32F10x_StdPeriph_Driver/src/stm32f10x_bkp.c **** /**
  98:../libraries/STM32F10x_StdPeriph_Driver/src/stm32f10x_bkp.c ****   * @}
  99:../libraries/STM32F10x_StdPeriph_Driver/src/stm32f10x_bkp.c ****   */
 100:../libraries/STM32F10x_StdPeriph_Driver/src/stm32f10x_bkp.c **** 
 101:../libraries/STM32F10x_StdPeriph_Driver/src/stm32f10x_bkp.c **** /** @defgroup BKP_Private_Variables
 102:../libraries/STM32F10x_StdPeriph_Driver/src/stm32f10x_bkp.c ****   * @{
 103:../libraries/STM32F10x_StdPeriph_Driver/src/stm32f10x_bkp.c ****   */
 104:../libraries/STM32F10x_StdPeriph_Driver/src/stm32f10x_bkp.c **** 
 105:../libraries/STM32F10x_StdPeriph_Driver/src/stm32f10x_bkp.c **** /**
 106:../libraries/STM32F10x_StdPeriph_Driver/src/stm32f10x_bkp.c ****   * @}
 107:../libraries/STM32F10x_StdPeriph_Driver/src/stm32f10x_bkp.c ****   */
 108:../libraries/STM32F10x_StdPeriph_Driver/src/stm32f10x_bkp.c **** 
 109:../libraries/STM32F10x_StdPeriph_Driver/src/stm32f10x_bkp.c **** /** @defgroup BKP_Private_FunctionPrototypes
 110:../libraries/STM32F10x_StdPeriph_Driver/src/stm32f10x_bkp.c ****   * @{
 111:../libraries/STM32F10x_StdPeriph_Driver/src/stm32f10x_bkp.c ****   */
 112:../libraries/STM32F10x_StdPeriph_Driver/src/stm32f10x_bkp.c **** 
 113:../libraries/STM32F10x_StdPeriph_Driver/src/stm32f10x_bkp.c **** /**
 114:../libraries/STM32F10x_StdPeriph_Driver/src/stm32f10x_bkp.c ****   * @}
 115:../libraries/STM32F10x_StdPeriph_Driver/src/stm32f10x_bkp.c ****   */
 116:../libraries/STM32F10x_StdPeriph_Driver/src/stm32f10x_bkp.c **** 
 117:../libraries/STM32F10x_StdPeriph_Driver/src/stm32f10x_bkp.c **** /** @defgroup BKP_Private_Functions
 118:../libraries/STM32F10x_StdPeriph_Driver/src/stm32f10x_bkp.c ****   * @{
 119:../libraries/STM32F10x_StdPeriph_Driver/src/stm32f10x_bkp.c ****   */
 120:../libraries/STM32F10x_StdPeriph_Driver/src/stm32f10x_bkp.c **** 
 121:../libraries/STM32F10x_StdPeriph_Driver/src/stm32f10x_bkp.c **** /**
 122:../libraries/STM32F10x_StdPeriph_Driver/src/stm32f10x_bkp.c ****   * @brief  Deinitializes the BKP peripheral registers to their default reset values.
 123:../libraries/STM32F10x_StdPeriph_Driver/src/stm32f10x_bkp.c ****   * @param  None
 124:../libraries/STM32F10x_StdPeriph_Driver/src/stm32f10x_bkp.c ****   * @retval None
 125:../libraries/STM32F10x_StdPeriph_Driver/src/stm32f10x_bkp.c ****   */
 126:../libraries/STM32F10x_StdPeriph_Driver/src/stm32f10x_bkp.c **** void BKP_DeInit(void)
 127:../libraries/STM32F10x_StdPeriph_Driver/src/stm32f10x_bkp.c **** {
  27              		.loc 1 127 0
  28              		.cfi_startproc
  29              		@ args = 0, pretend = 0, frame = 0
  30              		@ frame_needed = 0, uses_anonymous_args = 0
 128:../libraries/STM32F10x_StdPeriph_Driver/src/stm32f10x_bkp.c ****   RCC_BackupResetCmd(ENABLE);
  31              		.loc 1 128 0
  32 0000 0120     		movs	r0, #1
 127:../libraries/STM32F10x_StdPeriph_Driver/src/stm32f10x_bkp.c **** {
  33              		.loc 1 127 0
  34 0002 08B5     		push	{r3, lr}
  35              	.LCFI0:
  36              		.cfi_def_cfa_offset 8
  37              		.cfi_offset 3, -8
  38              		.cfi_offset 14, -4
  39              		.loc 1 128 0
  40 0004 FFF7FEFF 		bl	RCC_BackupResetCmd
  41              	.LVL0:
 129:../libraries/STM32F10x_StdPeriph_Driver/src/stm32f10x_bkp.c ****   RCC_BackupResetCmd(DISABLE);
  42              		.loc 1 129 0
  43 0008 0020     		movs	r0, #0
 130:../libraries/STM32F10x_StdPeriph_Driver/src/stm32f10x_bkp.c **** }
  44              		.loc 1 130 0
  45 000a BDE80840 		pop	{r3, lr}
 129:../libraries/STM32F10x_StdPeriph_Driver/src/stm32f10x_bkp.c ****   RCC_BackupResetCmd(DISABLE);
  46              		.loc 1 129 0
  47 000e FFF7FEBF 		b	RCC_BackupResetCmd
  48              	.LVL1:
  49              		.cfi_endproc
  50              	.LFE56:
  52              		.section	.text.BKP_TamperPinLevelConfig,"ax",%progbits
  53              		.align	1
  54              		.global	BKP_TamperPinLevelConfig
  55              		.thumb
  56              		.thumb_func
  58              	BKP_TamperPinLevelConfig:
  59              	.LFB57:
 131:../libraries/STM32F10x_StdPeriph_Driver/src/stm32f10x_bkp.c **** 
 132:../libraries/STM32F10x_StdPeriph_Driver/src/stm32f10x_bkp.c **** /**
 133:../libraries/STM32F10x_StdPeriph_Driver/src/stm32f10x_bkp.c ****   * @brief  Configures the Tamper Pin active level.
 134:../libraries/STM32F10x_StdPeriph_Driver/src/stm32f10x_bkp.c ****   * @param  BKP_TamperPinLevel: specifies the Tamper Pin active level.
 135:../libraries/STM32F10x_StdPeriph_Driver/src/stm32f10x_bkp.c ****   *   This parameter can be one of the following values:
 136:../libraries/STM32F10x_StdPeriph_Driver/src/stm32f10x_bkp.c ****   *     @arg BKP_TamperPinLevel_High: Tamper pin active on high level
 137:../libraries/STM32F10x_StdPeriph_Driver/src/stm32f10x_bkp.c ****   *     @arg BKP_TamperPinLevel_Low: Tamper pin active on low level
 138:../libraries/STM32F10x_StdPeriph_Driver/src/stm32f10x_bkp.c ****   * @retval None
 139:../libraries/STM32F10x_StdPeriph_Driver/src/stm32f10x_bkp.c ****   */
 140:../libraries/STM32F10x_StdPeriph_Driver/src/stm32f10x_bkp.c **** void BKP_TamperPinLevelConfig(uint16_t BKP_TamperPinLevel)
 141:../libraries/STM32F10x_StdPeriph_Driver/src/stm32f10x_bkp.c **** {
  60              		.loc 1 141 0
  61              		.cfi_startproc
  62              		@ args = 0, pretend = 0, frame = 0
  63              		@ frame_needed = 0, uses_anonymous_args = 0
  64              		@ link register save eliminated.
  65              	.LVL2:
 142:../libraries/STM32F10x_StdPeriph_Driver/src/stm32f10x_bkp.c ****   /* Check the parameters */
 143:../libraries/STM32F10x_StdPeriph_Driver/src/stm32f10x_bkp.c ****   assert_param(IS_BKP_TAMPER_PIN_LEVEL(BKP_TamperPinLevel));
 144:../libraries/STM32F10x_StdPeriph_Driver/src/stm32f10x_bkp.c ****   *(__IO uint32_t *) CR_TPAL_BB = BKP_TamperPinLevel;
  66              		.loc 1 144 0
  67 0000 014B     		ldr	r3, .L3
  68 0002 1860     		str	r0, [r3, #0]
  69 0004 7047     		bx	lr
  70              	.L4:
  71 0006 00BF     		.align	2
  72              	.L3:
  73 0008 04860D42 		.word	1108182532
  74              		.cfi_endproc
  75              	.LFE57:
  77              		.section	.text.BKP_TamperPinCmd,"ax",%progbits
  78              		.align	1
  79              		.global	BKP_TamperPinCmd
  80              		.thumb
  81              		.thumb_func
  83              	BKP_TamperPinCmd:
  84              	.LFB58:
 145:../libraries/STM32F10x_StdPeriph_Driver/src/stm32f10x_bkp.c **** }
 146:../libraries/STM32F10x_StdPeriph_Driver/src/stm32f10x_bkp.c **** 
 147:../libraries/STM32F10x_StdPeriph_Driver/src/stm32f10x_bkp.c **** /**
 148:../libraries/STM32F10x_StdPeriph_Driver/src/stm32f10x_bkp.c ****   * @brief  Enables or disables the Tamper Pin activation.
 149:../libraries/STM32F10x_StdPeriph_Driver/src/stm32f10x_bkp.c ****   * @param  NewState: new state of the Tamper Pin activation.
 150:../libraries/STM32F10x_StdPeriph_Driver/src/stm32f10x_bkp.c ****   *   This parameter can be: ENABLE or DISABLE.
 151:../libraries/STM32F10x_StdPeriph_Driver/src/stm32f10x_bkp.c ****   * @retval None
 152:../libraries/STM32F10x_StdPeriph_Driver/src/stm32f10x_bkp.c ****   */
 153:../libraries/STM32F10x_StdPeriph_Driver/src/stm32f10x_bkp.c **** void BKP_TamperPinCmd(FunctionalState NewState)
 154:../libraries/STM32F10x_StdPeriph_Driver/src/stm32f10x_bkp.c **** {
  85              		.loc 1 154 0
  86              		.cfi_startproc
  87              		@ args = 0, pretend = 0, frame = 0
  88              		@ frame_needed = 0, uses_anonymous_args = 0
  89              		@ link register save eliminated.
  90              	.LVL3:
 155:../libraries/STM32F10x_StdPeriph_Driver/src/stm32f10x_bkp.c ****   /* Check the parameters */
 156:../libraries/STM32F10x_StdPeriph_Driver/src/stm32f10x_bkp.c ****   assert_param(IS_FUNCTIONAL_STATE(NewState));
 157:../libraries/STM32F10x_StdPeriph_Driver/src/stm32f10x_bkp.c ****   *(__IO uint32_t *) CR_TPE_BB = (uint32_t)NewState;
  91              		.loc 1 157 0
  92 0000 014B     		ldr	r3, .L6
  93 0002 1860     		str	r0, [r3, #0]
  94 0004 7047     		bx	lr
  95              	.L7:
  96 0006 00BF     		.align	2
  97              	.L6:
  98 0008 00860D42 		.word	1108182528
  99              		.cfi_endproc
 100              	.LFE58:
 102              		.section	.text.BKP_ITConfig,"ax",%progbits
 103              		.align	1
 104              		.global	BKP_ITConfig
 105              		.thumb
 106              		.thumb_func
 108              	BKP_ITConfig:
 109              	.LFB59:
 158:../libraries/STM32F10x_StdPeriph_Driver/src/stm32f10x_bkp.c **** }
 159:../libraries/STM32F10x_StdPeriph_Driver/src/stm32f10x_bkp.c **** 
 160:../libraries/STM32F10x_StdPeriph_Driver/src/stm32f10x_bkp.c **** /**
 161:../libraries/STM32F10x_StdPeriph_Driver/src/stm32f10x_bkp.c ****   * @brief  Enables or disables the Tamper Pin Interrupt.
 162:../libraries/STM32F10x_StdPeriph_Driver/src/stm32f10x_bkp.c ****   * @param  NewState: new state of the Tamper Pin Interrupt.
 163:../libraries/STM32F10x_StdPeriph_Driver/src/stm32f10x_bkp.c ****   *   This parameter can be: ENABLE or DISABLE.
 164:../libraries/STM32F10x_StdPeriph_Driver/src/stm32f10x_bkp.c ****   * @retval None
 165:../libraries/STM32F10x_StdPeriph_Driver/src/stm32f10x_bkp.c ****   */
 166:../libraries/STM32F10x_StdPeriph_Driver/src/stm32f10x_bkp.c **** void BKP_ITConfig(FunctionalState NewState)
 167:../libraries/STM32F10x_StdPeriph_Driver/src/stm32f10x_bkp.c **** {
 110              		.loc 1 167 0
 111              		.cfi_startproc
 112              		@ args = 0, pretend = 0, frame = 0
 113              		@ frame_needed = 0, uses_anonymous_args = 0
 114              		@ link register save eliminated.
 115              	.LVL4:
 168:../libraries/STM32F10x_StdPeriph_Driver/src/stm32f10x_bkp.c ****   /* Check the parameters */
 169:../libraries/STM32F10x_StdPeriph_Driver/src/stm32f10x_bkp.c ****   assert_param(IS_FUNCTIONAL_STATE(NewState));
 170:../libraries/STM32F10x_StdPeriph_Driver/src/stm32f10x_bkp.c ****   *(__IO uint32_t *) CSR_TPIE_BB = (uint32_t)NewState;
 116              		.loc 1 170 0
 117 0000 014B     		ldr	r3, .L9
 118 0002 1860     		str	r0, [r3, #0]
 119 0004 7047     		bx	lr
 120              	.L10:
 121 0006 00BF     		.align	2
 122              	.L9:
 123 0008 88860D42 		.word	1108182664
 124              		.cfi_endproc
 125              	.LFE59:
 127              		.section	.text.BKP_RTCOutputConfig,"ax",%progbits
 128              		.align	1
 129              		.global	BKP_RTCOutputConfig
 130              		.thumb
 131              		.thumb_func
 133              	BKP_RTCOutputConfig:
 134              	.LFB60:
 171:../libraries/STM32F10x_StdPeriph_Driver/src/stm32f10x_bkp.c **** }
 172:../libraries/STM32F10x_StdPeriph_Driver/src/stm32f10x_bkp.c **** 
 173:../libraries/STM32F10x_StdPeriph_Driver/src/stm32f10x_bkp.c **** /**
 174:../libraries/STM32F10x_StdPeriph_Driver/src/stm32f10x_bkp.c ****   * @brief  Select the RTC output source to output on the Tamper pin.
 175:../libraries/STM32F10x_StdPeriph_Driver/src/stm32f10x_bkp.c ****   * @param  BKP_RTCOutputSource: specifies the RTC output source.
 176:../libraries/STM32F10x_StdPeriph_Driver/src/stm32f10x_bkp.c ****   *   This parameter can be one of the following values:
 177:../libraries/STM32F10x_StdPeriph_Driver/src/stm32f10x_bkp.c ****   *     @arg BKP_RTCOutputSource_None: no RTC output on the Tamper pin.
 178:../libraries/STM32F10x_StdPeriph_Driver/src/stm32f10x_bkp.c ****   *     @arg BKP_RTCOutputSource_CalibClock: output the RTC clock with frequency
 179:../libraries/STM32F10x_StdPeriph_Driver/src/stm32f10x_bkp.c ****   *                                          divided by 64 on the Tamper pin.
 180:../libraries/STM32F10x_StdPeriph_Driver/src/stm32f10x_bkp.c ****   *     @arg BKP_RTCOutputSource_Alarm: output the RTC Alarm pulse signal on
 181:../libraries/STM32F10x_StdPeriph_Driver/src/stm32f10x_bkp.c ****   *                                     the Tamper pin.
 182:../libraries/STM32F10x_StdPeriph_Driver/src/stm32f10x_bkp.c ****   *     @arg BKP_RTCOutputSource_Second: output the RTC Second pulse signal on
 183:../libraries/STM32F10x_StdPeriph_Driver/src/stm32f10x_bkp.c ****   *                                      the Tamper pin.  
 184:../libraries/STM32F10x_StdPeriph_Driver/src/stm32f10x_bkp.c ****   * @retval None
 185:../libraries/STM32F10x_StdPeriph_Driver/src/stm32f10x_bkp.c ****   */
 186:../libraries/STM32F10x_StdPeriph_Driver/src/stm32f10x_bkp.c **** void BKP_RTCOutputConfig(uint16_t BKP_RTCOutputSource)
 187:../libraries/STM32F10x_StdPeriph_Driver/src/stm32f10x_bkp.c **** {
 135              		.loc 1 187 0
 136              		.cfi_startproc
 137              		@ args = 0, pretend = 0, frame = 0
 138              		@ frame_needed = 0, uses_anonymous_args = 0
 139              		@ link register save eliminated.
 140              	.LVL5:
 188:../libraries/STM32F10x_StdPeriph_Driver/src/stm32f10x_bkp.c ****   uint16_t tmpreg = 0;
 189:../libraries/STM32F10x_StdPeriph_Driver/src/stm32f10x_bkp.c ****   /* Check the parameters */
 190:../libraries/STM32F10x_StdPeriph_Driver/src/stm32f10x_bkp.c ****   assert_param(IS_BKP_RTC_OUTPUT_SOURCE(BKP_RTCOutputSource));
 191:../libraries/STM32F10x_StdPeriph_Driver/src/stm32f10x_bkp.c ****   tmpreg = BKP->RTCCR;
 141              		.loc 1 191 0
 142 0000 044A     		ldr	r2, .L12
 143 0002 938D     		ldrh	r3, [r2, #44]
 144              	.LVL6:
 192:../libraries/STM32F10x_StdPeriph_Driver/src/stm32f10x_bkp.c ****   /* Clear CCO, ASOE and ASOS bits */
 193:../libraries/STM32F10x_StdPeriph_Driver/src/stm32f10x_bkp.c ****   tmpreg &= RTCCR_MASK;
 145              		.loc 1 193 0
 146 0004 23F46071 		bic	r1, r3, #896
 147 0008 0B04     		lsls	r3, r1, #16
 148              	.LVL7:
 149 000a 190C     		lsrs	r1, r3, #16
 150              	.LVL8:
 194:../libraries/STM32F10x_StdPeriph_Driver/src/stm32f10x_bkp.c ****   
 195:../libraries/STM32F10x_StdPeriph_Driver/src/stm32f10x_bkp.c ****   /* Set CCO, ASOE and ASOS bits according to BKP_RTCOutputSource value */
 196:../libraries/STM32F10x_StdPeriph_Driver/src/stm32f10x_bkp.c ****   tmpreg |= BKP_RTCOutputSource;
 151              		.loc 1 196 0
 152 000c 0843     		orrs	r0, r0, r1
 153              	.LVL9:
 197:../libraries/STM32F10x_StdPeriph_Driver/src/stm32f10x_bkp.c ****   /* Store the new value */
 198:../libraries/STM32F10x_StdPeriph_Driver/src/stm32f10x_bkp.c ****   BKP->RTCCR = tmpreg;
 154              		.loc 1 198 0
 155 000e 9085     		strh	r0, [r2, #44]	@ movhi
 156 0010 7047     		bx	lr
 157              	.L13:
 158 0012 00BF     		.align	2
 159              	.L12:
 160 0014 006C0040 		.word	1073769472
 161              		.cfi_endproc
 162              	.LFE60:
 164              		.section	.text.BKP_SetRTCCalibrationValue,"ax",%progbits
 165              		.align	1
 166              		.global	BKP_SetRTCCalibrationValue
 167              		.thumb
 168              		.thumb_func
 170              	BKP_SetRTCCalibrationValue:
 171              	.LFB61:
 199:../libraries/STM32F10x_StdPeriph_Driver/src/stm32f10x_bkp.c **** }
 200:../libraries/STM32F10x_StdPeriph_Driver/src/stm32f10x_bkp.c **** 
 201:../libraries/STM32F10x_StdPeriph_Driver/src/stm32f10x_bkp.c **** /**
 202:../libraries/STM32F10x_StdPeriph_Driver/src/stm32f10x_bkp.c ****   * @brief  Sets RTC Clock Calibration value.
 203:../libraries/STM32F10x_StdPeriph_Driver/src/stm32f10x_bkp.c ****   * @param  CalibrationValue: specifies the RTC Clock Calibration value.
 204:../libraries/STM32F10x_StdPeriph_Driver/src/stm32f10x_bkp.c ****   *   This parameter must be a number between 0 and 0x7F.
 205:../libraries/STM32F10x_StdPeriph_Driver/src/stm32f10x_bkp.c ****   * @retval None
 206:../libraries/STM32F10x_StdPeriph_Driver/src/stm32f10x_bkp.c ****   */
 207:../libraries/STM32F10x_StdPeriph_Driver/src/stm32f10x_bkp.c **** void BKP_SetRTCCalibrationValue(uint8_t CalibrationValue)
 208:../libraries/STM32F10x_StdPeriph_Driver/src/stm32f10x_bkp.c **** {
 172              		.loc 1 208 0
 173              		.cfi_startproc
 174              		@ args = 0, pretend = 0, frame = 0
 175              		@ frame_needed = 0, uses_anonymous_args = 0
 176              		@ link register save eliminated.
 177              	.LVL10:
 209:../libraries/STM32F10x_StdPeriph_Driver/src/stm32f10x_bkp.c ****   uint16_t tmpreg = 0;
 210:../libraries/STM32F10x_StdPeriph_Driver/src/stm32f10x_bkp.c ****   /* Check the parameters */
 211:../libraries/STM32F10x_StdPeriph_Driver/src/stm32f10x_bkp.c ****   assert_param(IS_BKP_CALIBRATION_VALUE(CalibrationValue));
 212:../libraries/STM32F10x_StdPeriph_Driver/src/stm32f10x_bkp.c ****   tmpreg = BKP->RTCCR;
 178              		.loc 1 212 0
 179 0000 044A     		ldr	r2, .L15
 180 0002 938D     		ldrh	r3, [r2, #44]
 181              	.LVL11:
 213:../libraries/STM32F10x_StdPeriph_Driver/src/stm32f10x_bkp.c ****   /* Clear CAL[6:0] bits */
 214:../libraries/STM32F10x_StdPeriph_Driver/src/stm32f10x_bkp.c ****   tmpreg &= RTCCR_CAL_MASK;
 182              		.loc 1 214 0
 183 0004 23F07F01 		bic	r1, r3, #127
 184 0008 0B04     		lsls	r3, r1, #16
 185              	.LVL12:
 186 000a 190C     		lsrs	r1, r3, #16
 187              	.LVL13:
 215:../libraries/STM32F10x_StdPeriph_Driver/src/stm32f10x_bkp.c ****   /* Set CAL[6:0] bits according to CalibrationValue value */
 216:../libraries/STM32F10x_StdPeriph_Driver/src/stm32f10x_bkp.c ****   tmpreg |= CalibrationValue;
 188              		.loc 1 216 0
 189 000c 0843     		orrs	r0, r0, r1
 190              	.LVL14:
 217:../libraries/STM32F10x_StdPeriph_Driver/src/stm32f10x_bkp.c ****   /* Store the new value */
 218:../libraries/STM32F10x_StdPeriph_Driver/src/stm32f10x_bkp.c ****   BKP->RTCCR = tmpreg;
 191              		.loc 1 218 0
 192 000e 9085     		strh	r0, [r2, #44]	@ movhi
 193 0010 7047     		bx	lr
 194              	.L16:
 195 0012 00BF     		.align	2
 196              	.L15:
 197 0014 006C0040 		.word	1073769472
 198              		.cfi_endproc
 199              	.LFE61:
 201              		.section	.text.BKP_WriteBackupRegister,"ax",%progbits
 202              		.align	1
 203              		.global	BKP_WriteBackupRegister
 204              		.thumb
 205              		.thumb_func
 207              	BKP_WriteBackupRegister:
 208              	.LFB62:
 219:../libraries/STM32F10x_StdPeriph_Driver/src/stm32f10x_bkp.c **** }
 220:../libraries/STM32F10x_StdPeriph_Driver/src/stm32f10x_bkp.c **** 
 221:../libraries/STM32F10x_StdPeriph_Driver/src/stm32f10x_bkp.c **** /**
 222:../libraries/STM32F10x_StdPeriph_Driver/src/stm32f10x_bkp.c ****   * @brief  Writes user data to the specified Data Backup Register.
 223:../libraries/STM32F10x_StdPeriph_Driver/src/stm32f10x_bkp.c ****   * @param  BKP_DR: specifies the Data Backup Register.
 224:../libraries/STM32F10x_StdPeriph_Driver/src/stm32f10x_bkp.c ****   *   This parameter can be BKP_DRx where x:[1, 42]
 225:../libraries/STM32F10x_StdPeriph_Driver/src/stm32f10x_bkp.c ****   * @param  Data: data to write
 226:../libraries/STM32F10x_StdPeriph_Driver/src/stm32f10x_bkp.c ****   * @retval None
 227:../libraries/STM32F10x_StdPeriph_Driver/src/stm32f10x_bkp.c ****   */
 228:../libraries/STM32F10x_StdPeriph_Driver/src/stm32f10x_bkp.c **** void BKP_WriteBackupRegister(uint16_t BKP_DR, uint16_t Data)
 229:../libraries/STM32F10x_StdPeriph_Driver/src/stm32f10x_bkp.c **** {
 209              		.loc 1 229 0
 210              		.cfi_startproc
 211              		@ args = 0, pretend = 0, frame = 8
 212              		@ frame_needed = 0, uses_anonymous_args = 0
 213              		@ link register save eliminated.
 214              	.LVL15:
 230:../libraries/STM32F10x_StdPeriph_Driver/src/stm32f10x_bkp.c ****   __IO uint32_t tmp = 0;
 231:../libraries/STM32F10x_StdPeriph_Driver/src/stm32f10x_bkp.c **** 
 232:../libraries/STM32F10x_StdPeriph_Driver/src/stm32f10x_bkp.c ****   /* Check the parameters */
 233:../libraries/STM32F10x_StdPeriph_Driver/src/stm32f10x_bkp.c ****   assert_param(IS_BKP_DR(BKP_DR));
 234:../libraries/STM32F10x_StdPeriph_Driver/src/stm32f10x_bkp.c **** 
 235:../libraries/STM32F10x_StdPeriph_Driver/src/stm32f10x_bkp.c ****   tmp = (uint32_t)BKP_BASE; 
 215              		.loc 1 235 0
 216 0000 054A     		ldr	r2, .L18
 229:../libraries/STM32F10x_StdPeriph_Driver/src/stm32f10x_bkp.c **** {
 217              		.loc 1 229 0
 218 0002 82B0     		sub	sp, sp, #8
 219              	.LCFI1:
 220              		.cfi_def_cfa_offset 8
 230:../libraries/STM32F10x_StdPeriph_Driver/src/stm32f10x_bkp.c ****   __IO uint32_t tmp = 0;
 221              		.loc 1 230 0
 222 0004 0023     		movs	r3, #0
 223 0006 0193     		str	r3, [sp, #4]
 224              	.LVL16:
 225              		.loc 1 235 0
 226 0008 0192     		str	r2, [sp, #4]
 236:../libraries/STM32F10x_StdPeriph_Driver/src/stm32f10x_bkp.c ****   tmp += BKP_DR;
 227              		.loc 1 236 0
 228 000a 019B     		ldr	r3, [sp, #4]
 229 000c C018     		adds	r0, r0, r3
 230              	.LVL17:
 231 000e 0190     		str	r0, [sp, #4]
 232              	.LVL18:
 237:../libraries/STM32F10x_StdPeriph_Driver/src/stm32f10x_bkp.c **** 
 238:../libraries/STM32F10x_StdPeriph_Driver/src/stm32f10x_bkp.c ****   *(__IO uint32_t *) tmp = Data;
 233              		.loc 1 238 0
 234 0010 019A     		ldr	r2, [sp, #4]
 235 0012 1160     		str	r1, [r2, #0]
 239:../libraries/STM32F10x_StdPeriph_Driver/src/stm32f10x_bkp.c **** }
 236              		.loc 1 239 0
 237 0014 02B0     		add	sp, sp, #8
 238 0016 7047     		bx	lr
 239              	.L19:
 240              		.align	2
 241              	.L18:
 242 0018 006C0040 		.word	1073769472
 243              		.cfi_endproc
 244              	.LFE62:
 246              		.section	.text.BKP_ReadBackupRegister,"ax",%progbits
 247              		.align	1
 248              		.global	BKP_ReadBackupRegister
 249              		.thumb
 250              		.thumb_func
 252              	BKP_ReadBackupRegister:
 253              	.LFB63:
 240:../libraries/STM32F10x_StdPeriph_Driver/src/stm32f10x_bkp.c **** 
 241:../libraries/STM32F10x_StdPeriph_Driver/src/stm32f10x_bkp.c **** /**
 242:../libraries/STM32F10x_StdPeriph_Driver/src/stm32f10x_bkp.c ****   * @brief  Reads data from the specified Data Backup Register.
 243:../libraries/STM32F10x_StdPeriph_Driver/src/stm32f10x_bkp.c ****   * @param  BKP_DR: specifies the Data Backup Register.
 244:../libraries/STM32F10x_StdPeriph_Driver/src/stm32f10x_bkp.c ****   *   This parameter can be BKP_DRx where x:[1, 42]
 245:../libraries/STM32F10x_StdPeriph_Driver/src/stm32f10x_bkp.c ****   * @retval The content of the specified Data Backup Register
 246:../libraries/STM32F10x_StdPeriph_Driver/src/stm32f10x_bkp.c ****   */
 247:../libraries/STM32F10x_StdPeriph_Driver/src/stm32f10x_bkp.c **** uint16_t BKP_ReadBackupRegister(uint16_t BKP_DR)
 248:../libraries/STM32F10x_StdPeriph_Driver/src/stm32f10x_bkp.c **** {
 254              		.loc 1 248 0
 255              		.cfi_startproc
 256              		@ args = 0, pretend = 0, frame = 8
 257              		@ frame_needed = 0, uses_anonymous_args = 0
 258              		@ link register save eliminated.
 259              	.LVL19:
 249:../libraries/STM32F10x_StdPeriph_Driver/src/stm32f10x_bkp.c ****   __IO uint32_t tmp = 0;
 250:../libraries/STM32F10x_StdPeriph_Driver/src/stm32f10x_bkp.c **** 
 251:../libraries/STM32F10x_StdPeriph_Driver/src/stm32f10x_bkp.c ****   /* Check the parameters */
 252:../libraries/STM32F10x_StdPeriph_Driver/src/stm32f10x_bkp.c ****   assert_param(IS_BKP_DR(BKP_DR));
 253:../libraries/STM32F10x_StdPeriph_Driver/src/stm32f10x_bkp.c **** 
 254:../libraries/STM32F10x_StdPeriph_Driver/src/stm32f10x_bkp.c ****   tmp = (uint32_t)BKP_BASE; 
 260              		.loc 1 254 0
 261 0000 0649     		ldr	r1, .L21
 248:../libraries/STM32F10x_StdPeriph_Driver/src/stm32f10x_bkp.c **** {
 262              		.loc 1 248 0
 263 0002 82B0     		sub	sp, sp, #8
 264              	.LCFI2:
 265              		.cfi_def_cfa_offset 8
 249:../libraries/STM32F10x_StdPeriph_Driver/src/stm32f10x_bkp.c ****   __IO uint32_t tmp = 0;
 266              		.loc 1 249 0
 267 0004 0023     		movs	r3, #0
 268 0006 0193     		str	r3, [sp, #4]
 269              	.LVL20:
 270              		.loc 1 254 0
 271 0008 0191     		str	r1, [sp, #4]
 255:../libraries/STM32F10x_StdPeriph_Driver/src/stm32f10x_bkp.c ****   tmp += BKP_DR;
 272              		.loc 1 255 0
 273 000a 019A     		ldr	r2, [sp, #4]
 274 000c 8018     		adds	r0, r0, r2
 275              	.LVL21:
 276 000e 0190     		str	r0, [sp, #4]
 277              	.LVL22:
 256:../libraries/STM32F10x_StdPeriph_Driver/src/stm32f10x_bkp.c **** 
 257:../libraries/STM32F10x_StdPeriph_Driver/src/stm32f10x_bkp.c ****   return (*(__IO uint16_t *) tmp);
 278              		.loc 1 257 0
 279 0010 019B     		ldr	r3, [sp, #4]
 280 0012 1988     		ldrh	r1, [r3, #0]
 258:../libraries/STM32F10x_StdPeriph_Driver/src/stm32f10x_bkp.c **** }
 281              		.loc 1 258 0
 282 0014 88B2     		uxth	r0, r1
 283              	.LVL23:
 284 0016 02B0     		add	sp, sp, #8
 285 0018 7047     		bx	lr
 286              	.L22:
 287 001a 00BF     		.align	2
 288              	.L21:
 289 001c 006C0040 		.word	1073769472
 290              		.cfi_endproc
 291              	.LFE63:
 293              		.section	.text.BKP_GetFlagStatus,"ax",%progbits
 294              		.align	1
 295              		.global	BKP_GetFlagStatus
 296              		.thumb
 297              		.thumb_func
 299              	BKP_GetFlagStatus:
 300              	.LFB64:
 259:../libraries/STM32F10x_StdPeriph_Driver/src/stm32f10x_bkp.c **** 
 260:../libraries/STM32F10x_StdPeriph_Driver/src/stm32f10x_bkp.c **** /**
 261:../libraries/STM32F10x_StdPeriph_Driver/src/stm32f10x_bkp.c ****   * @brief  Checks whether the Tamper Pin Event flag is set or not.
 262:../libraries/STM32F10x_StdPeriph_Driver/src/stm32f10x_bkp.c ****   * @param  None
 263:../libraries/STM32F10x_StdPeriph_Driver/src/stm32f10x_bkp.c ****   * @retval The new state of the Tamper Pin Event flag (SET or RESET).
 264:../libraries/STM32F10x_StdPeriph_Driver/src/stm32f10x_bkp.c ****   */
 265:../libraries/STM32F10x_StdPeriph_Driver/src/stm32f10x_bkp.c **** FlagStatus BKP_GetFlagStatus(void)
 266:../libraries/STM32F10x_StdPeriph_Driver/src/stm32f10x_bkp.c **** {
 301              		.loc 1 266 0
 302              		.cfi_startproc
 303              		@ args = 0, pretend = 0, frame = 0
 304              		@ frame_needed = 0, uses_anonymous_args = 0
 305              		@ link register save eliminated.
 267:../libraries/STM32F10x_StdPeriph_Driver/src/stm32f10x_bkp.c ****   return (FlagStatus)(*(__IO uint32_t *) CSR_TEF_BB);
 306              		.loc 1 267 0
 307 0000 014B     		ldr	r3, .L24
 308 0002 1868     		ldr	r0, [r3, #0]
 268:../libraries/STM32F10x_StdPeriph_Driver/src/stm32f10x_bkp.c **** }
 309              		.loc 1 268 0
 310 0004 C0B2     		uxtb	r0, r0
 311 0006 7047     		bx	lr
 312              	.L25:
 313              		.align	2
 314              	.L24:
 315 0008 A0860D42 		.word	1108182688
 316              		.cfi_endproc
 317              	.LFE64:
 319              		.section	.text.BKP_ClearFlag,"ax",%progbits
 320              		.align	1
 321              		.global	BKP_ClearFlag
 322              		.thumb
 323              		.thumb_func
 325              	BKP_ClearFlag:
 326              	.LFB65:
 269:../libraries/STM32F10x_StdPeriph_Driver/src/stm32f10x_bkp.c **** 
 270:../libraries/STM32F10x_StdPeriph_Driver/src/stm32f10x_bkp.c **** /**
 271:../libraries/STM32F10x_StdPeriph_Driver/src/stm32f10x_bkp.c ****   * @brief  Clears Tamper Pin Event pending flag.
 272:../libraries/STM32F10x_StdPeriph_Driver/src/stm32f10x_bkp.c ****   * @param  None
 273:../libraries/STM32F10x_StdPeriph_Driver/src/stm32f10x_bkp.c ****   * @retval None
 274:../libraries/STM32F10x_StdPeriph_Driver/src/stm32f10x_bkp.c ****   */
 275:../libraries/STM32F10x_StdPeriph_Driver/src/stm32f10x_bkp.c **** void BKP_ClearFlag(void)
 276:../libraries/STM32F10x_StdPeriph_Driver/src/stm32f10x_bkp.c **** {
 327              		.loc 1 276 0
 328              		.cfi_startproc
 329              		@ args = 0, pretend = 0, frame = 0
 330              		@ frame_needed = 0, uses_anonymous_args = 0
 331              		@ link register save eliminated.
 277:../libraries/STM32F10x_StdPeriph_Driver/src/stm32f10x_bkp.c ****   /* Set CTE bit to clear Tamper Pin Event flag */
 278:../libraries/STM32F10x_StdPeriph_Driver/src/stm32f10x_bkp.c ****   BKP->CSR |= BKP_CSR_CTE;
 332              		.loc 1 278 0
 333 0000 034B     		ldr	r3, .L27
 334 0002 9A8E     		ldrh	r2, [r3, #52]
 335 0004 90B2     		uxth	r0, r2
 336 0006 40F00101 		orr	r1, r0, #1
 337 000a 9986     		strh	r1, [r3, #52]	@ movhi
 338 000c 7047     		bx	lr
 339              	.L28:
 340 000e 00BF     		.align	2
 341              	.L27:
 342 0010 006C0040 		.word	1073769472
 343              		.cfi_endproc
 344              	.LFE65:
 346              		.section	.text.BKP_GetITStatus,"ax",%progbits
 347              		.align	1
 348              		.global	BKP_GetITStatus
 349              		.thumb
 350              		.thumb_func
 352              	BKP_GetITStatus:
 353              	.LFB66:
 279:../libraries/STM32F10x_StdPeriph_Driver/src/stm32f10x_bkp.c **** }
 280:../libraries/STM32F10x_StdPeriph_Driver/src/stm32f10x_bkp.c **** 
 281:../libraries/STM32F10x_StdPeriph_Driver/src/stm32f10x_bkp.c **** /**
 282:../libraries/STM32F10x_StdPeriph_Driver/src/stm32f10x_bkp.c ****   * @brief  Checks whether the Tamper Pin Interrupt has occurred or not.
 283:../libraries/STM32F10x_StdPeriph_Driver/src/stm32f10x_bkp.c ****   * @param  None
 284:../libraries/STM32F10x_StdPeriph_Driver/src/stm32f10x_bkp.c ****   * @retval The new state of the Tamper Pin Interrupt (SET or RESET).
 285:../libraries/STM32F10x_StdPeriph_Driver/src/stm32f10x_bkp.c ****   */
 286:../libraries/STM32F10x_StdPeriph_Driver/src/stm32f10x_bkp.c **** ITStatus BKP_GetITStatus(void)
 287:../libraries/STM32F10x_StdPeriph_Driver/src/stm32f10x_bkp.c **** {
 354              		.loc 1 287 0
 355              		.cfi_startproc
 356              		@ args = 0, pretend = 0, frame = 0
 357              		@ frame_needed = 0, uses_anonymous_args = 0
 358              		@ link register save eliminated.
 288:../libraries/STM32F10x_StdPeriph_Driver/src/stm32f10x_bkp.c ****   return (ITStatus)(*(__IO uint32_t *) CSR_TIF_BB);
 359              		.loc 1 288 0
 360 0000 014B     		ldr	r3, .L30
 361 0002 1868     		ldr	r0, [r3, #0]
 289:../libraries/STM32F10x_StdPeriph_Driver/src/stm32f10x_bkp.c **** }
 362              		.loc 1 289 0
 363 0004 C0B2     		uxtb	r0, r0
 364 0006 7047     		bx	lr
 365              	.L31:
 366              		.align	2
 367              	.L30:
 368 0008 A4860D42 		.word	1108182692
 369              		.cfi_endproc
 370              	.LFE66:
 372              		.section	.text.BKP_ClearITPendingBit,"ax",%progbits
 373              		.align	1
 374              		.global	BKP_ClearITPendingBit
 375              		.thumb
 376              		.thumb_func
 378              	BKP_ClearITPendingBit:
 379              	.LFB67:
 290:../libraries/STM32F10x_StdPeriph_Driver/src/stm32f10x_bkp.c **** 
 291:../libraries/STM32F10x_StdPeriph_Driver/src/stm32f10x_bkp.c **** /**
 292:../libraries/STM32F10x_StdPeriph_Driver/src/stm32f10x_bkp.c ****   * @brief  Clears Tamper Pin Interrupt pending bit.
 293:../libraries/STM32F10x_StdPeriph_Driver/src/stm32f10x_bkp.c ****   * @param  None
 294:../libraries/STM32F10x_StdPeriph_Driver/src/stm32f10x_bkp.c ****   * @retval None
 295:../libraries/STM32F10x_StdPeriph_Driver/src/stm32f10x_bkp.c ****   */
 296:../libraries/STM32F10x_StdPeriph_Driver/src/stm32f10x_bkp.c **** void BKP_ClearITPendingBit(void)
 297:../libraries/STM32F10x_StdPeriph_Driver/src/stm32f10x_bkp.c **** {
 380              		.loc 1 297 0
 381              		.cfi_startproc
 382              		@ args = 0, pretend = 0, frame = 0
 383              		@ frame_needed = 0, uses_anonymous_args = 0
 384              		@ link register save eliminated.
 298:../libraries/STM32F10x_StdPeriph_Driver/src/stm32f10x_bkp.c ****   /* Set CTI bit to clear Tamper Pin Interrupt pending bit */
 299:../libraries/STM32F10x_StdPeriph_Driver/src/stm32f10x_bkp.c ****   BKP->CSR |= BKP_CSR_CTI;
 385              		.loc 1 299 0
 386 0000 034B     		ldr	r3, .L33
 387 0002 9A8E     		ldrh	r2, [r3, #52]
 388 0004 90B2     		uxth	r0, r2
 389 0006 40F00201 		orr	r1, r0, #2
 390 000a 9986     		strh	r1, [r3, #52]	@ movhi
 391 000c 7047     		bx	lr
 392              	.L34:
 393 000e 00BF     		.align	2
 394              	.L33:
 395 0010 006C0040 		.word	1073769472
 396              		.cfi_endproc
 397              	.LFE67:
 399              		.text
 400              	.Letext0:
 401              		.file 2 "/usr/local/gcc-arm-none-eabi-4_7-2013q1/bin/../lib/gcc/arm-none-eabi/4.7.3/../../../../ar
 402              		.file 3 "/Users/zac/code/spark/usb-dfu/libraries/CMSIS/Device/ST/STM32F10x/Include/stm32f10x.h"
 403              		.file 4 "/Users/zac/code/spark/usb-dfu/libraries/CMSIS/Include/core_cm3.h"
 404              		.file 5 "/Users/zac/code/spark/usb-dfu/libraries/STM32F10x_StdPeriph_Driver/inc/stm32f10x_rcc.h"