   1              		.syntax unified
   2              		.cpu cortex-m3
   3              		.fpu softvfp
   4              		.eabi_attribute 20, 1
   5              		.eabi_attribute 21, 1
   6              		.eabi_attribute 23, 3
   7              		.eabi_attribute 24, 1
   8              		.eabi_attribute 25, 1
   9              		.eabi_attribute 26, 1
  10              		.eabi_attribute 30, 6
  11              		.eabi_attribute 34, 1
  12              		.eabi_attribute 18, 4
  13              		.thumb
  14              		.file	"stm32f10x_tim.c"
  15              		.text
  16              	.Ltext0:
  17              		.cfi_sections	.debug_frame
  18              		.section	.text.TIM_DeInit,"ax",%progbits
  19              		.align	2
  20              		.global	TIM_DeInit
  21              		.thumb
  22              		.thumb_func
  24              	TIM_DeInit:
  25              	.LFB56:
  26              		.file 1 "../libraries/STM32F10x_StdPeriph_Driver/src/stm32f10x_tim.c"
   1:../libraries/STM32F10x_StdPeriph_Driver/src/stm32f10x_tim.c **** /**
   2:../libraries/STM32F10x_StdPeriph_Driver/src/stm32f10x_tim.c ****   ******************************************************************************
   3:../libraries/STM32F10x_StdPeriph_Driver/src/stm32f10x_tim.c ****   * @file    stm32f10x_tim.c
   4:../libraries/STM32F10x_StdPeriph_Driver/src/stm32f10x_tim.c ****   * @author  MCD Application Team
   5:../libraries/STM32F10x_StdPeriph_Driver/src/stm32f10x_tim.c ****   * @version V3.6.1
   6:../libraries/STM32F10x_StdPeriph_Driver/src/stm32f10x_tim.c ****   * @date    05-March-2012
   7:../libraries/STM32F10x_StdPeriph_Driver/src/stm32f10x_tim.c ****   * @brief   This file provides all the TIM firmware functions.
   8:../libraries/STM32F10x_StdPeriph_Driver/src/stm32f10x_tim.c ****   ******************************************************************************
   9:../libraries/STM32F10x_StdPeriph_Driver/src/stm32f10x_tim.c ****   * @attention
  10:../libraries/STM32F10x_StdPeriph_Driver/src/stm32f10x_tim.c ****   *
  11:../libraries/STM32F10x_StdPeriph_Driver/src/stm32f10x_tim.c ****   * <h2><center>&copy; COPYRIGHT 2012 STMicroelectronics</center></h2>
  12:../libraries/STM32F10x_StdPeriph_Driver/src/stm32f10x_tim.c ****   *
  13:../libraries/STM32F10x_StdPeriph_Driver/src/stm32f10x_tim.c ****   * Licensed under MCD-ST Liberty SW License Agreement V2, (the "License");
  14:../libraries/STM32F10x_StdPeriph_Driver/src/stm32f10x_tim.c ****   * You may not use this file except in compliance with the License.
  15:../libraries/STM32F10x_StdPeriph_Driver/src/stm32f10x_tim.c ****   * You may obtain a copy of the License at:
  16:../libraries/STM32F10x_StdPeriph_Driver/src/stm32f10x_tim.c ****   *
  17:../libraries/STM32F10x_StdPeriph_Driver/src/stm32f10x_tim.c ****   *        http://www.st.com/software_license_agreement_liberty_v2
  18:../libraries/STM32F10x_StdPeriph_Driver/src/stm32f10x_tim.c ****   *
  19:../libraries/STM32F10x_StdPeriph_Driver/src/stm32f10x_tim.c ****   * Unless required by applicable law or agreed to in writing, software 
  20:../libraries/STM32F10x_StdPeriph_Driver/src/stm32f10x_tim.c ****   * distributed under the License is distributed on an "AS IS" BASIS, 
  21:../libraries/STM32F10x_StdPeriph_Driver/src/stm32f10x_tim.c ****   * WITHOUT WARRANTIES OR CONDITIONS OF ANY KIND, either express or implied.
  22:../libraries/STM32F10x_StdPeriph_Driver/src/stm32f10x_tim.c ****   * See the License for the specific language governing permissions and
  23:../libraries/STM32F10x_StdPeriph_Driver/src/stm32f10x_tim.c ****   * limitations under the License.
  24:../libraries/STM32F10x_StdPeriph_Driver/src/stm32f10x_tim.c ****   *
  25:../libraries/STM32F10x_StdPeriph_Driver/src/stm32f10x_tim.c ****   ******************************************************************************
  26:../libraries/STM32F10x_StdPeriph_Driver/src/stm32f10x_tim.c ****   */
  27:../libraries/STM32F10x_StdPeriph_Driver/src/stm32f10x_tim.c **** 
  28:../libraries/STM32F10x_StdPeriph_Driver/src/stm32f10x_tim.c **** /* Includes ------------------------------------------------------------------*/
  29:../libraries/STM32F10x_StdPeriph_Driver/src/stm32f10x_tim.c **** #include "stm32f10x_tim.h"
  30:../libraries/STM32F10x_StdPeriph_Driver/src/stm32f10x_tim.c **** #include "stm32f10x_rcc.h"
  31:../libraries/STM32F10x_StdPeriph_Driver/src/stm32f10x_tim.c **** 
  32:../libraries/STM32F10x_StdPeriph_Driver/src/stm32f10x_tim.c **** /** @addtogroup STM32F10x_StdPeriph_Driver
  33:../libraries/STM32F10x_StdPeriph_Driver/src/stm32f10x_tim.c ****   * @{
  34:../libraries/STM32F10x_StdPeriph_Driver/src/stm32f10x_tim.c ****   */
  35:../libraries/STM32F10x_StdPeriph_Driver/src/stm32f10x_tim.c **** 
  36:../libraries/STM32F10x_StdPeriph_Driver/src/stm32f10x_tim.c **** /** @defgroup TIM 
  37:../libraries/STM32F10x_StdPeriph_Driver/src/stm32f10x_tim.c ****   * @brief TIM driver modules
  38:../libraries/STM32F10x_StdPeriph_Driver/src/stm32f10x_tim.c ****   * @{
  39:../libraries/STM32F10x_StdPeriph_Driver/src/stm32f10x_tim.c ****   */
  40:../libraries/STM32F10x_StdPeriph_Driver/src/stm32f10x_tim.c **** 
  41:../libraries/STM32F10x_StdPeriph_Driver/src/stm32f10x_tim.c **** /** @defgroup TIM_Private_TypesDefinitions
  42:../libraries/STM32F10x_StdPeriph_Driver/src/stm32f10x_tim.c ****   * @{
  43:../libraries/STM32F10x_StdPeriph_Driver/src/stm32f10x_tim.c ****   */
  44:../libraries/STM32F10x_StdPeriph_Driver/src/stm32f10x_tim.c **** 
  45:../libraries/STM32F10x_StdPeriph_Driver/src/stm32f10x_tim.c **** /**
  46:../libraries/STM32F10x_StdPeriph_Driver/src/stm32f10x_tim.c ****   * @}
  47:../libraries/STM32F10x_StdPeriph_Driver/src/stm32f10x_tim.c ****   */
  48:../libraries/STM32F10x_StdPeriph_Driver/src/stm32f10x_tim.c **** 
  49:../libraries/STM32F10x_StdPeriph_Driver/src/stm32f10x_tim.c **** /** @defgroup TIM_Private_Defines
  50:../libraries/STM32F10x_StdPeriph_Driver/src/stm32f10x_tim.c ****   * @{
  51:../libraries/STM32F10x_StdPeriph_Driver/src/stm32f10x_tim.c ****   */
  52:../libraries/STM32F10x_StdPeriph_Driver/src/stm32f10x_tim.c **** 
  53:../libraries/STM32F10x_StdPeriph_Driver/src/stm32f10x_tim.c **** /* ---------------------- TIM registers bit mask ------------------------ */
  54:../libraries/STM32F10x_StdPeriph_Driver/src/stm32f10x_tim.c **** #define SMCR_ETR_Mask               ((uint16_t)0x00FF) 
  55:../libraries/STM32F10x_StdPeriph_Driver/src/stm32f10x_tim.c **** #define CCMR_Offset                 ((uint16_t)0x0018)
  56:../libraries/STM32F10x_StdPeriph_Driver/src/stm32f10x_tim.c **** #define CCER_CCE_Set                ((uint16_t)0x0001)  
  57:../libraries/STM32F10x_StdPeriph_Driver/src/stm32f10x_tim.c **** #define	CCER_CCNE_Set               ((uint16_t)0x0004) 
  58:../libraries/STM32F10x_StdPeriph_Driver/src/stm32f10x_tim.c **** 
  59:../libraries/STM32F10x_StdPeriph_Driver/src/stm32f10x_tim.c **** /**
  60:../libraries/STM32F10x_StdPeriph_Driver/src/stm32f10x_tim.c ****   * @}
  61:../libraries/STM32F10x_StdPeriph_Driver/src/stm32f10x_tim.c ****   */
  62:../libraries/STM32F10x_StdPeriph_Driver/src/stm32f10x_tim.c **** 
  63:../libraries/STM32F10x_StdPeriph_Driver/src/stm32f10x_tim.c **** /** @defgroup TIM_Private_Macros
  64:../libraries/STM32F10x_StdPeriph_Driver/src/stm32f10x_tim.c ****   * @{
  65:../libraries/STM32F10x_StdPeriph_Driver/src/stm32f10x_tim.c ****   */
  66:../libraries/STM32F10x_StdPeriph_Driver/src/stm32f10x_tim.c **** 
  67:../libraries/STM32F10x_StdPeriph_Driver/src/stm32f10x_tim.c **** /**
  68:../libraries/STM32F10x_StdPeriph_Driver/src/stm32f10x_tim.c ****   * @}
  69:../libraries/STM32F10x_StdPeriph_Driver/src/stm32f10x_tim.c ****   */
  70:../libraries/STM32F10x_StdPeriph_Driver/src/stm32f10x_tim.c **** 
  71:../libraries/STM32F10x_StdPeriph_Driver/src/stm32f10x_tim.c **** /** @defgroup TIM_Private_Variables
  72:../libraries/STM32F10x_StdPeriph_Driver/src/stm32f10x_tim.c ****   * @{
  73:../libraries/STM32F10x_StdPeriph_Driver/src/stm32f10x_tim.c ****   */
  74:../libraries/STM32F10x_StdPeriph_Driver/src/stm32f10x_tim.c **** 
  75:../libraries/STM32F10x_StdPeriph_Driver/src/stm32f10x_tim.c **** /**
  76:../libraries/STM32F10x_StdPeriph_Driver/src/stm32f10x_tim.c ****   * @}
  77:../libraries/STM32F10x_StdPeriph_Driver/src/stm32f10x_tim.c ****   */
  78:../libraries/STM32F10x_StdPeriph_Driver/src/stm32f10x_tim.c **** 
  79:../libraries/STM32F10x_StdPeriph_Driver/src/stm32f10x_tim.c **** /** @defgroup TIM_Private_FunctionPrototypes
  80:../libraries/STM32F10x_StdPeriph_Driver/src/stm32f10x_tim.c ****   * @{
  81:../libraries/STM32F10x_StdPeriph_Driver/src/stm32f10x_tim.c ****   */
  82:../libraries/STM32F10x_StdPeriph_Driver/src/stm32f10x_tim.c **** 
  83:../libraries/STM32F10x_StdPeriph_Driver/src/stm32f10x_tim.c **** static void TI1_Config(TIM_TypeDef* TIMx, uint16_t TIM_ICPolarity, uint16_t TIM_ICSelection,
  84:../libraries/STM32F10x_StdPeriph_Driver/src/stm32f10x_tim.c ****                        uint16_t TIM_ICFilter);
  85:../libraries/STM32F10x_StdPeriph_Driver/src/stm32f10x_tim.c **** static void TI2_Config(TIM_TypeDef* TIMx, uint16_t TIM_ICPolarity, uint16_t TIM_ICSelection,
  86:../libraries/STM32F10x_StdPeriph_Driver/src/stm32f10x_tim.c ****                        uint16_t TIM_ICFilter);
  87:../libraries/STM32F10x_StdPeriph_Driver/src/stm32f10x_tim.c **** static void TI3_Config(TIM_TypeDef* TIMx, uint16_t TIM_ICPolarity, uint16_t TIM_ICSelection,
  88:../libraries/STM32F10x_StdPeriph_Driver/src/stm32f10x_tim.c ****                        uint16_t TIM_ICFilter);
  89:../libraries/STM32F10x_StdPeriph_Driver/src/stm32f10x_tim.c **** static void TI4_Config(TIM_TypeDef* TIMx, uint16_t TIM_ICPolarity, uint16_t TIM_ICSelection,
  90:../libraries/STM32F10x_StdPeriph_Driver/src/stm32f10x_tim.c ****                        uint16_t TIM_ICFilter);
  91:../libraries/STM32F10x_StdPeriph_Driver/src/stm32f10x_tim.c **** /**
  92:../libraries/STM32F10x_StdPeriph_Driver/src/stm32f10x_tim.c ****   * @}
  93:../libraries/STM32F10x_StdPeriph_Driver/src/stm32f10x_tim.c ****   */
  94:../libraries/STM32F10x_StdPeriph_Driver/src/stm32f10x_tim.c **** 
  95:../libraries/STM32F10x_StdPeriph_Driver/src/stm32f10x_tim.c **** /** @defgroup TIM_Private_Macros
  96:../libraries/STM32F10x_StdPeriph_Driver/src/stm32f10x_tim.c ****   * @{
  97:../libraries/STM32F10x_StdPeriph_Driver/src/stm32f10x_tim.c ****   */
  98:../libraries/STM32F10x_StdPeriph_Driver/src/stm32f10x_tim.c **** 
  99:../libraries/STM32F10x_StdPeriph_Driver/src/stm32f10x_tim.c **** /**
 100:../libraries/STM32F10x_StdPeriph_Driver/src/stm32f10x_tim.c ****   * @}
 101:../libraries/STM32F10x_StdPeriph_Driver/src/stm32f10x_tim.c ****   */
 102:../libraries/STM32F10x_StdPeriph_Driver/src/stm32f10x_tim.c **** 
 103:../libraries/STM32F10x_StdPeriph_Driver/src/stm32f10x_tim.c **** /** @defgroup TIM_Private_Variables
 104:../libraries/STM32F10x_StdPeriph_Driver/src/stm32f10x_tim.c ****   * @{
 105:../libraries/STM32F10x_StdPeriph_Driver/src/stm32f10x_tim.c ****   */
 106:../libraries/STM32F10x_StdPeriph_Driver/src/stm32f10x_tim.c **** 
 107:../libraries/STM32F10x_StdPeriph_Driver/src/stm32f10x_tim.c **** /**
 108:../libraries/STM32F10x_StdPeriph_Driver/src/stm32f10x_tim.c ****   * @}
 109:../libraries/STM32F10x_StdPeriph_Driver/src/stm32f10x_tim.c ****   */
 110:../libraries/STM32F10x_StdPeriph_Driver/src/stm32f10x_tim.c **** 
 111:../libraries/STM32F10x_StdPeriph_Driver/src/stm32f10x_tim.c **** /** @defgroup TIM_Private_FunctionPrototypes
 112:../libraries/STM32F10x_StdPeriph_Driver/src/stm32f10x_tim.c ****   * @{
 113:../libraries/STM32F10x_StdPeriph_Driver/src/stm32f10x_tim.c ****   */
 114:../libraries/STM32F10x_StdPeriph_Driver/src/stm32f10x_tim.c **** 
 115:../libraries/STM32F10x_StdPeriph_Driver/src/stm32f10x_tim.c **** /**
 116:../libraries/STM32F10x_StdPeriph_Driver/src/stm32f10x_tim.c ****   * @}
 117:../libraries/STM32F10x_StdPeriph_Driver/src/stm32f10x_tim.c ****   */
 118:../libraries/STM32F10x_StdPeriph_Driver/src/stm32f10x_tim.c **** 
 119:../libraries/STM32F10x_StdPeriph_Driver/src/stm32f10x_tim.c **** /** @defgroup TIM_Private_Functions
 120:../libraries/STM32F10x_StdPeriph_Driver/src/stm32f10x_tim.c ****   * @{
 121:../libraries/STM32F10x_StdPeriph_Driver/src/stm32f10x_tim.c ****   */
 122:../libraries/STM32F10x_StdPeriph_Driver/src/stm32f10x_tim.c **** 
 123:../libraries/STM32F10x_StdPeriph_Driver/src/stm32f10x_tim.c **** /**
 124:../libraries/STM32F10x_StdPeriph_Driver/src/stm32f10x_tim.c ****   * @brief  Deinitializes the TIMx peripheral registers to their default reset values.
 125:../libraries/STM32F10x_StdPeriph_Driver/src/stm32f10x_tim.c ****   * @param  TIMx: where x can be 1 to 17 to select the TIM peripheral.
 126:../libraries/STM32F10x_StdPeriph_Driver/src/stm32f10x_tim.c ****   * @retval None
 127:../libraries/STM32F10x_StdPeriph_Driver/src/stm32f10x_tim.c ****   */
 128:../libraries/STM32F10x_StdPeriph_Driver/src/stm32f10x_tim.c **** void TIM_DeInit(TIM_TypeDef* TIMx)
 129:../libraries/STM32F10x_StdPeriph_Driver/src/stm32f10x_tim.c **** {
  27              		.loc 1 129 0
  28              		.cfi_startproc
  29              		@ args = 0, pretend = 0, frame = 8
  30              		@ frame_needed = 1, uses_anonymous_args = 0
  31 0000 80B5     		push	{r7, lr}
  32              	.LCFI0:
  33              		.cfi_def_cfa_offset 8
  34              		.cfi_offset 7, -8
  35              		.cfi_offset 14, -4
  36 0002 82B0     		sub	sp, sp, #8
  37              	.LCFI1:
  38              		.cfi_def_cfa_offset 16
  39 0004 00AF     		add	r7, sp, #0
  40              	.LCFI2:
  41              		.cfi_def_cfa_register 7
  42 0006 7860     		str	r0, [r7, #4]
 130:../libraries/STM32F10x_StdPeriph_Driver/src/stm32f10x_tim.c ****   /* Check the parameters */
 131:../libraries/STM32F10x_StdPeriph_Driver/src/stm32f10x_tim.c ****   assert_param(IS_TIM_ALL_PERIPH(TIMx)); 
 132:../libraries/STM32F10x_StdPeriph_Driver/src/stm32f10x_tim.c ****  
 133:../libraries/STM32F10x_StdPeriph_Driver/src/stm32f10x_tim.c ****   if (TIMx == TIM1)
  43              		.loc 1 133 0
  44 0008 7A68     		ldr	r2, [r7, #4]
  45 000a 4FF43053 		mov	r3, #11264
  46 000e C4F20103 		movt	r3, 16385
  47 0012 9A42     		cmp	r2, r3
  48 0014 0CD1     		bne	.L2
 134:../libraries/STM32F10x_StdPeriph_Driver/src/stm32f10x_tim.c ****   {
 135:../libraries/STM32F10x_StdPeriph_Driver/src/stm32f10x_tim.c ****     RCC_APB2PeriphResetCmd(RCC_APB2Periph_TIM1, ENABLE);
  49              		.loc 1 135 0
  50 0016 4FF40060 		mov	r0, #2048
  51 001a 4FF00101 		mov	r1, #1
  52 001e FFF7FEFF 		bl	RCC_APB2PeriphResetCmd
 136:../libraries/STM32F10x_StdPeriph_Driver/src/stm32f10x_tim.c ****     RCC_APB2PeriphResetCmd(RCC_APB2Periph_TIM1, DISABLE);  
  53              		.loc 1 136 0
  54 0022 4FF40060 		mov	r0, #2048
  55 0026 4FF00001 		mov	r1, #0
  56 002a FFF7FEFF 		bl	RCC_APB2PeriphResetCmd
  57 002e 3BE1     		b	.L1
  58              	.L2:
 137:../libraries/STM32F10x_StdPeriph_Driver/src/stm32f10x_tim.c ****   }     
 138:../libraries/STM32F10x_StdPeriph_Driver/src/stm32f10x_tim.c ****   else if (TIMx == TIM2)
  59              		.loc 1 138 0
  60 0030 7B68     		ldr	r3, [r7, #4]
  61 0032 B3F1804F 		cmp	r3, #1073741824
  62 0036 0CD1     		bne	.L4
 139:../libraries/STM32F10x_StdPeriph_Driver/src/stm32f10x_tim.c ****   {
 140:../libraries/STM32F10x_StdPeriph_Driver/src/stm32f10x_tim.c ****     RCC_APB1PeriphResetCmd(RCC_APB1Periph_TIM2, ENABLE);
  63              		.loc 1 140 0
  64 0038 4FF00100 		mov	r0, #1
  65 003c 4FF00101 		mov	r1, #1
  66 0040 FFF7FEFF 		bl	RCC_APB1PeriphResetCmd
 141:../libraries/STM32F10x_StdPeriph_Driver/src/stm32f10x_tim.c ****     RCC_APB1PeriphResetCmd(RCC_APB1Periph_TIM2, DISABLE);
  67              		.loc 1 141 0
  68 0044 4FF00100 		mov	r0, #1
  69 0048 4FF00001 		mov	r1, #0
  70 004c FFF7FEFF 		bl	RCC_APB1PeriphResetCmd
  71 0050 2AE1     		b	.L1
  72              	.L4:
 142:../libraries/STM32F10x_StdPeriph_Driver/src/stm32f10x_tim.c ****   }
 143:../libraries/STM32F10x_StdPeriph_Driver/src/stm32f10x_tim.c ****   else if (TIMx == TIM3)
  73              		.loc 1 143 0
  74 0052 7A68     		ldr	r2, [r7, #4]
  75 0054 4FF48063 		mov	r3, #1024
  76 0058 C4F20003 		movt	r3, 16384
  77 005c 9A42     		cmp	r2, r3
  78 005e 0CD1     		bne	.L5
 144:../libraries/STM32F10x_StdPeriph_Driver/src/stm32f10x_tim.c ****   {
 145:../libraries/STM32F10x_StdPeriph_Driver/src/stm32f10x_tim.c ****     RCC_APB1PeriphResetCmd(RCC_APB1Periph_TIM3, ENABLE);
  79              		.loc 1 145 0
  80 0060 4FF00200 		mov	r0, #2
  81 0064 4FF00101 		mov	r1, #1
  82 0068 FFF7FEFF 		bl	RCC_APB1PeriphResetCmd
 146:../libraries/STM32F10x_StdPeriph_Driver/src/stm32f10x_tim.c ****     RCC_APB1PeriphResetCmd(RCC_APB1Periph_TIM3, DISABLE);
  83              		.loc 1 146 0
  84 006c 4FF00200 		mov	r0, #2
  85 0070 4FF00001 		mov	r1, #0
  86 0074 FFF7FEFF 		bl	RCC_APB1PeriphResetCmd
  87 0078 16E1     		b	.L1
  88              	.L5:
 147:../libraries/STM32F10x_StdPeriph_Driver/src/stm32f10x_tim.c ****   }
 148:../libraries/STM32F10x_StdPeriph_Driver/src/stm32f10x_tim.c ****   else if (TIMx == TIM4)
  89              		.loc 1 148 0
  90 007a 7A68     		ldr	r2, [r7, #4]
  91 007c 4FF40063 		mov	r3, #2048
  92 0080 C4F20003 		movt	r3, 16384
  93 0084 9A42     		cmp	r2, r3
  94 0086 0CD1     		bne	.L6
 149:../libraries/STM32F10x_StdPeriph_Driver/src/stm32f10x_tim.c ****   {
 150:../libraries/STM32F10x_StdPeriph_Driver/src/stm32f10x_tim.c ****     RCC_APB1PeriphResetCmd(RCC_APB1Periph_TIM4, ENABLE);
  95              		.loc 1 150 0
  96 0088 4FF00400 		mov	r0, #4
  97 008c 4FF00101 		mov	r1, #1
  98 0090 FFF7FEFF 		bl	RCC_APB1PeriphResetCmd
 151:../libraries/STM32F10x_StdPeriph_Driver/src/stm32f10x_tim.c ****     RCC_APB1PeriphResetCmd(RCC_APB1Periph_TIM4, DISABLE);
  99              		.loc 1 151 0
 100 0094 4FF00400 		mov	r0, #4
 101 0098 4FF00001 		mov	r1, #0
 102 009c FFF7FEFF 		bl	RCC_APB1PeriphResetCmd
 103 00a0 02E1     		b	.L1
 104              	.L6:
 152:../libraries/STM32F10x_StdPeriph_Driver/src/stm32f10x_tim.c ****   } 
 153:../libraries/STM32F10x_StdPeriph_Driver/src/stm32f10x_tim.c ****   else if (TIMx == TIM5)
 105              		.loc 1 153 0
 106 00a2 7A68     		ldr	r2, [r7, #4]
 107 00a4 4FF44063 		mov	r3, #3072
 108 00a8 C4F20003 		movt	r3, 16384
 109 00ac 9A42     		cmp	r2, r3
 110 00ae 0CD1     		bne	.L7
 154:../libraries/STM32F10x_StdPeriph_Driver/src/stm32f10x_tim.c ****   {
 155:../libraries/STM32F10x_StdPeriph_Driver/src/stm32f10x_tim.c ****     RCC_APB1PeriphResetCmd(RCC_APB1Periph_TIM5, ENABLE);
 111              		.loc 1 155 0
 112 00b0 4FF00800 		mov	r0, #8
 113 00b4 4FF00101 		mov	r1, #1
 114 00b8 FFF7FEFF 		bl	RCC_APB1PeriphResetCmd
 156:../libraries/STM32F10x_StdPeriph_Driver/src/stm32f10x_tim.c ****     RCC_APB1PeriphResetCmd(RCC_APB1Periph_TIM5, DISABLE);
 115              		.loc 1 156 0
 116 00bc 4FF00800 		mov	r0, #8
 117 00c0 4FF00001 		mov	r1, #0
 118 00c4 FFF7FEFF 		bl	RCC_APB1PeriphResetCmd
 119 00c8 EEE0     		b	.L1
 120              	.L7:
 157:../libraries/STM32F10x_StdPeriph_Driver/src/stm32f10x_tim.c ****   } 
 158:../libraries/STM32F10x_StdPeriph_Driver/src/stm32f10x_tim.c ****   else if (TIMx == TIM6)
 121              		.loc 1 158 0
 122 00ca 7A68     		ldr	r2, [r7, #4]
 123 00cc 4FF48053 		mov	r3, #4096
 124 00d0 C4F20003 		movt	r3, 16384
 125 00d4 9A42     		cmp	r2, r3
 126 00d6 0CD1     		bne	.L8
 159:../libraries/STM32F10x_StdPeriph_Driver/src/stm32f10x_tim.c ****   {
 160:../libraries/STM32F10x_StdPeriph_Driver/src/stm32f10x_tim.c ****     RCC_APB1PeriphResetCmd(RCC_APB1Periph_TIM6, ENABLE);
 127              		.loc 1 160 0
 128 00d8 4FF01000 		mov	r0, #16
 129 00dc 4FF00101 		mov	r1, #1
 130 00e0 FFF7FEFF 		bl	RCC_APB1PeriphResetCmd
 161:../libraries/STM32F10x_StdPeriph_Driver/src/stm32f10x_tim.c ****     RCC_APB1PeriphResetCmd(RCC_APB1Periph_TIM6, DISABLE);
 131              		.loc 1 161 0
 132 00e4 4FF01000 		mov	r0, #16
 133 00e8 4FF00001 		mov	r1, #0
 134 00ec FFF7FEFF 		bl	RCC_APB1PeriphResetCmd
 135 00f0 DAE0     		b	.L1
 136              	.L8:
 162:../libraries/STM32F10x_StdPeriph_Driver/src/stm32f10x_tim.c ****   } 
 163:../libraries/STM32F10x_StdPeriph_Driver/src/stm32f10x_tim.c ****   else if (TIMx == TIM7)
 137              		.loc 1 163 0
 138 00f2 7A68     		ldr	r2, [r7, #4]
 139 00f4 4FF4A053 		mov	r3, #5120
 140 00f8 C4F20003 		movt	r3, 16384
 141 00fc 9A42     		cmp	r2, r3
 142 00fe 0CD1     		bne	.L9
 164:../libraries/STM32F10x_StdPeriph_Driver/src/stm32f10x_tim.c ****   {
 165:../libraries/STM32F10x_StdPeriph_Driver/src/stm32f10x_tim.c ****     RCC_APB1PeriphResetCmd(RCC_APB1Periph_TIM7, ENABLE);
 143              		.loc 1 165 0
 144 0100 4FF02000 		mov	r0, #32
 145 0104 4FF00101 		mov	r1, #1
 146 0108 FFF7FEFF 		bl	RCC_APB1PeriphResetCmd
 166:../libraries/STM32F10x_StdPeriph_Driver/src/stm32f10x_tim.c ****     RCC_APB1PeriphResetCmd(RCC_APB1Periph_TIM7, DISABLE);
 147              		.loc 1 166 0
 148 010c 4FF02000 		mov	r0, #32
 149 0110 4FF00001 		mov	r1, #0
 150 0114 FFF7FEFF 		bl	RCC_APB1PeriphResetCmd
 151 0118 C6E0     		b	.L1
 152              	.L9:
 167:../libraries/STM32F10x_StdPeriph_Driver/src/stm32f10x_tim.c ****   } 
 168:../libraries/STM32F10x_StdPeriph_Driver/src/stm32f10x_tim.c ****   else if (TIMx == TIM8)
 153              		.loc 1 168 0
 154 011a 7A68     		ldr	r2, [r7, #4]
 155 011c 4FF45053 		mov	r3, #13312
 156 0120 C4F20103 		movt	r3, 16385
 157 0124 9A42     		cmp	r2, r3
 158 0126 0CD1     		bne	.L10
 169:../libraries/STM32F10x_StdPeriph_Driver/src/stm32f10x_tim.c ****   {
 170:../libraries/STM32F10x_StdPeriph_Driver/src/stm32f10x_tim.c ****     RCC_APB2PeriphResetCmd(RCC_APB2Periph_TIM8, ENABLE);
 159              		.loc 1 170 0
 160 0128 4FF40050 		mov	r0, #8192
 161 012c 4FF00101 		mov	r1, #1
 162 0130 FFF7FEFF 		bl	RCC_APB2PeriphResetCmd
 171:../libraries/STM32F10x_StdPeriph_Driver/src/stm32f10x_tim.c ****     RCC_APB2PeriphResetCmd(RCC_APB2Periph_TIM8, DISABLE);
 163              		.loc 1 171 0
 164 0134 4FF40050 		mov	r0, #8192
 165 0138 4FF00001 		mov	r1, #0
 166 013c FFF7FEFF 		bl	RCC_APB2PeriphResetCmd
 167 0140 B2E0     		b	.L1
 168              	.L10:
 172:../libraries/STM32F10x_StdPeriph_Driver/src/stm32f10x_tim.c ****   }
 173:../libraries/STM32F10x_StdPeriph_Driver/src/stm32f10x_tim.c ****   else if (TIMx == TIM9)
 169              		.loc 1 173 0
 170 0142 7A68     		ldr	r2, [r7, #4]
 171 0144 4FF49843 		mov	r3, #19456
 172 0148 C4F20103 		movt	r3, 16385
 173 014c 9A42     		cmp	r2, r3
 174 014e 0CD1     		bne	.L11
 174:../libraries/STM32F10x_StdPeriph_Driver/src/stm32f10x_tim.c ****   {      
 175:../libraries/STM32F10x_StdPeriph_Driver/src/stm32f10x_tim.c ****     RCC_APB2PeriphResetCmd(RCC_APB2Periph_TIM9, ENABLE);
 175              		.loc 1 175 0
 176 0150 4FF40020 		mov	r0, #524288
 177 0154 4FF00101 		mov	r1, #1
 178 0158 FFF7FEFF 		bl	RCC_APB2PeriphResetCmd
 176:../libraries/STM32F10x_StdPeriph_Driver/src/stm32f10x_tim.c ****     RCC_APB2PeriphResetCmd(RCC_APB2Periph_TIM9, DISABLE);  
 179              		.loc 1 176 0
 180 015c 4FF40020 		mov	r0, #524288
 181 0160 4FF00001 		mov	r1, #0
 182 0164 FFF7FEFF 		bl	RCC_APB2PeriphResetCmd
 183 0168 9EE0     		b	.L1
 184              	.L11:
 177:../libraries/STM32F10x_StdPeriph_Driver/src/stm32f10x_tim.c ****    }  
 178:../libraries/STM32F10x_StdPeriph_Driver/src/stm32f10x_tim.c ****   else if (TIMx == TIM10)
 185              		.loc 1 178 0
 186 016a 7A68     		ldr	r2, [r7, #4]
 187 016c 4FF4A043 		mov	r3, #20480
 188 0170 C4F20103 		movt	r3, 16385
 189 0174 9A42     		cmp	r2, r3
 190 0176 0CD1     		bne	.L12
 179:../libraries/STM32F10x_StdPeriph_Driver/src/stm32f10x_tim.c ****   {      
 180:../libraries/STM32F10x_StdPeriph_Driver/src/stm32f10x_tim.c ****     RCC_APB2PeriphResetCmd(RCC_APB2Periph_TIM10, ENABLE);
 191              		.loc 1 180 0
 192 0178 4FF48010 		mov	r0, #1048576
 193 017c 4FF00101 		mov	r1, #1
 194 0180 FFF7FEFF 		bl	RCC_APB2PeriphResetCmd
 181:../libraries/STM32F10x_StdPeriph_Driver/src/stm32f10x_tim.c ****     RCC_APB2PeriphResetCmd(RCC_APB2Periph_TIM10, DISABLE);  
 195              		.loc 1 181 0
 196 0184 4FF48010 		mov	r0, #1048576
 197 0188 4FF00001 		mov	r1, #0
 198 018c FFF7FEFF 		bl	RCC_APB2PeriphResetCmd
 199 0190 8AE0     		b	.L1
 200              	.L12:
 182:../libraries/STM32F10x_StdPeriph_Driver/src/stm32f10x_tim.c ****   }  
 183:../libraries/STM32F10x_StdPeriph_Driver/src/stm32f10x_tim.c ****   else if (TIMx == TIM11) 
 201              		.loc 1 183 0
 202 0192 7A68     		ldr	r2, [r7, #4]
 203 0194 4FF4A843 		mov	r3, #21504
 204 0198 C4F20103 		movt	r3, 16385
 205 019c 9A42     		cmp	r2, r3
 206 019e 0CD1     		bne	.L13
 184:../libraries/STM32F10x_StdPeriph_Driver/src/stm32f10x_tim.c ****   {     
 185:../libraries/STM32F10x_StdPeriph_Driver/src/stm32f10x_tim.c ****     RCC_APB2PeriphResetCmd(RCC_APB2Periph_TIM11, ENABLE);
 207              		.loc 1 185 0
 208 01a0 4FF40010 		mov	r0, #2097152
 209 01a4 4FF00101 		mov	r1, #1
 210 01a8 FFF7FEFF 		bl	RCC_APB2PeriphResetCmd
 186:../libraries/STM32F10x_StdPeriph_Driver/src/stm32f10x_tim.c ****     RCC_APB2PeriphResetCmd(RCC_APB2Periph_TIM11, DISABLE);  
 211              		.loc 1 186 0
 212 01ac 4FF40010 		mov	r0, #2097152
 213 01b0 4FF00001 		mov	r1, #0
 214 01b4 FFF7FEFF 		bl	RCC_APB2PeriphResetCmd
 215 01b8 76E0     		b	.L1
 216              	.L13:
 187:../libraries/STM32F10x_StdPeriph_Driver/src/stm32f10x_tim.c ****   }  
 188:../libraries/STM32F10x_StdPeriph_Driver/src/stm32f10x_tim.c ****   else if (TIMx == TIM12)
 217              		.loc 1 188 0
 218 01ba 7A68     		ldr	r2, [r7, #4]
 219 01bc 4FF4C053 		mov	r3, #6144
 220 01c0 C4F20003 		movt	r3, 16384
 221 01c4 9A42     		cmp	r2, r3
 222 01c6 0CD1     		bne	.L14
 189:../libraries/STM32F10x_StdPeriph_Driver/src/stm32f10x_tim.c ****   {      
 190:../libraries/STM32F10x_StdPeriph_Driver/src/stm32f10x_tim.c ****     RCC_APB1PeriphResetCmd(RCC_APB1Periph_TIM12, ENABLE);
 223              		.loc 1 190 0
 224 01c8 4FF04000 		mov	r0, #64
 225 01cc 4FF00101 		mov	r1, #1
 226 01d0 FFF7FEFF 		bl	RCC_APB1PeriphResetCmd
 191:../libraries/STM32F10x_StdPeriph_Driver/src/stm32f10x_tim.c ****     RCC_APB1PeriphResetCmd(RCC_APB1Periph_TIM12, DISABLE);  
 227              		.loc 1 191 0
 228 01d4 4FF04000 		mov	r0, #64
 229 01d8 4FF00001 		mov	r1, #0
 230 01dc FFF7FEFF 		bl	RCC_APB1PeriphResetCmd
 231 01e0 62E0     		b	.L1
 232              	.L14:
 192:../libraries/STM32F10x_StdPeriph_Driver/src/stm32f10x_tim.c ****   }  
 193:../libraries/STM32F10x_StdPeriph_Driver/src/stm32f10x_tim.c ****   else if (TIMx == TIM13) 
 233              		.loc 1 193 0
 234 01e2 7A68     		ldr	r2, [r7, #4]
 235 01e4 4FF4E053 		mov	r3, #7168
 236 01e8 C4F20003 		movt	r3, 16384
 237 01ec 9A42     		cmp	r2, r3
 238 01ee 0CD1     		bne	.L15
 194:../libraries/STM32F10x_StdPeriph_Driver/src/stm32f10x_tim.c ****   {       
 195:../libraries/STM32F10x_StdPeriph_Driver/src/stm32f10x_tim.c ****     RCC_APB1PeriphResetCmd(RCC_APB1Periph_TIM13, ENABLE);
 239              		.loc 1 195 0
 240 01f0 4FF08000 		mov	r0, #128
 241 01f4 4FF00101 		mov	r1, #1
 242 01f8 FFF7FEFF 		bl	RCC_APB1PeriphResetCmd
 196:../libraries/STM32F10x_StdPeriph_Driver/src/stm32f10x_tim.c ****     RCC_APB1PeriphResetCmd(RCC_APB1Periph_TIM13, DISABLE);  
 243              		.loc 1 196 0
 244 01fc 4FF08000 		mov	r0, #128
 245 0200 4FF00001 		mov	r1, #0
 246 0204 FFF7FEFF 		bl	RCC_APB1PeriphResetCmd
 247 0208 4EE0     		b	.L1
 248              	.L15:
 197:../libraries/STM32F10x_StdPeriph_Driver/src/stm32f10x_tim.c ****   }
 198:../libraries/STM32F10x_StdPeriph_Driver/src/stm32f10x_tim.c ****   else if (TIMx == TIM14) 
 249              		.loc 1 198 0
 250 020a 7A68     		ldr	r2, [r7, #4]
 251 020c 4FF40053 		mov	r3, #8192
 252 0210 C4F20003 		movt	r3, 16384
 253 0214 9A42     		cmp	r2, r3
 254 0216 0CD1     		bne	.L16
 199:../libraries/STM32F10x_StdPeriph_Driver/src/stm32f10x_tim.c ****   {       
 200:../libraries/STM32F10x_StdPeriph_Driver/src/stm32f10x_tim.c ****     RCC_APB1PeriphResetCmd(RCC_APB1Periph_TIM14, ENABLE);
 255              		.loc 1 200 0
 256 0218 4FF48070 		mov	r0, #256
 257 021c 4FF00101 		mov	r1, #1
 258 0220 FFF7FEFF 		bl	RCC_APB1PeriphResetCmd
 201:../libraries/STM32F10x_StdPeriph_Driver/src/stm32f10x_tim.c ****     RCC_APB1PeriphResetCmd(RCC_APB1Periph_TIM14, DISABLE);  
 259              		.loc 1 201 0
 260 0224 4FF48070 		mov	r0, #256
 261 0228 4FF00001 		mov	r1, #0
 262 022c FFF7FEFF 		bl	RCC_APB1PeriphResetCmd
 263 0230 3AE0     		b	.L1
 264              	.L16:
 202:../libraries/STM32F10x_StdPeriph_Driver/src/stm32f10x_tim.c ****   }        
 203:../libraries/STM32F10x_StdPeriph_Driver/src/stm32f10x_tim.c ****   else if (TIMx == TIM15)
 265              		.loc 1 203 0
 266 0232 7A68     		ldr	r2, [r7, #4]
 267 0234 4FF48043 		mov	r3, #16384
 268 0238 C4F20103 		movt	r3, 16385
 269 023c 9A42     		cmp	r2, r3
 270 023e 0CD1     		bne	.L17
 204:../libraries/STM32F10x_StdPeriph_Driver/src/stm32f10x_tim.c ****   {
 205:../libraries/STM32F10x_StdPeriph_Driver/src/stm32f10x_tim.c ****     RCC_APB2PeriphResetCmd(RCC_APB2Periph_TIM15, ENABLE);
 271              		.loc 1 205 0
 272 0240 4FF48030 		mov	r0, #65536
 273 0244 4FF00101 		mov	r1, #1
 274 0248 FFF7FEFF 		bl	RCC_APB2PeriphResetCmd
 206:../libraries/STM32F10x_StdPeriph_Driver/src/stm32f10x_tim.c ****     RCC_APB2PeriphResetCmd(RCC_APB2Periph_TIM15, DISABLE);
 275              		.loc 1 206 0
 276 024c 4FF48030 		mov	r0, #65536
 277 0250 4FF00001 		mov	r1, #0
 278 0254 FFF7FEFF 		bl	RCC_APB2PeriphResetCmd
 279 0258 26E0     		b	.L1
 280              	.L17:
 207:../libraries/STM32F10x_StdPeriph_Driver/src/stm32f10x_tim.c ****   } 
 208:../libraries/STM32F10x_StdPeriph_Driver/src/stm32f10x_tim.c ****   else if (TIMx == TIM16)
 281              		.loc 1 208 0
 282 025a 7A68     		ldr	r2, [r7, #4]
 283 025c 4FF48843 		mov	r3, #17408
 284 0260 C4F20103 		movt	r3, 16385
 285 0264 9A42     		cmp	r2, r3
 286 0266 0CD1     		bne	.L18
 209:../libraries/STM32F10x_StdPeriph_Driver/src/stm32f10x_tim.c ****   {
 210:../libraries/STM32F10x_StdPeriph_Driver/src/stm32f10x_tim.c ****     RCC_APB2PeriphResetCmd(RCC_APB2Periph_TIM16, ENABLE);
 287              		.loc 1 210 0
 288 0268 4FF40030 		mov	r0, #131072
 289 026c 4FF00101 		mov	r1, #1
 290 0270 FFF7FEFF 		bl	RCC_APB2PeriphResetCmd
 211:../libraries/STM32F10x_StdPeriph_Driver/src/stm32f10x_tim.c ****     RCC_APB2PeriphResetCmd(RCC_APB2Periph_TIM16, DISABLE);
 291              		.loc 1 211 0
 292 0274 4FF40030 		mov	r0, #131072
 293 0278 4FF00001 		mov	r1, #0
 294 027c FFF7FEFF 		bl	RCC_APB2PeriphResetCmd
 295 0280 12E0     		b	.L1
 296              	.L18:
 212:../libraries/STM32F10x_StdPeriph_Driver/src/stm32f10x_tim.c ****   } 
 213:../libraries/STM32F10x_StdPeriph_Driver/src/stm32f10x_tim.c ****   else
 214:../libraries/STM32F10x_StdPeriph_Driver/src/stm32f10x_tim.c ****   {
 215:../libraries/STM32F10x_StdPeriph_Driver/src/stm32f10x_tim.c ****     if (TIMx == TIM17)
 297              		.loc 1 215 0
 298 0282 7A68     		ldr	r2, [r7, #4]
 299 0284 4FF49043 		mov	r3, #18432
 300 0288 C4F20103 		movt	r3, 16385
 301 028c 9A42     		cmp	r2, r3
 302 028e 0BD1     		bne	.L1
 216:../libraries/STM32F10x_StdPeriph_Driver/src/stm32f10x_tim.c ****     {
 217:../libraries/STM32F10x_StdPeriph_Driver/src/stm32f10x_tim.c ****       RCC_APB2PeriphResetCmd(RCC_APB2Periph_TIM17, ENABLE);
 303              		.loc 1 217 0
 304 0290 4FF48020 		mov	r0, #262144
 305 0294 4FF00101 		mov	r1, #1
 306 0298 FFF7FEFF 		bl	RCC_APB2PeriphResetCmd
 218:../libraries/STM32F10x_StdPeriph_Driver/src/stm32f10x_tim.c ****       RCC_APB2PeriphResetCmd(RCC_APB2Periph_TIM17, DISABLE);
 307              		.loc 1 218 0
 308 029c 4FF48020 		mov	r0, #262144
 309 02a0 4FF00001 		mov	r1, #0
 310 02a4 FFF7FEFF 		bl	RCC_APB2PeriphResetCmd
 311              	.L1:
 219:../libraries/STM32F10x_StdPeriph_Driver/src/stm32f10x_tim.c ****     }  
 220:../libraries/STM32F10x_StdPeriph_Driver/src/stm32f10x_tim.c ****   }
 221:../libraries/STM32F10x_StdPeriph_Driver/src/stm32f10x_tim.c **** }
 312              		.loc 1 221 0
 313 02a8 07F10807 		add	r7, r7, #8
 314 02ac BD46     		mov	sp, r7
 315 02ae 80BD     		pop	{r7, pc}
 316              		.cfi_endproc
 317              	.LFE56:
 319              		.section	.text.TIM_TimeBaseInit,"ax",%progbits
 320              		.align	2
 321              		.global	TIM_TimeBaseInit
 322              		.thumb
 323              		.thumb_func
 325              	TIM_TimeBaseInit:
 326              	.LFB57:
 222:../libraries/STM32F10x_StdPeriph_Driver/src/stm32f10x_tim.c **** 
 223:../libraries/STM32F10x_StdPeriph_Driver/src/stm32f10x_tim.c **** /**
 224:../libraries/STM32F10x_StdPeriph_Driver/src/stm32f10x_tim.c ****   * @brief  Initializes the TIMx Time Base Unit peripheral according to 
 225:../libraries/STM32F10x_StdPeriph_Driver/src/stm32f10x_tim.c ****   *         the specified parameters in the TIM_TimeBaseInitStruct.
 226:../libraries/STM32F10x_StdPeriph_Driver/src/stm32f10x_tim.c ****   * @param  TIMx: where x can be 1 to 17 to select the TIM peripheral.
 227:../libraries/STM32F10x_StdPeriph_Driver/src/stm32f10x_tim.c ****   * @param  TIM_TimeBaseInitStruct: pointer to a TIM_TimeBaseInitTypeDef
 228:../libraries/STM32F10x_StdPeriph_Driver/src/stm32f10x_tim.c ****   *         structure that contains the configuration information for the 
 229:../libraries/STM32F10x_StdPeriph_Driver/src/stm32f10x_tim.c ****   *         specified TIM peripheral.
 230:../libraries/STM32F10x_StdPeriph_Driver/src/stm32f10x_tim.c ****   * @retval None
 231:../libraries/STM32F10x_StdPeriph_Driver/src/stm32f10x_tim.c ****   */
 232:../libraries/STM32F10x_StdPeriph_Driver/src/stm32f10x_tim.c **** void TIM_TimeBaseInit(TIM_TypeDef* TIMx, TIM_TimeBaseInitTypeDef* TIM_TimeBaseInitStruct)
 233:../libraries/STM32F10x_StdPeriph_Driver/src/stm32f10x_tim.c **** {
 327              		.loc 1 233 0
 328              		.cfi_startproc
 329              		@ args = 0, pretend = 0, frame = 16
 330              		@ frame_needed = 1, uses_anonymous_args = 0
 331              		@ link register save eliminated.
 332 0000 80B4     		push	{r7}
 333              	.LCFI3:
 334              		.cfi_def_cfa_offset 4
 335              		.cfi_offset 7, -4
 336 0002 85B0     		sub	sp, sp, #20
 337              	.LCFI4:
 338              		.cfi_def_cfa_offset 24
 339 0004 00AF     		add	r7, sp, #0
 340              	.LCFI5:
 341              		.cfi_def_cfa_register 7
 342 0006 7860     		str	r0, [r7, #4]
 343 0008 3960     		str	r1, [r7, #0]
 234:../libraries/STM32F10x_StdPeriph_Driver/src/stm32f10x_tim.c ****   uint16_t tmpcr1 = 0;
 344              		.loc 1 234 0
 345 000a 4FF00003 		mov	r3, #0
 346 000e FB81     		strh	r3, [r7, #14]	@ movhi
 235:../libraries/STM32F10x_StdPeriph_Driver/src/stm32f10x_tim.c **** 
 236:../libraries/STM32F10x_StdPeriph_Driver/src/stm32f10x_tim.c ****   /* Check the parameters */
 237:../libraries/STM32F10x_StdPeriph_Driver/src/stm32f10x_tim.c ****   assert_param(IS_TIM_ALL_PERIPH(TIMx)); 
 238:../libraries/STM32F10x_StdPeriph_Driver/src/stm32f10x_tim.c ****   assert_param(IS_TIM_COUNTER_MODE(TIM_TimeBaseInitStruct->TIM_CounterMode));
 239:../libraries/STM32F10x_StdPeriph_Driver/src/stm32f10x_tim.c ****   assert_param(IS_TIM_CKD_DIV(TIM_TimeBaseInitStruct->TIM_ClockDivision));
 240:../libraries/STM32F10x_StdPeriph_Driver/src/stm32f10x_tim.c **** 
 241:../libraries/STM32F10x_StdPeriph_Driver/src/stm32f10x_tim.c ****   tmpcr1 = TIMx->CR1;  
 347              		.loc 1 241 0
 348 0010 7B68     		ldr	r3, [r7, #4]
 349 0012 1B88     		ldrh	r3, [r3, #0]	@ movhi
 350 0014 FB81     		strh	r3, [r7, #14]	@ movhi
 242:../libraries/STM32F10x_StdPeriph_Driver/src/stm32f10x_tim.c **** 
 243:../libraries/STM32F10x_StdPeriph_Driver/src/stm32f10x_tim.c ****   if((TIMx == TIM1) || (TIMx == TIM8)|| (TIMx == TIM2) || (TIMx == TIM3)||
 351              		.loc 1 243 0
 352 0016 7A68     		ldr	r2, [r7, #4]
 353 0018 4FF43053 		mov	r3, #11264
 354 001c C4F20103 		movt	r3, 16385
 355 0020 9A42     		cmp	r2, r3
 356 0022 1FD0     		beq	.L20
 357              		.loc 1 243 0 is_stmt 0 discriminator 1
 358 0024 7A68     		ldr	r2, [r7, #4]
 359 0026 4FF45053 		mov	r3, #13312
 360 002a C4F20103 		movt	r3, 16385
 361 002e 9A42     		cmp	r2, r3
 362 0030 18D0     		beq	.L20
 363 0032 7B68     		ldr	r3, [r7, #4]
 364 0034 B3F1804F 		cmp	r3, #1073741824
 365 0038 14D0     		beq	.L20
 366 003a 7A68     		ldr	r2, [r7, #4]
 367 003c 4FF48063 		mov	r3, #1024
 368 0040 C4F20003 		movt	r3, 16384
 369 0044 9A42     		cmp	r2, r3
 370 0046 0DD0     		beq	.L20
 371 0048 7A68     		ldr	r2, [r7, #4]
 372 004a 4FF40063 		mov	r3, #2048
 373 004e C4F20003 		movt	r3, 16384
 374 0052 9A42     		cmp	r2, r3
 375 0054 06D0     		beq	.L20
 244:../libraries/STM32F10x_StdPeriph_Driver/src/stm32f10x_tim.c ****      (TIMx == TIM4) || (TIMx == TIM5)) 
 376              		.loc 1 244 0 is_stmt 1
 377 0056 7A68     		ldr	r2, [r7, #4]
 378 0058 4FF44063 		mov	r3, #3072
 379 005c C4F20003 		movt	r3, 16384
 380 0060 9A42     		cmp	r2, r3
 381 0062 08D1     		bne	.L21
 382              	.L20:
 245:../libraries/STM32F10x_StdPeriph_Driver/src/stm32f10x_tim.c ****   {
 246:../libraries/STM32F10x_StdPeriph_Driver/src/stm32f10x_tim.c ****     /* Select the Counter Mode */
 247:../libraries/STM32F10x_StdPeriph_Driver/src/stm32f10x_tim.c ****     tmpcr1 &= (uint16_t)(~((uint16_t)(TIM_CR1_DIR | TIM_CR1_CMS)));
 383              		.loc 1 247 0
 384 0064 FB89     		ldrh	r3, [r7, #14]	@ movhi
 385 0066 23F07003 		bic	r3, r3, #112
 386 006a FB81     		strh	r3, [r7, #14]	@ movhi
 248:../libraries/STM32F10x_StdPeriph_Driver/src/stm32f10x_tim.c ****     tmpcr1 |= (uint32_t)TIM_TimeBaseInitStruct->TIM_CounterMode;
 387              		.loc 1 248 0
 388 006c 3B68     		ldr	r3, [r7, #0]
 389 006e 5A88     		ldrh	r2, [r3, #2]
 390 0070 FB89     		ldrh	r3, [r7, #14]	@ movhi
 391 0072 1343     		orrs	r3, r3, r2
 392 0074 FB81     		strh	r3, [r7, #14]	@ movhi
 393              	.L21:
 249:../libraries/STM32F10x_StdPeriph_Driver/src/stm32f10x_tim.c ****   }
 250:../libraries/STM32F10x_StdPeriph_Driver/src/stm32f10x_tim.c ****  
 251:../libraries/STM32F10x_StdPeriph_Driver/src/stm32f10x_tim.c ****   if((TIMx != TIM6) && (TIMx != TIM7))
 394              		.loc 1 251 0
 395 0076 7A68     		ldr	r2, [r7, #4]
 396 0078 4FF48053 		mov	r3, #4096
 397 007c C4F20003 		movt	r3, 16384
 398 0080 9A42     		cmp	r2, r3
 399 0082 0FD0     		beq	.L22
 400              		.loc 1 251 0 is_stmt 0 discriminator 1
 401 0084 7A68     		ldr	r2, [r7, #4]
 402 0086 4FF4A053 		mov	r3, #5120
 403 008a C4F20003 		movt	r3, 16384
 404 008e 9A42     		cmp	r2, r3
 405 0090 08D0     		beq	.L22
 252:../libraries/STM32F10x_StdPeriph_Driver/src/stm32f10x_tim.c ****   {
 253:../libraries/STM32F10x_StdPeriph_Driver/src/stm32f10x_tim.c ****     /* Set the clock division */
 254:../libraries/STM32F10x_StdPeriph_Driver/src/stm32f10x_tim.c ****     tmpcr1 &= (uint16_t)(~((uint16_t)TIM_CR1_CKD));
 406              		.loc 1 254 0 is_stmt 1
 407 0092 FB89     		ldrh	r3, [r7, #14]	@ movhi
 408 0094 23F44073 		bic	r3, r3, #768
 409 0098 FB81     		strh	r3, [r7, #14]	@ movhi
 255:../libraries/STM32F10x_StdPeriph_Driver/src/stm32f10x_tim.c ****     tmpcr1 |= (uint32_t)TIM_TimeBaseInitStruct->TIM_ClockDivision;
 410              		.loc 1 255 0
 411 009a 3B68     		ldr	r3, [r7, #0]
 412 009c DA88     		ldrh	r2, [r3, #6]
 413 009e FB89     		ldrh	r3, [r7, #14]	@ movhi
 414 00a0 1343     		orrs	r3, r3, r2
 415 00a2 FB81     		strh	r3, [r7, #14]	@ movhi
 416              	.L22:
 256:../libraries/STM32F10x_StdPeriph_Driver/src/stm32f10x_tim.c ****   }
 257:../libraries/STM32F10x_StdPeriph_Driver/src/stm32f10x_tim.c **** 
 258:../libraries/STM32F10x_StdPeriph_Driver/src/stm32f10x_tim.c ****   TIMx->CR1 = tmpcr1;
 417              		.loc 1 258 0
 418 00a4 7B68     		ldr	r3, [r7, #4]
 419 00a6 FA89     		ldrh	r2, [r7, #14]	@ movhi
 420 00a8 1A80     		strh	r2, [r3, #0]	@ movhi
 259:../libraries/STM32F10x_StdPeriph_Driver/src/stm32f10x_tim.c **** 
 260:../libraries/STM32F10x_StdPeriph_Driver/src/stm32f10x_tim.c ****   /* Set the Autoreload value */
 261:../libraries/STM32F10x_StdPeriph_Driver/src/stm32f10x_tim.c ****   TIMx->ARR = TIM_TimeBaseInitStruct->TIM_Period ;
 421              		.loc 1 261 0
 422 00aa 3B68     		ldr	r3, [r7, #0]
 423 00ac 9A88     		ldrh	r2, [r3, #4]
 424 00ae 7B68     		ldr	r3, [r7, #4]
 425 00b0 9A85     		strh	r2, [r3, #44]	@ movhi
 262:../libraries/STM32F10x_StdPeriph_Driver/src/stm32f10x_tim.c ****  
 263:../libraries/STM32F10x_StdPeriph_Driver/src/stm32f10x_tim.c ****   /* Set the Prescaler value */
 264:../libraries/STM32F10x_StdPeriph_Driver/src/stm32f10x_tim.c ****   TIMx->PSC = TIM_TimeBaseInitStruct->TIM_Prescaler;
 426              		.loc 1 264 0
 427 00b2 3B68     		ldr	r3, [r7, #0]
 428 00b4 1A88     		ldrh	r2, [r3, #0]
 429 00b6 7B68     		ldr	r3, [r7, #4]
 430 00b8 1A85     		strh	r2, [r3, #40]	@ movhi
 265:../libraries/STM32F10x_StdPeriph_Driver/src/stm32f10x_tim.c ****     
 266:../libraries/STM32F10x_StdPeriph_Driver/src/stm32f10x_tim.c ****   if ((TIMx == TIM1) || (TIMx == TIM8)|| (TIMx == TIM15)|| (TIMx == TIM16) || (TIMx == TIM17))  
 431              		.loc 1 266 0
 432 00ba 7A68     		ldr	r2, [r7, #4]
 433 00bc 4FF43053 		mov	r3, #11264
 434 00c0 C4F20103 		movt	r3, 16385
 435 00c4 9A42     		cmp	r2, r3
 436 00c6 1BD0     		beq	.L23
 437              		.loc 1 266 0 is_stmt 0 discriminator 1
 438 00c8 7A68     		ldr	r2, [r7, #4]
 439 00ca 4FF45053 		mov	r3, #13312
 440 00ce C4F20103 		movt	r3, 16385
 441 00d2 9A42     		cmp	r2, r3
 442 00d4 14D0     		beq	.L23
 443 00d6 7A68     		ldr	r2, [r7, #4]
 444 00d8 4FF48043 		mov	r3, #16384
 445 00dc C4F20103 		movt	r3, 16385
 446 00e0 9A42     		cmp	r2, r3
 447 00e2 0DD0     		beq	.L23
 448 00e4 7A68     		ldr	r2, [r7, #4]
 449 00e6 4FF48843 		mov	r3, #17408
 450 00ea C4F20103 		movt	r3, 16385
 451 00ee 9A42     		cmp	r2, r3
 452 00f0 06D0     		beq	.L23
 453 00f2 7A68     		ldr	r2, [r7, #4]
 454 00f4 4FF49043 		mov	r3, #18432
 455 00f8 C4F20103 		movt	r3, 16385
 456 00fc 9A42     		cmp	r2, r3
 457 00fe 04D1     		bne	.L24
 458              	.L23:
 267:../libraries/STM32F10x_StdPeriph_Driver/src/stm32f10x_tim.c ****   {
 268:../libraries/STM32F10x_StdPeriph_Driver/src/stm32f10x_tim.c ****     /* Set the Repetition Counter value */
 269:../libraries/STM32F10x_StdPeriph_Driver/src/stm32f10x_tim.c ****     TIMx->RCR = TIM_TimeBaseInitStruct->TIM_RepetitionCounter;
 459              		.loc 1 269 0 is_stmt 1
 460 0100 3B68     		ldr	r3, [r7, #0]
 461 0102 1B7A     		ldrb	r3, [r3, #8]	@ zero_extendqisi2
 462 0104 1A46     		mov	r2, r3
 463 0106 7B68     		ldr	r3, [r7, #4]
 464 0108 1A86     		strh	r2, [r3, #48]	@ movhi
 465              	.L24:
 270:../libraries/STM32F10x_StdPeriph_Driver/src/stm32f10x_tim.c ****   }
 271:../libraries/STM32F10x_StdPeriph_Driver/src/stm32f10x_tim.c **** 
 272:../libraries/STM32F10x_StdPeriph_Driver/src/stm32f10x_tim.c ****   /* Generate an update event to reload the Prescaler and the Repetition counter
 273:../libraries/STM32F10x_StdPeriph_Driver/src/stm32f10x_tim.c ****      values immediately */
 274:../libraries/STM32F10x_StdPeriph_Driver/src/stm32f10x_tim.c ****   TIMx->EGR = TIM_PSCReloadMode_Immediate;           
 466              		.loc 1 274 0
 467 010a 7B68     		ldr	r3, [r7, #4]
 468 010c 4FF00102 		mov	r2, #1
 469 0110 9A82     		strh	r2, [r3, #20]	@ movhi
 275:../libraries/STM32F10x_StdPeriph_Driver/src/stm32f10x_tim.c **** }
 470              		.loc 1 275 0
 471 0112 07F11407 		add	r7, r7, #20
 472 0116 BD46     		mov	sp, r7
 473 0118 80BC     		pop	{r7}
 474 011a 7047     		bx	lr
 475              		.cfi_endproc
 476              	.LFE57:
 478              		.section	.text.TIM_OC1Init,"ax",%progbits
 479              		.align	2
 480              		.global	TIM_OC1Init
 481              		.thumb
 482              		.thumb_func
 484              	TIM_OC1Init:
 485              	.LFB58:
 276:../libraries/STM32F10x_StdPeriph_Driver/src/stm32f10x_tim.c **** 
 277:../libraries/STM32F10x_StdPeriph_Driver/src/stm32f10x_tim.c **** /**
 278:../libraries/STM32F10x_StdPeriph_Driver/src/stm32f10x_tim.c ****   * @brief  Initializes the TIMx Channel1 according to the specified
 279:../libraries/STM32F10x_StdPeriph_Driver/src/stm32f10x_tim.c ****   *         parameters in the TIM_OCInitStruct.
 280:../libraries/STM32F10x_StdPeriph_Driver/src/stm32f10x_tim.c ****   * @param  TIMx: where x can be  1 to 17 except 6 and 7 to select the TIM peripheral.
 281:../libraries/STM32F10x_StdPeriph_Driver/src/stm32f10x_tim.c ****   * @param  TIM_OCInitStruct: pointer to a TIM_OCInitTypeDef structure
 282:../libraries/STM32F10x_StdPeriph_Driver/src/stm32f10x_tim.c ****   *         that contains the configuration information for the specified TIM peripheral.
 283:../libraries/STM32F10x_StdPeriph_Driver/src/stm32f10x_tim.c ****   * @retval None
 284:../libraries/STM32F10x_StdPeriph_Driver/src/stm32f10x_tim.c ****   */
 285:../libraries/STM32F10x_StdPeriph_Driver/src/stm32f10x_tim.c **** void TIM_OC1Init(TIM_TypeDef* TIMx, TIM_OCInitTypeDef* TIM_OCInitStruct)
 286:../libraries/STM32F10x_StdPeriph_Driver/src/stm32f10x_tim.c **** {
 486              		.loc 1 286 0
 487              		.cfi_startproc
 488              		@ args = 0, pretend = 0, frame = 16
 489              		@ frame_needed = 1, uses_anonymous_args = 0
 490              		@ link register save eliminated.
 491 0000 80B4     		push	{r7}
 492              	.LCFI6:
 493              		.cfi_def_cfa_offset 4
 494              		.cfi_offset 7, -4
 495 0002 85B0     		sub	sp, sp, #20
 496              	.LCFI7:
 497              		.cfi_def_cfa_offset 24
 498 0004 00AF     		add	r7, sp, #0
 499              	.LCFI8:
 500              		.cfi_def_cfa_register 7
 501 0006 7860     		str	r0, [r7, #4]
 502 0008 3960     		str	r1, [r7, #0]
 287:../libraries/STM32F10x_StdPeriph_Driver/src/stm32f10x_tim.c ****   uint16_t tmpccmrx = 0, tmpccer = 0, tmpcr2 = 0;
 503              		.loc 1 287 0
 504 000a 4FF00003 		mov	r3, #0
 505 000e 7B81     		strh	r3, [r7, #10]	@ movhi
 506 0010 4FF00003 		mov	r3, #0
 507 0014 FB81     		strh	r3, [r7, #14]	@ movhi
 508 0016 4FF00003 		mov	r3, #0
 509 001a BB81     		strh	r3, [r7, #12]	@ movhi
 288:../libraries/STM32F10x_StdPeriph_Driver/src/stm32f10x_tim.c ****    
 289:../libraries/STM32F10x_StdPeriph_Driver/src/stm32f10x_tim.c ****   /* Check the parameters */
 290:../libraries/STM32F10x_StdPeriph_Driver/src/stm32f10x_tim.c ****   assert_param(IS_TIM_LIST8_PERIPH(TIMx));
 291:../libraries/STM32F10x_StdPeriph_Driver/src/stm32f10x_tim.c ****   assert_param(IS_TIM_OC_MODE(TIM_OCInitStruct->TIM_OCMode));
 292:../libraries/STM32F10x_StdPeriph_Driver/src/stm32f10x_tim.c ****   assert_param(IS_TIM_OUTPUT_STATE(TIM_OCInitStruct->TIM_OutputState));
 293:../libraries/STM32F10x_StdPeriph_Driver/src/stm32f10x_tim.c ****   assert_param(IS_TIM_OC_POLARITY(TIM_OCInitStruct->TIM_OCPolarity));   
 294:../libraries/STM32F10x_StdPeriph_Driver/src/stm32f10x_tim.c ****  /* Disable the Channel 1: Reset the CC1E Bit */
 295:../libraries/STM32F10x_StdPeriph_Driver/src/stm32f10x_tim.c ****   TIMx->CCER &= (uint16_t)(~(uint16_t)TIM_CCER_CC1E);
 510              		.loc 1 295 0
 511 001c 7B68     		ldr	r3, [r7, #4]
 512 001e 1B8C     		ldrh	r3, [r3, #32]	@ movhi
 513 0020 9BB2     		uxth	r3, r3
 514 0022 23F00103 		bic	r3, r3, #1
 515 0026 9AB2     		uxth	r2, r3
 516 0028 7B68     		ldr	r3, [r7, #4]
 517 002a 1A84     		strh	r2, [r3, #32]	@ movhi
 296:../libraries/STM32F10x_StdPeriph_Driver/src/stm32f10x_tim.c ****   /* Get the TIMx CCER register value */
 297:../libraries/STM32F10x_StdPeriph_Driver/src/stm32f10x_tim.c ****   tmpccer = TIMx->CCER;
 518              		.loc 1 297 0
 519 002c 7B68     		ldr	r3, [r7, #4]
 520 002e 1B8C     		ldrh	r3, [r3, #32]	@ movhi
 521 0030 FB81     		strh	r3, [r7, #14]	@ movhi
 298:../libraries/STM32F10x_StdPeriph_Driver/src/stm32f10x_tim.c ****   /* Get the TIMx CR2 register value */
 299:../libraries/STM32F10x_StdPeriph_Driver/src/stm32f10x_tim.c ****   tmpcr2 =  TIMx->CR2;
 522              		.loc 1 299 0
 523 0032 7B68     		ldr	r3, [r7, #4]
 524 0034 9B88     		ldrh	r3, [r3, #4]	@ movhi
 525 0036 BB81     		strh	r3, [r7, #12]	@ movhi
 300:../libraries/STM32F10x_StdPeriph_Driver/src/stm32f10x_tim.c ****   
 301:../libraries/STM32F10x_StdPeriph_Driver/src/stm32f10x_tim.c ****   /* Get the TIMx CCMR1 register value */
 302:../libraries/STM32F10x_StdPeriph_Driver/src/stm32f10x_tim.c ****   tmpccmrx = TIMx->CCMR1;
 526              		.loc 1 302 0
 527 0038 7B68     		ldr	r3, [r7, #4]
 528 003a 1B8B     		ldrh	r3, [r3, #24]	@ movhi
 529 003c 7B81     		strh	r3, [r7, #10]	@ movhi
 303:../libraries/STM32F10x_StdPeriph_Driver/src/stm32f10x_tim.c ****     
 304:../libraries/STM32F10x_StdPeriph_Driver/src/stm32f10x_tim.c ****   /* Reset the Output Compare Mode Bits */
 305:../libraries/STM32F10x_StdPeriph_Driver/src/stm32f10x_tim.c ****   tmpccmrx &= (uint16_t)(~((uint16_t)TIM_CCMR1_OC1M));
 530              		.loc 1 305 0
 531 003e 7B89     		ldrh	r3, [r7, #10]	@ movhi
 532 0040 23F07003 		bic	r3, r3, #112
 533 0044 7B81     		strh	r3, [r7, #10]	@ movhi
 306:../libraries/STM32F10x_StdPeriph_Driver/src/stm32f10x_tim.c ****   tmpccmrx &= (uint16_t)(~((uint16_t)TIM_CCMR1_CC1S));
 534              		.loc 1 306 0
 535 0046 7B89     		ldrh	r3, [r7, #10]	@ movhi
 536 0048 23F00303 		bic	r3, r3, #3
 537 004c 7B81     		strh	r3, [r7, #10]	@ movhi
 307:../libraries/STM32F10x_StdPeriph_Driver/src/stm32f10x_tim.c **** 
 308:../libraries/STM32F10x_StdPeriph_Driver/src/stm32f10x_tim.c ****   /* Select the Output Compare Mode */
 309:../libraries/STM32F10x_StdPeriph_Driver/src/stm32f10x_tim.c ****   tmpccmrx |= TIM_OCInitStruct->TIM_OCMode;
 538              		.loc 1 309 0
 539 004e 3B68     		ldr	r3, [r7, #0]
 540 0050 1A88     		ldrh	r2, [r3, #0]
 541 0052 7B89     		ldrh	r3, [r7, #10]	@ movhi
 542 0054 1343     		orrs	r3, r3, r2
 543 0056 7B81     		strh	r3, [r7, #10]	@ movhi
 310:../libraries/STM32F10x_StdPeriph_Driver/src/stm32f10x_tim.c ****   
 311:../libraries/STM32F10x_StdPeriph_Driver/src/stm32f10x_tim.c ****   /* Reset the Output Polarity level */
 312:../libraries/STM32F10x_StdPeriph_Driver/src/stm32f10x_tim.c ****   tmpccer &= (uint16_t)(~((uint16_t)TIM_CCER_CC1P));
 544              		.loc 1 312 0
 545 0058 FB89     		ldrh	r3, [r7, #14]	@ movhi
 546 005a 23F00203 		bic	r3, r3, #2
 547 005e FB81     		strh	r3, [r7, #14]	@ movhi
 313:../libraries/STM32F10x_StdPeriph_Driver/src/stm32f10x_tim.c ****   /* Set the Output Compare Polarity */
 314:../libraries/STM32F10x_StdPeriph_Driver/src/stm32f10x_tim.c ****   tmpccer |= TIM_OCInitStruct->TIM_OCPolarity;
 548              		.loc 1 314 0
 549 0060 3B68     		ldr	r3, [r7, #0]
 550 0062 1A89     		ldrh	r2, [r3, #8]
 551 0064 FB89     		ldrh	r3, [r7, #14]	@ movhi
 552 0066 1343     		orrs	r3, r3, r2
 553 0068 FB81     		strh	r3, [r7, #14]	@ movhi
 315:../libraries/STM32F10x_StdPeriph_Driver/src/stm32f10x_tim.c ****   
 316:../libraries/STM32F10x_StdPeriph_Driver/src/stm32f10x_tim.c ****   /* Set the Output State */
 317:../libraries/STM32F10x_StdPeriph_Driver/src/stm32f10x_tim.c ****   tmpccer |= TIM_OCInitStruct->TIM_OutputState;
 554              		.loc 1 317 0
 555 006a 3B68     		ldr	r3, [r7, #0]
 556 006c 5A88     		ldrh	r2, [r3, #2]
 557 006e FB89     		ldrh	r3, [r7, #14]	@ movhi
 558 0070 1343     		orrs	r3, r3, r2
 559 0072 FB81     		strh	r3, [r7, #14]	@ movhi
 318:../libraries/STM32F10x_StdPeriph_Driver/src/stm32f10x_tim.c ****     
 319:../libraries/STM32F10x_StdPeriph_Driver/src/stm32f10x_tim.c ****   if((TIMx == TIM1) || (TIMx == TIM8)|| (TIMx == TIM15)||
 560              		.loc 1 319 0
 561 0074 7A68     		ldr	r2, [r7, #4]
 562 0076 4FF43053 		mov	r3, #11264
 563 007a C4F20103 		movt	r3, 16385
 564 007e 9A42     		cmp	r2, r3
 565 0080 1BD0     		beq	.L26
 566              		.loc 1 319 0 is_stmt 0 discriminator 1
 567 0082 7A68     		ldr	r2, [r7, #4]
 568 0084 4FF45053 		mov	r3, #13312
 569 0088 C4F20103 		movt	r3, 16385
 570 008c 9A42     		cmp	r2, r3
 571 008e 14D0     		beq	.L26
 572 0090 7A68     		ldr	r2, [r7, #4]
 573 0092 4FF48043 		mov	r3, #16384
 574 0096 C4F20103 		movt	r3, 16385
 575 009a 9A42     		cmp	r2, r3
 576 009c 0DD0     		beq	.L26
 577 009e 7A68     		ldr	r2, [r7, #4]
 578 00a0 4FF48843 		mov	r3, #17408
 579 00a4 C4F20103 		movt	r3, 16385
 580 00a8 9A42     		cmp	r2, r3
 581 00aa 06D0     		beq	.L26
 320:../libraries/STM32F10x_StdPeriph_Driver/src/stm32f10x_tim.c ****      (TIMx == TIM16)|| (TIMx == TIM17))
 582              		.loc 1 320 0 is_stmt 1
 583 00ac 7A68     		ldr	r2, [r7, #4]
 584 00ae 4FF49043 		mov	r3, #18432
 585 00b2 C4F20103 		movt	r3, 16385
 586 00b6 9A42     		cmp	r2, r3
 587 00b8 23D1     		bne	.L27
 588              	.L26:
 321:../libraries/STM32F10x_StdPeriph_Driver/src/stm32f10x_tim.c ****   {
 322:../libraries/STM32F10x_StdPeriph_Driver/src/stm32f10x_tim.c ****     assert_param(IS_TIM_OUTPUTN_STATE(TIM_OCInitStruct->TIM_OutputNState));
 323:../libraries/STM32F10x_StdPeriph_Driver/src/stm32f10x_tim.c ****     assert_param(IS_TIM_OCN_POLARITY(TIM_OCInitStruct->TIM_OCNPolarity));
 324:../libraries/STM32F10x_StdPeriph_Driver/src/stm32f10x_tim.c ****     assert_param(IS_TIM_OCNIDLE_STATE(TIM_OCInitStruct->TIM_OCNIdleState));
 325:../libraries/STM32F10x_StdPeriph_Driver/src/stm32f10x_tim.c ****     assert_param(IS_TIM_OCIDLE_STATE(TIM_OCInitStruct->TIM_OCIdleState));
 326:../libraries/STM32F10x_StdPeriph_Driver/src/stm32f10x_tim.c ****     
 327:../libraries/STM32F10x_StdPeriph_Driver/src/stm32f10x_tim.c ****     /* Reset the Output N Polarity level */
 328:../libraries/STM32F10x_StdPeriph_Driver/src/stm32f10x_tim.c ****     tmpccer &= (uint16_t)(~((uint16_t)TIM_CCER_CC1NP));
 589              		.loc 1 328 0
 590 00ba FB89     		ldrh	r3, [r7, #14]	@ movhi
 591 00bc 23F00803 		bic	r3, r3, #8
 592 00c0 FB81     		strh	r3, [r7, #14]	@ movhi
 329:../libraries/STM32F10x_StdPeriph_Driver/src/stm32f10x_tim.c ****     /* Set the Output N Polarity */
 330:../libraries/STM32F10x_StdPeriph_Driver/src/stm32f10x_tim.c ****     tmpccer |= TIM_OCInitStruct->TIM_OCNPolarity;
 593              		.loc 1 330 0
 594 00c2 3B68     		ldr	r3, [r7, #0]
 595 00c4 5A89     		ldrh	r2, [r3, #10]
 596 00c6 FB89     		ldrh	r3, [r7, #14]	@ movhi
 597 00c8 1343     		orrs	r3, r3, r2
 598 00ca FB81     		strh	r3, [r7, #14]	@ movhi
 331:../libraries/STM32F10x_StdPeriph_Driver/src/stm32f10x_tim.c ****     
 332:../libraries/STM32F10x_StdPeriph_Driver/src/stm32f10x_tim.c ****     /* Reset the Output N State */
 333:../libraries/STM32F10x_StdPeriph_Driver/src/stm32f10x_tim.c ****     tmpccer &= (uint16_t)(~((uint16_t)TIM_CCER_CC1NE));    
 599              		.loc 1 333 0
 600 00cc FB89     		ldrh	r3, [r7, #14]	@ movhi
 601 00ce 23F00403 		bic	r3, r3, #4
 602 00d2 FB81     		strh	r3, [r7, #14]	@ movhi
 334:../libraries/STM32F10x_StdPeriph_Driver/src/stm32f10x_tim.c ****     /* Set the Output N State */
 335:../libraries/STM32F10x_StdPeriph_Driver/src/stm32f10x_tim.c ****     tmpccer |= TIM_OCInitStruct->TIM_OutputNState;
 603              		.loc 1 335 0
 604 00d4 3B68     		ldr	r3, [r7, #0]
 605 00d6 9A88     		ldrh	r2, [r3, #4]
 606 00d8 FB89     		ldrh	r3, [r7, #14]	@ movhi
 607 00da 1343     		orrs	r3, r3, r2
 608 00dc FB81     		strh	r3, [r7, #14]	@ movhi
 336:../libraries/STM32F10x_StdPeriph_Driver/src/stm32f10x_tim.c ****     
 337:../libraries/STM32F10x_StdPeriph_Driver/src/stm32f10x_tim.c ****     /* Reset the Output Compare and Output Compare N IDLE State */
 338:../libraries/STM32F10x_StdPeriph_Driver/src/stm32f10x_tim.c ****     tmpcr2 &= (uint16_t)(~((uint16_t)TIM_CR2_OIS1));
 609              		.loc 1 338 0
 610 00de BB89     		ldrh	r3, [r7, #12]	@ movhi
 611 00e0 23F48073 		bic	r3, r3, #256
 612 00e4 BB81     		strh	r3, [r7, #12]	@ movhi
 339:../libraries/STM32F10x_StdPeriph_Driver/src/stm32f10x_tim.c ****     tmpcr2 &= (uint16_t)(~((uint16_t)TIM_CR2_OIS1N));
 613              		.loc 1 339 0
 614 00e6 BB89     		ldrh	r3, [r7, #12]	@ movhi
 615 00e8 23F40073 		bic	r3, r3, #512
 616 00ec BB81     		strh	r3, [r7, #12]	@ movhi
 340:../libraries/STM32F10x_StdPeriph_Driver/src/stm32f10x_tim.c ****     
 341:../libraries/STM32F10x_StdPeriph_Driver/src/stm32f10x_tim.c ****     /* Set the Output Idle state */
 342:../libraries/STM32F10x_StdPeriph_Driver/src/stm32f10x_tim.c ****     tmpcr2 |= TIM_OCInitStruct->TIM_OCIdleState;
 617              		.loc 1 342 0
 618 00ee 3B68     		ldr	r3, [r7, #0]
 619 00f0 9A89     		ldrh	r2, [r3, #12]
 620 00f2 BB89     		ldrh	r3, [r7, #12]	@ movhi
 621 00f4 1343     		orrs	r3, r3, r2
 622 00f6 BB81     		strh	r3, [r7, #12]	@ movhi
 343:../libraries/STM32F10x_StdPeriph_Driver/src/stm32f10x_tim.c ****     /* Set the Output N Idle state */
 344:../libraries/STM32F10x_StdPeriph_Driver/src/stm32f10x_tim.c ****     tmpcr2 |= TIM_OCInitStruct->TIM_OCNIdleState;
 623              		.loc 1 344 0
 624 00f8 3B68     		ldr	r3, [r7, #0]
 625 00fa DA89     		ldrh	r2, [r3, #14]
 626 00fc BB89     		ldrh	r3, [r7, #12]	@ movhi
 627 00fe 1343     		orrs	r3, r3, r2
 628 0100 BB81     		strh	r3, [r7, #12]	@ movhi
 629              	.L27:
 345:../libraries/STM32F10x_StdPeriph_Driver/src/stm32f10x_tim.c ****   }
 346:../libraries/STM32F10x_StdPeriph_Driver/src/stm32f10x_tim.c ****   /* Write to TIMx CR2 */
 347:../libraries/STM32F10x_StdPeriph_Driver/src/stm32f10x_tim.c ****   TIMx->CR2 = tmpcr2;
 630              		.loc 1 347 0
 631 0102 7B68     		ldr	r3, [r7, #4]
 632 0104 BA89     		ldrh	r2, [r7, #12]	@ movhi
 633 0106 9A80     		strh	r2, [r3, #4]	@ movhi
 348:../libraries/STM32F10x_StdPeriph_Driver/src/stm32f10x_tim.c ****   
 349:../libraries/STM32F10x_StdPeriph_Driver/src/stm32f10x_tim.c ****   /* Write to TIMx CCMR1 */
 350:../libraries/STM32F10x_StdPeriph_Driver/src/stm32f10x_tim.c ****   TIMx->CCMR1 = tmpccmrx;
 634              		.loc 1 350 0
 635 0108 7B68     		ldr	r3, [r7, #4]
 636 010a 7A89     		ldrh	r2, [r7, #10]	@ movhi
 637 010c 1A83     		strh	r2, [r3, #24]	@ movhi
 351:../libraries/STM32F10x_StdPeriph_Driver/src/stm32f10x_tim.c **** 
 352:../libraries/STM32F10x_StdPeriph_Driver/src/stm32f10x_tim.c ****   /* Set the Capture Compare Register value */
 353:../libraries/STM32F10x_StdPeriph_Driver/src/stm32f10x_tim.c ****   TIMx->CCR1 = TIM_OCInitStruct->TIM_Pulse; 
 638              		.loc 1 353 0
 639 010e 3B68     		ldr	r3, [r7, #0]
 640 0110 DA88     		ldrh	r2, [r3, #6]
 641 0112 7B68     		ldr	r3, [r7, #4]
 642 0114 9A86     		strh	r2, [r3, #52]	@ movhi
 354:../libraries/STM32F10x_StdPeriph_Driver/src/stm32f10x_tim.c ****  
 355:../libraries/STM32F10x_StdPeriph_Driver/src/stm32f10x_tim.c ****   /* Write to TIMx CCER */
 356:../libraries/STM32F10x_StdPeriph_Driver/src/stm32f10x_tim.c ****   TIMx->CCER = tmpccer;
 643              		.loc 1 356 0
 644 0116 7B68     		ldr	r3, [r7, #4]
 645 0118 FA89     		ldrh	r2, [r7, #14]	@ movhi
 646 011a 1A84     		strh	r2, [r3, #32]	@ movhi
 357:../libraries/STM32F10x_StdPeriph_Driver/src/stm32f10x_tim.c **** }
 647              		.loc 1 357 0
 648 011c 07F11407 		add	r7, r7, #20
 649 0120 BD46     		mov	sp, r7
 650 0122 80BC     		pop	{r7}
 651 0124 7047     		bx	lr
 652              		.cfi_endproc
 653              	.LFE58:
 655 0126 00BF     		.section	.text.TIM_OC2Init,"ax",%progbits
 656              		.align	2
 657              		.global	TIM_OC2Init
 658              		.thumb
 659              		.thumb_func
 661              	TIM_OC2Init:
 662              	.LFB59:
 358:../libraries/STM32F10x_StdPeriph_Driver/src/stm32f10x_tim.c **** 
 359:../libraries/STM32F10x_StdPeriph_Driver/src/stm32f10x_tim.c **** /**
 360:../libraries/STM32F10x_StdPeriph_Driver/src/stm32f10x_tim.c ****   * @brief  Initializes the TIMx Channel2 according to the specified
 361:../libraries/STM32F10x_StdPeriph_Driver/src/stm32f10x_tim.c ****   *         parameters in the TIM_OCInitStruct.
 362:../libraries/STM32F10x_StdPeriph_Driver/src/stm32f10x_tim.c ****   * @param  TIMx: where x can be  1, 2, 3, 4, 5, 8, 9, 12 or 15 to select 
 363:../libraries/STM32F10x_StdPeriph_Driver/src/stm32f10x_tim.c ****   *         the TIM peripheral.
 364:../libraries/STM32F10x_StdPeriph_Driver/src/stm32f10x_tim.c ****   * @param  TIM_OCInitStruct: pointer to a TIM_OCInitTypeDef structure
 365:../libraries/STM32F10x_StdPeriph_Driver/src/stm32f10x_tim.c ****   *         that contains the configuration information for the specified TIM peripheral.
 366:../libraries/STM32F10x_StdPeriph_Driver/src/stm32f10x_tim.c ****   * @retval None
 367:../libraries/STM32F10x_StdPeriph_Driver/src/stm32f10x_tim.c ****   */
 368:../libraries/STM32F10x_StdPeriph_Driver/src/stm32f10x_tim.c **** void TIM_OC2Init(TIM_TypeDef* TIMx, TIM_OCInitTypeDef* TIM_OCInitStruct)
 369:../libraries/STM32F10x_StdPeriph_Driver/src/stm32f10x_tim.c **** {
 663              		.loc 1 369 0
 664              		.cfi_startproc
 665              		@ args = 0, pretend = 0, frame = 16
 666              		@ frame_needed = 1, uses_anonymous_args = 0
 667              		@ link register save eliminated.
 668 0000 80B4     		push	{r7}
 669              	.LCFI9:
 670              		.cfi_def_cfa_offset 4
 671              		.cfi_offset 7, -4
 672 0002 85B0     		sub	sp, sp, #20
 673              	.LCFI10:
 674              		.cfi_def_cfa_offset 24
 675 0004 00AF     		add	r7, sp, #0
 676              	.LCFI11:
 677              		.cfi_def_cfa_register 7
 678 0006 7860     		str	r0, [r7, #4]
 679 0008 3960     		str	r1, [r7, #0]
 370:../libraries/STM32F10x_StdPeriph_Driver/src/stm32f10x_tim.c ****   uint16_t tmpccmrx = 0, tmpccer = 0, tmpcr2 = 0;
 680              		.loc 1 370 0
 681 000a 4FF00003 		mov	r3, #0
 682 000e 7B81     		strh	r3, [r7, #10]	@ movhi
 683 0010 4FF00003 		mov	r3, #0
 684 0014 FB81     		strh	r3, [r7, #14]	@ movhi
 685 0016 4FF00003 		mov	r3, #0
 686 001a BB81     		strh	r3, [r7, #12]	@ movhi
 371:../libraries/STM32F10x_StdPeriph_Driver/src/stm32f10x_tim.c ****    
 372:../libraries/STM32F10x_StdPeriph_Driver/src/stm32f10x_tim.c ****   /* Check the parameters */
 373:../libraries/STM32F10x_StdPeriph_Driver/src/stm32f10x_tim.c ****   assert_param(IS_TIM_LIST6_PERIPH(TIMx)); 
 374:../libraries/STM32F10x_StdPeriph_Driver/src/stm32f10x_tim.c ****   assert_param(IS_TIM_OC_MODE(TIM_OCInitStruct->TIM_OCMode));
 375:../libraries/STM32F10x_StdPeriph_Driver/src/stm32f10x_tim.c ****   assert_param(IS_TIM_OUTPUT_STATE(TIM_OCInitStruct->TIM_OutputState));
 376:../libraries/STM32F10x_StdPeriph_Driver/src/stm32f10x_tim.c ****   assert_param(IS_TIM_OC_POLARITY(TIM_OCInitStruct->TIM_OCPolarity));   
 377:../libraries/STM32F10x_StdPeriph_Driver/src/stm32f10x_tim.c ****    /* Disable the Channel 2: Reset the CC2E Bit */
 378:../libraries/STM32F10x_StdPeriph_Driver/src/stm32f10x_tim.c ****   TIMx->CCER &= (uint16_t)(~((uint16_t)TIM_CCER_CC2E));
 687              		.loc 1 378 0
 688 001c 7B68     		ldr	r3, [r7, #4]
 689 001e 1B8C     		ldrh	r3, [r3, #32]	@ movhi
 690 0020 9BB2     		uxth	r3, r3
 691 0022 23F01003 		bic	r3, r3, #16
 692 0026 9AB2     		uxth	r2, r3
 693 0028 7B68     		ldr	r3, [r7, #4]
 694 002a 1A84     		strh	r2, [r3, #32]	@ movhi
 379:../libraries/STM32F10x_StdPeriph_Driver/src/stm32f10x_tim.c ****   
 380:../libraries/STM32F10x_StdPeriph_Driver/src/stm32f10x_tim.c ****   /* Get the TIMx CCER register value */  
 381:../libraries/STM32F10x_StdPeriph_Driver/src/stm32f10x_tim.c ****   tmpccer = TIMx->CCER;
 695              		.loc 1 381 0
 696 002c 7B68     		ldr	r3, [r7, #4]
 697 002e 1B8C     		ldrh	r3, [r3, #32]	@ movhi
 698 0030 FB81     		strh	r3, [r7, #14]	@ movhi
 382:../libraries/STM32F10x_StdPeriph_Driver/src/stm32f10x_tim.c ****   /* Get the TIMx CR2 register value */
 383:../libraries/STM32F10x_StdPeriph_Driver/src/stm32f10x_tim.c ****   tmpcr2 =  TIMx->CR2;
 699              		.loc 1 383 0
 700 0032 7B68     		ldr	r3, [r7, #4]
 701 0034 9B88     		ldrh	r3, [r3, #4]	@ movhi
 702 0036 BB81     		strh	r3, [r7, #12]	@ movhi
 384:../libraries/STM32F10x_StdPeriph_Driver/src/stm32f10x_tim.c ****   
 385:../libraries/STM32F10x_StdPeriph_Driver/src/stm32f10x_tim.c ****   /* Get the TIMx CCMR1 register value */
 386:../libraries/STM32F10x_StdPeriph_Driver/src/stm32f10x_tim.c ****   tmpccmrx = TIMx->CCMR1;
 703              		.loc 1 386 0
 704 0038 7B68     		ldr	r3, [r7, #4]
 705 003a 1B8B     		ldrh	r3, [r3, #24]	@ movhi
 706 003c 7B81     		strh	r3, [r7, #10]	@ movhi
 387:../libraries/STM32F10x_StdPeriph_Driver/src/stm32f10x_tim.c ****     
 388:../libraries/STM32F10x_StdPeriph_Driver/src/stm32f10x_tim.c ****   /* Reset the Output Compare mode and Capture/Compare selection Bits */
 389:../libraries/STM32F10x_StdPeriph_Driver/src/stm32f10x_tim.c ****   tmpccmrx &= (uint16_t)(~((uint16_t)TIM_CCMR1_OC2M));
 707              		.loc 1 389 0
 708 003e 7B89     		ldrh	r3, [r7, #10]	@ movhi
 709 0040 23F4E043 		bic	r3, r3, #28672
 710 0044 7B81     		strh	r3, [r7, #10]	@ movhi
 390:../libraries/STM32F10x_StdPeriph_Driver/src/stm32f10x_tim.c ****   tmpccmrx &= (uint16_t)(~((uint16_t)TIM_CCMR1_CC2S));
 711              		.loc 1 390 0
 712 0046 7B89     		ldrh	r3, [r7, #10]	@ movhi
 713 0048 23F44073 		bic	r3, r3, #768
 714 004c 7B81     		strh	r3, [r7, #10]	@ movhi
 391:../libraries/STM32F10x_StdPeriph_Driver/src/stm32f10x_tim.c ****   
 392:../libraries/STM32F10x_StdPeriph_Driver/src/stm32f10x_tim.c ****   /* Select the Output Compare Mode */
 393:../libraries/STM32F10x_StdPeriph_Driver/src/stm32f10x_tim.c ****   tmpccmrx |= (uint16_t)(TIM_OCInitStruct->TIM_OCMode << 8);
 715              		.loc 1 393 0
 716 004e 3B68     		ldr	r3, [r7, #0]
 717 0050 1B88     		ldrh	r3, [r3, #0]
 718 0052 4FEA0323 		lsl	r3, r3, #8
 719 0056 9AB2     		uxth	r2, r3
 720 0058 7B89     		ldrh	r3, [r7, #10]	@ movhi
 721 005a 1343     		orrs	r3, r3, r2
 722 005c 7B81     		strh	r3, [r7, #10]	@ movhi
 394:../libraries/STM32F10x_StdPeriph_Driver/src/stm32f10x_tim.c ****   
 395:../libraries/STM32F10x_StdPeriph_Driver/src/stm32f10x_tim.c ****   /* Reset the Output Polarity level */
 396:../libraries/STM32F10x_StdPeriph_Driver/src/stm32f10x_tim.c ****   tmpccer &= (uint16_t)(~((uint16_t)TIM_CCER_CC2P));
 723              		.loc 1 396 0
 724 005e FB89     		ldrh	r3, [r7, #14]	@ movhi
 725 0060 23F02003 		bic	r3, r3, #32
 726 0064 FB81     		strh	r3, [r7, #14]	@ movhi
 397:../libraries/STM32F10x_StdPeriph_Driver/src/stm32f10x_tim.c ****   /* Set the Output Compare Polarity */
 398:../libraries/STM32F10x_StdPeriph_Driver/src/stm32f10x_tim.c ****   tmpccer |= (uint16_t)(TIM_OCInitStruct->TIM_OCPolarity << 4);
 727              		.loc 1 398 0
 728 0066 3B68     		ldr	r3, [r7, #0]
 729 0068 1B89     		ldrh	r3, [r3, #8]
 730 006a 4FEA0313 		lsl	r3, r3, #4
 731 006e 9AB2     		uxth	r2, r3
 732 0070 FB89     		ldrh	r3, [r7, #14]	@ movhi
 733 0072 1343     		orrs	r3, r3, r2
 734 0074 FB81     		strh	r3, [r7, #14]	@ movhi
 399:../libraries/STM32F10x_StdPeriph_Driver/src/stm32f10x_tim.c ****   
 400:../libraries/STM32F10x_StdPeriph_Driver/src/stm32f10x_tim.c ****   /* Set the Output State */
 401:../libraries/STM32F10x_StdPeriph_Driver/src/stm32f10x_tim.c ****   tmpccer |= (uint16_t)(TIM_OCInitStruct->TIM_OutputState << 4);
 735              		.loc 1 401 0
 736 0076 3B68     		ldr	r3, [r7, #0]
 737 0078 5B88     		ldrh	r3, [r3, #2]
 738 007a 4FEA0313 		lsl	r3, r3, #4
 739 007e 9AB2     		uxth	r2, r3
 740 0080 FB89     		ldrh	r3, [r7, #14]	@ movhi
 741 0082 1343     		orrs	r3, r3, r2
 742 0084 FB81     		strh	r3, [r7, #14]	@ movhi
 402:../libraries/STM32F10x_StdPeriph_Driver/src/stm32f10x_tim.c ****     
 403:../libraries/STM32F10x_StdPeriph_Driver/src/stm32f10x_tim.c ****   if((TIMx == TIM1) || (TIMx == TIM8))
 743              		.loc 1 403 0
 744 0086 7A68     		ldr	r2, [r7, #4]
 745 0088 4FF43053 		mov	r3, #11264
 746 008c C4F20103 		movt	r3, 16385
 747 0090 9A42     		cmp	r2, r3
 748 0092 06D0     		beq	.L29
 749              		.loc 1 403 0 is_stmt 0 discriminator 1
 750 0094 7A68     		ldr	r2, [r7, #4]
 751 0096 4FF45053 		mov	r3, #13312
 752 009a C4F20103 		movt	r3, 16385
 753 009e 9A42     		cmp	r2, r3
 754 00a0 2FD1     		bne	.L30
 755              	.L29:
 404:../libraries/STM32F10x_StdPeriph_Driver/src/stm32f10x_tim.c ****   {
 405:../libraries/STM32F10x_StdPeriph_Driver/src/stm32f10x_tim.c ****     assert_param(IS_TIM_OUTPUTN_STATE(TIM_OCInitStruct->TIM_OutputNState));
 406:../libraries/STM32F10x_StdPeriph_Driver/src/stm32f10x_tim.c ****     assert_param(IS_TIM_OCN_POLARITY(TIM_OCInitStruct->TIM_OCNPolarity));
 407:../libraries/STM32F10x_StdPeriph_Driver/src/stm32f10x_tim.c ****     assert_param(IS_TIM_OCNIDLE_STATE(TIM_OCInitStruct->TIM_OCNIdleState));
 408:../libraries/STM32F10x_StdPeriph_Driver/src/stm32f10x_tim.c ****     assert_param(IS_TIM_OCIDLE_STATE(TIM_OCInitStruct->TIM_OCIdleState));
 409:../libraries/STM32F10x_StdPeriph_Driver/src/stm32f10x_tim.c ****     
 410:../libraries/STM32F10x_StdPeriph_Driver/src/stm32f10x_tim.c ****     /* Reset the Output N Polarity level */
 411:../libraries/STM32F10x_StdPeriph_Driver/src/stm32f10x_tim.c ****     tmpccer &= (uint16_t)(~((uint16_t)TIM_CCER_CC2NP));
 756              		.loc 1 411 0 is_stmt 1
 757 00a2 FB89     		ldrh	r3, [r7, #14]	@ movhi
 758 00a4 23F08003 		bic	r3, r3, #128
 759 00a8 FB81     		strh	r3, [r7, #14]	@ movhi
 412:../libraries/STM32F10x_StdPeriph_Driver/src/stm32f10x_tim.c ****     /* Set the Output N Polarity */
 413:../libraries/STM32F10x_StdPeriph_Driver/src/stm32f10x_tim.c ****     tmpccer |= (uint16_t)(TIM_OCInitStruct->TIM_OCNPolarity << 4);
 760              		.loc 1 413 0
 761 00aa 3B68     		ldr	r3, [r7, #0]
 762 00ac 5B89     		ldrh	r3, [r3, #10]
 763 00ae 4FEA0313 		lsl	r3, r3, #4
 764 00b2 9AB2     		uxth	r2, r3
 765 00b4 FB89     		ldrh	r3, [r7, #14]	@ movhi
 766 00b6 1343     		orrs	r3, r3, r2
 767 00b8 FB81     		strh	r3, [r7, #14]	@ movhi
 414:../libraries/STM32F10x_StdPeriph_Driver/src/stm32f10x_tim.c ****     
 415:../libraries/STM32F10x_StdPeriph_Driver/src/stm32f10x_tim.c ****     /* Reset the Output N State */
 416:../libraries/STM32F10x_StdPeriph_Driver/src/stm32f10x_tim.c ****     tmpccer &= (uint16_t)(~((uint16_t)TIM_CCER_CC2NE));    
 768              		.loc 1 416 0
 769 00ba FB89     		ldrh	r3, [r7, #14]	@ movhi
 770 00bc 23F04003 		bic	r3, r3, #64
 771 00c0 FB81     		strh	r3, [r7, #14]	@ movhi
 417:../libraries/STM32F10x_StdPeriph_Driver/src/stm32f10x_tim.c ****     /* Set the Output N State */
 418:../libraries/STM32F10x_StdPeriph_Driver/src/stm32f10x_tim.c ****     tmpccer |= (uint16_t)(TIM_OCInitStruct->TIM_OutputNState << 4);
 772              		.loc 1 418 0
 773 00c2 3B68     		ldr	r3, [r7, #0]
 774 00c4 9B88     		ldrh	r3, [r3, #4]
 775 00c6 4FEA0313 		lsl	r3, r3, #4
 776 00ca 9AB2     		uxth	r2, r3
 777 00cc FB89     		ldrh	r3, [r7, #14]	@ movhi
 778 00ce 1343     		orrs	r3, r3, r2
 779 00d0 FB81     		strh	r3, [r7, #14]	@ movhi
 419:../libraries/STM32F10x_StdPeriph_Driver/src/stm32f10x_tim.c ****     
 420:../libraries/STM32F10x_StdPeriph_Driver/src/stm32f10x_tim.c ****     /* Reset the Output Compare and Output Compare N IDLE State */
 421:../libraries/STM32F10x_StdPeriph_Driver/src/stm32f10x_tim.c ****     tmpcr2 &= (uint16_t)(~((uint16_t)TIM_CR2_OIS2));
 780              		.loc 1 421 0
 781 00d2 BB89     		ldrh	r3, [r7, #12]	@ movhi
 782 00d4 23F48063 		bic	r3, r3, #1024
 783 00d8 BB81     		strh	r3, [r7, #12]	@ movhi
 422:../libraries/STM32F10x_StdPeriph_Driver/src/stm32f10x_tim.c ****     tmpcr2 &= (uint16_t)(~((uint16_t)TIM_CR2_OIS2N));
 784              		.loc 1 422 0
 785 00da BB89     		ldrh	r3, [r7, #12]	@ movhi
 786 00dc 23F40063 		bic	r3, r3, #2048
 787 00e0 BB81     		strh	r3, [r7, #12]	@ movhi
 423:../libraries/STM32F10x_StdPeriph_Driver/src/stm32f10x_tim.c ****     
 424:../libraries/STM32F10x_StdPeriph_Driver/src/stm32f10x_tim.c ****     /* Set the Output Idle state */
 425:../libraries/STM32F10x_StdPeriph_Driver/src/stm32f10x_tim.c ****     tmpcr2 |= (uint16_t)(TIM_OCInitStruct->TIM_OCIdleState << 2);
 788              		.loc 1 425 0
 789 00e2 3B68     		ldr	r3, [r7, #0]
 790 00e4 9B89     		ldrh	r3, [r3, #12]
 791 00e6 4FEA8303 		lsl	r3, r3, #2
 792 00ea 9AB2     		uxth	r2, r3
 793 00ec BB89     		ldrh	r3, [r7, #12]	@ movhi
 794 00ee 1343     		orrs	r3, r3, r2
 795 00f0 BB81     		strh	r3, [r7, #12]	@ movhi
 426:../libraries/STM32F10x_StdPeriph_Driver/src/stm32f10x_tim.c ****     /* Set the Output N Idle state */
 427:../libraries/STM32F10x_StdPeriph_Driver/src/stm32f10x_tim.c ****     tmpcr2 |= (uint16_t)(TIM_OCInitStruct->TIM_OCNIdleState << 2);
 796              		.loc 1 427 0
 797 00f2 3B68     		ldr	r3, [r7, #0]
 798 00f4 DB89     		ldrh	r3, [r3, #14]
 799 00f6 4FEA8303 		lsl	r3, r3, #2
 800 00fa 9AB2     		uxth	r2, r3
 801 00fc BB89     		ldrh	r3, [r7, #12]	@ movhi
 802 00fe 1343     		orrs	r3, r3, r2
 803 0100 BB81     		strh	r3, [r7, #12]	@ movhi
 804              	.L30:
 428:../libraries/STM32F10x_StdPeriph_Driver/src/stm32f10x_tim.c ****   }
 429:../libraries/STM32F10x_StdPeriph_Driver/src/stm32f10x_tim.c ****   /* Write to TIMx CR2 */
 430:../libraries/STM32F10x_StdPeriph_Driver/src/stm32f10x_tim.c ****   TIMx->CR2 = tmpcr2;
 805              		.loc 1 430 0
 806 0102 7B68     		ldr	r3, [r7, #4]
 807 0104 BA89     		ldrh	r2, [r7, #12]	@ movhi
 808 0106 9A80     		strh	r2, [r3, #4]	@ movhi
 431:../libraries/STM32F10x_StdPeriph_Driver/src/stm32f10x_tim.c ****   
 432:../libraries/STM32F10x_StdPeriph_Driver/src/stm32f10x_tim.c ****   /* Write to TIMx CCMR1 */
 433:../libraries/STM32F10x_StdPeriph_Driver/src/stm32f10x_tim.c ****   TIMx->CCMR1 = tmpccmrx;
 809              		.loc 1 433 0
 810 0108 7B68     		ldr	r3, [r7, #4]
 811 010a 7A89     		ldrh	r2, [r7, #10]	@ movhi
 812 010c 1A83     		strh	r2, [r3, #24]	@ movhi
 434:../libraries/STM32F10x_StdPeriph_Driver/src/stm32f10x_tim.c **** 
 435:../libraries/STM32F10x_StdPeriph_Driver/src/stm32f10x_tim.c ****   /* Set the Capture Compare Register value */
 436:../libraries/STM32F10x_StdPeriph_Driver/src/stm32f10x_tim.c ****   TIMx->CCR2 = TIM_OCInitStruct->TIM_Pulse;
 813              		.loc 1 436 0
 814 010e 3B68     		ldr	r3, [r7, #0]
 815 0110 DA88     		ldrh	r2, [r3, #6]
 816 0112 7B68     		ldr	r3, [r7, #4]
 817 0114 1A87     		strh	r2, [r3, #56]	@ movhi
 437:../libraries/STM32F10x_StdPeriph_Driver/src/stm32f10x_tim.c ****   
 438:../libraries/STM32F10x_StdPeriph_Driver/src/stm32f10x_tim.c ****   /* Write to TIMx CCER */
 439:../libraries/STM32F10x_StdPeriph_Driver/src/stm32f10x_tim.c ****   TIMx->CCER = tmpccer;
 818              		.loc 1 439 0
 819 0116 7B68     		ldr	r3, [r7, #4]
 820 0118 FA89     		ldrh	r2, [r7, #14]	@ movhi
 821 011a 1A84     		strh	r2, [r3, #32]	@ movhi
 440:../libraries/STM32F10x_StdPeriph_Driver/src/stm32f10x_tim.c **** }
 822              		.loc 1 440 0
 823 011c 07F11407 		add	r7, r7, #20
 824 0120 BD46     		mov	sp, r7
 825 0122 80BC     		pop	{r7}
 826 0124 7047     		bx	lr
 827              		.cfi_endproc
 828              	.LFE59:
 830 0126 00BF     		.section	.text.TIM_OC3Init,"ax",%progbits
 831              		.align	2
 832              		.global	TIM_OC3Init
 833              		.thumb
 834              		.thumb_func
 836              	TIM_OC3Init:
 837              	.LFB60:
 441:../libraries/STM32F10x_StdPeriph_Driver/src/stm32f10x_tim.c **** 
 442:../libraries/STM32F10x_StdPeriph_Driver/src/stm32f10x_tim.c **** /**
 443:../libraries/STM32F10x_StdPeriph_Driver/src/stm32f10x_tim.c ****   * @brief  Initializes the TIMx Channel3 according to the specified
 444:../libraries/STM32F10x_StdPeriph_Driver/src/stm32f10x_tim.c ****   *         parameters in the TIM_OCInitStruct.
 445:../libraries/STM32F10x_StdPeriph_Driver/src/stm32f10x_tim.c ****   * @param  TIMx: where x can be  1, 2, 3, 4, 5 or 8 to select the TIM peripheral.
 446:../libraries/STM32F10x_StdPeriph_Driver/src/stm32f10x_tim.c ****   * @param  TIM_OCInitStruct: pointer to a TIM_OCInitTypeDef structure
 447:../libraries/STM32F10x_StdPeriph_Driver/src/stm32f10x_tim.c ****   *         that contains the configuration information for the specified TIM peripheral.
 448:../libraries/STM32F10x_StdPeriph_Driver/src/stm32f10x_tim.c ****   * @retval None
 449:../libraries/STM32F10x_StdPeriph_Driver/src/stm32f10x_tim.c ****   */
 450:../libraries/STM32F10x_StdPeriph_Driver/src/stm32f10x_tim.c **** void TIM_OC3Init(TIM_TypeDef* TIMx, TIM_OCInitTypeDef* TIM_OCInitStruct)
 451:../libraries/STM32F10x_StdPeriph_Driver/src/stm32f10x_tim.c **** {
 838              		.loc 1 451 0
 839              		.cfi_startproc
 840              		@ args = 0, pretend = 0, frame = 16
 841              		@ frame_needed = 1, uses_anonymous_args = 0
 842              		@ link register save eliminated.
 843 0000 80B4     		push	{r7}
 844              	.LCFI12:
 845              		.cfi_def_cfa_offset 4
 846              		.cfi_offset 7, -4
 847 0002 85B0     		sub	sp, sp, #20
 848              	.LCFI13:
 849              		.cfi_def_cfa_offset 24
 850 0004 00AF     		add	r7, sp, #0
 851              	.LCFI14:
 852              		.cfi_def_cfa_register 7
 853 0006 7860     		str	r0, [r7, #4]
 854 0008 3960     		str	r1, [r7, #0]
 452:../libraries/STM32F10x_StdPeriph_Driver/src/stm32f10x_tim.c ****   uint16_t tmpccmrx = 0, tmpccer = 0, tmpcr2 = 0;
 855              		.loc 1 452 0
 856 000a 4FF00003 		mov	r3, #0
 857 000e 7B81     		strh	r3, [r7, #10]	@ movhi
 858 0010 4FF00003 		mov	r3, #0
 859 0014 FB81     		strh	r3, [r7, #14]	@ movhi
 860 0016 4FF00003 		mov	r3, #0
 861 001a BB81     		strh	r3, [r7, #12]	@ movhi
 453:../libraries/STM32F10x_StdPeriph_Driver/src/stm32f10x_tim.c ****    
 454:../libraries/STM32F10x_StdPeriph_Driver/src/stm32f10x_tim.c ****   /* Check the parameters */
 455:../libraries/STM32F10x_StdPeriph_Driver/src/stm32f10x_tim.c ****   assert_param(IS_TIM_LIST3_PERIPH(TIMx)); 
 456:../libraries/STM32F10x_StdPeriph_Driver/src/stm32f10x_tim.c ****   assert_param(IS_TIM_OC_MODE(TIM_OCInitStruct->TIM_OCMode));
 457:../libraries/STM32F10x_StdPeriph_Driver/src/stm32f10x_tim.c ****   assert_param(IS_TIM_OUTPUT_STATE(TIM_OCInitStruct->TIM_OutputState));
 458:../libraries/STM32F10x_StdPeriph_Driver/src/stm32f10x_tim.c ****   assert_param(IS_TIM_OC_POLARITY(TIM_OCInitStruct->TIM_OCPolarity));   
 459:../libraries/STM32F10x_StdPeriph_Driver/src/stm32f10x_tim.c ****   /* Disable the Channel 2: Reset the CC2E Bit */
 460:../libraries/STM32F10x_StdPeriph_Driver/src/stm32f10x_tim.c ****   TIMx->CCER &= (uint16_t)(~((uint16_t)TIM_CCER_CC3E));
 862              		.loc 1 460 0
 863 001c 7B68     		ldr	r3, [r7, #4]
 864 001e 1B8C     		ldrh	r3, [r3, #32]	@ movhi
 865 0020 9BB2     		uxth	r3, r3
 866 0022 23F48073 		bic	r3, r3, #256
 867 0026 9AB2     		uxth	r2, r3
 868 0028 7B68     		ldr	r3, [r7, #4]
 869 002a 1A84     		strh	r2, [r3, #32]	@ movhi
 461:../libraries/STM32F10x_StdPeriph_Driver/src/stm32f10x_tim.c ****   
 462:../libraries/STM32F10x_StdPeriph_Driver/src/stm32f10x_tim.c ****   /* Get the TIMx CCER register value */
 463:../libraries/STM32F10x_StdPeriph_Driver/src/stm32f10x_tim.c ****   tmpccer = TIMx->CCER;
 870              		.loc 1 463 0
 871 002c 7B68     		ldr	r3, [r7, #4]
 872 002e 1B8C     		ldrh	r3, [r3, #32]	@ movhi
 873 0030 FB81     		strh	r3, [r7, #14]	@ movhi
 464:../libraries/STM32F10x_StdPeriph_Driver/src/stm32f10x_tim.c ****   /* Get the TIMx CR2 register value */
 465:../libraries/STM32F10x_StdPeriph_Driver/src/stm32f10x_tim.c ****   tmpcr2 =  TIMx->CR2;
 874              		.loc 1 465 0
 875 0032 7B68     		ldr	r3, [r7, #4]
 876 0034 9B88     		ldrh	r3, [r3, #4]	@ movhi
 877 0036 BB81     		strh	r3, [r7, #12]	@ movhi
 466:../libraries/STM32F10x_StdPeriph_Driver/src/stm32f10x_tim.c ****   
 467:../libraries/STM32F10x_StdPeriph_Driver/src/stm32f10x_tim.c ****   /* Get the TIMx CCMR2 register value */
 468:../libraries/STM32F10x_StdPeriph_Driver/src/stm32f10x_tim.c ****   tmpccmrx = TIMx->CCMR2;
 878              		.loc 1 468 0
 879 0038 7B68     		ldr	r3, [r7, #4]
 880 003a 9B8B     		ldrh	r3, [r3, #28]	@ movhi
 881 003c 7B81     		strh	r3, [r7, #10]	@ movhi
 469:../libraries/STM32F10x_StdPeriph_Driver/src/stm32f10x_tim.c ****     
 470:../libraries/STM32F10x_StdPeriph_Driver/src/stm32f10x_tim.c ****   /* Reset the Output Compare mode and Capture/Compare selection Bits */
 471:../libraries/STM32F10x_StdPeriph_Driver/src/stm32f10x_tim.c ****   tmpccmrx &= (uint16_t)(~((uint16_t)TIM_CCMR2_OC3M));
 882              		.loc 1 471 0
 883 003e 7B89     		ldrh	r3, [r7, #10]	@ movhi
 884 0040 23F07003 		bic	r3, r3, #112
 885 0044 7B81     		strh	r3, [r7, #10]	@ movhi
 472:../libraries/STM32F10x_StdPeriph_Driver/src/stm32f10x_tim.c ****   tmpccmrx &= (uint16_t)(~((uint16_t)TIM_CCMR2_CC3S));  
 886              		.loc 1 472 0
 887 0046 7B89     		ldrh	r3, [r7, #10]	@ movhi
 888 0048 23F00303 		bic	r3, r3, #3
 889 004c 7B81     		strh	r3, [r7, #10]	@ movhi
 473:../libraries/STM32F10x_StdPeriph_Driver/src/stm32f10x_tim.c ****   /* Select the Output Compare Mode */
 474:../libraries/STM32F10x_StdPeriph_Driver/src/stm32f10x_tim.c ****   tmpccmrx |= TIM_OCInitStruct->TIM_OCMode;
 890              		.loc 1 474 0
 891 004e 3B68     		ldr	r3, [r7, #0]
 892 0050 1A88     		ldrh	r2, [r3, #0]
 893 0052 7B89     		ldrh	r3, [r7, #10]	@ movhi
 894 0054 1343     		orrs	r3, r3, r2
 895 0056 7B81     		strh	r3, [r7, #10]	@ movhi
 475:../libraries/STM32F10x_StdPeriph_Driver/src/stm32f10x_tim.c ****   
 476:../libraries/STM32F10x_StdPeriph_Driver/src/stm32f10x_tim.c ****   /* Reset the Output Polarity level */
 477:../libraries/STM32F10x_StdPeriph_Driver/src/stm32f10x_tim.c ****   tmpccer &= (uint16_t)(~((uint16_t)TIM_CCER_CC3P));
 896              		.loc 1 477 0
 897 0058 FB89     		ldrh	r3, [r7, #14]	@ movhi
 898 005a 23F40073 		bic	r3, r3, #512
 899 005e FB81     		strh	r3, [r7, #14]	@ movhi
 478:../libraries/STM32F10x_StdPeriph_Driver/src/stm32f10x_tim.c ****   /* Set the Output Compare Polarity */
 479:../libraries/STM32F10x_StdPeriph_Driver/src/stm32f10x_tim.c ****   tmpccer |= (uint16_t)(TIM_OCInitStruct->TIM_OCPolarity << 8);
 900              		.loc 1 479 0
 901 0060 3B68     		ldr	r3, [r7, #0]
 902 0062 1B89     		ldrh	r3, [r3, #8]
 903 0064 4FEA0323 		lsl	r3, r3, #8
 904 0068 9AB2     		uxth	r2, r3
 905 006a FB89     		ldrh	r3, [r7, #14]	@ movhi
 906 006c 1343     		orrs	r3, r3, r2
 907 006e FB81     		strh	r3, [r7, #14]	@ movhi
 480:../libraries/STM32F10x_StdPeriph_Driver/src/stm32f10x_tim.c ****   
 481:../libraries/STM32F10x_StdPeriph_Driver/src/stm32f10x_tim.c ****   /* Set the Output State */
 482:../libraries/STM32F10x_StdPeriph_Driver/src/stm32f10x_tim.c ****   tmpccer |= (uint16_t)(TIM_OCInitStruct->TIM_OutputState << 8);
 908              		.loc 1 482 0
 909 0070 3B68     		ldr	r3, [r7, #0]
 910 0072 5B88     		ldrh	r3, [r3, #2]
 911 0074 4FEA0323 		lsl	r3, r3, #8
 912 0078 9AB2     		uxth	r2, r3
 913 007a FB89     		ldrh	r3, [r7, #14]	@ movhi
 914 007c 1343     		orrs	r3, r3, r2
 915 007e FB81     		strh	r3, [r7, #14]	@ movhi
 483:../libraries/STM32F10x_StdPeriph_Driver/src/stm32f10x_tim.c ****     
 484:../libraries/STM32F10x_StdPeriph_Driver/src/stm32f10x_tim.c ****   if((TIMx == TIM1) || (TIMx == TIM8))
 916              		.loc 1 484 0
 917 0080 7A68     		ldr	r2, [r7, #4]
 918 0082 4FF43053 		mov	r3, #11264
 919 0086 C4F20103 		movt	r3, 16385
 920 008a 9A42     		cmp	r2, r3
 921 008c 06D0     		beq	.L32
 922              		.loc 1 484 0 is_stmt 0 discriminator 1
 923 008e 7A68     		ldr	r2, [r7, #4]
 924 0090 4FF45053 		mov	r3, #13312
 925 0094 C4F20103 		movt	r3, 16385
 926 0098 9A42     		cmp	r2, r3
 927 009a 2FD1     		bne	.L33
 928              	.L32:
 485:../libraries/STM32F10x_StdPeriph_Driver/src/stm32f10x_tim.c ****   {
 486:../libraries/STM32F10x_StdPeriph_Driver/src/stm32f10x_tim.c ****     assert_param(IS_TIM_OUTPUTN_STATE(TIM_OCInitStruct->TIM_OutputNState));
 487:../libraries/STM32F10x_StdPeriph_Driver/src/stm32f10x_tim.c ****     assert_param(IS_TIM_OCN_POLARITY(TIM_OCInitStruct->TIM_OCNPolarity));
 488:../libraries/STM32F10x_StdPeriph_Driver/src/stm32f10x_tim.c ****     assert_param(IS_TIM_OCNIDLE_STATE(TIM_OCInitStruct->TIM_OCNIdleState));
 489:../libraries/STM32F10x_StdPeriph_Driver/src/stm32f10x_tim.c ****     assert_param(IS_TIM_OCIDLE_STATE(TIM_OCInitStruct->TIM_OCIdleState));
 490:../libraries/STM32F10x_StdPeriph_Driver/src/stm32f10x_tim.c ****     
 491:../libraries/STM32F10x_StdPeriph_Driver/src/stm32f10x_tim.c ****     /* Reset the Output N Polarity level */
 492:../libraries/STM32F10x_StdPeriph_Driver/src/stm32f10x_tim.c ****     tmpccer &= (uint16_t)(~((uint16_t)TIM_CCER_CC3NP));
 929              		.loc 1 492 0 is_stmt 1
 930 009c FB89     		ldrh	r3, [r7, #14]	@ movhi
 931 009e 23F40063 		bic	r3, r3, #2048
 932 00a2 FB81     		strh	r3, [r7, #14]	@ movhi
 493:../libraries/STM32F10x_StdPeriph_Driver/src/stm32f10x_tim.c ****     /* Set the Output N Polarity */
 494:../libraries/STM32F10x_StdPeriph_Driver/src/stm32f10x_tim.c ****     tmpccer |= (uint16_t)(TIM_OCInitStruct->TIM_OCNPolarity << 8);
 933              		.loc 1 494 0
 934 00a4 3B68     		ldr	r3, [r7, #0]
 935 00a6 5B89     		ldrh	r3, [r3, #10]
 936 00a8 4FEA0323 		lsl	r3, r3, #8
 937 00ac 9AB2     		uxth	r2, r3
 938 00ae FB89     		ldrh	r3, [r7, #14]	@ movhi
 939 00b0 1343     		orrs	r3, r3, r2
 940 00b2 FB81     		strh	r3, [r7, #14]	@ movhi
 495:../libraries/STM32F10x_StdPeriph_Driver/src/stm32f10x_tim.c ****     /* Reset the Output N State */
 496:../libraries/STM32F10x_StdPeriph_Driver/src/stm32f10x_tim.c ****     tmpccer &= (uint16_t)(~((uint16_t)TIM_CCER_CC3NE));
 941              		.loc 1 496 0
 942 00b4 FB89     		ldrh	r3, [r7, #14]	@ movhi
 943 00b6 23F48063 		bic	r3, r3, #1024
 944 00ba FB81     		strh	r3, [r7, #14]	@ movhi
 497:../libraries/STM32F10x_StdPeriph_Driver/src/stm32f10x_tim.c ****     
 498:../libraries/STM32F10x_StdPeriph_Driver/src/stm32f10x_tim.c ****     /* Set the Output N State */
 499:../libraries/STM32F10x_StdPeriph_Driver/src/stm32f10x_tim.c ****     tmpccer |= (uint16_t)(TIM_OCInitStruct->TIM_OutputNState << 8);
 945              		.loc 1 499 0
 946 00bc 3B68     		ldr	r3, [r7, #0]
 947 00be 9B88     		ldrh	r3, [r3, #4]
 948 00c0 4FEA0323 		lsl	r3, r3, #8
 949 00c4 9AB2     		uxth	r2, r3
 950 00c6 FB89     		ldrh	r3, [r7, #14]	@ movhi
 951 00c8 1343     		orrs	r3, r3, r2
 952 00ca FB81     		strh	r3, [r7, #14]	@ movhi
 500:../libraries/STM32F10x_StdPeriph_Driver/src/stm32f10x_tim.c ****     /* Reset the Output Compare and Output Compare N IDLE State */
 501:../libraries/STM32F10x_StdPeriph_Driver/src/stm32f10x_tim.c ****     tmpcr2 &= (uint16_t)(~((uint16_t)TIM_CR2_OIS3));
 953              		.loc 1 501 0
 954 00cc BB89     		ldrh	r3, [r7, #12]	@ movhi
 955 00ce 23F48053 		bic	r3, r3, #4096
 956 00d2 BB81     		strh	r3, [r7, #12]	@ movhi
 502:../libraries/STM32F10x_StdPeriph_Driver/src/stm32f10x_tim.c ****     tmpcr2 &= (uint16_t)(~((uint16_t)TIM_CR2_OIS3N));
 957              		.loc 1 502 0
 958 00d4 BB89     		ldrh	r3, [r7, #12]	@ movhi
 959 00d6 23F40053 		bic	r3, r3, #8192
 960 00da BB81     		strh	r3, [r7, #12]	@ movhi
 503:../libraries/STM32F10x_StdPeriph_Driver/src/stm32f10x_tim.c ****     /* Set the Output Idle state */
 504:../libraries/STM32F10x_StdPeriph_Driver/src/stm32f10x_tim.c ****     tmpcr2 |= (uint16_t)(TIM_OCInitStruct->TIM_OCIdleState << 4);
 961              		.loc 1 504 0
 962 00dc 3B68     		ldr	r3, [r7, #0]
 963 00de 9B89     		ldrh	r3, [r3, #12]
 964 00e0 4FEA0313 		lsl	r3, r3, #4
 965 00e4 9AB2     		uxth	r2, r3
 966 00e6 BB89     		ldrh	r3, [r7, #12]	@ movhi
 967 00e8 1343     		orrs	r3, r3, r2
 968 00ea BB81     		strh	r3, [r7, #12]	@ movhi
 505:../libraries/STM32F10x_StdPeriph_Driver/src/stm32f10x_tim.c ****     /* Set the Output N Idle state */
 506:../libraries/STM32F10x_StdPeriph_Driver/src/stm32f10x_tim.c ****     tmpcr2 |= (uint16_t)(TIM_OCInitStruct->TIM_OCNIdleState << 4);
 969              		.loc 1 506 0
 970 00ec 3B68     		ldr	r3, [r7, #0]
 971 00ee DB89     		ldrh	r3, [r3, #14]
 972 00f0 4FEA0313 		lsl	r3, r3, #4
 973 00f4 9AB2     		uxth	r2, r3
 974 00f6 BB89     		ldrh	r3, [r7, #12]	@ movhi
 975 00f8 1343     		orrs	r3, r3, r2
 976 00fa BB81     		strh	r3, [r7, #12]	@ movhi
 977              	.L33:
 507:../libraries/STM32F10x_StdPeriph_Driver/src/stm32f10x_tim.c ****   }
 508:../libraries/STM32F10x_StdPeriph_Driver/src/stm32f10x_tim.c ****   /* Write to TIMx CR2 */
 509:../libraries/STM32F10x_StdPeriph_Driver/src/stm32f10x_tim.c ****   TIMx->CR2 = tmpcr2;
 978              		.loc 1 509 0
 979 00fc 7B68     		ldr	r3, [r7, #4]
 980 00fe BA89     		ldrh	r2, [r7, #12]	@ movhi
 981 0100 9A80     		strh	r2, [r3, #4]	@ movhi
 510:../libraries/STM32F10x_StdPeriph_Driver/src/stm32f10x_tim.c ****   
 511:../libraries/STM32F10x_StdPeriph_Driver/src/stm32f10x_tim.c ****   /* Write to TIMx CCMR2 */
 512:../libraries/STM32F10x_StdPeriph_Driver/src/stm32f10x_tim.c ****   TIMx->CCMR2 = tmpccmrx;
 982              		.loc 1 512 0
 983 0102 7B68     		ldr	r3, [r7, #4]
 984 0104 7A89     		ldrh	r2, [r7, #10]	@ movhi
 985 0106 9A83     		strh	r2, [r3, #28]	@ movhi
 513:../libraries/STM32F10x_StdPeriph_Driver/src/stm32f10x_tim.c **** 
 514:../libraries/STM32F10x_StdPeriph_Driver/src/stm32f10x_tim.c ****   /* Set the Capture Compare Register value */
 515:../libraries/STM32F10x_StdPeriph_Driver/src/stm32f10x_tim.c ****   TIMx->CCR3 = TIM_OCInitStruct->TIM_Pulse;
 986              		.loc 1 515 0
 987 0108 3B68     		ldr	r3, [r7, #0]
 988 010a DA88     		ldrh	r2, [r3, #6]
 989 010c 7B68     		ldr	r3, [r7, #4]
 990 010e 9A87     		strh	r2, [r3, #60]	@ movhi
 516:../libraries/STM32F10x_StdPeriph_Driver/src/stm32f10x_tim.c ****   
 517:../libraries/STM32F10x_StdPeriph_Driver/src/stm32f10x_tim.c ****   /* Write to TIMx CCER */
 518:../libraries/STM32F10x_StdPeriph_Driver/src/stm32f10x_tim.c ****   TIMx->CCER = tmpccer;
 991              		.loc 1 518 0
 992 0110 7B68     		ldr	r3, [r7, #4]
 993 0112 FA89     		ldrh	r2, [r7, #14]	@ movhi
 994 0114 1A84     		strh	r2, [r3, #32]	@ movhi
 519:../libraries/STM32F10x_StdPeriph_Driver/src/stm32f10x_tim.c **** }
 995              		.loc 1 519 0
 996 0116 07F11407 		add	r7, r7, #20
 997 011a BD46     		mov	sp, r7
 998 011c 80BC     		pop	{r7}
 999 011e 7047     		bx	lr
 1000              		.cfi_endproc
 1001              	.LFE60:
 1003              		.section	.text.TIM_OC4Init,"ax",%progbits
 1004              		.align	2
 1005              		.global	TIM_OC4Init
 1006              		.thumb
 1007              		.thumb_func
 1009              	TIM_OC4Init:
 1010              	.LFB61:
 520:../libraries/STM32F10x_StdPeriph_Driver/src/stm32f10x_tim.c **** 
 521:../libraries/STM32F10x_StdPeriph_Driver/src/stm32f10x_tim.c **** /**
 522:../libraries/STM32F10x_StdPeriph_Driver/src/stm32f10x_tim.c ****   * @brief  Initializes the TIMx Channel4 according to the specified
 523:../libraries/STM32F10x_StdPeriph_Driver/src/stm32f10x_tim.c ****   *         parameters in the TIM_OCInitStruct.
 524:../libraries/STM32F10x_StdPeriph_Driver/src/stm32f10x_tim.c ****   * @param  TIMx: where x can be  1, 2, 3, 4, 5 or 8 to select the TIM peripheral.
 525:../libraries/STM32F10x_StdPeriph_Driver/src/stm32f10x_tim.c ****   * @param  TIM_OCInitStruct: pointer to a TIM_OCInitTypeDef structure
 526:../libraries/STM32F10x_StdPeriph_Driver/src/stm32f10x_tim.c ****   *         that contains the configuration information for the specified TIM peripheral.
 527:../libraries/STM32F10x_StdPeriph_Driver/src/stm32f10x_tim.c ****   * @retval None
 528:../libraries/STM32F10x_StdPeriph_Driver/src/stm32f10x_tim.c ****   */
 529:../libraries/STM32F10x_StdPeriph_Driver/src/stm32f10x_tim.c **** void TIM_OC4Init(TIM_TypeDef* TIMx, TIM_OCInitTypeDef* TIM_OCInitStruct)
 530:../libraries/STM32F10x_StdPeriph_Driver/src/stm32f10x_tim.c **** {
 1011              		.loc 1 530 0
 1012              		.cfi_startproc
 1013              		@ args = 0, pretend = 0, frame = 16
 1014              		@ frame_needed = 1, uses_anonymous_args = 0
 1015              		@ link register save eliminated.
 1016 0000 80B4     		push	{r7}
 1017              	.LCFI15:
 1018              		.cfi_def_cfa_offset 4
 1019              		.cfi_offset 7, -4
 1020 0002 85B0     		sub	sp, sp, #20
 1021              	.LCFI16:
 1022              		.cfi_def_cfa_offset 24
 1023 0004 00AF     		add	r7, sp, #0
 1024              	.LCFI17:
 1025              		.cfi_def_cfa_register 7
 1026 0006 7860     		str	r0, [r7, #4]
 1027 0008 3960     		str	r1, [r7, #0]
 531:../libraries/STM32F10x_StdPeriph_Driver/src/stm32f10x_tim.c ****   uint16_t tmpccmrx = 0, tmpccer = 0, tmpcr2 = 0;
 1028              		.loc 1 531 0
 1029 000a 4FF00003 		mov	r3, #0
 1030 000e BB81     		strh	r3, [r7, #12]	@ movhi
 1031 0010 4FF00003 		mov	r3, #0
 1032 0014 7B81     		strh	r3, [r7, #10]	@ movhi
 1033 0016 4FF00003 		mov	r3, #0
 1034 001a FB81     		strh	r3, [r7, #14]	@ movhi
 532:../libraries/STM32F10x_StdPeriph_Driver/src/stm32f10x_tim.c ****    
 533:../libraries/STM32F10x_StdPeriph_Driver/src/stm32f10x_tim.c ****   /* Check the parameters */
 534:../libraries/STM32F10x_StdPeriph_Driver/src/stm32f10x_tim.c ****   assert_param(IS_TIM_LIST3_PERIPH(TIMx)); 
 535:../libraries/STM32F10x_StdPeriph_Driver/src/stm32f10x_tim.c ****   assert_param(IS_TIM_OC_MODE(TIM_OCInitStruct->TIM_OCMode));
 536:../libraries/STM32F10x_StdPeriph_Driver/src/stm32f10x_tim.c ****   assert_param(IS_TIM_OUTPUT_STATE(TIM_OCInitStruct->TIM_OutputState));
 537:../libraries/STM32F10x_StdPeriph_Driver/src/stm32f10x_tim.c ****   assert_param(IS_TIM_OC_POLARITY(TIM_OCInitStruct->TIM_OCPolarity));   
 538:../libraries/STM32F10x_StdPeriph_Driver/src/stm32f10x_tim.c ****   /* Disable the Channel 2: Reset the CC4E Bit */
 539:../libraries/STM32F10x_StdPeriph_Driver/src/stm32f10x_tim.c ****   TIMx->CCER &= (uint16_t)(~((uint16_t)TIM_CCER_CC4E));
 1035              		.loc 1 539 0
 1036 001c 7B68     		ldr	r3, [r7, #4]
 1037 001e 1B8C     		ldrh	r3, [r3, #32]	@ movhi
 1038 0020 9BB2     		uxth	r3, r3
 1039 0022 23F48053 		bic	r3, r3, #4096
 1040 0026 9AB2     		uxth	r2, r3
 1041 0028 7B68     		ldr	r3, [r7, #4]
 1042 002a 1A84     		strh	r2, [r3, #32]	@ movhi
 540:../libraries/STM32F10x_StdPeriph_Driver/src/stm32f10x_tim.c ****   
 541:../libraries/STM32F10x_StdPeriph_Driver/src/stm32f10x_tim.c ****   /* Get the TIMx CCER register value */
 542:../libraries/STM32F10x_StdPeriph_Driver/src/stm32f10x_tim.c ****   tmpccer = TIMx->CCER;
 1043              		.loc 1 542 0
 1044 002c 7B68     		ldr	r3, [r7, #4]
 1045 002e 1B8C     		ldrh	r3, [r3, #32]	@ movhi
 1046 0030 7B81     		strh	r3, [r7, #10]	@ movhi
 543:../libraries/STM32F10x_StdPeriph_Driver/src/stm32f10x_tim.c ****   /* Get the TIMx CR2 register value */
 544:../libraries/STM32F10x_StdPeriph_Driver/src/stm32f10x_tim.c ****   tmpcr2 =  TIMx->CR2;
 1047              		.loc 1 544 0
 1048 0032 7B68     		ldr	r3, [r7, #4]
 1049 0034 9B88     		ldrh	r3, [r3, #4]	@ movhi
 1050 0036 FB81     		strh	r3, [r7, #14]	@ movhi
 545:../libraries/STM32F10x_StdPeriph_Driver/src/stm32f10x_tim.c ****   
 546:../libraries/STM32F10x_StdPeriph_Driver/src/stm32f10x_tim.c ****   /* Get the TIMx CCMR2 register value */
 547:../libraries/STM32F10x_StdPeriph_Driver/src/stm32f10x_tim.c ****   tmpccmrx = TIMx->CCMR2;
 1051              		.loc 1 547 0
 1052 0038 7B68     		ldr	r3, [r7, #4]
 1053 003a 9B8B     		ldrh	r3, [r3, #28]	@ movhi
 1054 003c BB81     		strh	r3, [r7, #12]	@ movhi
 548:../libraries/STM32F10x_StdPeriph_Driver/src/stm32f10x_tim.c ****     
 549:../libraries/STM32F10x_StdPeriph_Driver/src/stm32f10x_tim.c ****   /* Reset the Output Compare mode and Capture/Compare selection Bits */
 550:../libraries/STM32F10x_StdPeriph_Driver/src/stm32f10x_tim.c ****   tmpccmrx &= (uint16_t)(~((uint16_t)TIM_CCMR2_OC4M));
 1055              		.loc 1 550 0
 1056 003e BB89     		ldrh	r3, [r7, #12]	@ movhi
 1057 0040 23F4E043 		bic	r3, r3, #28672
 1058 0044 BB81     		strh	r3, [r7, #12]	@ movhi
 551:../libraries/STM32F10x_StdPeriph_Driver/src/stm32f10x_tim.c ****   tmpccmrx &= (uint16_t)(~((uint16_t)TIM_CCMR2_CC4S));
 1059              		.loc 1 551 0
 1060 0046 BB89     		ldrh	r3, [r7, #12]	@ movhi
 1061 0048 23F44073 		bic	r3, r3, #768
 1062 004c BB81     		strh	r3, [r7, #12]	@ movhi
 552:../libraries/STM32F10x_StdPeriph_Driver/src/stm32f10x_tim.c ****   
 553:../libraries/STM32F10x_StdPeriph_Driver/src/stm32f10x_tim.c ****   /* Select the Output Compare Mode */
 554:../libraries/STM32F10x_StdPeriph_Driver/src/stm32f10x_tim.c ****   tmpccmrx |= (uint16_t)(TIM_OCInitStruct->TIM_OCMode << 8);
 1063              		.loc 1 554 0
 1064 004e 3B68     		ldr	r3, [r7, #0]
 1065 0050 1B88     		ldrh	r3, [r3, #0]
 1066 0052 4FEA0323 		lsl	r3, r3, #8
 1067 0056 9AB2     		uxth	r2, r3
 1068 0058 BB89     		ldrh	r3, [r7, #12]	@ movhi
 1069 005a 1343     		orrs	r3, r3, r2
 1070 005c BB81     		strh	r3, [r7, #12]	@ movhi
 555:../libraries/STM32F10x_StdPeriph_Driver/src/stm32f10x_tim.c ****   
 556:../libraries/STM32F10x_StdPeriph_Driver/src/stm32f10x_tim.c ****   /* Reset the Output Polarity level */
 557:../libraries/STM32F10x_StdPeriph_Driver/src/stm32f10x_tim.c ****   tmpccer &= (uint16_t)(~((uint16_t)TIM_CCER_CC4P));
 1071              		.loc 1 557 0
 1072 005e 7B89     		ldrh	r3, [r7, #10]	@ movhi
 1073 0060 23F40053 		bic	r3, r3, #8192
 1074 0064 7B81     		strh	r3, [r7, #10]	@ movhi
 558:../libraries/STM32F10x_StdPeriph_Driver/src/stm32f10x_tim.c ****   /* Set the Output Compare Polarity */
 559:../libraries/STM32F10x_StdPeriph_Driver/src/stm32f10x_tim.c ****   tmpccer |= (uint16_t)(TIM_OCInitStruct->TIM_OCPolarity << 12);
 1075              		.loc 1 559 0
 1076 0066 3B68     		ldr	r3, [r7, #0]
 1077 0068 1B89     		ldrh	r3, [r3, #8]
 1078 006a 4FEA0333 		lsl	r3, r3, #12
 1079 006e 9AB2     		uxth	r2, r3
 1080 0070 7B89     		ldrh	r3, [r7, #10]	@ movhi
 1081 0072 1343     		orrs	r3, r3, r2
 1082 0074 7B81     		strh	r3, [r7, #10]	@ movhi
 560:../libraries/STM32F10x_StdPeriph_Driver/src/stm32f10x_tim.c ****   
 561:../libraries/STM32F10x_StdPeriph_Driver/src/stm32f10x_tim.c ****   /* Set the Output State */
 562:../libraries/STM32F10x_StdPeriph_Driver/src/stm32f10x_tim.c ****   tmpccer |= (uint16_t)(TIM_OCInitStruct->TIM_OutputState << 12);
 1083              		.loc 1 562 0
 1084 0076 3B68     		ldr	r3, [r7, #0]
 1085 0078 5B88     		ldrh	r3, [r3, #2]
 1086 007a 4FEA0333 		lsl	r3, r3, #12
 1087 007e 9AB2     		uxth	r2, r3
 1088 0080 7B89     		ldrh	r3, [r7, #10]	@ movhi
 1089 0082 1343     		orrs	r3, r3, r2
 1090 0084 7B81     		strh	r3, [r7, #10]	@ movhi
 563:../libraries/STM32F10x_StdPeriph_Driver/src/stm32f10x_tim.c ****     
 564:../libraries/STM32F10x_StdPeriph_Driver/src/stm32f10x_tim.c ****   if((TIMx == TIM1) || (TIMx == TIM8))
 1091              		.loc 1 564 0
 1092 0086 7A68     		ldr	r2, [r7, #4]
 1093 0088 4FF43053 		mov	r3, #11264
 1094 008c C4F20103 		movt	r3, 16385
 1095 0090 9A42     		cmp	r2, r3
 1096 0092 06D0     		beq	.L35
 1097              		.loc 1 564 0 is_stmt 0 discriminator 1
 1098 0094 7A68     		ldr	r2, [r7, #4]
 1099 0096 4FF45053 		mov	r3, #13312
 1100 009a C4F20103 		movt	r3, 16385
 1101 009e 9A42     		cmp	r2, r3
 1102 00a0 0BD1     		bne	.L36
 1103              	.L35:
 565:../libraries/STM32F10x_StdPeriph_Driver/src/stm32f10x_tim.c ****   {
 566:../libraries/STM32F10x_StdPeriph_Driver/src/stm32f10x_tim.c ****     assert_param(IS_TIM_OCIDLE_STATE(TIM_OCInitStruct->TIM_OCIdleState));
 567:../libraries/STM32F10x_StdPeriph_Driver/src/stm32f10x_tim.c ****     /* Reset the Output Compare IDLE State */
 568:../libraries/STM32F10x_StdPeriph_Driver/src/stm32f10x_tim.c ****     tmpcr2 &= (uint16_t)(~((uint16_t)TIM_CR2_OIS4));
 1104              		.loc 1 568 0 is_stmt 1
 1105 00a2 FB89     		ldrh	r3, [r7, #14]	@ movhi
 1106 00a4 23F48043 		bic	r3, r3, #16384
 1107 00a8 FB81     		strh	r3, [r7, #14]	@ movhi
 569:../libraries/STM32F10x_StdPeriph_Driver/src/stm32f10x_tim.c ****     /* Set the Output Idle state */
 570:../libraries/STM32F10x_StdPeriph_Driver/src/stm32f10x_tim.c ****     tmpcr2 |= (uint16_t)(TIM_OCInitStruct->TIM_OCIdleState << 6);
 1108              		.loc 1 570 0
 1109 00aa 3B68     		ldr	r3, [r7, #0]
 1110 00ac 9B89     		ldrh	r3, [r3, #12]
 1111 00ae 4FEA8313 		lsl	r3, r3, #6
 1112 00b2 9AB2     		uxth	r2, r3
 1113 00b4 FB89     		ldrh	r3, [r7, #14]	@ movhi
 1114 00b6 1343     		orrs	r3, r3, r2
 1115 00b8 FB81     		strh	r3, [r7, #14]	@ movhi
 1116              	.L36:
 571:../libraries/STM32F10x_StdPeriph_Driver/src/stm32f10x_tim.c ****   }
 572:../libraries/STM32F10x_StdPeriph_Driver/src/stm32f10x_tim.c ****   /* Write to TIMx CR2 */
 573:../libraries/STM32F10x_StdPeriph_Driver/src/stm32f10x_tim.c ****   TIMx->CR2 = tmpcr2;
 1117              		.loc 1 573 0
 1118 00ba 7B68     		ldr	r3, [r7, #4]
 1119 00bc FA89     		ldrh	r2, [r7, #14]	@ movhi
 1120 00be 9A80     		strh	r2, [r3, #4]	@ movhi
 574:../libraries/STM32F10x_StdPeriph_Driver/src/stm32f10x_tim.c ****   
 575:../libraries/STM32F10x_StdPeriph_Driver/src/stm32f10x_tim.c ****   /* Write to TIMx CCMR2 */  
 576:../libraries/STM32F10x_StdPeriph_Driver/src/stm32f10x_tim.c ****   TIMx->CCMR2 = tmpccmrx;
 1121              		.loc 1 576 0
 1122 00c0 7B68     		ldr	r3, [r7, #4]
 1123 00c2 BA89     		ldrh	r2, [r7, #12]	@ movhi
 1124 00c4 9A83     		strh	r2, [r3, #28]	@ movhi
 577:../libraries/STM32F10x_StdPeriph_Driver/src/stm32f10x_tim.c **** 
 578:../libraries/STM32F10x_StdPeriph_Driver/src/stm32f10x_tim.c ****   /* Set the Capture Compare Register value */
 579:../libraries/STM32F10x_StdPeriph_Driver/src/stm32f10x_tim.c ****   TIMx->CCR4 = TIM_OCInitStruct->TIM_Pulse;
 1125              		.loc 1 579 0
 1126 00c6 3B68     		ldr	r3, [r7, #0]
 1127 00c8 DA88     		ldrh	r2, [r3, #6]
 1128 00ca 7B68     		ldr	r3, [r7, #4]
 1129 00cc A3F84020 		strh	r2, [r3, #64]	@ movhi
 580:../libraries/STM32F10x_StdPeriph_Driver/src/stm32f10x_tim.c ****   
 581:../libraries/STM32F10x_StdPeriph_Driver/src/stm32f10x_tim.c ****   /* Write to TIMx CCER */
 582:../libraries/STM32F10x_StdPeriph_Driver/src/stm32f10x_tim.c ****   TIMx->CCER = tmpccer;
 1130              		.loc 1 582 0
 1131 00d0 7B68     		ldr	r3, [r7, #4]
 1132 00d2 7A89     		ldrh	r2, [r7, #10]	@ movhi
 1133 00d4 1A84     		strh	r2, [r3, #32]	@ movhi
 583:../libraries/STM32F10x_StdPeriph_Driver/src/stm32f10x_tim.c **** }
 1134              		.loc 1 583 0
 1135 00d6 07F11407 		add	r7, r7, #20
 1136 00da BD46     		mov	sp, r7
 1137 00dc 80BC     		pop	{r7}
 1138 00de 7047     		bx	lr
 1139              		.cfi_endproc
 1140              	.LFE61:
 1142              		.section	.text.TIM_ICInit,"ax",%progbits
 1143              		.align	2
 1144              		.global	TIM_ICInit
 1145              		.thumb
 1146              		.thumb_func
 1148              	TIM_ICInit:
 1149              	.LFB62:
 584:../libraries/STM32F10x_StdPeriph_Driver/src/stm32f10x_tim.c **** 
 585:../libraries/STM32F10x_StdPeriph_Driver/src/stm32f10x_tim.c **** /**
 586:../libraries/STM32F10x_StdPeriph_Driver/src/stm32f10x_tim.c ****   * @brief  Initializes the TIM peripheral according to the specified
 587:../libraries/STM32F10x_StdPeriph_Driver/src/stm32f10x_tim.c ****   *         parameters in the TIM_ICInitStruct.
 588:../libraries/STM32F10x_StdPeriph_Driver/src/stm32f10x_tim.c ****   * @param  TIMx: where x can be  1 to 17 except 6 and 7 to select the TIM peripheral.
 589:../libraries/STM32F10x_StdPeriph_Driver/src/stm32f10x_tim.c ****   * @param  TIM_ICInitStruct: pointer to a TIM_ICInitTypeDef structure
 590:../libraries/STM32F10x_StdPeriph_Driver/src/stm32f10x_tim.c ****   *         that contains the configuration information for the specified TIM peripheral.
 591:../libraries/STM32F10x_StdPeriph_Driver/src/stm32f10x_tim.c ****   * @retval None
 592:../libraries/STM32F10x_StdPeriph_Driver/src/stm32f10x_tim.c ****   */
 593:../libraries/STM32F10x_StdPeriph_Driver/src/stm32f10x_tim.c **** void TIM_ICInit(TIM_TypeDef* TIMx, TIM_ICInitTypeDef* TIM_ICInitStruct)
 594:../libraries/STM32F10x_StdPeriph_Driver/src/stm32f10x_tim.c **** {
 1150              		.loc 1 594 0
 1151              		.cfi_startproc
 1152              		@ args = 0, pretend = 0, frame = 8
 1153              		@ frame_needed = 1, uses_anonymous_args = 0
 1154 0000 80B5     		push	{r7, lr}
 1155              	.LCFI18:
 1156              		.cfi_def_cfa_offset 8
 1157              		.cfi_offset 7, -8
 1158              		.cfi_offset 14, -4
 1159 0002 82B0     		sub	sp, sp, #8
 1160              	.LCFI19:
 1161              		.cfi_def_cfa_offset 16
 1162 0004 00AF     		add	r7, sp, #0
 1163              	.LCFI20:
 1164              		.cfi_def_cfa_register 7
 1165 0006 7860     		str	r0, [r7, #4]
 1166 0008 3960     		str	r1, [r7, #0]
 595:../libraries/STM32F10x_StdPeriph_Driver/src/stm32f10x_tim.c ****   /* Check the parameters */
 596:../libraries/STM32F10x_StdPeriph_Driver/src/stm32f10x_tim.c ****   assert_param(IS_TIM_CHANNEL(TIM_ICInitStruct->TIM_Channel));  
 597:../libraries/STM32F10x_StdPeriph_Driver/src/stm32f10x_tim.c ****   assert_param(IS_TIM_IC_SELECTION(TIM_ICInitStruct->TIM_ICSelection));
 598:../libraries/STM32F10x_StdPeriph_Driver/src/stm32f10x_tim.c ****   assert_param(IS_TIM_IC_PRESCALER(TIM_ICInitStruct->TIM_ICPrescaler));
 599:../libraries/STM32F10x_StdPeriph_Driver/src/stm32f10x_tim.c ****   assert_param(IS_TIM_IC_FILTER(TIM_ICInitStruct->TIM_ICFilter));
 600:../libraries/STM32F10x_StdPeriph_Driver/src/stm32f10x_tim.c ****   
 601:../libraries/STM32F10x_StdPeriph_Driver/src/stm32f10x_tim.c ****   if((TIMx == TIM1) || (TIMx == TIM8) || (TIMx == TIM2) || (TIMx == TIM3) ||
 602:../libraries/STM32F10x_StdPeriph_Driver/src/stm32f10x_tim.c ****      (TIMx == TIM4) ||(TIMx == TIM5))
 603:../libraries/STM32F10x_StdPeriph_Driver/src/stm32f10x_tim.c ****   {
 604:../libraries/STM32F10x_StdPeriph_Driver/src/stm32f10x_tim.c ****     assert_param(IS_TIM_IC_POLARITY(TIM_ICInitStruct->TIM_ICPolarity));
 605:../libraries/STM32F10x_StdPeriph_Driver/src/stm32f10x_tim.c ****   }
 606:../libraries/STM32F10x_StdPeriph_Driver/src/stm32f10x_tim.c ****   else
 607:../libraries/STM32F10x_StdPeriph_Driver/src/stm32f10x_tim.c ****   {
 608:../libraries/STM32F10x_StdPeriph_Driver/src/stm32f10x_tim.c ****     assert_param(IS_TIM_IC_POLARITY_LITE(TIM_ICInitStruct->TIM_ICPolarity));
 609:../libraries/STM32F10x_StdPeriph_Driver/src/stm32f10x_tim.c ****   }
 610:../libraries/STM32F10x_StdPeriph_Driver/src/stm32f10x_tim.c ****   if (TIM_ICInitStruct->TIM_Channel == TIM_Channel_1)
 1167              		.loc 1 610 0
 1168 000a 3B68     		ldr	r3, [r7, #0]
 1169 000c 1B88     		ldrh	r3, [r3, #0]
 1170 000e 002B     		cmp	r3, #0
 1171 0010 0FD1     		bne	.L38
 611:../libraries/STM32F10x_StdPeriph_Driver/src/stm32f10x_tim.c ****   {
 612:../libraries/STM32F10x_StdPeriph_Driver/src/stm32f10x_tim.c ****     assert_param(IS_TIM_LIST8_PERIPH(TIMx));
 613:../libraries/STM32F10x_StdPeriph_Driver/src/stm32f10x_tim.c ****     /* TI1 Configuration */
 614:../libraries/STM32F10x_StdPeriph_Driver/src/stm32f10x_tim.c ****     TI1_Config(TIMx, TIM_ICInitStruct->TIM_ICPolarity,
 1172              		.loc 1 614 0
 1173 0012 3B68     		ldr	r3, [r7, #0]
 1174 0014 5988     		ldrh	r1, [r3, #2]
 615:../libraries/STM32F10x_StdPeriph_Driver/src/stm32f10x_tim.c ****                TIM_ICInitStruct->TIM_ICSelection,
 1175              		.loc 1 615 0
 1176 0016 3B68     		ldr	r3, [r7, #0]
 614:../libraries/STM32F10x_StdPeriph_Driver/src/stm32f10x_tim.c ****     TI1_Config(TIMx, TIM_ICInitStruct->TIM_ICPolarity,
 1177              		.loc 1 614 0
 1178 0018 9A88     		ldrh	r2, [r3, #4]
 616:../libraries/STM32F10x_StdPeriph_Driver/src/stm32f10x_tim.c ****                TIM_ICInitStruct->TIM_ICFilter);
 1179              		.loc 1 616 0
 1180 001a 3B68     		ldr	r3, [r7, #0]
 614:../libraries/STM32F10x_StdPeriph_Driver/src/stm32f10x_tim.c ****     TI1_Config(TIMx, TIM_ICInitStruct->TIM_ICPolarity,
 1181              		.loc 1 614 0
 1182 001c 1B89     		ldrh	r3, [r3, #8]
 1183 001e 7868     		ldr	r0, [r7, #4]
 1184 0020 FFF7FEFF 		bl	TI1_Config
 617:../libraries/STM32F10x_StdPeriph_Driver/src/stm32f10x_tim.c ****     /* Set the Input Capture Prescaler value */
 618:../libraries/STM32F10x_StdPeriph_Driver/src/stm32f10x_tim.c ****     TIM_SetIC1Prescaler(TIMx, TIM_ICInitStruct->TIM_ICPrescaler);
 1185              		.loc 1 618 0
 1186 0024 3B68     		ldr	r3, [r7, #0]
 1187 0026 DB88     		ldrh	r3, [r3, #6]
 1188 0028 7868     		ldr	r0, [r7, #4]
 1189 002a 1946     		mov	r1, r3
 1190 002c FFF7FEFF 		bl	TIM_SetIC1Prescaler
 1191 0030 36E0     		b	.L37
 1192              	.L38:
 619:../libraries/STM32F10x_StdPeriph_Driver/src/stm32f10x_tim.c ****   }
 620:../libraries/STM32F10x_StdPeriph_Driver/src/stm32f10x_tim.c ****   else if (TIM_ICInitStruct->TIM_Channel == TIM_Channel_2)
 1193              		.loc 1 620 0
 1194 0032 3B68     		ldr	r3, [r7, #0]
 1195 0034 1B88     		ldrh	r3, [r3, #0]
 1196 0036 042B     		cmp	r3, #4
 1197 0038 0FD1     		bne	.L40
 621:../libraries/STM32F10x_StdPeriph_Driver/src/stm32f10x_tim.c ****   {
 622:../libraries/STM32F10x_StdPeriph_Driver/src/stm32f10x_tim.c ****     assert_param(IS_TIM_LIST6_PERIPH(TIMx));
 623:../libraries/STM32F10x_StdPeriph_Driver/src/stm32f10x_tim.c ****     /* TI2 Configuration */
 624:../libraries/STM32F10x_StdPeriph_Driver/src/stm32f10x_tim.c ****     TI2_Config(TIMx, TIM_ICInitStruct->TIM_ICPolarity,
 1198              		.loc 1 624 0
 1199 003a 3B68     		ldr	r3, [r7, #0]
 1200 003c 5988     		ldrh	r1, [r3, #2]
 625:../libraries/STM32F10x_StdPeriph_Driver/src/stm32f10x_tim.c ****                TIM_ICInitStruct->TIM_ICSelection,
 1201              		.loc 1 625 0
 1202 003e 3B68     		ldr	r3, [r7, #0]
 624:../libraries/STM32F10x_StdPeriph_Driver/src/stm32f10x_tim.c ****     TI2_Config(TIMx, TIM_ICInitStruct->TIM_ICPolarity,
 1203              		.loc 1 624 0
 1204 0040 9A88     		ldrh	r2, [r3, #4]
 626:../libraries/STM32F10x_StdPeriph_Driver/src/stm32f10x_tim.c ****                TIM_ICInitStruct->TIM_ICFilter);
 1205              		.loc 1 626 0
 1206 0042 3B68     		ldr	r3, [r7, #0]
 624:../libraries/STM32F10x_StdPeriph_Driver/src/stm32f10x_tim.c ****     TI2_Config(TIMx, TIM_ICInitStruct->TIM_ICPolarity,
 1207              		.loc 1 624 0
 1208 0044 1B89     		ldrh	r3, [r3, #8]
 1209 0046 7868     		ldr	r0, [r7, #4]
 1210 0048 FFF7FEFF 		bl	TI2_Config
 627:../libraries/STM32F10x_StdPeriph_Driver/src/stm32f10x_tim.c ****     /* Set the Input Capture Prescaler value */
 628:../libraries/STM32F10x_StdPeriph_Driver/src/stm32f10x_tim.c ****     TIM_SetIC2Prescaler(TIMx, TIM_ICInitStruct->TIM_ICPrescaler);
 1211              		.loc 1 628 0
 1212 004c 3B68     		ldr	r3, [r7, #0]
 1213 004e DB88     		ldrh	r3, [r3, #6]
 1214 0050 7868     		ldr	r0, [r7, #4]
 1215 0052 1946     		mov	r1, r3
 1216 0054 FFF7FEFF 		bl	TIM_SetIC2Prescaler
 1217 0058 22E0     		b	.L37
 1218              	.L40:
 629:../libraries/STM32F10x_StdPeriph_Driver/src/stm32f10x_tim.c ****   }
 630:../libraries/STM32F10x_StdPeriph_Driver/src/stm32f10x_tim.c ****   else if (TIM_ICInitStruct->TIM_Channel == TIM_Channel_3)
 1219              		.loc 1 630 0
 1220 005a 3B68     		ldr	r3, [r7, #0]
 1221 005c 1B88     		ldrh	r3, [r3, #0]
 1222 005e 082B     		cmp	r3, #8
 1223 0060 0FD1     		bne	.L41
 631:../libraries/STM32F10x_StdPeriph_Driver/src/stm32f10x_tim.c ****   {
 632:../libraries/STM32F10x_StdPeriph_Driver/src/stm32f10x_tim.c ****     assert_param(IS_TIM_LIST3_PERIPH(TIMx));
 633:../libraries/STM32F10x_StdPeriph_Driver/src/stm32f10x_tim.c ****     /* TI3 Configuration */
 634:../libraries/STM32F10x_StdPeriph_Driver/src/stm32f10x_tim.c ****     TI3_Config(TIMx,  TIM_ICInitStruct->TIM_ICPolarity,
 1224              		.loc 1 634 0
 1225 0062 3B68     		ldr	r3, [r7, #0]
 1226 0064 5988     		ldrh	r1, [r3, #2]
 635:../libraries/STM32F10x_StdPeriph_Driver/src/stm32f10x_tim.c ****                TIM_ICInitStruct->TIM_ICSelection,
 1227              		.loc 1 635 0
 1228 0066 3B68     		ldr	r3, [r7, #0]
 634:../libraries/STM32F10x_StdPeriph_Driver/src/stm32f10x_tim.c ****     TI3_Config(TIMx,  TIM_ICInitStruct->TIM_ICPolarity,
 1229              		.loc 1 634 0
 1230 0068 9A88     		ldrh	r2, [r3, #4]
 636:../libraries/STM32F10x_StdPeriph_Driver/src/stm32f10x_tim.c ****                TIM_ICInitStruct->TIM_ICFilter);
 1231              		.loc 1 636 0
 1232 006a 3B68     		ldr	r3, [r7, #0]
 634:../libraries/STM32F10x_StdPeriph_Driver/src/stm32f10x_tim.c ****     TI3_Config(TIMx,  TIM_ICInitStruct->TIM_ICPolarity,
 1233              		.loc 1 634 0
 1234 006c 1B89     		ldrh	r3, [r3, #8]
 1235 006e 7868     		ldr	r0, [r7, #4]
 1236 0070 FFF7FEFF 		bl	TI3_Config
 637:../libraries/STM32F10x_StdPeriph_Driver/src/stm32f10x_tim.c ****     /* Set the Input Capture Prescaler value */
 638:../libraries/STM32F10x_StdPeriph_Driver/src/stm32f10x_tim.c ****     TIM_SetIC3Prescaler(TIMx, TIM_ICInitStruct->TIM_ICPrescaler);
 1237              		.loc 1 638 0
 1238 0074 3B68     		ldr	r3, [r7, #0]
 1239 0076 DB88     		ldrh	r3, [r3, #6]
 1240 0078 7868     		ldr	r0, [r7, #4]
 1241 007a 1946     		mov	r1, r3
 1242 007c FFF7FEFF 		bl	TIM_SetIC3Prescaler
 1243 0080 0EE0     		b	.L37
 1244              	.L41:
 639:../libraries/STM32F10x_StdPeriph_Driver/src/stm32f10x_tim.c ****   }
 640:../libraries/STM32F10x_StdPeriph_Driver/src/stm32f10x_tim.c ****   else
 641:../libraries/STM32F10x_StdPeriph_Driver/src/stm32f10x_tim.c ****   {
 642:../libraries/STM32F10x_StdPeriph_Driver/src/stm32f10x_tim.c ****     assert_param(IS_TIM_LIST3_PERIPH(TIMx));
 643:../libraries/STM32F10x_StdPeriph_Driver/src/stm32f10x_tim.c ****     /* TI4 Configuration */
 644:../libraries/STM32F10x_StdPeriph_Driver/src/stm32f10x_tim.c ****     TI4_Config(TIMx, TIM_ICInitStruct->TIM_ICPolarity,
 1245              		.loc 1 644 0
 1246 0082 3B68     		ldr	r3, [r7, #0]
 1247 0084 5988     		ldrh	r1, [r3, #2]
 645:../libraries/STM32F10x_StdPeriph_Driver/src/stm32f10x_tim.c ****                TIM_ICInitStruct->TIM_ICSelection,
 1248              		.loc 1 645 0
 1249 0086 3B68     		ldr	r3, [r7, #0]
 644:../libraries/STM32F10x_StdPeriph_Driver/src/stm32f10x_tim.c ****     TI4_Config(TIMx, TIM_ICInitStruct->TIM_ICPolarity,
 1250              		.loc 1 644 0
 1251 0088 9A88     		ldrh	r2, [r3, #4]
 646:../libraries/STM32F10x_StdPeriph_Driver/src/stm32f10x_tim.c ****                TIM_ICInitStruct->TIM_ICFilter);
 1252              		.loc 1 646 0
 1253 008a 3B68     		ldr	r3, [r7, #0]
 644:../libraries/STM32F10x_StdPeriph_Driver/src/stm32f10x_tim.c ****     TI4_Config(TIMx, TIM_ICInitStruct->TIM_ICPolarity,
 1254              		.loc 1 644 0
 1255 008c 1B89     		ldrh	r3, [r3, #8]
 1256 008e 7868     		ldr	r0, [r7, #4]
 1257 0090 FFF7FEFF 		bl	TI4_Config
 647:../libraries/STM32F10x_StdPeriph_Driver/src/stm32f10x_tim.c ****     /* Set the Input Capture Prescaler value */
 648:../libraries/STM32F10x_StdPeriph_Driver/src/stm32f10x_tim.c ****     TIM_SetIC4Prescaler(TIMx, TIM_ICInitStruct->TIM_ICPrescaler);
 1258              		.loc 1 648 0
 1259 0094 3B68     		ldr	r3, [r7, #0]
 1260 0096 DB88     		ldrh	r3, [r3, #6]
 1261 0098 7868     		ldr	r0, [r7, #4]
 1262 009a 1946     		mov	r1, r3
 1263 009c FFF7FEFF 		bl	TIM_SetIC4Prescaler
 1264              	.L37:
 649:../libraries/STM32F10x_StdPeriph_Driver/src/stm32f10x_tim.c ****   }
 650:../libraries/STM32F10x_StdPeriph_Driver/src/stm32f10x_tim.c **** }
 1265              		.loc 1 650 0
 1266 00a0 07F10807 		add	r7, r7, #8
 1267 00a4 BD46     		mov	sp, r7
 1268 00a6 80BD     		pop	{r7, pc}
 1269              		.cfi_endproc
 1270              	.LFE62:
 1272              		.section	.text.TIM_PWMIConfig,"ax",%progbits
 1273              		.align	2
 1274              		.global	TIM_PWMIConfig
 1275              		.thumb
 1276              		.thumb_func
 1278              	TIM_PWMIConfig:
 1279              	.LFB63:
 651:../libraries/STM32F10x_StdPeriph_Driver/src/stm32f10x_tim.c **** 
 652:../libraries/STM32F10x_StdPeriph_Driver/src/stm32f10x_tim.c **** /**
 653:../libraries/STM32F10x_StdPeriph_Driver/src/stm32f10x_tim.c ****   * @brief  Configures the TIM peripheral according to the specified
 654:../libraries/STM32F10x_StdPeriph_Driver/src/stm32f10x_tim.c ****   *         parameters in the TIM_ICInitStruct to measure an external PWM signal.
 655:../libraries/STM32F10x_StdPeriph_Driver/src/stm32f10x_tim.c ****   * @param  TIMx: where x can be  1, 2, 3, 4, 5, 8, 9, 12 or 15 to select the TIM peripheral.
 656:../libraries/STM32F10x_StdPeriph_Driver/src/stm32f10x_tim.c ****   * @param  TIM_ICInitStruct: pointer to a TIM_ICInitTypeDef structure
 657:../libraries/STM32F10x_StdPeriph_Driver/src/stm32f10x_tim.c ****   *         that contains the configuration information for the specified TIM peripheral.
 658:../libraries/STM32F10x_StdPeriph_Driver/src/stm32f10x_tim.c ****   * @retval None
 659:../libraries/STM32F10x_StdPeriph_Driver/src/stm32f10x_tim.c ****   */
 660:../libraries/STM32F10x_StdPeriph_Driver/src/stm32f10x_tim.c **** void TIM_PWMIConfig(TIM_TypeDef* TIMx, TIM_ICInitTypeDef* TIM_ICInitStruct)
 661:../libraries/STM32F10x_StdPeriph_Driver/src/stm32f10x_tim.c **** {
 1280              		.loc 1 661 0
 1281              		.cfi_startproc
 1282              		@ args = 0, pretend = 0, frame = 16
 1283              		@ frame_needed = 1, uses_anonymous_args = 0
 1284 0000 80B5     		push	{r7, lr}
 1285              	.LCFI21:
 1286              		.cfi_def_cfa_offset 8
 1287              		.cfi_offset 7, -8
 1288              		.cfi_offset 14, -4
 1289 0002 84B0     		sub	sp, sp, #16
 1290              	.LCFI22:
 1291              		.cfi_def_cfa_offset 24
 1292 0004 00AF     		add	r7, sp, #0
 1293              	.LCFI23:
 1294              		.cfi_def_cfa_register 7
 1295 0006 7860     		str	r0, [r7, #4]
 1296 0008 3960     		str	r1, [r7, #0]
 662:../libraries/STM32F10x_StdPeriph_Driver/src/stm32f10x_tim.c ****   uint16_t icoppositepolarity = TIM_ICPolarity_Rising;
 1297              		.loc 1 662 0
 1298 000a 4FF00003 		mov	r3, #0
 1299 000e FB81     		strh	r3, [r7, #14]	@ movhi
 663:../libraries/STM32F10x_StdPeriph_Driver/src/stm32f10x_tim.c ****   uint16_t icoppositeselection = TIM_ICSelection_DirectTI;
 1300              		.loc 1 663 0
 1301 0010 4FF00103 		mov	r3, #1
 1302 0014 BB81     		strh	r3, [r7, #12]	@ movhi
 664:../libraries/STM32F10x_StdPeriph_Driver/src/stm32f10x_tim.c ****   /* Check the parameters */
 665:../libraries/STM32F10x_StdPeriph_Driver/src/stm32f10x_tim.c ****   assert_param(IS_TIM_LIST6_PERIPH(TIMx));
 666:../libraries/STM32F10x_StdPeriph_Driver/src/stm32f10x_tim.c ****   /* Select the Opposite Input Polarity */
 667:../libraries/STM32F10x_StdPeriph_Driver/src/stm32f10x_tim.c ****   if (TIM_ICInitStruct->TIM_ICPolarity == TIM_ICPolarity_Rising)
 1303              		.loc 1 667 0
 1304 0016 3B68     		ldr	r3, [r7, #0]
 1305 0018 5B88     		ldrh	r3, [r3, #2]
 1306 001a 002B     		cmp	r3, #0
 1307 001c 03D1     		bne	.L43
 668:../libraries/STM32F10x_StdPeriph_Driver/src/stm32f10x_tim.c ****   {
 669:../libraries/STM32F10x_StdPeriph_Driver/src/stm32f10x_tim.c ****     icoppositepolarity = TIM_ICPolarity_Falling;
 1308              		.loc 1 669 0
 1309 001e 4FF00203 		mov	r3, #2
 1310 0022 FB81     		strh	r3, [r7, #14]	@ movhi
 1311 0024 02E0     		b	.L44
 1312              	.L43:
 670:../libraries/STM32F10x_StdPeriph_Driver/src/stm32f10x_tim.c ****   }
 671:../libraries/STM32F10x_StdPeriph_Driver/src/stm32f10x_tim.c ****   else
 672:../libraries/STM32F10x_StdPeriph_Driver/src/stm32f10x_tim.c ****   {
 673:../libraries/STM32F10x_StdPeriph_Driver/src/stm32f10x_tim.c ****     icoppositepolarity = TIM_ICPolarity_Rising;
 1313              		.loc 1 673 0
 1314 0026 4FF00003 		mov	r3, #0
 1315 002a FB81     		strh	r3, [r7, #14]	@ movhi
 1316              	.L44:
 674:../libraries/STM32F10x_StdPeriph_Driver/src/stm32f10x_tim.c ****   }
 675:../libraries/STM32F10x_StdPeriph_Driver/src/stm32f10x_tim.c ****   /* Select the Opposite Input */
 676:../libraries/STM32F10x_StdPeriph_Driver/src/stm32f10x_tim.c ****   if (TIM_ICInitStruct->TIM_ICSelection == TIM_ICSelection_DirectTI)
 1317              		.loc 1 676 0
 1318 002c 3B68     		ldr	r3, [r7, #0]
 1319 002e 9B88     		ldrh	r3, [r3, #4]
 1320 0030 012B     		cmp	r3, #1
 1321 0032 03D1     		bne	.L45
 677:../libraries/STM32F10x_StdPeriph_Driver/src/stm32f10x_tim.c ****   {
 678:../libraries/STM32F10x_StdPeriph_Driver/src/stm32f10x_tim.c ****     icoppositeselection = TIM_ICSelection_IndirectTI;
 1322              		.loc 1 678 0
 1323 0034 4FF00203 		mov	r3, #2
 1324 0038 BB81     		strh	r3, [r7, #12]	@ movhi
 1325 003a 02E0     		b	.L46
 1326              	.L45:
 679:../libraries/STM32F10x_StdPeriph_Driver/src/stm32f10x_tim.c ****   }
 680:../libraries/STM32F10x_StdPeriph_Driver/src/stm32f10x_tim.c ****   else
 681:../libraries/STM32F10x_StdPeriph_Driver/src/stm32f10x_tim.c ****   {
 682:../libraries/STM32F10x_StdPeriph_Driver/src/stm32f10x_tim.c ****     icoppositeselection = TIM_ICSelection_DirectTI;
 1327              		.loc 1 682 0
 1328 003c 4FF00103 		mov	r3, #1
 1329 0040 BB81     		strh	r3, [r7, #12]	@ movhi
 1330              	.L46:
 683:../libraries/STM32F10x_StdPeriph_Driver/src/stm32f10x_tim.c ****   }
 684:../libraries/STM32F10x_StdPeriph_Driver/src/stm32f10x_tim.c ****   if (TIM_ICInitStruct->TIM_Channel == TIM_Channel_1)
 1331              		.loc 1 684 0
 1332 0042 3B68     		ldr	r3, [r7, #0]
 1333 0044 1B88     		ldrh	r3, [r3, #0]
 1334 0046 002B     		cmp	r3, #0
 1335 0048 1CD1     		bne	.L47
 685:../libraries/STM32F10x_StdPeriph_Driver/src/stm32f10x_tim.c ****   {
 686:../libraries/STM32F10x_StdPeriph_Driver/src/stm32f10x_tim.c ****     /* TI1 Configuration */
 687:../libraries/STM32F10x_StdPeriph_Driver/src/stm32f10x_tim.c ****     TI1_Config(TIMx, TIM_ICInitStruct->TIM_ICPolarity, TIM_ICInitStruct->TIM_ICSelection,
 1336              		.loc 1 687 0
 1337 004a 3B68     		ldr	r3, [r7, #0]
 1338 004c 5988     		ldrh	r1, [r3, #2]
 1339 004e 3B68     		ldr	r3, [r7, #0]
 1340 0050 9A88     		ldrh	r2, [r3, #4]
 688:../libraries/STM32F10x_StdPeriph_Driver/src/stm32f10x_tim.c ****                TIM_ICInitStruct->TIM_ICFilter);
 1341              		.loc 1 688 0
 1342 0052 3B68     		ldr	r3, [r7, #0]
 687:../libraries/STM32F10x_StdPeriph_Driver/src/stm32f10x_tim.c ****     TI1_Config(TIMx, TIM_ICInitStruct->TIM_ICPolarity, TIM_ICInitStruct->TIM_ICSelection,
 1343              		.loc 1 687 0
 1344 0054 1B89     		ldrh	r3, [r3, #8]
 1345 0056 7868     		ldr	r0, [r7, #4]
 1346 0058 FFF7FEFF 		bl	TI1_Config
 689:../libraries/STM32F10x_StdPeriph_Driver/src/stm32f10x_tim.c ****     /* Set the Input Capture Prescaler value */
 690:../libraries/STM32F10x_StdPeriph_Driver/src/stm32f10x_tim.c ****     TIM_SetIC1Prescaler(TIMx, TIM_ICInitStruct->TIM_ICPrescaler);
 1347              		.loc 1 690 0
 1348 005c 3B68     		ldr	r3, [r7, #0]
 1349 005e DB88     		ldrh	r3, [r3, #6]
 1350 0060 7868     		ldr	r0, [r7, #4]
 1351 0062 1946     		mov	r1, r3
 1352 0064 FFF7FEFF 		bl	TIM_SetIC1Prescaler
 691:../libraries/STM32F10x_StdPeriph_Driver/src/stm32f10x_tim.c ****     /* TI2 Configuration */
 692:../libraries/STM32F10x_StdPeriph_Driver/src/stm32f10x_tim.c ****     TI2_Config(TIMx, icoppositepolarity, icoppositeselection, TIM_ICInitStruct->TIM_ICFilter);
 1353              		.loc 1 692 0
 1354 0068 3B68     		ldr	r3, [r7, #0]
 1355 006a 1B89     		ldrh	r3, [r3, #8]
 1356 006c F989     		ldrh	r1, [r7, #14]
 1357 006e BA89     		ldrh	r2, [r7, #12]
 1358 0070 7868     		ldr	r0, [r7, #4]
 1359 0072 FFF7FEFF 		bl	TI2_Config
 693:../libraries/STM32F10x_StdPeriph_Driver/src/stm32f10x_tim.c ****     /* Set the Input Capture Prescaler value */
 694:../libraries/STM32F10x_StdPeriph_Driver/src/stm32f10x_tim.c ****     TIM_SetIC2Prescaler(TIMx, TIM_ICInitStruct->TIM_ICPrescaler);
 1360              		.loc 1 694 0
 1361 0076 3B68     		ldr	r3, [r7, #0]
 1362 0078 DB88     		ldrh	r3, [r3, #6]
 1363 007a 7868     		ldr	r0, [r7, #4]
 1364 007c 1946     		mov	r1, r3
 1365 007e FFF7FEFF 		bl	TIM_SetIC2Prescaler
 1366 0082 1BE0     		b	.L42
 1367              	.L47:
 695:../libraries/STM32F10x_StdPeriph_Driver/src/stm32f10x_tim.c ****   }
 696:../libraries/STM32F10x_StdPeriph_Driver/src/stm32f10x_tim.c ****   else
 697:../libraries/STM32F10x_StdPeriph_Driver/src/stm32f10x_tim.c ****   { 
 698:../libraries/STM32F10x_StdPeriph_Driver/src/stm32f10x_tim.c ****     /* TI2 Configuration */
 699:../libraries/STM32F10x_StdPeriph_Driver/src/stm32f10x_tim.c ****     TI2_Config(TIMx, TIM_ICInitStruct->TIM_ICPolarity, TIM_ICInitStruct->TIM_ICSelection,
 1368              		.loc 1 699 0
 1369 0084 3B68     		ldr	r3, [r7, #0]
 1370 0086 5988     		ldrh	r1, [r3, #2]
 1371 0088 3B68     		ldr	r3, [r7, #0]
 1372 008a 9A88     		ldrh	r2, [r3, #4]
 700:../libraries/STM32F10x_StdPeriph_Driver/src/stm32f10x_tim.c ****                TIM_ICInitStruct->TIM_ICFilter);
 1373              		.loc 1 700 0
 1374 008c 3B68     		ldr	r3, [r7, #0]
 699:../libraries/STM32F10x_StdPeriph_Driver/src/stm32f10x_tim.c ****     TI2_Config(TIMx, TIM_ICInitStruct->TIM_ICPolarity, TIM_ICInitStruct->TIM_ICSelection,
 1375              		.loc 1 699 0
 1376 008e 1B89     		ldrh	r3, [r3, #8]
 1377 0090 7868     		ldr	r0, [r7, #4]
 1378 0092 FFF7FEFF 		bl	TI2_Config
 701:../libraries/STM32F10x_StdPeriph_Driver/src/stm32f10x_tim.c ****     /* Set the Input Capture Prescaler value */
 702:../libraries/STM32F10x_StdPeriph_Driver/src/stm32f10x_tim.c ****     TIM_SetIC2Prescaler(TIMx, TIM_ICInitStruct->TIM_ICPrescaler);
 1379              		.loc 1 702 0
 1380 0096 3B68     		ldr	r3, [r7, #0]
 1381 0098 DB88     		ldrh	r3, [r3, #6]
 1382 009a 7868     		ldr	r0, [r7, #4]
 1383 009c 1946     		mov	r1, r3
 1384 009e FFF7FEFF 		bl	TIM_SetIC2Prescaler
 703:../libraries/STM32F10x_StdPeriph_Driver/src/stm32f10x_tim.c ****     /* TI1 Configuration */
 704:../libraries/STM32F10x_StdPeriph_Driver/src/stm32f10x_tim.c ****     TI1_Config(TIMx, icoppositepolarity, icoppositeselection, TIM_ICInitStruct->TIM_ICFilter);
 1385              		.loc 1 704 0
 1386 00a2 3B68     		ldr	r3, [r7, #0]
 1387 00a4 1B89     		ldrh	r3, [r3, #8]
 1388 00a6 F989     		ldrh	r1, [r7, #14]
 1389 00a8 BA89     		ldrh	r2, [r7, #12]
 1390 00aa 7868     		ldr	r0, [r7, #4]
 1391 00ac FFF7FEFF 		bl	TI1_Config
 705:../libraries/STM32F10x_StdPeriph_Driver/src/stm32f10x_tim.c ****     /* Set the Input Capture Prescaler value */
 706:../libraries/STM32F10x_StdPeriph_Driver/src/stm32f10x_tim.c ****     TIM_SetIC1Prescaler(TIMx, TIM_ICInitStruct->TIM_ICPrescaler);
 1392              		.loc 1 706 0
 1393 00b0 3B68     		ldr	r3, [r7, #0]
 1394 00b2 DB88     		ldrh	r3, [r3, #6]
 1395 00b4 7868     		ldr	r0, [r7, #4]
 1396 00b6 1946     		mov	r1, r3
 1397 00b8 FFF7FEFF 		bl	TIM_SetIC1Prescaler
 1398              	.L42:
 707:../libraries/STM32F10x_StdPeriph_Driver/src/stm32f10x_tim.c ****   }
 708:../libraries/STM32F10x_StdPeriph_Driver/src/stm32f10x_tim.c **** }
 1399              		.loc 1 708 0
 1400 00bc 07F11007 		add	r7, r7, #16
 1401 00c0 BD46     		mov	sp, r7
 1402 00c2 80BD     		pop	{r7, pc}
 1403              		.cfi_endproc
 1404              	.LFE63:
 1406              		.section	.text.TIM_BDTRConfig,"ax",%progbits
 1407              		.align	2
 1408              		.global	TIM_BDTRConfig
 1409              		.thumb
 1410              		.thumb_func
 1412              	TIM_BDTRConfig:
 1413              	.LFB64:
 709:../libraries/STM32F10x_StdPeriph_Driver/src/stm32f10x_tim.c **** 
 710:../libraries/STM32F10x_StdPeriph_Driver/src/stm32f10x_tim.c **** /**
 711:../libraries/STM32F10x_StdPeriph_Driver/src/stm32f10x_tim.c ****   * @brief  Configures the: Break feature, dead time, Lock level, the OSSI,
 712:../libraries/STM32F10x_StdPeriph_Driver/src/stm32f10x_tim.c ****   *         the OSSR State and the AOE(automatic output enable).
 713:../libraries/STM32F10x_StdPeriph_Driver/src/stm32f10x_tim.c ****   * @param  TIMx: where x can be  1 or 8 to select the TIM 
 714:../libraries/STM32F10x_StdPeriph_Driver/src/stm32f10x_tim.c ****   * @param  TIM_BDTRInitStruct: pointer to a TIM_BDTRInitTypeDef structure that
 715:../libraries/STM32F10x_StdPeriph_Driver/src/stm32f10x_tim.c ****   *         contains the BDTR Register configuration  information for the TIM peripheral.
 716:../libraries/STM32F10x_StdPeriph_Driver/src/stm32f10x_tim.c ****   * @retval None
 717:../libraries/STM32F10x_StdPeriph_Driver/src/stm32f10x_tim.c ****   */
 718:../libraries/STM32F10x_StdPeriph_Driver/src/stm32f10x_tim.c **** void TIM_BDTRConfig(TIM_TypeDef* TIMx, TIM_BDTRInitTypeDef *TIM_BDTRInitStruct)
 719:../libraries/STM32F10x_StdPeriph_Driver/src/stm32f10x_tim.c **** {
 1414              		.loc 1 719 0
 1415              		.cfi_startproc
 1416              		@ args = 0, pretend = 0, frame = 8
 1417              		@ frame_needed = 1, uses_anonymous_args = 0
 1418              		@ link register save eliminated.
 1419 0000 80B4     		push	{r7}
 1420              	.LCFI24:
 1421              		.cfi_def_cfa_offset 4
 1422              		.cfi_offset 7, -4
 1423 0002 83B0     		sub	sp, sp, #12
 1424              	.LCFI25:
 1425              		.cfi_def_cfa_offset 16
 1426 0004 00AF     		add	r7, sp, #0
 1427              	.LCFI26:
 1428              		.cfi_def_cfa_register 7
 1429 0006 7860     		str	r0, [r7, #4]
 1430 0008 3960     		str	r1, [r7, #0]
 720:../libraries/STM32F10x_StdPeriph_Driver/src/stm32f10x_tim.c ****   /* Check the parameters */
 721:../libraries/STM32F10x_StdPeriph_Driver/src/stm32f10x_tim.c ****   assert_param(IS_TIM_LIST2_PERIPH(TIMx));
 722:../libraries/STM32F10x_StdPeriph_Driver/src/stm32f10x_tim.c ****   assert_param(IS_TIM_OSSR_STATE(TIM_BDTRInitStruct->TIM_OSSRState));
 723:../libraries/STM32F10x_StdPeriph_Driver/src/stm32f10x_tim.c ****   assert_param(IS_TIM_OSSI_STATE(TIM_BDTRInitStruct->TIM_OSSIState));
 724:../libraries/STM32F10x_StdPeriph_Driver/src/stm32f10x_tim.c ****   assert_param(IS_TIM_LOCK_LEVEL(TIM_BDTRInitStruct->TIM_LOCKLevel));
 725:../libraries/STM32F10x_StdPeriph_Driver/src/stm32f10x_tim.c ****   assert_param(IS_TIM_BREAK_STATE(TIM_BDTRInitStruct->TIM_Break));
 726:../libraries/STM32F10x_StdPeriph_Driver/src/stm32f10x_tim.c ****   assert_param(IS_TIM_BREAK_POLARITY(TIM_BDTRInitStruct->TIM_BreakPolarity));
 727:../libraries/STM32F10x_StdPeriph_Driver/src/stm32f10x_tim.c ****   assert_param(IS_TIM_AUTOMATIC_OUTPUT_STATE(TIM_BDTRInitStruct->TIM_AutomaticOutput));
 728:../libraries/STM32F10x_StdPeriph_Driver/src/stm32f10x_tim.c ****   /* Set the Lock level, the Break enable Bit and the Ploarity, the OSSR State,
 729:../libraries/STM32F10x_StdPeriph_Driver/src/stm32f10x_tim.c ****      the OSSI State, the dead time value and the Automatic Output Enable Bit */
 730:../libraries/STM32F10x_StdPeriph_Driver/src/stm32f10x_tim.c ****   TIMx->BDTR = (uint32_t)TIM_BDTRInitStruct->TIM_OSSRState | TIM_BDTRInitStruct->TIM_OSSIState |
 1431              		.loc 1 730 0
 1432 000a 3B68     		ldr	r3, [r7, #0]
 1433 000c 1A88     		ldrh	r2, [r3, #0]
 1434 000e 3B68     		ldr	r3, [r7, #0]
 1435 0010 5B88     		ldrh	r3, [r3, #2]
 1436 0012 1343     		orrs	r3, r3, r2
 1437 0014 9AB2     		uxth	r2, r3
 731:../libraries/STM32F10x_StdPeriph_Driver/src/stm32f10x_tim.c ****              TIM_BDTRInitStruct->TIM_LOCKLevel | TIM_BDTRInitStruct->TIM_DeadTime |
 1438              		.loc 1 731 0
 1439 0016 3B68     		ldr	r3, [r7, #0]
 1440 0018 9B88     		ldrh	r3, [r3, #4]
 730:../libraries/STM32F10x_StdPeriph_Driver/src/stm32f10x_tim.c ****   TIMx->BDTR = (uint32_t)TIM_BDTRInitStruct->TIM_OSSRState | TIM_BDTRInitStruct->TIM_OSSIState |
 1441              		.loc 1 730 0
 1442 001a 1343     		orrs	r3, r3, r2
 1443 001c 9AB2     		uxth	r2, r3
 1444              		.loc 1 731 0
 1445 001e 3B68     		ldr	r3, [r7, #0]
 1446 0020 DB88     		ldrh	r3, [r3, #6]
 730:../libraries/STM32F10x_StdPeriph_Driver/src/stm32f10x_tim.c ****   TIMx->BDTR = (uint32_t)TIM_BDTRInitStruct->TIM_OSSRState | TIM_BDTRInitStruct->TIM_OSSIState |
 1447              		.loc 1 730 0
 1448 0022 1343     		orrs	r3, r3, r2
 1449 0024 9AB2     		uxth	r2, r3
 732:../libraries/STM32F10x_StdPeriph_Driver/src/stm32f10x_tim.c ****              TIM_BDTRInitStruct->TIM_Break | TIM_BDTRInitStruct->TIM_BreakPolarity |
 1450              		.loc 1 732 0
 1451 0026 3B68     		ldr	r3, [r7, #0]
 1452 0028 1B89     		ldrh	r3, [r3, #8]
 730:../libraries/STM32F10x_StdPeriph_Driver/src/stm32f10x_tim.c ****   TIMx->BDTR = (uint32_t)TIM_BDTRInitStruct->TIM_OSSRState | TIM_BDTRInitStruct->TIM_OSSIState |
 1453              		.loc 1 730 0
 1454 002a 1343     		orrs	r3, r3, r2
 1455 002c 9AB2     		uxth	r2, r3
 1456              		.loc 1 732 0
 1457 002e 3B68     		ldr	r3, [r7, #0]
 1458 0030 5B89     		ldrh	r3, [r3, #10]
 730:../libraries/STM32F10x_StdPeriph_Driver/src/stm32f10x_tim.c ****   TIMx->BDTR = (uint32_t)TIM_BDTRInitStruct->TIM_OSSRState | TIM_BDTRInitStruct->TIM_OSSIState |
 1459              		.loc 1 730 0
 1460 0032 1343     		orrs	r3, r3, r2
 1461 0034 9AB2     		uxth	r2, r3
 733:../libraries/STM32F10x_StdPeriph_Driver/src/stm32f10x_tim.c ****              TIM_BDTRInitStruct->TIM_AutomaticOutput;
 1462              		.loc 1 733 0
 1463 0036 3B68     		ldr	r3, [r7, #0]
 1464 0038 9B89     		ldrh	r3, [r3, #12]
 730:../libraries/STM32F10x_StdPeriph_Driver/src/stm32f10x_tim.c ****   TIMx->BDTR = (uint32_t)TIM_BDTRInitStruct->TIM_OSSRState | TIM_BDTRInitStruct->TIM_OSSIState |
 1465              		.loc 1 730 0
 1466 003a 1343     		orrs	r3, r3, r2
 1467 003c 9AB2     		uxth	r2, r3
 1468 003e 7B68     		ldr	r3, [r7, #4]
 1469 0040 A3F84420 		strh	r2, [r3, #68]	@ movhi
 734:../libraries/STM32F10x_StdPeriph_Driver/src/stm32f10x_tim.c **** }
 1470              		.loc 1 734 0
 1471 0044 07F10C07 		add	r7, r7, #12
 1472 0048 BD46     		mov	sp, r7
 1473 004a 80BC     		pop	{r7}
 1474 004c 7047     		bx	lr
 1475              		.cfi_endproc
 1476              	.LFE64:
 1478 004e 00BF     		.section	.text.TIM_TimeBaseStructInit,"ax",%progbits
 1479              		.align	2
 1480              		.global	TIM_TimeBaseStructInit
 1481              		.thumb
 1482              		.thumb_func
 1484              	TIM_TimeBaseStructInit:
 1485              	.LFB65:
 735:../libraries/STM32F10x_StdPeriph_Driver/src/stm32f10x_tim.c **** 
 736:../libraries/STM32F10x_StdPeriph_Driver/src/stm32f10x_tim.c **** /**
 737:../libraries/STM32F10x_StdPeriph_Driver/src/stm32f10x_tim.c ****   * @brief  Fills each TIM_TimeBaseInitStruct member with its default value.
 738:../libraries/STM32F10x_StdPeriph_Driver/src/stm32f10x_tim.c ****   * @param  TIM_TimeBaseInitStruct : pointer to a TIM_TimeBaseInitTypeDef
 739:../libraries/STM32F10x_StdPeriph_Driver/src/stm32f10x_tim.c ****   *         structure which will be initialized.
 740:../libraries/STM32F10x_StdPeriph_Driver/src/stm32f10x_tim.c ****   * @retval None
 741:../libraries/STM32F10x_StdPeriph_Driver/src/stm32f10x_tim.c ****   */
 742:../libraries/STM32F10x_StdPeriph_Driver/src/stm32f10x_tim.c **** void TIM_TimeBaseStructInit(TIM_TimeBaseInitTypeDef* TIM_TimeBaseInitStruct)
 743:../libraries/STM32F10x_StdPeriph_Driver/src/stm32f10x_tim.c **** {
 1486              		.loc 1 743 0
 1487              		.cfi_startproc
 1488              		@ args = 0, pretend = 0, frame = 8
 1489              		@ frame_needed = 1, uses_anonymous_args = 0
 1490              		@ link register save eliminated.
 1491 0000 80B4     		push	{r7}
 1492              	.LCFI27:
 1493              		.cfi_def_cfa_offset 4
 1494              		.cfi_offset 7, -4
 1495 0002 83B0     		sub	sp, sp, #12
 1496              	.LCFI28:
 1497              		.cfi_def_cfa_offset 16
 1498 0004 00AF     		add	r7, sp, #0
 1499              	.LCFI29:
 1500              		.cfi_def_cfa_register 7
 1501 0006 7860     		str	r0, [r7, #4]
 744:../libraries/STM32F10x_StdPeriph_Driver/src/stm32f10x_tim.c ****   /* Set the default configuration */
 745:../libraries/STM32F10x_StdPeriph_Driver/src/stm32f10x_tim.c ****   TIM_TimeBaseInitStruct->TIM_Period = 0xFFFF;
 1502              		.loc 1 745 0
 1503 0008 7B68     		ldr	r3, [r7, #4]
 1504 000a 4FF6FF72 		movw	r2, #65535
 1505 000e 9A80     		strh	r2, [r3, #4]	@ movhi
 746:../libraries/STM32F10x_StdPeriph_Driver/src/stm32f10x_tim.c ****   TIM_TimeBaseInitStruct->TIM_Prescaler = 0x0000;
 1506              		.loc 1 746 0
 1507 0010 7B68     		ldr	r3, [r7, #4]
 1508 0012 4FF00002 		mov	r2, #0
 1509 0016 1A80     		strh	r2, [r3, #0]	@ movhi
 747:../libraries/STM32F10x_StdPeriph_Driver/src/stm32f10x_tim.c ****   TIM_TimeBaseInitStruct->TIM_ClockDivision = TIM_CKD_DIV1;
 1510              		.loc 1 747 0
 1511 0018 7B68     		ldr	r3, [r7, #4]
 1512 001a 4FF00002 		mov	r2, #0
 1513 001e DA80     		strh	r2, [r3, #6]	@ movhi
 748:../libraries/STM32F10x_StdPeriph_Driver/src/stm32f10x_tim.c ****   TIM_TimeBaseInitStruct->TIM_CounterMode = TIM_CounterMode_Up;
 1514              		.loc 1 748 0
 1515 0020 7B68     		ldr	r3, [r7, #4]
 1516 0022 4FF00002 		mov	r2, #0
 1517 0026 5A80     		strh	r2, [r3, #2]	@ movhi
 749:../libraries/STM32F10x_StdPeriph_Driver/src/stm32f10x_tim.c ****   TIM_TimeBaseInitStruct->TIM_RepetitionCounter = 0x0000;
 1518              		.loc 1 749 0
 1519 0028 7B68     		ldr	r3, [r7, #4]
 1520 002a 4FF00002 		mov	r2, #0
 1521 002e 1A72     		strb	r2, [r3, #8]
 750:../libraries/STM32F10x_StdPeriph_Driver/src/stm32f10x_tim.c **** }
 1522              		.loc 1 750 0
 1523 0030 07F10C07 		add	r7, r7, #12
 1524 0034 BD46     		mov	sp, r7
 1525 0036 80BC     		pop	{r7}
 1526 0038 7047     		bx	lr
 1527              		.cfi_endproc
 1528              	.LFE65:
 1530 003a 00BF     		.section	.text.TIM_OCStructInit,"ax",%progbits
 1531              		.align	2
 1532              		.global	TIM_OCStructInit
 1533              		.thumb
 1534              		.thumb_func
 1536              	TIM_OCStructInit:
 1537              	.LFB66:
 751:../libraries/STM32F10x_StdPeriph_Driver/src/stm32f10x_tim.c **** 
 752:../libraries/STM32F10x_StdPeriph_Driver/src/stm32f10x_tim.c **** /**
 753:../libraries/STM32F10x_StdPeriph_Driver/src/stm32f10x_tim.c ****   * @brief  Fills each TIM_OCInitStruct member with its default value.
 754:../libraries/STM32F10x_StdPeriph_Driver/src/stm32f10x_tim.c ****   * @param  TIM_OCInitStruct : pointer to a TIM_OCInitTypeDef structure which will
 755:../libraries/STM32F10x_StdPeriph_Driver/src/stm32f10x_tim.c ****   *         be initialized.
 756:../libraries/STM32F10x_StdPeriph_Driver/src/stm32f10x_tim.c ****   * @retval None
 757:../libraries/STM32F10x_StdPeriph_Driver/src/stm32f10x_tim.c ****   */
 758:../libraries/STM32F10x_StdPeriph_Driver/src/stm32f10x_tim.c **** void TIM_OCStructInit(TIM_OCInitTypeDef* TIM_OCInitStruct)
 759:../libraries/STM32F10x_StdPeriph_Driver/src/stm32f10x_tim.c **** {
 1538              		.loc 1 759 0
 1539              		.cfi_startproc
 1540              		@ args = 0, pretend = 0, frame = 8
 1541              		@ frame_needed = 1, uses_anonymous_args = 0
 1542              		@ link register save eliminated.
 1543 0000 80B4     		push	{r7}
 1544              	.LCFI30:
 1545              		.cfi_def_cfa_offset 4
 1546              		.cfi_offset 7, -4
 1547 0002 83B0     		sub	sp, sp, #12
 1548              	.LCFI31:
 1549              		.cfi_def_cfa_offset 16
 1550 0004 00AF     		add	r7, sp, #0
 1551              	.LCFI32:
 1552              		.cfi_def_cfa_register 7
 1553 0006 7860     		str	r0, [r7, #4]
 760:../libraries/STM32F10x_StdPeriph_Driver/src/stm32f10x_tim.c ****   /* Set the default configuration */
 761:../libraries/STM32F10x_StdPeriph_Driver/src/stm32f10x_tim.c ****   TIM_OCInitStruct->TIM_OCMode = TIM_OCMode_Timing;
 1554              		.loc 1 761 0
 1555 0008 7B68     		ldr	r3, [r7, #4]
 1556 000a 4FF00002 		mov	r2, #0
 1557 000e 1A80     		strh	r2, [r3, #0]	@ movhi
 762:../libraries/STM32F10x_StdPeriph_Driver/src/stm32f10x_tim.c ****   TIM_OCInitStruct->TIM_OutputState = TIM_OutputState_Disable;
 1558              		.loc 1 762 0
 1559 0010 7B68     		ldr	r3, [r7, #4]
 1560 0012 4FF00002 		mov	r2, #0
 1561 0016 5A80     		strh	r2, [r3, #2]	@ movhi
 763:../libraries/STM32F10x_StdPeriph_Driver/src/stm32f10x_tim.c ****   TIM_OCInitStruct->TIM_OutputNState = TIM_OutputNState_Disable;
 1562              		.loc 1 763 0
 1563 0018 7B68     		ldr	r3, [r7, #4]
 1564 001a 4FF00002 		mov	r2, #0
 1565 001e 9A80     		strh	r2, [r3, #4]	@ movhi
 764:../libraries/STM32F10x_StdPeriph_Driver/src/stm32f10x_tim.c ****   TIM_OCInitStruct->TIM_Pulse = 0x0000;
 1566              		.loc 1 764 0
 1567 0020 7B68     		ldr	r3, [r7, #4]
 1568 0022 4FF00002 		mov	r2, #0
 1569 0026 DA80     		strh	r2, [r3, #6]	@ movhi
 765:../libraries/STM32F10x_StdPeriph_Driver/src/stm32f10x_tim.c ****   TIM_OCInitStruct->TIM_OCPolarity = TIM_OCPolarity_High;
 1570              		.loc 1 765 0
 1571 0028 7B68     		ldr	r3, [r7, #4]
 1572 002a 4FF00002 		mov	r2, #0
 1573 002e 1A81     		strh	r2, [r3, #8]	@ movhi
 766:../libraries/STM32F10x_StdPeriph_Driver/src/stm32f10x_tim.c ****   TIM_OCInitStruct->TIM_OCNPolarity = TIM_OCPolarity_High;
 1574              		.loc 1 766 0
 1575 0030 7B68     		ldr	r3, [r7, #4]
 1576 0032 4FF00002 		mov	r2, #0
 1577 0036 5A81     		strh	r2, [r3, #10]	@ movhi
 767:../libraries/STM32F10x_StdPeriph_Driver/src/stm32f10x_tim.c ****   TIM_OCInitStruct->TIM_OCIdleState = TIM_OCIdleState_Reset;
 1578              		.loc 1 767 0
 1579 0038 7B68     		ldr	r3, [r7, #4]
 1580 003a 4FF00002 		mov	r2, #0
 1581 003e 9A81     		strh	r2, [r3, #12]	@ movhi
 768:../libraries/STM32F10x_StdPeriph_Driver/src/stm32f10x_tim.c ****   TIM_OCInitStruct->TIM_OCNIdleState = TIM_OCNIdleState_Reset;
 1582              		.loc 1 768 0
 1583 0040 7B68     		ldr	r3, [r7, #4]
 1584 0042 4FF00002 		mov	r2, #0
 1585 0046 DA81     		strh	r2, [r3, #14]	@ movhi
 769:../libraries/STM32F10x_StdPeriph_Driver/src/stm32f10x_tim.c **** }
 1586              		.loc 1 769 0
 1587 0048 07F10C07 		add	r7, r7, #12
 1588 004c BD46     		mov	sp, r7
 1589 004e 80BC     		pop	{r7}
 1590 0050 7047     		bx	lr
 1591              		.cfi_endproc
 1592              	.LFE66:
 1594 0052 00BF     		.section	.text.TIM_ICStructInit,"ax",%progbits
 1595              		.align	2
 1596              		.global	TIM_ICStructInit
 1597              		.thumb
 1598              		.thumb_func
 1600              	TIM_ICStructInit:
 1601              	.LFB67:
 770:../libraries/STM32F10x_StdPeriph_Driver/src/stm32f10x_tim.c **** 
 771:../libraries/STM32F10x_StdPeriph_Driver/src/stm32f10x_tim.c **** /**
 772:../libraries/STM32F10x_StdPeriph_Driver/src/stm32f10x_tim.c ****   * @brief  Fills each TIM_ICInitStruct member with its default value.
 773:../libraries/STM32F10x_StdPeriph_Driver/src/stm32f10x_tim.c ****   * @param  TIM_ICInitStruct: pointer to a TIM_ICInitTypeDef structure which will
 774:../libraries/STM32F10x_StdPeriph_Driver/src/stm32f10x_tim.c ****   *         be initialized.
 775:../libraries/STM32F10x_StdPeriph_Driver/src/stm32f10x_tim.c ****   * @retval None
 776:../libraries/STM32F10x_StdPeriph_Driver/src/stm32f10x_tim.c ****   */
 777:../libraries/STM32F10x_StdPeriph_Driver/src/stm32f10x_tim.c **** void TIM_ICStructInit(TIM_ICInitTypeDef* TIM_ICInitStruct)
 778:../libraries/STM32F10x_StdPeriph_Driver/src/stm32f10x_tim.c **** {
 1602              		.loc 1 778 0
 1603              		.cfi_startproc
 1604              		@ args = 0, pretend = 0, frame = 8
 1605              		@ frame_needed = 1, uses_anonymous_args = 0
 1606              		@ link register save eliminated.
 1607 0000 80B4     		push	{r7}
 1608              	.LCFI33:
 1609              		.cfi_def_cfa_offset 4
 1610              		.cfi_offset 7, -4
 1611 0002 83B0     		sub	sp, sp, #12
 1612              	.LCFI34:
 1613              		.cfi_def_cfa_offset 16
 1614 0004 00AF     		add	r7, sp, #0
 1615              	.LCFI35:
 1616              		.cfi_def_cfa_register 7
 1617 0006 7860     		str	r0, [r7, #4]
 779:../libraries/STM32F10x_StdPeriph_Driver/src/stm32f10x_tim.c ****   /* Set the default configuration */
 780:../libraries/STM32F10x_StdPeriph_Driver/src/stm32f10x_tim.c ****   TIM_ICInitStruct->TIM_Channel = TIM_Channel_1;
 1618              		.loc 1 780 0
 1619 0008 7B68     		ldr	r3, [r7, #4]
 1620 000a 4FF00002 		mov	r2, #0
 1621 000e 1A80     		strh	r2, [r3, #0]	@ movhi
 781:../libraries/STM32F10x_StdPeriph_Driver/src/stm32f10x_tim.c ****   TIM_ICInitStruct->TIM_ICPolarity = TIM_ICPolarity_Rising;
 1622              		.loc 1 781 0
 1623 0010 7B68     		ldr	r3, [r7, #4]
 1624 0012 4FF00002 		mov	r2, #0
 1625 0016 5A80     		strh	r2, [r3, #2]	@ movhi
 782:../libraries/STM32F10x_StdPeriph_Driver/src/stm32f10x_tim.c ****   TIM_ICInitStruct->TIM_ICSelection = TIM_ICSelection_DirectTI;
 1626              		.loc 1 782 0
 1627 0018 7B68     		ldr	r3, [r7, #4]
 1628 001a 4FF00102 		mov	r2, #1
 1629 001e 9A80     		strh	r2, [r3, #4]	@ movhi
 783:../libraries/STM32F10x_StdPeriph_Driver/src/stm32f10x_tim.c ****   TIM_ICInitStruct->TIM_ICPrescaler = TIM_ICPSC_DIV1;
 1630              		.loc 1 783 0
 1631 0020 7B68     		ldr	r3, [r7, #4]
 1632 0022 4FF00002 		mov	r2, #0
 1633 0026 DA80     		strh	r2, [r3, #6]	@ movhi
 784:../libraries/STM32F10x_StdPeriph_Driver/src/stm32f10x_tim.c ****   TIM_ICInitStruct->TIM_ICFilter = 0x00;
 1634              		.loc 1 784 0
 1635 0028 7B68     		ldr	r3, [r7, #4]
 1636 002a 4FF00002 		mov	r2, #0
 1637 002e 1A81     		strh	r2, [r3, #8]	@ movhi
 785:../libraries/STM32F10x_StdPeriph_Driver/src/stm32f10x_tim.c **** }
 1638              		.loc 1 785 0
 1639 0030 07F10C07 		add	r7, r7, #12
 1640 0034 BD46     		mov	sp, r7
 1641 0036 80BC     		pop	{r7}
 1642 0038 7047     		bx	lr
 1643              		.cfi_endproc
 1644              	.LFE67:
 1646 003a 00BF     		.section	.text.TIM_BDTRStructInit,"ax",%progbits
 1647              		.align	2
 1648              		.global	TIM_BDTRStructInit
 1649              		.thumb
 1650              		.thumb_func
 1652              	TIM_BDTRStructInit:
 1653              	.LFB68:
 786:../libraries/STM32F10x_StdPeriph_Driver/src/stm32f10x_tim.c **** 
 787:../libraries/STM32F10x_StdPeriph_Driver/src/stm32f10x_tim.c **** /**
 788:../libraries/STM32F10x_StdPeriph_Driver/src/stm32f10x_tim.c ****   * @brief  Fills each TIM_BDTRInitStruct member with its default value.
 789:../libraries/STM32F10x_StdPeriph_Driver/src/stm32f10x_tim.c ****   * @param  TIM_BDTRInitStruct: pointer to a TIM_BDTRInitTypeDef structure which
 790:../libraries/STM32F10x_StdPeriph_Driver/src/stm32f10x_tim.c ****   *         will be initialized.
 791:../libraries/STM32F10x_StdPeriph_Driver/src/stm32f10x_tim.c ****   * @retval None
 792:../libraries/STM32F10x_StdPeriph_Driver/src/stm32f10x_tim.c ****   */
 793:../libraries/STM32F10x_StdPeriph_Driver/src/stm32f10x_tim.c **** void TIM_BDTRStructInit(TIM_BDTRInitTypeDef* TIM_BDTRInitStruct)
 794:../libraries/STM32F10x_StdPeriph_Driver/src/stm32f10x_tim.c **** {
 1654              		.loc 1 794 0
 1655              		.cfi_startproc
 1656              		@ args = 0, pretend = 0, frame = 8
 1657              		@ frame_needed = 1, uses_anonymous_args = 0
 1658              		@ link register save eliminated.
 1659 0000 80B4     		push	{r7}
 1660              	.LCFI36:
 1661              		.cfi_def_cfa_offset 4
 1662              		.cfi_offset 7, -4
 1663 0002 83B0     		sub	sp, sp, #12
 1664              	.LCFI37:
 1665              		.cfi_def_cfa_offset 16
 1666 0004 00AF     		add	r7, sp, #0
 1667              	.LCFI38:
 1668              		.cfi_def_cfa_register 7
 1669 0006 7860     		str	r0, [r7, #4]
 795:../libraries/STM32F10x_StdPeriph_Driver/src/stm32f10x_tim.c ****   /* Set the default configuration */
 796:../libraries/STM32F10x_StdPeriph_Driver/src/stm32f10x_tim.c ****   TIM_BDTRInitStruct->TIM_OSSRState = TIM_OSSRState_Disable;
 1670              		.loc 1 796 0
 1671 0008 7B68     		ldr	r3, [r7, #4]
 1672 000a 4FF00002 		mov	r2, #0
 1673 000e 1A80     		strh	r2, [r3, #0]	@ movhi
 797:../libraries/STM32F10x_StdPeriph_Driver/src/stm32f10x_tim.c ****   TIM_BDTRInitStruct->TIM_OSSIState = TIM_OSSIState_Disable;
 1674              		.loc 1 797 0
 1675 0010 7B68     		ldr	r3, [r7, #4]
 1676 0012 4FF00002 		mov	r2, #0
 1677 0016 5A80     		strh	r2, [r3, #2]	@ movhi
 798:../libraries/STM32F10x_StdPeriph_Driver/src/stm32f10x_tim.c ****   TIM_BDTRInitStruct->TIM_LOCKLevel = TIM_LOCKLevel_OFF;
 1678              		.loc 1 798 0
 1679 0018 7B68     		ldr	r3, [r7, #4]
 1680 001a 4FF00002 		mov	r2, #0
 1681 001e 9A80     		strh	r2, [r3, #4]	@ movhi
 799:../libraries/STM32F10x_StdPeriph_Driver/src/stm32f10x_tim.c ****   TIM_BDTRInitStruct->TIM_DeadTime = 0x00;
 1682              		.loc 1 799 0
 1683 0020 7B68     		ldr	r3, [r7, #4]
 1684 0022 4FF00002 		mov	r2, #0
 1685 0026 DA80     		strh	r2, [r3, #6]	@ movhi
 800:../libraries/STM32F10x_StdPeriph_Driver/src/stm32f10x_tim.c ****   TIM_BDTRInitStruct->TIM_Break = TIM_Break_Disable;
 1686              		.loc 1 800 0
 1687 0028 7B68     		ldr	r3, [r7, #4]
 1688 002a 4FF00002 		mov	r2, #0
 1689 002e 1A81     		strh	r2, [r3, #8]	@ movhi
 801:../libraries/STM32F10x_StdPeriph_Driver/src/stm32f10x_tim.c ****   TIM_BDTRInitStruct->TIM_BreakPolarity = TIM_BreakPolarity_Low;
 1690              		.loc 1 801 0
 1691 0030 7B68     		ldr	r3, [r7, #4]
 1692 0032 4FF00002 		mov	r2, #0
 1693 0036 5A81     		strh	r2, [r3, #10]	@ movhi
 802:../libraries/STM32F10x_StdPeriph_Driver/src/stm32f10x_tim.c ****   TIM_BDTRInitStruct->TIM_AutomaticOutput = TIM_AutomaticOutput_Disable;
 1694              		.loc 1 802 0
 1695 0038 7B68     		ldr	r3, [r7, #4]
 1696 003a 4FF00002 		mov	r2, #0
 1697 003e 9A81     		strh	r2, [r3, #12]	@ movhi
 803:../libraries/STM32F10x_StdPeriph_Driver/src/stm32f10x_tim.c **** }
 1698              		.loc 1 803 0
 1699 0040 07F10C07 		add	r7, r7, #12
 1700 0044 BD46     		mov	sp, r7
 1701 0046 80BC     		pop	{r7}
 1702 0048 7047     		bx	lr
 1703              		.cfi_endproc
 1704              	.LFE68:
 1706 004a 00BF     		.section	.text.TIM_Cmd,"ax",%progbits
 1707              		.align	2
 1708              		.global	TIM_Cmd
 1709              		.thumb
 1710              		.thumb_func
 1712              	TIM_Cmd:
 1713              	.LFB69:
 804:../libraries/STM32F10x_StdPeriph_Driver/src/stm32f10x_tim.c **** 
 805:../libraries/STM32F10x_StdPeriph_Driver/src/stm32f10x_tim.c **** /**
 806:../libraries/STM32F10x_StdPeriph_Driver/src/stm32f10x_tim.c ****   * @brief  Enables or disables the specified TIM peripheral.
 807:../libraries/STM32F10x_StdPeriph_Driver/src/stm32f10x_tim.c ****   * @param  TIMx: where x can be 1 to 17 to select the TIMx peripheral.
 808:../libraries/STM32F10x_StdPeriph_Driver/src/stm32f10x_tim.c ****   * @param  NewState: new state of the TIMx peripheral.
 809:../libraries/STM32F10x_StdPeriph_Driver/src/stm32f10x_tim.c ****   *   This parameter can be: ENABLE or DISABLE.
 810:../libraries/STM32F10x_StdPeriph_Driver/src/stm32f10x_tim.c ****   * @retval None
 811:../libraries/STM32F10x_StdPeriph_Driver/src/stm32f10x_tim.c ****   */
 812:../libraries/STM32F10x_StdPeriph_Driver/src/stm32f10x_tim.c **** void TIM_Cmd(TIM_TypeDef* TIMx, FunctionalState NewState)
 813:../libraries/STM32F10x_StdPeriph_Driver/src/stm32f10x_tim.c **** {
 1714              		.loc 1 813 0
 1715              		.cfi_startproc
 1716              		@ args = 0, pretend = 0, frame = 8
 1717              		@ frame_needed = 1, uses_anonymous_args = 0
 1718              		@ link register save eliminated.
 1719 0000 80B4     		push	{r7}
 1720              	.LCFI39:
 1721              		.cfi_def_cfa_offset 4
 1722              		.cfi_offset 7, -4
 1723 0002 83B0     		sub	sp, sp, #12
 1724              	.LCFI40:
 1725              		.cfi_def_cfa_offset 16
 1726 0004 00AF     		add	r7, sp, #0
 1727              	.LCFI41:
 1728              		.cfi_def_cfa_register 7
 1729 0006 7860     		str	r0, [r7, #4]
 1730 0008 0B46     		mov	r3, r1
 1731 000a FB70     		strb	r3, [r7, #3]
 814:../libraries/STM32F10x_StdPeriph_Driver/src/stm32f10x_tim.c ****   /* Check the parameters */
 815:../libraries/STM32F10x_StdPeriph_Driver/src/stm32f10x_tim.c ****   assert_param(IS_TIM_ALL_PERIPH(TIMx));
 816:../libraries/STM32F10x_StdPeriph_Driver/src/stm32f10x_tim.c ****   assert_param(IS_FUNCTIONAL_STATE(NewState));
 817:../libraries/STM32F10x_StdPeriph_Driver/src/stm32f10x_tim.c ****   
 818:../libraries/STM32F10x_StdPeriph_Driver/src/stm32f10x_tim.c ****   if (NewState != DISABLE)
 1732              		.loc 1 818 0
 1733 000c FB78     		ldrb	r3, [r7, #3]	@ zero_extendqisi2
 1734 000e 002B     		cmp	r3, #0
 1735 0010 08D0     		beq	.L55
 819:../libraries/STM32F10x_StdPeriph_Driver/src/stm32f10x_tim.c ****   {
 820:../libraries/STM32F10x_StdPeriph_Driver/src/stm32f10x_tim.c ****     /* Enable the TIM Counter */
 821:../libraries/STM32F10x_StdPeriph_Driver/src/stm32f10x_tim.c ****     TIMx->CR1 |= TIM_CR1_CEN;
 1736              		.loc 1 821 0
 1737 0012 7B68     		ldr	r3, [r7, #4]
 1738 0014 1B88     		ldrh	r3, [r3, #0]	@ movhi
 1739 0016 9BB2     		uxth	r3, r3
 1740 0018 43F00103 		orr	r3, r3, #1
 1741 001c 9AB2     		uxth	r2, r3
 1742 001e 7B68     		ldr	r3, [r7, #4]
 1743 0020 1A80     		strh	r2, [r3, #0]	@ movhi
 1744 0022 07E0     		b	.L54
 1745              	.L55:
 822:../libraries/STM32F10x_StdPeriph_Driver/src/stm32f10x_tim.c ****   }
 823:../libraries/STM32F10x_StdPeriph_Driver/src/stm32f10x_tim.c ****   else
 824:../libraries/STM32F10x_StdPeriph_Driver/src/stm32f10x_tim.c ****   {
 825:../libraries/STM32F10x_StdPeriph_Driver/src/stm32f10x_tim.c ****     /* Disable the TIM Counter */
 826:../libraries/STM32F10x_StdPeriph_Driver/src/stm32f10x_tim.c ****     TIMx->CR1 &= (uint16_t)(~((uint16_t)TIM_CR1_CEN));
 1746              		.loc 1 826 0
 1747 0024 7B68     		ldr	r3, [r7, #4]
 1748 0026 1B88     		ldrh	r3, [r3, #0]	@ movhi
 1749 0028 9BB2     		uxth	r3, r3
 1750 002a 23F00103 		bic	r3, r3, #1
 1751 002e 9AB2     		uxth	r2, r3
 1752 0030 7B68     		ldr	r3, [r7, #4]
 1753 0032 1A80     		strh	r2, [r3, #0]	@ movhi
 1754              	.L54:
 827:../libraries/STM32F10x_StdPeriph_Driver/src/stm32f10x_tim.c ****   }
 828:../libraries/STM32F10x_StdPeriph_Driver/src/stm32f10x_tim.c **** }
 1755              		.loc 1 828 0
 1756 0034 07F10C07 		add	r7, r7, #12
 1757 0038 BD46     		mov	sp, r7
 1758 003a 80BC     		pop	{r7}
 1759 003c 7047     		bx	lr
 1760              		.cfi_endproc
 1761              	.LFE69:
 1763 003e 00BF     		.section	.text.TIM_CtrlPWMOutputs,"ax",%progbits
 1764              		.align	2
 1765              		.global	TIM_CtrlPWMOutputs
 1766              		.thumb
 1767              		.thumb_func
 1769              	TIM_CtrlPWMOutputs:
 1770              	.LFB70:
 829:../libraries/STM32F10x_StdPeriph_Driver/src/stm32f10x_tim.c **** 
 830:../libraries/STM32F10x_StdPeriph_Driver/src/stm32f10x_tim.c **** /**
 831:../libraries/STM32F10x_StdPeriph_Driver/src/stm32f10x_tim.c ****   * @brief  Enables or disables the TIM peripheral Main Outputs.
 832:../libraries/STM32F10x_StdPeriph_Driver/src/stm32f10x_tim.c ****   * @param  TIMx: where x can be 1, 8, 15, 16 or 17 to select the TIMx peripheral.
 833:../libraries/STM32F10x_StdPeriph_Driver/src/stm32f10x_tim.c ****   * @param  NewState: new state of the TIM peripheral Main Outputs.
 834:../libraries/STM32F10x_StdPeriph_Driver/src/stm32f10x_tim.c ****   *   This parameter can be: ENABLE or DISABLE.
 835:../libraries/STM32F10x_StdPeriph_Driver/src/stm32f10x_tim.c ****   * @retval None
 836:../libraries/STM32F10x_StdPeriph_Driver/src/stm32f10x_tim.c ****   */
 837:../libraries/STM32F10x_StdPeriph_Driver/src/stm32f10x_tim.c **** void TIM_CtrlPWMOutputs(TIM_TypeDef* TIMx, FunctionalState NewState)
 838:../libraries/STM32F10x_StdPeriph_Driver/src/stm32f10x_tim.c **** {
 1771              		.loc 1 838 0
 1772              		.cfi_startproc
 1773              		@ args = 0, pretend = 0, frame = 8
 1774              		@ frame_needed = 1, uses_anonymous_args = 0
 1775              		@ link register save eliminated.
 1776 0000 80B4     		push	{r7}
 1777              	.LCFI42:
 1778              		.cfi_def_cfa_offset 4
 1779              		.cfi_offset 7, -4
 1780 0002 83B0     		sub	sp, sp, #12
 1781              	.LCFI43:
 1782              		.cfi_def_cfa_offset 16
 1783 0004 00AF     		add	r7, sp, #0
 1784              	.LCFI44:
 1785              		.cfi_def_cfa_register 7
 1786 0006 7860     		str	r0, [r7, #4]
 1787 0008 0B46     		mov	r3, r1
 1788 000a FB70     		strb	r3, [r7, #3]
 839:../libraries/STM32F10x_StdPeriph_Driver/src/stm32f10x_tim.c ****   /* Check the parameters */
 840:../libraries/STM32F10x_StdPeriph_Driver/src/stm32f10x_tim.c ****   assert_param(IS_TIM_LIST2_PERIPH(TIMx));
 841:../libraries/STM32F10x_StdPeriph_Driver/src/stm32f10x_tim.c ****   assert_param(IS_FUNCTIONAL_STATE(NewState));
 842:../libraries/STM32F10x_StdPeriph_Driver/src/stm32f10x_tim.c ****   if (NewState != DISABLE)
 1789              		.loc 1 842 0
 1790 000c FB78     		ldrb	r3, [r7, #3]	@ zero_extendqisi2
 1791 000e 002B     		cmp	r3, #0
 1792 0010 0CD0     		beq	.L58
 843:../libraries/STM32F10x_StdPeriph_Driver/src/stm32f10x_tim.c ****   {
 844:../libraries/STM32F10x_StdPeriph_Driver/src/stm32f10x_tim.c ****     /* Enable the TIM Main Output */
 845:../libraries/STM32F10x_StdPeriph_Driver/src/stm32f10x_tim.c ****     TIMx->BDTR |= TIM_BDTR_MOE;
 1793              		.loc 1 845 0
 1794 0012 7B68     		ldr	r3, [r7, #4]
 1795 0014 B3F84430 		ldrh	r3, [r3, #68]	@ movhi
 1796 0018 9BB2     		uxth	r3, r3
 1797 001a 6FEA4343 		mvn	r3, r3, lsl #17
 1798 001e 6FEA5343 		mvn	r3, r3, lsr #17
 1799 0022 9AB2     		uxth	r2, r3
 1800 0024 7B68     		ldr	r3, [r7, #4]
 1801 0026 A3F84420 		strh	r2, [r3, #68]	@ movhi
 1802 002a 0BE0     		b	.L57
 1803              	.L58:
 846:../libraries/STM32F10x_StdPeriph_Driver/src/stm32f10x_tim.c ****   }
 847:../libraries/STM32F10x_StdPeriph_Driver/src/stm32f10x_tim.c ****   else
 848:../libraries/STM32F10x_StdPeriph_Driver/src/stm32f10x_tim.c ****   {
 849:../libraries/STM32F10x_StdPeriph_Driver/src/stm32f10x_tim.c ****     /* Disable the TIM Main Output */
 850:../libraries/STM32F10x_StdPeriph_Driver/src/stm32f10x_tim.c ****     TIMx->BDTR &= (uint16_t)(~((uint16_t)TIM_BDTR_MOE));
 1804              		.loc 1 850 0
 1805 002c 7B68     		ldr	r3, [r7, #4]
 1806 002e B3F84430 		ldrh	r3, [r3, #68]	@ movhi
 1807 0032 9BB2     		uxth	r3, r3
 1808 0034 4FEA4343 		lsl	r3, r3, #17
 1809 0038 4FEA5343 		lsr	r3, r3, #17
 1810 003c 9AB2     		uxth	r2, r3
 1811 003e 7B68     		ldr	r3, [r7, #4]
 1812 0040 A3F84420 		strh	r2, [r3, #68]	@ movhi
 1813              	.L57:
 851:../libraries/STM32F10x_StdPeriph_Driver/src/stm32f10x_tim.c ****   }  
 852:../libraries/STM32F10x_StdPeriph_Driver/src/stm32f10x_tim.c **** }
 1814              		.loc 1 852 0
 1815 0044 07F10C07 		add	r7, r7, #12
 1816 0048 BD46     		mov	sp, r7
 1817 004a 80BC     		pop	{r7}
 1818 004c 7047     		bx	lr
 1819              		.cfi_endproc
 1820              	.LFE70:
 1822 004e 00BF     		.section	.text.TIM_ITConfig,"ax",%progbits
 1823              		.align	2
 1824              		.global	TIM_ITConfig
 1825              		.thumb
 1826              		.thumb_func
 1828              	TIM_ITConfig:
 1829              	.LFB71:
 853:../libraries/STM32F10x_StdPeriph_Driver/src/stm32f10x_tim.c **** 
 854:../libraries/STM32F10x_StdPeriph_Driver/src/stm32f10x_tim.c **** /**
 855:../libraries/STM32F10x_StdPeriph_Driver/src/stm32f10x_tim.c ****   * @brief  Enables or disables the specified TIM interrupts.
 856:../libraries/STM32F10x_StdPeriph_Driver/src/stm32f10x_tim.c ****   * @param  TIMx: where x can be 1 to 17 to select the TIMx peripheral.
 857:../libraries/STM32F10x_StdPeriph_Driver/src/stm32f10x_tim.c ****   * @param  TIM_IT: specifies the TIM interrupts sources to be enabled or disabled.
 858:../libraries/STM32F10x_StdPeriph_Driver/src/stm32f10x_tim.c ****   *   This parameter can be any combination of the following values:
 859:../libraries/STM32F10x_StdPeriph_Driver/src/stm32f10x_tim.c ****   *     @arg TIM_IT_Update: TIM update Interrupt source
 860:../libraries/STM32F10x_StdPeriph_Driver/src/stm32f10x_tim.c ****   *     @arg TIM_IT_CC1: TIM Capture Compare 1 Interrupt source
 861:../libraries/STM32F10x_StdPeriph_Driver/src/stm32f10x_tim.c ****   *     @arg TIM_IT_CC2: TIM Capture Compare 2 Interrupt source
 862:../libraries/STM32F10x_StdPeriph_Driver/src/stm32f10x_tim.c ****   *     @arg TIM_IT_CC3: TIM Capture Compare 3 Interrupt source
 863:../libraries/STM32F10x_StdPeriph_Driver/src/stm32f10x_tim.c ****   *     @arg TIM_IT_CC4: TIM Capture Compare 4 Interrupt source
 864:../libraries/STM32F10x_StdPeriph_Driver/src/stm32f10x_tim.c ****   *     @arg TIM_IT_COM: TIM Commutation Interrupt source
 865:../libraries/STM32F10x_StdPeriph_Driver/src/stm32f10x_tim.c ****   *     @arg TIM_IT_Trigger: TIM Trigger Interrupt source
 866:../libraries/STM32F10x_StdPeriph_Driver/src/stm32f10x_tim.c ****   *     @arg TIM_IT_Break: TIM Break Interrupt source
 867:../libraries/STM32F10x_StdPeriph_Driver/src/stm32f10x_tim.c ****   * @note 
 868:../libraries/STM32F10x_StdPeriph_Driver/src/stm32f10x_tim.c ****   *   - TIM6 and TIM7 can only generate an update interrupt.
 869:../libraries/STM32F10x_StdPeriph_Driver/src/stm32f10x_tim.c ****   *   - TIM9, TIM12 and TIM15 can have only TIM_IT_Update, TIM_IT_CC1,
 870:../libraries/STM32F10x_StdPeriph_Driver/src/stm32f10x_tim.c ****   *      TIM_IT_CC2 or TIM_IT_Trigger. 
 871:../libraries/STM32F10x_StdPeriph_Driver/src/stm32f10x_tim.c ****   *   - TIM10, TIM11, TIM13, TIM14, TIM16 and TIM17 can have TIM_IT_Update or TIM_IT_CC1.   
 872:../libraries/STM32F10x_StdPeriph_Driver/src/stm32f10x_tim.c ****   *   - TIM_IT_Break is used only with TIM1, TIM8 and TIM15. 
 873:../libraries/STM32F10x_StdPeriph_Driver/src/stm32f10x_tim.c ****   *   - TIM_IT_COM is used only with TIM1, TIM8, TIM15, TIM16 and TIM17.    
 874:../libraries/STM32F10x_StdPeriph_Driver/src/stm32f10x_tim.c ****   * @param  NewState: new state of the TIM interrupts.
 875:../libraries/STM32F10x_StdPeriph_Driver/src/stm32f10x_tim.c ****   *   This parameter can be: ENABLE or DISABLE.
 876:../libraries/STM32F10x_StdPeriph_Driver/src/stm32f10x_tim.c ****   * @retval None
 877:../libraries/STM32F10x_StdPeriph_Driver/src/stm32f10x_tim.c ****   */
 878:../libraries/STM32F10x_StdPeriph_Driver/src/stm32f10x_tim.c **** void TIM_ITConfig(TIM_TypeDef* TIMx, uint16_t TIM_IT, FunctionalState NewState)
 879:../libraries/STM32F10x_StdPeriph_Driver/src/stm32f10x_tim.c **** {  
 1830              		.loc 1 879 0
 1831              		.cfi_startproc
 1832              		@ args = 0, pretend = 0, frame = 8
 1833              		@ frame_needed = 1, uses_anonymous_args = 0
 1834              		@ link register save eliminated.
 1835 0000 80B4     		push	{r7}
 1836              	.LCFI45:
 1837              		.cfi_def_cfa_offset 4
 1838              		.cfi_offset 7, -4
 1839 0002 83B0     		sub	sp, sp, #12
 1840              	.LCFI46:
 1841              		.cfi_def_cfa_offset 16
 1842 0004 00AF     		add	r7, sp, #0
 1843              	.LCFI47:
 1844              		.cfi_def_cfa_register 7
 1845 0006 7860     		str	r0, [r7, #4]
 1846 0008 1346     		mov	r3, r2
 1847 000a 0A46     		mov	r2, r1	@ movhi
 1848 000c 7A80     		strh	r2, [r7, #2]	@ movhi
 1849 000e 7B70     		strb	r3, [r7, #1]
 880:../libraries/STM32F10x_StdPeriph_Driver/src/stm32f10x_tim.c ****   /* Check the parameters */
 881:../libraries/STM32F10x_StdPeriph_Driver/src/stm32f10x_tim.c ****   assert_param(IS_TIM_ALL_PERIPH(TIMx));
 882:../libraries/STM32F10x_StdPeriph_Driver/src/stm32f10x_tim.c ****   assert_param(IS_TIM_IT(TIM_IT));
 883:../libraries/STM32F10x_StdPeriph_Driver/src/stm32f10x_tim.c ****   assert_param(IS_FUNCTIONAL_STATE(NewState));
 884:../libraries/STM32F10x_StdPeriph_Driver/src/stm32f10x_tim.c ****   
 885:../libraries/STM32F10x_StdPeriph_Driver/src/stm32f10x_tim.c ****   if (NewState != DISABLE)
 1850              		.loc 1 885 0
 1851 0010 7B78     		ldrb	r3, [r7, #1]	@ zero_extendqisi2
 1852 0012 002B     		cmp	r3, #0
 1853 0014 08D0     		beq	.L61
 886:../libraries/STM32F10x_StdPeriph_Driver/src/stm32f10x_tim.c ****   {
 887:../libraries/STM32F10x_StdPeriph_Driver/src/stm32f10x_tim.c ****     /* Enable the Interrupt sources */
 888:../libraries/STM32F10x_StdPeriph_Driver/src/stm32f10x_tim.c ****     TIMx->DIER |= TIM_IT;
 1854              		.loc 1 888 0
 1855 0016 7B68     		ldr	r3, [r7, #4]
 1856 0018 9B89     		ldrh	r3, [r3, #12]	@ movhi
 1857 001a 9AB2     		uxth	r2, r3
 1858 001c 7B88     		ldrh	r3, [r7, #2]	@ movhi
 1859 001e 1343     		orrs	r3, r3, r2
 1860 0020 9AB2     		uxth	r2, r3
 1861 0022 7B68     		ldr	r3, [r7, #4]
 1862 0024 9A81     		strh	r2, [r3, #12]	@ movhi
 1863 0026 0AE0     		b	.L60
 1864              	.L61:
 889:../libraries/STM32F10x_StdPeriph_Driver/src/stm32f10x_tim.c ****   }
 890:../libraries/STM32F10x_StdPeriph_Driver/src/stm32f10x_tim.c ****   else
 891:../libraries/STM32F10x_StdPeriph_Driver/src/stm32f10x_tim.c ****   {
 892:../libraries/STM32F10x_StdPeriph_Driver/src/stm32f10x_tim.c ****     /* Disable the Interrupt sources */
 893:../libraries/STM32F10x_StdPeriph_Driver/src/stm32f10x_tim.c ****     TIMx->DIER &= (uint16_t)~TIM_IT;
 1865              		.loc 1 893 0
 1866 0028 7B68     		ldr	r3, [r7, #4]
 1867 002a 9B89     		ldrh	r3, [r3, #12]	@ movhi
 1868 002c 9AB2     		uxth	r2, r3
 1869 002e 7B88     		ldrh	r3, [r7, #2]	@ movhi
 1870 0030 6FEA0303 		mvn	r3, r3
 1871 0034 9BB2     		uxth	r3, r3
 1872 0036 1340     		ands	r3, r3, r2
 1873 0038 9AB2     		uxth	r2, r3
 1874 003a 7B68     		ldr	r3, [r7, #4]
 1875 003c 9A81     		strh	r2, [r3, #12]	@ movhi
 1876              	.L60:
 894:../libraries/STM32F10x_StdPeriph_Driver/src/stm32f10x_tim.c ****   }
 895:../libraries/STM32F10x_StdPeriph_Driver/src/stm32f10x_tim.c **** }
 1877              		.loc 1 895 0
 1878 003e 07F10C07 		add	r7, r7, #12
 1879 0042 BD46     		mov	sp, r7
 1880 0044 80BC     		pop	{r7}
 1881 0046 7047     		bx	lr
 1882              		.cfi_endproc
 1883              	.LFE71:
 1885              		.section	.text.TIM_GenerateEvent,"ax",%progbits
 1886              		.align	2
 1887              		.global	TIM_GenerateEvent
 1888              		.thumb
 1889              		.thumb_func
 1891              	TIM_GenerateEvent:
 1892              	.LFB72:
 896:../libraries/STM32F10x_StdPeriph_Driver/src/stm32f10x_tim.c **** 
 897:../libraries/STM32F10x_StdPeriph_Driver/src/stm32f10x_tim.c **** /**
 898:../libraries/STM32F10x_StdPeriph_Driver/src/stm32f10x_tim.c ****   * @brief  Configures the TIMx event to be generate by software.
 899:../libraries/STM32F10x_StdPeriph_Driver/src/stm32f10x_tim.c ****   * @param  TIMx: where x can be 1 to 17 to select the TIM peripheral.
 900:../libraries/STM32F10x_StdPeriph_Driver/src/stm32f10x_tim.c ****   * @param  TIM_EventSource: specifies the event source.
 901:../libraries/STM32F10x_StdPeriph_Driver/src/stm32f10x_tim.c ****   *   This parameter can be one or more of the following values:	   
 902:../libraries/STM32F10x_StdPeriph_Driver/src/stm32f10x_tim.c ****   *     @arg TIM_EventSource_Update: Timer update Event source
 903:../libraries/STM32F10x_StdPeriph_Driver/src/stm32f10x_tim.c ****   *     @arg TIM_EventSource_CC1: Timer Capture Compare 1 Event source
 904:../libraries/STM32F10x_StdPeriph_Driver/src/stm32f10x_tim.c ****   *     @arg TIM_EventSource_CC2: Timer Capture Compare 2 Event source
 905:../libraries/STM32F10x_StdPeriph_Driver/src/stm32f10x_tim.c ****   *     @arg TIM_EventSource_CC3: Timer Capture Compare 3 Event source
 906:../libraries/STM32F10x_StdPeriph_Driver/src/stm32f10x_tim.c ****   *     @arg TIM_EventSource_CC4: Timer Capture Compare 4 Event source
 907:../libraries/STM32F10x_StdPeriph_Driver/src/stm32f10x_tim.c ****   *     @arg TIM_EventSource_COM: Timer COM event source  
 908:../libraries/STM32F10x_StdPeriph_Driver/src/stm32f10x_tim.c ****   *     @arg TIM_EventSource_Trigger: Timer Trigger Event source
 909:../libraries/STM32F10x_StdPeriph_Driver/src/stm32f10x_tim.c ****   *     @arg TIM_EventSource_Break: Timer Break event source
 910:../libraries/STM32F10x_StdPeriph_Driver/src/stm32f10x_tim.c ****   * @note 
 911:../libraries/STM32F10x_StdPeriph_Driver/src/stm32f10x_tim.c ****   *   - TIM6 and TIM7 can only generate an update event. 
 912:../libraries/STM32F10x_StdPeriph_Driver/src/stm32f10x_tim.c ****   *   - TIM_EventSource_COM and TIM_EventSource_Break are used only with TIM1 and TIM8.      
 913:../libraries/STM32F10x_StdPeriph_Driver/src/stm32f10x_tim.c ****   * @retval None
 914:../libraries/STM32F10x_StdPeriph_Driver/src/stm32f10x_tim.c ****   */
 915:../libraries/STM32F10x_StdPeriph_Driver/src/stm32f10x_tim.c **** void TIM_GenerateEvent(TIM_TypeDef* TIMx, uint16_t TIM_EventSource)
 916:../libraries/STM32F10x_StdPeriph_Driver/src/stm32f10x_tim.c **** { 
 1893              		.loc 1 916 0
 1894              		.cfi_startproc
 1895              		@ args = 0, pretend = 0, frame = 8
 1896              		@ frame_needed = 1, uses_anonymous_args = 0
 1897              		@ link register save eliminated.
 1898 0000 80B4     		push	{r7}
 1899              	.LCFI48:
 1900              		.cfi_def_cfa_offset 4
 1901              		.cfi_offset 7, -4
 1902 0002 83B0     		sub	sp, sp, #12
 1903              	.LCFI49:
 1904              		.cfi_def_cfa_offset 16
 1905 0004 00AF     		add	r7, sp, #0
 1906              	.LCFI50:
 1907              		.cfi_def_cfa_register 7
 1908 0006 7860     		str	r0, [r7, #4]
 1909 0008 0B46     		mov	r3, r1
 1910 000a 7B80     		strh	r3, [r7, #2]	@ movhi
 917:../libraries/STM32F10x_StdPeriph_Driver/src/stm32f10x_tim.c ****   /* Check the parameters */
 918:../libraries/STM32F10x_StdPeriph_Driver/src/stm32f10x_tim.c ****   assert_param(IS_TIM_ALL_PERIPH(TIMx));
 919:../libraries/STM32F10x_StdPeriph_Driver/src/stm32f10x_tim.c ****   assert_param(IS_TIM_EVENT_SOURCE(TIM_EventSource));
 920:../libraries/STM32F10x_StdPeriph_Driver/src/stm32f10x_tim.c ****   
 921:../libraries/STM32F10x_StdPeriph_Driver/src/stm32f10x_tim.c ****   /* Set the event sources */
 922:../libraries/STM32F10x_StdPeriph_Driver/src/stm32f10x_tim.c ****   TIMx->EGR = TIM_EventSource;
 1911              		.loc 1 922 0
 1912 000c 7B68     		ldr	r3, [r7, #4]
 1913 000e 7A88     		ldrh	r2, [r7, #2]	@ movhi
 1914 0010 9A82     		strh	r2, [r3, #20]	@ movhi
 923:../libraries/STM32F10x_StdPeriph_Driver/src/stm32f10x_tim.c **** }
 1915              		.loc 1 923 0
 1916 0012 07F10C07 		add	r7, r7, #12
 1917 0016 BD46     		mov	sp, r7
 1918 0018 80BC     		pop	{r7}
 1919 001a 7047     		bx	lr
 1920              		.cfi_endproc
 1921              	.LFE72:
 1923              		.section	.text.TIM_DMAConfig,"ax",%progbits
 1924              		.align	2
 1925              		.global	TIM_DMAConfig
 1926              		.thumb
 1927              		.thumb_func
 1929              	TIM_DMAConfig:
 1930              	.LFB73:
 924:../libraries/STM32F10x_StdPeriph_Driver/src/stm32f10x_tim.c **** 
 925:../libraries/STM32F10x_StdPeriph_Driver/src/stm32f10x_tim.c **** /**
 926:../libraries/STM32F10x_StdPeriph_Driver/src/stm32f10x_tim.c ****   * @brief  Configures the TIMx's DMA interface.
 927:../libraries/STM32F10x_StdPeriph_Driver/src/stm32f10x_tim.c ****   * @param  TIMx: where x can be  1, 2, 3, 4, 5, 8, 15, 16 or 17 to select 
 928:../libraries/STM32F10x_StdPeriph_Driver/src/stm32f10x_tim.c ****   *   the TIM peripheral.
 929:../libraries/STM32F10x_StdPeriph_Driver/src/stm32f10x_tim.c ****   * @param  TIM_DMABase: DMA Base address.
 930:../libraries/STM32F10x_StdPeriph_Driver/src/stm32f10x_tim.c ****   *   This parameter can be one of the following values:
 931:../libraries/STM32F10x_StdPeriph_Driver/src/stm32f10x_tim.c ****   *     @arg TIM_DMABase_CR, TIM_DMABase_CR2, TIM_DMABase_SMCR,
 932:../libraries/STM32F10x_StdPeriph_Driver/src/stm32f10x_tim.c ****   *          TIM_DMABase_DIER, TIM1_DMABase_SR, TIM_DMABase_EGR,
 933:../libraries/STM32F10x_StdPeriph_Driver/src/stm32f10x_tim.c ****   *          TIM_DMABase_CCMR1, TIM_DMABase_CCMR2, TIM_DMABase_CCER,
 934:../libraries/STM32F10x_StdPeriph_Driver/src/stm32f10x_tim.c ****   *          TIM_DMABase_CNT, TIM_DMABase_PSC, TIM_DMABase_ARR,
 935:../libraries/STM32F10x_StdPeriph_Driver/src/stm32f10x_tim.c ****   *          TIM_DMABase_RCR, TIM_DMABase_CCR1, TIM_DMABase_CCR2,
 936:../libraries/STM32F10x_StdPeriph_Driver/src/stm32f10x_tim.c ****   *          TIM_DMABase_CCR3, TIM_DMABase_CCR4, TIM_DMABase_BDTR,
 937:../libraries/STM32F10x_StdPeriph_Driver/src/stm32f10x_tim.c ****   *          TIM_DMABase_DCR.
 938:../libraries/STM32F10x_StdPeriph_Driver/src/stm32f10x_tim.c ****   * @param  TIM_DMABurstLength: DMA Burst length.
 939:../libraries/STM32F10x_StdPeriph_Driver/src/stm32f10x_tim.c ****   *   This parameter can be one value between:
 940:../libraries/STM32F10x_StdPeriph_Driver/src/stm32f10x_tim.c ****   *   TIM_DMABurstLength_1Transfer and TIM_DMABurstLength_18Transfers.
 941:../libraries/STM32F10x_StdPeriph_Driver/src/stm32f10x_tim.c ****   * @retval None
 942:../libraries/STM32F10x_StdPeriph_Driver/src/stm32f10x_tim.c ****   */
 943:../libraries/STM32F10x_StdPeriph_Driver/src/stm32f10x_tim.c **** void TIM_DMAConfig(TIM_TypeDef* TIMx, uint16_t TIM_DMABase, uint16_t TIM_DMABurstLength)
 944:../libraries/STM32F10x_StdPeriph_Driver/src/stm32f10x_tim.c **** {
 1931              		.loc 1 944 0
 1932              		.cfi_startproc
 1933              		@ args = 0, pretend = 0, frame = 8
 1934              		@ frame_needed = 1, uses_anonymous_args = 0
 1935              		@ link register save eliminated.
 1936 0000 80B4     		push	{r7}
 1937              	.LCFI51:
 1938              		.cfi_def_cfa_offset 4
 1939              		.cfi_offset 7, -4
 1940 0002 83B0     		sub	sp, sp, #12
 1941              	.LCFI52:
 1942              		.cfi_def_cfa_offset 16
 1943 0004 00AF     		add	r7, sp, #0
 1944              	.LCFI53:
 1945              		.cfi_def_cfa_register 7
 1946 0006 7860     		str	r0, [r7, #4]
 1947 0008 1346     		mov	r3, r2
 1948 000a 0A46     		mov	r2, r1	@ movhi
 1949 000c 7A80     		strh	r2, [r7, #2]	@ movhi
 1950 000e 3B80     		strh	r3, [r7, #0]	@ movhi
 945:../libraries/STM32F10x_StdPeriph_Driver/src/stm32f10x_tim.c ****   /* Check the parameters */
 946:../libraries/STM32F10x_StdPeriph_Driver/src/stm32f10x_tim.c ****   assert_param(IS_TIM_LIST4_PERIPH(TIMx));
 947:../libraries/STM32F10x_StdPeriph_Driver/src/stm32f10x_tim.c ****   assert_param(IS_TIM_DMA_BASE(TIM_DMABase));
 948:../libraries/STM32F10x_StdPeriph_Driver/src/stm32f10x_tim.c ****   assert_param(IS_TIM_DMA_LENGTH(TIM_DMABurstLength));
 949:../libraries/STM32F10x_StdPeriph_Driver/src/stm32f10x_tim.c ****   /* Set the DMA Base and the DMA Burst Length */
 950:../libraries/STM32F10x_StdPeriph_Driver/src/stm32f10x_tim.c ****   TIMx->DCR = TIM_DMABase | TIM_DMABurstLength;
 1951              		.loc 1 950 0
 1952 0010 7A88     		ldrh	r2, [r7, #2]	@ movhi
 1953 0012 3B88     		ldrh	r3, [r7, #0]	@ movhi
 1954 0014 1343     		orrs	r3, r3, r2
 1955 0016 9AB2     		uxth	r2, r3
 1956 0018 7B68     		ldr	r3, [r7, #4]
 1957 001a A3F84820 		strh	r2, [r3, #72]	@ movhi
 951:../libraries/STM32F10x_StdPeriph_Driver/src/stm32f10x_tim.c **** }
 1958              		.loc 1 951 0
 1959 001e 07F10C07 		add	r7, r7, #12
 1960 0022 BD46     		mov	sp, r7
 1961 0024 80BC     		pop	{r7}
 1962 0026 7047     		bx	lr
 1963              		.cfi_endproc
 1964              	.LFE73:
 1966              		.section	.text.TIM_DMACmd,"ax",%progbits
 1967              		.align	2
 1968              		.global	TIM_DMACmd
 1969              		.thumb
 1970              		.thumb_func
 1972              	TIM_DMACmd:
 1973              	.LFB74:
 952:../libraries/STM32F10x_StdPeriph_Driver/src/stm32f10x_tim.c **** 
 953:../libraries/STM32F10x_StdPeriph_Driver/src/stm32f10x_tim.c **** /**
 954:../libraries/STM32F10x_StdPeriph_Driver/src/stm32f10x_tim.c ****   * @brief  Enables or disables the TIMx's DMA Requests.
 955:../libraries/STM32F10x_StdPeriph_Driver/src/stm32f10x_tim.c ****   * @param  TIMx: where x can be  1, 2, 3, 4, 5, 6, 7, 8, 15, 16 or 17 
 956:../libraries/STM32F10x_StdPeriph_Driver/src/stm32f10x_tim.c ****   *   to select the TIM peripheral. 
 957:../libraries/STM32F10x_StdPeriph_Driver/src/stm32f10x_tim.c ****   * @param  TIM_DMASource: specifies the DMA Request sources.
 958:../libraries/STM32F10x_StdPeriph_Driver/src/stm32f10x_tim.c ****   *   This parameter can be any combination of the following values:
 959:../libraries/STM32F10x_StdPeriph_Driver/src/stm32f10x_tim.c ****   *     @arg TIM_DMA_Update: TIM update Interrupt source
 960:../libraries/STM32F10x_StdPeriph_Driver/src/stm32f10x_tim.c ****   *     @arg TIM_DMA_CC1: TIM Capture Compare 1 DMA source
 961:../libraries/STM32F10x_StdPeriph_Driver/src/stm32f10x_tim.c ****   *     @arg TIM_DMA_CC2: TIM Capture Compare 2 DMA source
 962:../libraries/STM32F10x_StdPeriph_Driver/src/stm32f10x_tim.c ****   *     @arg TIM_DMA_CC3: TIM Capture Compare 3 DMA source
 963:../libraries/STM32F10x_StdPeriph_Driver/src/stm32f10x_tim.c ****   *     @arg TIM_DMA_CC4: TIM Capture Compare 4 DMA source
 964:../libraries/STM32F10x_StdPeriph_Driver/src/stm32f10x_tim.c ****   *     @arg TIM_DMA_COM: TIM Commutation DMA source
 965:../libraries/STM32F10x_StdPeriph_Driver/src/stm32f10x_tim.c ****   *     @arg TIM_DMA_Trigger: TIM Trigger DMA source
 966:../libraries/STM32F10x_StdPeriph_Driver/src/stm32f10x_tim.c ****   * @param  NewState: new state of the DMA Request sources.
 967:../libraries/STM32F10x_StdPeriph_Driver/src/stm32f10x_tim.c ****   *   This parameter can be: ENABLE or DISABLE.
 968:../libraries/STM32F10x_StdPeriph_Driver/src/stm32f10x_tim.c ****   * @retval None
 969:../libraries/STM32F10x_StdPeriph_Driver/src/stm32f10x_tim.c ****   */
 970:../libraries/STM32F10x_StdPeriph_Driver/src/stm32f10x_tim.c **** void TIM_DMACmd(TIM_TypeDef* TIMx, uint16_t TIM_DMASource, FunctionalState NewState)
 971:../libraries/STM32F10x_StdPeriph_Driver/src/stm32f10x_tim.c **** { 
 1974              		.loc 1 971 0
 1975              		.cfi_startproc
 1976              		@ args = 0, pretend = 0, frame = 8
 1977              		@ frame_needed = 1, uses_anonymous_args = 0
 1978              		@ link register save eliminated.
 1979 0000 80B4     		push	{r7}
 1980              	.LCFI54:
 1981              		.cfi_def_cfa_offset 4
 1982              		.cfi_offset 7, -4
 1983 0002 83B0     		sub	sp, sp, #12
 1984              	.LCFI55:
 1985              		.cfi_def_cfa_offset 16
 1986 0004 00AF     		add	r7, sp, #0
 1987              	.LCFI56:
 1988              		.cfi_def_cfa_register 7
 1989 0006 7860     		str	r0, [r7, #4]
 1990 0008 1346     		mov	r3, r2
 1991 000a 0A46     		mov	r2, r1	@ movhi
 1992 000c 7A80     		strh	r2, [r7, #2]	@ movhi
 1993 000e 7B70     		strb	r3, [r7, #1]
 972:../libraries/STM32F10x_StdPeriph_Driver/src/stm32f10x_tim.c ****   /* Check the parameters */
 973:../libraries/STM32F10x_StdPeriph_Driver/src/stm32f10x_tim.c ****   assert_param(IS_TIM_LIST9_PERIPH(TIMx));
 974:../libraries/STM32F10x_StdPeriph_Driver/src/stm32f10x_tim.c ****   assert_param(IS_TIM_DMA_SOURCE(TIM_DMASource));
 975:../libraries/STM32F10x_StdPeriph_Driver/src/stm32f10x_tim.c ****   assert_param(IS_FUNCTIONAL_STATE(NewState));
 976:../libraries/STM32F10x_StdPeriph_Driver/src/stm32f10x_tim.c ****   
 977:../libraries/STM32F10x_StdPeriph_Driver/src/stm32f10x_tim.c ****   if (NewState != DISABLE)
 1994              		.loc 1 977 0
 1995 0010 7B78     		ldrb	r3, [r7, #1]	@ zero_extendqisi2
 1996 0012 002B     		cmp	r3, #0
 1997 0014 08D0     		beq	.L66
 978:../libraries/STM32F10x_StdPeriph_Driver/src/stm32f10x_tim.c ****   {
 979:../libraries/STM32F10x_StdPeriph_Driver/src/stm32f10x_tim.c ****     /* Enable the DMA sources */
 980:../libraries/STM32F10x_StdPeriph_Driver/src/stm32f10x_tim.c ****     TIMx->DIER |= TIM_DMASource; 
 1998              		.loc 1 980 0
 1999 0016 7B68     		ldr	r3, [r7, #4]
 2000 0018 9B89     		ldrh	r3, [r3, #12]	@ movhi
 2001 001a 9AB2     		uxth	r2, r3
 2002 001c 7B88     		ldrh	r3, [r7, #2]	@ movhi
 2003 001e 1343     		orrs	r3, r3, r2
 2004 0020 9AB2     		uxth	r2, r3
 2005 0022 7B68     		ldr	r3, [r7, #4]
 2006 0024 9A81     		strh	r2, [r3, #12]	@ movhi
 2007 0026 0AE0     		b	.L65
 2008              	.L66:
 981:../libraries/STM32F10x_StdPeriph_Driver/src/stm32f10x_tim.c ****   }
 982:../libraries/STM32F10x_StdPeriph_Driver/src/stm32f10x_tim.c ****   else
 983:../libraries/STM32F10x_StdPeriph_Driver/src/stm32f10x_tim.c ****   {
 984:../libraries/STM32F10x_StdPeriph_Driver/src/stm32f10x_tim.c ****     /* Disable the DMA sources */
 985:../libraries/STM32F10x_StdPeriph_Driver/src/stm32f10x_tim.c ****     TIMx->DIER &= (uint16_t)~TIM_DMASource;
 2009              		.loc 1 985 0
 2010 0028 7B68     		ldr	r3, [r7, #4]
 2011 002a 9B89     		ldrh	r3, [r3, #12]	@ movhi
 2012 002c 9AB2     		uxth	r2, r3
 2013 002e 7B88     		ldrh	r3, [r7, #2]	@ movhi
 2014 0030 6FEA0303 		mvn	r3, r3
 2015 0034 9BB2     		uxth	r3, r3
 2016 0036 1340     		ands	r3, r3, r2
 2017 0038 9AB2     		uxth	r2, r3
 2018 003a 7B68     		ldr	r3, [r7, #4]
 2019 003c 9A81     		strh	r2, [r3, #12]	@ movhi
 2020              	.L65:
 986:../libraries/STM32F10x_StdPeriph_Driver/src/stm32f10x_tim.c ****   }
 987:../libraries/STM32F10x_StdPeriph_Driver/src/stm32f10x_tim.c **** }
 2021              		.loc 1 987 0
 2022 003e 07F10C07 		add	r7, r7, #12
 2023 0042 BD46     		mov	sp, r7
 2024 0044 80BC     		pop	{r7}
 2025 0046 7047     		bx	lr
 2026              		.cfi_endproc
 2027              	.LFE74:
 2029              		.section	.text.TIM_InternalClockConfig,"ax",%progbits
 2030              		.align	2
 2031              		.global	TIM_InternalClockConfig
 2032              		.thumb
 2033              		.thumb_func
 2035              	TIM_InternalClockConfig:
 2036              	.LFB75:
 988:../libraries/STM32F10x_StdPeriph_Driver/src/stm32f10x_tim.c **** 
 989:../libraries/STM32F10x_StdPeriph_Driver/src/stm32f10x_tim.c **** /**
 990:../libraries/STM32F10x_StdPeriph_Driver/src/stm32f10x_tim.c ****   * @brief  Configures the TIMx internal Clock
 991:../libraries/STM32F10x_StdPeriph_Driver/src/stm32f10x_tim.c ****   * @param  TIMx: where x can be  1, 2, 3, 4, 5, 8, 9, 12 or 15
 992:../libraries/STM32F10x_StdPeriph_Driver/src/stm32f10x_tim.c ****   *         to select the TIM peripheral.
 993:../libraries/STM32F10x_StdPeriph_Driver/src/stm32f10x_tim.c ****   * @retval None
 994:../libraries/STM32F10x_StdPeriph_Driver/src/stm32f10x_tim.c ****   */
 995:../libraries/STM32F10x_StdPeriph_Driver/src/stm32f10x_tim.c **** void TIM_InternalClockConfig(TIM_TypeDef* TIMx)
 996:../libraries/STM32F10x_StdPeriph_Driver/src/stm32f10x_tim.c **** {
 2037              		.loc 1 996 0
 2038              		.cfi_startproc
 2039              		@ args = 0, pretend = 0, frame = 8
 2040              		@ frame_needed = 1, uses_anonymous_args = 0
 2041              		@ link register save eliminated.
 2042 0000 80B4     		push	{r7}
 2043              	.LCFI57:
 2044              		.cfi_def_cfa_offset 4
 2045              		.cfi_offset 7, -4
 2046 0002 83B0     		sub	sp, sp, #12
 2047              	.LCFI58:
 2048              		.cfi_def_cfa_offset 16
 2049 0004 00AF     		add	r7, sp, #0
 2050              	.LCFI59:
 2051              		.cfi_def_cfa_register 7
 2052 0006 7860     		str	r0, [r7, #4]
 997:../libraries/STM32F10x_StdPeriph_Driver/src/stm32f10x_tim.c ****   /* Check the parameters */
 998:../libraries/STM32F10x_StdPeriph_Driver/src/stm32f10x_tim.c ****   assert_param(IS_TIM_LIST6_PERIPH(TIMx));
 999:../libraries/STM32F10x_StdPeriph_Driver/src/stm32f10x_tim.c ****   /* Disable slave mode to clock the prescaler directly with the internal clock */
1000:../libraries/STM32F10x_StdPeriph_Driver/src/stm32f10x_tim.c ****   TIMx->SMCR &=  (uint16_t)(~((uint16_t)TIM_SMCR_SMS));
 2053              		.loc 1 1000 0
 2054 0008 7B68     		ldr	r3, [r7, #4]
 2055 000a 1B89     		ldrh	r3, [r3, #8]	@ movhi
 2056 000c 9BB2     		uxth	r3, r3
 2057 000e 23F00703 		bic	r3, r3, #7
 2058 0012 9AB2     		uxth	r2, r3
 2059 0014 7B68     		ldr	r3, [r7, #4]
 2060 0016 1A81     		strh	r2, [r3, #8]	@ movhi
1001:../libraries/STM32F10x_StdPeriph_Driver/src/stm32f10x_tim.c **** }
 2061              		.loc 1 1001 0
 2062 0018 07F10C07 		add	r7, r7, #12
 2063 001c BD46     		mov	sp, r7
 2064 001e 80BC     		pop	{r7}
 2065 0020 7047     		bx	lr
 2066              		.cfi_endproc
 2067              	.LFE75:
 2069 0022 00BF     		.section	.text.TIM_ITRxExternalClockConfig,"ax",%progbits
 2070              		.align	2
 2071              		.global	TIM_ITRxExternalClockConfig
 2072              		.thumb
 2073              		.thumb_func
 2075              	TIM_ITRxExternalClockConfig:
 2076              	.LFB76:
1002:../libraries/STM32F10x_StdPeriph_Driver/src/stm32f10x_tim.c **** 
1003:../libraries/STM32F10x_StdPeriph_Driver/src/stm32f10x_tim.c **** /**
1004:../libraries/STM32F10x_StdPeriph_Driver/src/stm32f10x_tim.c ****   * @brief  Configures the TIMx Internal Trigger as External Clock
1005:../libraries/STM32F10x_StdPeriph_Driver/src/stm32f10x_tim.c ****   * @param  TIMx: where x can be  1, 2, 3, 4, 5, 9, 12 or 15 to select the TIM peripheral.
1006:../libraries/STM32F10x_StdPeriph_Driver/src/stm32f10x_tim.c ****   * @param  TIM_ITRSource: Trigger source.
1007:../libraries/STM32F10x_StdPeriph_Driver/src/stm32f10x_tim.c ****   *   This parameter can be one of the following values:
1008:../libraries/STM32F10x_StdPeriph_Driver/src/stm32f10x_tim.c ****   * @param  TIM_TS_ITR0: Internal Trigger 0
1009:../libraries/STM32F10x_StdPeriph_Driver/src/stm32f10x_tim.c ****   * @param  TIM_TS_ITR1: Internal Trigger 1
1010:../libraries/STM32F10x_StdPeriph_Driver/src/stm32f10x_tim.c ****   * @param  TIM_TS_ITR2: Internal Trigger 2
1011:../libraries/STM32F10x_StdPeriph_Driver/src/stm32f10x_tim.c ****   * @param  TIM_TS_ITR3: Internal Trigger 3
1012:../libraries/STM32F10x_StdPeriph_Driver/src/stm32f10x_tim.c ****   * @retval None
1013:../libraries/STM32F10x_StdPeriph_Driver/src/stm32f10x_tim.c ****   */
1014:../libraries/STM32F10x_StdPeriph_Driver/src/stm32f10x_tim.c **** void TIM_ITRxExternalClockConfig(TIM_TypeDef* TIMx, uint16_t TIM_InputTriggerSource)
1015:../libraries/STM32F10x_StdPeriph_Driver/src/stm32f10x_tim.c **** {
 2077              		.loc 1 1015 0
 2078              		.cfi_startproc
 2079              		@ args = 0, pretend = 0, frame = 8
 2080              		@ frame_needed = 1, uses_anonymous_args = 0
 2081 0000 80B5     		push	{r7, lr}
 2082              	.LCFI60:
 2083              		.cfi_def_cfa_offset 8
 2084              		.cfi_offset 7, -8
 2085              		.cfi_offset 14, -4
 2086 0002 82B0     		sub	sp, sp, #8
 2087              	.LCFI61:
 2088              		.cfi_def_cfa_offset 16
 2089 0004 00AF     		add	r7, sp, #0
 2090              	.LCFI62:
 2091              		.cfi_def_cfa_register 7
 2092 0006 7860     		str	r0, [r7, #4]
 2093 0008 0B46     		mov	r3, r1
 2094 000a 7B80     		strh	r3, [r7, #2]	@ movhi
1016:../libraries/STM32F10x_StdPeriph_Driver/src/stm32f10x_tim.c ****   /* Check the parameters */
1017:../libraries/STM32F10x_StdPeriph_Driver/src/stm32f10x_tim.c ****   assert_param(IS_TIM_LIST6_PERIPH(TIMx));
1018:../libraries/STM32F10x_StdPeriph_Driver/src/stm32f10x_tim.c ****   assert_param(IS_TIM_INTERNAL_TRIGGER_SELECTION(TIM_InputTriggerSource));
1019:../libraries/STM32F10x_StdPeriph_Driver/src/stm32f10x_tim.c ****   /* Select the Internal Trigger */
1020:../libraries/STM32F10x_StdPeriph_Driver/src/stm32f10x_tim.c ****   TIM_SelectInputTrigger(TIMx, TIM_InputTriggerSource);
 2095              		.loc 1 1020 0
 2096 000c 7B88     		ldrh	r3, [r7, #2]
 2097 000e 7868     		ldr	r0, [r7, #4]
 2098 0010 1946     		mov	r1, r3
 2099 0012 FFF7FEFF 		bl	TIM_SelectInputTrigger
1021:../libraries/STM32F10x_StdPeriph_Driver/src/stm32f10x_tim.c ****   /* Select the External clock mode1 */
1022:../libraries/STM32F10x_StdPeriph_Driver/src/stm32f10x_tim.c ****   TIMx->SMCR |= TIM_SlaveMode_External1;
 2100              		.loc 1 1022 0
 2101 0016 7B68     		ldr	r3, [r7, #4]
 2102 0018 1B89     		ldrh	r3, [r3, #8]	@ movhi
 2103 001a 9BB2     		uxth	r3, r3
 2104 001c 43F00703 		orr	r3, r3, #7
 2105 0020 9AB2     		uxth	r2, r3
 2106 0022 7B68     		ldr	r3, [r7, #4]
 2107 0024 1A81     		strh	r2, [r3, #8]	@ movhi
1023:../libraries/STM32F10x_StdPeriph_Driver/src/stm32f10x_tim.c **** }
 2108              		.loc 1 1023 0
 2109 0026 07F10807 		add	r7, r7, #8
 2110 002a BD46     		mov	sp, r7
 2111 002c 80BD     		pop	{r7, pc}
 2112              		.cfi_endproc
 2113              	.LFE76:
 2115 002e 00BF     		.section	.text.TIM_TIxExternalClockConfig,"ax",%progbits
 2116              		.align	2
 2117              		.global	TIM_TIxExternalClockConfig
 2118              		.thumb
 2119              		.thumb_func
 2121              	TIM_TIxExternalClockConfig:
 2122              	.LFB77:
1024:../libraries/STM32F10x_StdPeriph_Driver/src/stm32f10x_tim.c **** 
1025:../libraries/STM32F10x_StdPeriph_Driver/src/stm32f10x_tim.c **** /**
1026:../libraries/STM32F10x_StdPeriph_Driver/src/stm32f10x_tim.c ****   * @brief  Configures the TIMx Trigger as External Clock
1027:../libraries/STM32F10x_StdPeriph_Driver/src/stm32f10x_tim.c ****   * @param  TIMx: where x can be  1, 2, 3, 4, 5, 9, 12 or 15 to select the TIM peripheral.
1028:../libraries/STM32F10x_StdPeriph_Driver/src/stm32f10x_tim.c ****   * @param  TIM_TIxExternalCLKSource: Trigger source.
1029:../libraries/STM32F10x_StdPeriph_Driver/src/stm32f10x_tim.c ****   *   This parameter can be one of the following values:
1030:../libraries/STM32F10x_StdPeriph_Driver/src/stm32f10x_tim.c ****   *     @arg TIM_TIxExternalCLK1Source_TI1ED: TI1 Edge Detector
1031:../libraries/STM32F10x_StdPeriph_Driver/src/stm32f10x_tim.c ****   *     @arg TIM_TIxExternalCLK1Source_TI1: Filtered Timer Input 1
1032:../libraries/STM32F10x_StdPeriph_Driver/src/stm32f10x_tim.c ****   *     @arg TIM_TIxExternalCLK1Source_TI2: Filtered Timer Input 2
1033:../libraries/STM32F10x_StdPeriph_Driver/src/stm32f10x_tim.c ****   * @param  TIM_ICPolarity: specifies the TIx Polarity.
1034:../libraries/STM32F10x_StdPeriph_Driver/src/stm32f10x_tim.c ****   *   This parameter can be one of the following values:
1035:../libraries/STM32F10x_StdPeriph_Driver/src/stm32f10x_tim.c ****   *     @arg TIM_ICPolarity_Rising
1036:../libraries/STM32F10x_StdPeriph_Driver/src/stm32f10x_tim.c ****   *     @arg TIM_ICPolarity_Falling
1037:../libraries/STM32F10x_StdPeriph_Driver/src/stm32f10x_tim.c ****   * @param  ICFilter : specifies the filter value.
1038:../libraries/STM32F10x_StdPeriph_Driver/src/stm32f10x_tim.c ****   *   This parameter must be a value between 0x0 and 0xF.
1039:../libraries/STM32F10x_StdPeriph_Driver/src/stm32f10x_tim.c ****   * @retval None
1040:../libraries/STM32F10x_StdPeriph_Driver/src/stm32f10x_tim.c ****   */
1041:../libraries/STM32F10x_StdPeriph_Driver/src/stm32f10x_tim.c **** void TIM_TIxExternalClockConfig(TIM_TypeDef* TIMx, uint16_t TIM_TIxExternalCLKSource,
1042:../libraries/STM32F10x_StdPeriph_Driver/src/stm32f10x_tim.c ****                                 uint16_t TIM_ICPolarity, uint16_t ICFilter)
1043:../libraries/STM32F10x_StdPeriph_Driver/src/stm32f10x_tim.c **** {
 2123              		.loc 1 1043 0
 2124              		.cfi_startproc
 2125              		@ args = 0, pretend = 0, frame = 16
 2126              		@ frame_needed = 1, uses_anonymous_args = 0
 2127 0000 80B5     		push	{r7, lr}
 2128              	.LCFI63:
 2129              		.cfi_def_cfa_offset 8
 2130              		.cfi_offset 7, -8
 2131              		.cfi_offset 14, -4
 2132 0002 84B0     		sub	sp, sp, #16
 2133              	.LCFI64:
 2134              		.cfi_def_cfa_offset 24
 2135 0004 00AF     		add	r7, sp, #0
 2136              	.LCFI65:
 2137              		.cfi_def_cfa_register 7
 2138 0006 F860     		str	r0, [r7, #12]
 2139 0008 7981     		strh	r1, [r7, #10]	@ movhi
 2140 000a 3A81     		strh	r2, [r7, #8]	@ movhi
 2141 000c FB80     		strh	r3, [r7, #6]	@ movhi
1044:../libraries/STM32F10x_StdPeriph_Driver/src/stm32f10x_tim.c ****   /* Check the parameters */
1045:../libraries/STM32F10x_StdPeriph_Driver/src/stm32f10x_tim.c ****   assert_param(IS_TIM_LIST6_PERIPH(TIMx));
1046:../libraries/STM32F10x_StdPeriph_Driver/src/stm32f10x_tim.c ****   assert_param(IS_TIM_TIXCLK_SOURCE(TIM_TIxExternalCLKSource));
1047:../libraries/STM32F10x_StdPeriph_Driver/src/stm32f10x_tim.c ****   assert_param(IS_TIM_IC_POLARITY(TIM_ICPolarity));
1048:../libraries/STM32F10x_StdPeriph_Driver/src/stm32f10x_tim.c ****   assert_param(IS_TIM_IC_FILTER(ICFilter));
1049:../libraries/STM32F10x_StdPeriph_Driver/src/stm32f10x_tim.c ****   /* Configure the Timer Input Clock Source */
1050:../libraries/STM32F10x_StdPeriph_Driver/src/stm32f10x_tim.c ****   if (TIM_TIxExternalCLKSource == TIM_TIxExternalCLK1Source_TI2)
 2142              		.loc 1 1050 0
 2143 000e 7B89     		ldrh	r3, [r7, #10]
 2144 0010 602B     		cmp	r3, #96
 2145 0012 08D1     		bne	.L71
1051:../libraries/STM32F10x_StdPeriph_Driver/src/stm32f10x_tim.c ****   {
1052:../libraries/STM32F10x_StdPeriph_Driver/src/stm32f10x_tim.c ****     TI2_Config(TIMx, TIM_ICPolarity, TIM_ICSelection_DirectTI, ICFilter);
 2146              		.loc 1 1052 0
 2147 0014 3A89     		ldrh	r2, [r7, #8]
 2148 0016 FB88     		ldrh	r3, [r7, #6]
 2149 0018 F868     		ldr	r0, [r7, #12]
 2150 001a 1146     		mov	r1, r2
 2151 001c 4FF00102 		mov	r2, #1
 2152 0020 FFF7FEFF 		bl	TI2_Config
 2153 0024 07E0     		b	.L72
 2154              	.L71:
1053:../libraries/STM32F10x_StdPeriph_Driver/src/stm32f10x_tim.c ****   }
1054:../libraries/STM32F10x_StdPeriph_Driver/src/stm32f10x_tim.c ****   else
1055:../libraries/STM32F10x_StdPeriph_Driver/src/stm32f10x_tim.c ****   {
1056:../libraries/STM32F10x_StdPeriph_Driver/src/stm32f10x_tim.c ****     TI1_Config(TIMx, TIM_ICPolarity, TIM_ICSelection_DirectTI, ICFilter);
 2155              		.loc 1 1056 0
 2156 0026 3A89     		ldrh	r2, [r7, #8]
 2157 0028 FB88     		ldrh	r3, [r7, #6]
 2158 002a F868     		ldr	r0, [r7, #12]
 2159 002c 1146     		mov	r1, r2
 2160 002e 4FF00102 		mov	r2, #1
 2161 0032 FFF7FEFF 		bl	TI1_Config
 2162              	.L72:
1057:../libraries/STM32F10x_StdPeriph_Driver/src/stm32f10x_tim.c ****   }
1058:../libraries/STM32F10x_StdPeriph_Driver/src/stm32f10x_tim.c ****   /* Select the Trigger source */
1059:../libraries/STM32F10x_StdPeriph_Driver/src/stm32f10x_tim.c ****   TIM_SelectInputTrigger(TIMx, TIM_TIxExternalCLKSource);
 2163              		.loc 1 1059 0
 2164 0036 7B89     		ldrh	r3, [r7, #10]
 2165 0038 F868     		ldr	r0, [r7, #12]
 2166 003a 1946     		mov	r1, r3
 2167 003c FFF7FEFF 		bl	TIM_SelectInputTrigger
1060:../libraries/STM32F10x_StdPeriph_Driver/src/stm32f10x_tim.c ****   /* Select the External clock mode1 */
1061:../libraries/STM32F10x_StdPeriph_Driver/src/stm32f10x_tim.c ****   TIMx->SMCR |= TIM_SlaveMode_External1;
 2168              		.loc 1 1061 0
 2169 0040 FB68     		ldr	r3, [r7, #12]
 2170 0042 1B89     		ldrh	r3, [r3, #8]	@ movhi
 2171 0044 9BB2     		uxth	r3, r3
 2172 0046 43F00703 		orr	r3, r3, #7
 2173 004a 9AB2     		uxth	r2, r3
 2174 004c FB68     		ldr	r3, [r7, #12]
 2175 004e 1A81     		strh	r2, [r3, #8]	@ movhi
1062:../libraries/STM32F10x_StdPeriph_Driver/src/stm32f10x_tim.c **** }
 2176              		.loc 1 1062 0
 2177 0050 07F11007 		add	r7, r7, #16
 2178 0054 BD46     		mov	sp, r7
 2179 0056 80BD     		pop	{r7, pc}
 2180              		.cfi_endproc
 2181              	.LFE77:
 2183              		.section	.text.TIM_ETRClockMode1Config,"ax",%progbits
 2184              		.align	2
 2185              		.global	TIM_ETRClockMode1Config
 2186              		.thumb
 2187              		.thumb_func
 2189              	TIM_ETRClockMode1Config:
 2190              	.LFB78:
1063:../libraries/STM32F10x_StdPeriph_Driver/src/stm32f10x_tim.c **** 
1064:../libraries/STM32F10x_StdPeriph_Driver/src/stm32f10x_tim.c **** /**
1065:../libraries/STM32F10x_StdPeriph_Driver/src/stm32f10x_tim.c ****   * @brief  Configures the External clock Mode1
1066:../libraries/STM32F10x_StdPeriph_Driver/src/stm32f10x_tim.c ****   * @param  TIMx: where x can be  1, 2, 3, 4, 5 or 8 to select the TIM peripheral.
1067:../libraries/STM32F10x_StdPeriph_Driver/src/stm32f10x_tim.c ****   * @param  TIM_ExtTRGPrescaler: The external Trigger Prescaler.
1068:../libraries/STM32F10x_StdPeriph_Driver/src/stm32f10x_tim.c ****   *   This parameter can be one of the following values:
1069:../libraries/STM32F10x_StdPeriph_Driver/src/stm32f10x_tim.c ****   *     @arg TIM_ExtTRGPSC_OFF: ETRP Prescaler OFF.
1070:../libraries/STM32F10x_StdPeriph_Driver/src/stm32f10x_tim.c ****   *     @arg TIM_ExtTRGPSC_DIV2: ETRP frequency divided by 2.
1071:../libraries/STM32F10x_StdPeriph_Driver/src/stm32f10x_tim.c ****   *     @arg TIM_ExtTRGPSC_DIV4: ETRP frequency divided by 4.
1072:../libraries/STM32F10x_StdPeriph_Driver/src/stm32f10x_tim.c ****   *     @arg TIM_ExtTRGPSC_DIV8: ETRP frequency divided by 8.
1073:../libraries/STM32F10x_StdPeriph_Driver/src/stm32f10x_tim.c ****   * @param  TIM_ExtTRGPolarity: The external Trigger Polarity.
1074:../libraries/STM32F10x_StdPeriph_Driver/src/stm32f10x_tim.c ****   *   This parameter can be one of the following values:
1075:../libraries/STM32F10x_StdPeriph_Driver/src/stm32f10x_tim.c ****   *     @arg TIM_ExtTRGPolarity_Inverted: active low or falling edge active.
1076:../libraries/STM32F10x_StdPeriph_Driver/src/stm32f10x_tim.c ****   *     @arg TIM_ExtTRGPolarity_NonInverted: active high or rising edge active.
1077:../libraries/STM32F10x_StdPeriph_Driver/src/stm32f10x_tim.c ****   * @param  ExtTRGFilter: External Trigger Filter.
1078:../libraries/STM32F10x_StdPeriph_Driver/src/stm32f10x_tim.c ****   *   This parameter must be a value between 0x00 and 0x0F
1079:../libraries/STM32F10x_StdPeriph_Driver/src/stm32f10x_tim.c ****   * @retval None
1080:../libraries/STM32F10x_StdPeriph_Driver/src/stm32f10x_tim.c ****   */
1081:../libraries/STM32F10x_StdPeriph_Driver/src/stm32f10x_tim.c **** void TIM_ETRClockMode1Config(TIM_TypeDef* TIMx, uint16_t TIM_ExtTRGPrescaler, uint16_t TIM_ExtTRGPo
1082:../libraries/STM32F10x_StdPeriph_Driver/src/stm32f10x_tim.c ****                              uint16_t ExtTRGFilter)
1083:../libraries/STM32F10x_StdPeriph_Driver/src/stm32f10x_tim.c **** {
 2191              		.loc 1 1083 0
 2192              		.cfi_startproc
 2193              		@ args = 0, pretend = 0, frame = 24
 2194              		@ frame_needed = 1, uses_anonymous_args = 0
 2195 0000 80B5     		push	{r7, lr}
 2196              	.LCFI66:
 2197              		.cfi_def_cfa_offset 8
 2198              		.cfi_offset 7, -8
 2199              		.cfi_offset 14, -4
 2200 0002 86B0     		sub	sp, sp, #24
 2201              	.LCFI67:
 2202              		.cfi_def_cfa_offset 32
 2203 0004 00AF     		add	r7, sp, #0
 2204              	.LCFI68:
 2205              		.cfi_def_cfa_register 7
 2206 0006 F860     		str	r0, [r7, #12]
 2207 0008 7981     		strh	r1, [r7, #10]	@ movhi
 2208 000a 3A81     		strh	r2, [r7, #8]	@ movhi
 2209 000c FB80     		strh	r3, [r7, #6]	@ movhi
1084:../libraries/STM32F10x_StdPeriph_Driver/src/stm32f10x_tim.c ****   uint16_t tmpsmcr = 0;
 2210              		.loc 1 1084 0
 2211 000e 4FF00003 		mov	r3, #0
 2212 0012 FB82     		strh	r3, [r7, #22]	@ movhi
1085:../libraries/STM32F10x_StdPeriph_Driver/src/stm32f10x_tim.c ****   /* Check the parameters */
1086:../libraries/STM32F10x_StdPeriph_Driver/src/stm32f10x_tim.c ****   assert_param(IS_TIM_LIST3_PERIPH(TIMx));
1087:../libraries/STM32F10x_StdPeriph_Driver/src/stm32f10x_tim.c ****   assert_param(IS_TIM_EXT_PRESCALER(TIM_ExtTRGPrescaler));
1088:../libraries/STM32F10x_StdPeriph_Driver/src/stm32f10x_tim.c ****   assert_param(IS_TIM_EXT_POLARITY(TIM_ExtTRGPolarity));
1089:../libraries/STM32F10x_StdPeriph_Driver/src/stm32f10x_tim.c ****   assert_param(IS_TIM_EXT_FILTER(ExtTRGFilter));
1090:../libraries/STM32F10x_StdPeriph_Driver/src/stm32f10x_tim.c ****   /* Configure the ETR Clock source */
1091:../libraries/STM32F10x_StdPeriph_Driver/src/stm32f10x_tim.c ****   TIM_ETRConfig(TIMx, TIM_ExtTRGPrescaler, TIM_ExtTRGPolarity, ExtTRGFilter);
 2213              		.loc 1 1091 0
 2214 0014 7989     		ldrh	r1, [r7, #10]
 2215 0016 3A89     		ldrh	r2, [r7, #8]
 2216 0018 FB88     		ldrh	r3, [r7, #6]
 2217 001a F868     		ldr	r0, [r7, #12]
 2218 001c FFF7FEFF 		bl	TIM_ETRConfig
1092:../libraries/STM32F10x_StdPeriph_Driver/src/stm32f10x_tim.c ****   
1093:../libraries/STM32F10x_StdPeriph_Driver/src/stm32f10x_tim.c ****   /* Get the TIMx SMCR register value */
1094:../libraries/STM32F10x_StdPeriph_Driver/src/stm32f10x_tim.c ****   tmpsmcr = TIMx->SMCR;
 2219              		.loc 1 1094 0
 2220 0020 FB68     		ldr	r3, [r7, #12]
 2221 0022 1B89     		ldrh	r3, [r3, #8]	@ movhi
 2222 0024 FB82     		strh	r3, [r7, #22]	@ movhi
1095:../libraries/STM32F10x_StdPeriph_Driver/src/stm32f10x_tim.c ****   /* Reset the SMS Bits */
1096:../libraries/STM32F10x_StdPeriph_Driver/src/stm32f10x_tim.c ****   tmpsmcr &= (uint16_t)(~((uint16_t)TIM_SMCR_SMS));
 2223              		.loc 1 1096 0
 2224 0026 FB8A     		ldrh	r3, [r7, #22]	@ movhi
 2225 0028 23F00703 		bic	r3, r3, #7
 2226 002c FB82     		strh	r3, [r7, #22]	@ movhi
1097:../libraries/STM32F10x_StdPeriph_Driver/src/stm32f10x_tim.c ****   /* Select the External clock mode1 */
1098:../libraries/STM32F10x_StdPeriph_Driver/src/stm32f10x_tim.c ****   tmpsmcr |= TIM_SlaveMode_External1;
 2227              		.loc 1 1098 0
 2228 002e FB8A     		ldrh	r3, [r7, #22]	@ movhi
 2229 0030 43F00703 		orr	r3, r3, #7
 2230 0034 FB82     		strh	r3, [r7, #22]	@ movhi
1099:../libraries/STM32F10x_StdPeriph_Driver/src/stm32f10x_tim.c ****   /* Select the Trigger selection : ETRF */
1100:../libraries/STM32F10x_StdPeriph_Driver/src/stm32f10x_tim.c ****   tmpsmcr &= (uint16_t)(~((uint16_t)TIM_SMCR_TS));
 2231              		.loc 1 1100 0
 2232 0036 FB8A     		ldrh	r3, [r7, #22]	@ movhi
 2233 0038 23F07003 		bic	r3, r3, #112
 2234 003c FB82     		strh	r3, [r7, #22]	@ movhi
1101:../libraries/STM32F10x_StdPeriph_Driver/src/stm32f10x_tim.c ****   tmpsmcr |= TIM_TS_ETRF;
 2235              		.loc 1 1101 0
 2236 003e FB8A     		ldrh	r3, [r7, #22]	@ movhi
 2237 0040 43F07003 		orr	r3, r3, #112
 2238 0044 FB82     		strh	r3, [r7, #22]	@ movhi
1102:../libraries/STM32F10x_StdPeriph_Driver/src/stm32f10x_tim.c ****   /* Write to TIMx SMCR */
1103:../libraries/STM32F10x_StdPeriph_Driver/src/stm32f10x_tim.c ****   TIMx->SMCR = tmpsmcr;
 2239              		.loc 1 1103 0
 2240 0046 FB68     		ldr	r3, [r7, #12]
 2241 0048 FA8A     		ldrh	r2, [r7, #22]	@ movhi
 2242 004a 1A81     		strh	r2, [r3, #8]	@ movhi
1104:../libraries/STM32F10x_StdPeriph_Driver/src/stm32f10x_tim.c **** }
 2243              		.loc 1 1104 0
 2244 004c 07F11807 		add	r7, r7, #24
 2245 0050 BD46     		mov	sp, r7
 2246 0052 80BD     		pop	{r7, pc}
 2247              		.cfi_endproc
 2248              	.LFE78:
 2250              		.section	.text.TIM_ETRClockMode2Config,"ax",%progbits
 2251              		.align	2
 2252              		.global	TIM_ETRClockMode2Config
 2253              		.thumb
 2254              		.thumb_func
 2256              	TIM_ETRClockMode2Config:
 2257              	.LFB79:
1105:../libraries/STM32F10x_StdPeriph_Driver/src/stm32f10x_tim.c **** 
1106:../libraries/STM32F10x_StdPeriph_Driver/src/stm32f10x_tim.c **** /**
1107:../libraries/STM32F10x_StdPeriph_Driver/src/stm32f10x_tim.c ****   * @brief  Configures the External clock Mode2
1108:../libraries/STM32F10x_StdPeriph_Driver/src/stm32f10x_tim.c ****   * @param  TIMx: where x can be  1, 2, 3, 4, 5 or 8 to select the TIM peripheral.
1109:../libraries/STM32F10x_StdPeriph_Driver/src/stm32f10x_tim.c ****   * @param  TIM_ExtTRGPrescaler: The external Trigger Prescaler.
1110:../libraries/STM32F10x_StdPeriph_Driver/src/stm32f10x_tim.c ****   *   This parameter can be one of the following values:
1111:../libraries/STM32F10x_StdPeriph_Driver/src/stm32f10x_tim.c ****   *     @arg TIM_ExtTRGPSC_OFF: ETRP Prescaler OFF.
1112:../libraries/STM32F10x_StdPeriph_Driver/src/stm32f10x_tim.c ****   *     @arg TIM_ExtTRGPSC_DIV2: ETRP frequency divided by 2.
1113:../libraries/STM32F10x_StdPeriph_Driver/src/stm32f10x_tim.c ****   *     @arg TIM_ExtTRGPSC_DIV4: ETRP frequency divided by 4.
1114:../libraries/STM32F10x_StdPeriph_Driver/src/stm32f10x_tim.c ****   *     @arg TIM_ExtTRGPSC_DIV8: ETRP frequency divided by 8.
1115:../libraries/STM32F10x_StdPeriph_Driver/src/stm32f10x_tim.c ****   * @param  TIM_ExtTRGPolarity: The external Trigger Polarity.
1116:../libraries/STM32F10x_StdPeriph_Driver/src/stm32f10x_tim.c ****   *   This parameter can be one of the following values:
1117:../libraries/STM32F10x_StdPeriph_Driver/src/stm32f10x_tim.c ****   *     @arg TIM_ExtTRGPolarity_Inverted: active low or falling edge active.
1118:../libraries/STM32F10x_StdPeriph_Driver/src/stm32f10x_tim.c ****   *     @arg TIM_ExtTRGPolarity_NonInverted: active high or rising edge active.
1119:../libraries/STM32F10x_StdPeriph_Driver/src/stm32f10x_tim.c ****   * @param  ExtTRGFilter: External Trigger Filter.
1120:../libraries/STM32F10x_StdPeriph_Driver/src/stm32f10x_tim.c ****   *   This parameter must be a value between 0x00 and 0x0F
1121:../libraries/STM32F10x_StdPeriph_Driver/src/stm32f10x_tim.c ****   * @retval None
1122:../libraries/STM32F10x_StdPeriph_Driver/src/stm32f10x_tim.c ****   */
1123:../libraries/STM32F10x_StdPeriph_Driver/src/stm32f10x_tim.c **** void TIM_ETRClockMode2Config(TIM_TypeDef* TIMx, uint16_t TIM_ExtTRGPrescaler, 
1124:../libraries/STM32F10x_StdPeriph_Driver/src/stm32f10x_tim.c ****                              uint16_t TIM_ExtTRGPolarity, uint16_t ExtTRGFilter)
1125:../libraries/STM32F10x_StdPeriph_Driver/src/stm32f10x_tim.c **** {
 2258              		.loc 1 1125 0
 2259              		.cfi_startproc
 2260              		@ args = 0, pretend = 0, frame = 16
 2261              		@ frame_needed = 1, uses_anonymous_args = 0
 2262 0000 80B5     		push	{r7, lr}
 2263              	.LCFI69:
 2264              		.cfi_def_cfa_offset 8
 2265              		.cfi_offset 7, -8
 2266              		.cfi_offset 14, -4
 2267 0002 84B0     		sub	sp, sp, #16
 2268              	.LCFI70:
 2269              		.cfi_def_cfa_offset 24
 2270 0004 00AF     		add	r7, sp, #0
 2271              	.LCFI71:
 2272              		.cfi_def_cfa_register 7
 2273 0006 F860     		str	r0, [r7, #12]
 2274 0008 7981     		strh	r1, [r7, #10]	@ movhi
 2275 000a 3A81     		strh	r2, [r7, #8]	@ movhi
 2276 000c FB80     		strh	r3, [r7, #6]	@ movhi
1126:../libraries/STM32F10x_StdPeriph_Driver/src/stm32f10x_tim.c ****   /* Check the parameters */
1127:../libraries/STM32F10x_StdPeriph_Driver/src/stm32f10x_tim.c ****   assert_param(IS_TIM_LIST3_PERIPH(TIMx));
1128:../libraries/STM32F10x_StdPeriph_Driver/src/stm32f10x_tim.c ****   assert_param(IS_TIM_EXT_PRESCALER(TIM_ExtTRGPrescaler));
1129:../libraries/STM32F10x_StdPeriph_Driver/src/stm32f10x_tim.c ****   assert_param(IS_TIM_EXT_POLARITY(TIM_ExtTRGPolarity));
1130:../libraries/STM32F10x_StdPeriph_Driver/src/stm32f10x_tim.c ****   assert_param(IS_TIM_EXT_FILTER(ExtTRGFilter));
1131:../libraries/STM32F10x_StdPeriph_Driver/src/stm32f10x_tim.c ****   /* Configure the ETR Clock source */
1132:../libraries/STM32F10x_StdPeriph_Driver/src/stm32f10x_tim.c ****   TIM_ETRConfig(TIMx, TIM_ExtTRGPrescaler, TIM_ExtTRGPolarity, ExtTRGFilter);
 2277              		.loc 1 1132 0
 2278 000e 7989     		ldrh	r1, [r7, #10]
 2279 0010 3A89     		ldrh	r2, [r7, #8]
 2280 0012 FB88     		ldrh	r3, [r7, #6]
 2281 0014 F868     		ldr	r0, [r7, #12]
 2282 0016 FFF7FEFF 		bl	TIM_ETRConfig
1133:../libraries/STM32F10x_StdPeriph_Driver/src/stm32f10x_tim.c ****   /* Enable the External clock mode2 */
1134:../libraries/STM32F10x_StdPeriph_Driver/src/stm32f10x_tim.c ****   TIMx->SMCR |= TIM_SMCR_ECE;
 2283              		.loc 1 1134 0
 2284 001a FB68     		ldr	r3, [r7, #12]
 2285 001c 1B89     		ldrh	r3, [r3, #8]	@ movhi
 2286 001e 9BB2     		uxth	r3, r3
 2287 0020 43F48043 		orr	r3, r3, #16384
 2288 0024 9AB2     		uxth	r2, r3
 2289 0026 FB68     		ldr	r3, [r7, #12]
 2290 0028 1A81     		strh	r2, [r3, #8]	@ movhi
1135:../libraries/STM32F10x_StdPeriph_Driver/src/stm32f10x_tim.c **** }
 2291              		.loc 1 1135 0
 2292 002a 07F11007 		add	r7, r7, #16
 2293 002e BD46     		mov	sp, r7
 2294 0030 80BD     		pop	{r7, pc}
 2295              		.cfi_endproc
 2296              	.LFE79:
 2298 0032 00BF     		.section	.text.TIM_ETRConfig,"ax",%progbits
 2299              		.align	2
 2300              		.global	TIM_ETRConfig
 2301              		.thumb
 2302              		.thumb_func
 2304              	TIM_ETRConfig:
 2305              	.LFB80:
1136:../libraries/STM32F10x_StdPeriph_Driver/src/stm32f10x_tim.c **** 
1137:../libraries/STM32F10x_StdPeriph_Driver/src/stm32f10x_tim.c **** /**
1138:../libraries/STM32F10x_StdPeriph_Driver/src/stm32f10x_tim.c ****   * @brief  Configures the TIMx External Trigger (ETR).
1139:../libraries/STM32F10x_StdPeriph_Driver/src/stm32f10x_tim.c ****   * @param  TIMx: where x can be  1, 2, 3, 4, 5 or 8 to select the TIM peripheral.
1140:../libraries/STM32F10x_StdPeriph_Driver/src/stm32f10x_tim.c ****   * @param  TIM_ExtTRGPrescaler: The external Trigger Prescaler.
1141:../libraries/STM32F10x_StdPeriph_Driver/src/stm32f10x_tim.c ****   *   This parameter can be one of the following values:
1142:../libraries/STM32F10x_StdPeriph_Driver/src/stm32f10x_tim.c ****   *     @arg TIM_ExtTRGPSC_OFF: ETRP Prescaler OFF.
1143:../libraries/STM32F10x_StdPeriph_Driver/src/stm32f10x_tim.c ****   *     @arg TIM_ExtTRGPSC_DIV2: ETRP frequency divided by 2.
1144:../libraries/STM32F10x_StdPeriph_Driver/src/stm32f10x_tim.c ****   *     @arg TIM_ExtTRGPSC_DIV4: ETRP frequency divided by 4.
1145:../libraries/STM32F10x_StdPeriph_Driver/src/stm32f10x_tim.c ****   *     @arg TIM_ExtTRGPSC_DIV8: ETRP frequency divided by 8.
1146:../libraries/STM32F10x_StdPeriph_Driver/src/stm32f10x_tim.c ****   * @param  TIM_ExtTRGPolarity: The external Trigger Polarity.
1147:../libraries/STM32F10x_StdPeriph_Driver/src/stm32f10x_tim.c ****   *   This parameter can be one of the following values:
1148:../libraries/STM32F10x_StdPeriph_Driver/src/stm32f10x_tim.c ****   *     @arg TIM_ExtTRGPolarity_Inverted: active low or falling edge active.
1149:../libraries/STM32F10x_StdPeriph_Driver/src/stm32f10x_tim.c ****   *     @arg TIM_ExtTRGPolarity_NonInverted: active high or rising edge active.
1150:../libraries/STM32F10x_StdPeriph_Driver/src/stm32f10x_tim.c ****   * @param  ExtTRGFilter: External Trigger Filter.
1151:../libraries/STM32F10x_StdPeriph_Driver/src/stm32f10x_tim.c ****   *   This parameter must be a value between 0x00 and 0x0F
1152:../libraries/STM32F10x_StdPeriph_Driver/src/stm32f10x_tim.c ****   * @retval None
1153:../libraries/STM32F10x_StdPeriph_Driver/src/stm32f10x_tim.c ****   */
1154:../libraries/STM32F10x_StdPeriph_Driver/src/stm32f10x_tim.c **** void TIM_ETRConfig(TIM_TypeDef* TIMx, uint16_t TIM_ExtTRGPrescaler, uint16_t TIM_ExtTRGPolarity,
1155:../libraries/STM32F10x_StdPeriph_Driver/src/stm32f10x_tim.c ****                    uint16_t ExtTRGFilter)
1156:../libraries/STM32F10x_StdPeriph_Driver/src/stm32f10x_tim.c **** {
 2306              		.loc 1 1156 0
 2307              		.cfi_startproc
 2308              		@ args = 0, pretend = 0, frame = 24
 2309              		@ frame_needed = 1, uses_anonymous_args = 0
 2310              		@ link register save eliminated.
 2311 0000 80B4     		push	{r7}
 2312              	.LCFI72:
 2313              		.cfi_def_cfa_offset 4
 2314              		.cfi_offset 7, -4
 2315 0002 87B0     		sub	sp, sp, #28
 2316              	.LCFI73:
 2317              		.cfi_def_cfa_offset 32
 2318 0004 00AF     		add	r7, sp, #0
 2319              	.LCFI74:
 2320              		.cfi_def_cfa_register 7
 2321 0006 F860     		str	r0, [r7, #12]
 2322 0008 7981     		strh	r1, [r7, #10]	@ movhi
 2323 000a 3A81     		strh	r2, [r7, #8]	@ movhi
 2324 000c FB80     		strh	r3, [r7, #6]	@ movhi
1157:../libraries/STM32F10x_StdPeriph_Driver/src/stm32f10x_tim.c ****   uint16_t tmpsmcr = 0;
 2325              		.loc 1 1157 0
 2326 000e 4FF00003 		mov	r3, #0
 2327 0012 FB82     		strh	r3, [r7, #22]	@ movhi
1158:../libraries/STM32F10x_StdPeriph_Driver/src/stm32f10x_tim.c ****   /* Check the parameters */
1159:../libraries/STM32F10x_StdPeriph_Driver/src/stm32f10x_tim.c ****   assert_param(IS_TIM_LIST3_PERIPH(TIMx));
1160:../libraries/STM32F10x_StdPeriph_Driver/src/stm32f10x_tim.c ****   assert_param(IS_TIM_EXT_PRESCALER(TIM_ExtTRGPrescaler));
1161:../libraries/STM32F10x_StdPeriph_Driver/src/stm32f10x_tim.c ****   assert_param(IS_TIM_EXT_POLARITY(TIM_ExtTRGPolarity));
1162:../libraries/STM32F10x_StdPeriph_Driver/src/stm32f10x_tim.c ****   assert_param(IS_TIM_EXT_FILTER(ExtTRGFilter));
1163:../libraries/STM32F10x_StdPeriph_Driver/src/stm32f10x_tim.c ****   tmpsmcr = TIMx->SMCR;
 2328              		.loc 1 1163 0
 2329 0014 FB68     		ldr	r3, [r7, #12]
 2330 0016 1B89     		ldrh	r3, [r3, #8]	@ movhi
 2331 0018 FB82     		strh	r3, [r7, #22]	@ movhi
1164:../libraries/STM32F10x_StdPeriph_Driver/src/stm32f10x_tim.c ****   /* Reset the ETR Bits */
1165:../libraries/STM32F10x_StdPeriph_Driver/src/stm32f10x_tim.c ****   tmpsmcr &= SMCR_ETR_Mask;
 2332              		.loc 1 1165 0
 2333 001a FB8A     		ldrh	r3, [r7, #22]	@ movhi
 2334 001c DBB2     		uxtb	r3, r3
 2335 001e FB82     		strh	r3, [r7, #22]	@ movhi
1166:../libraries/STM32F10x_StdPeriph_Driver/src/stm32f10x_tim.c ****   /* Set the Prescaler, the Filter value and the Polarity */
1167:../libraries/STM32F10x_StdPeriph_Driver/src/stm32f10x_tim.c ****   tmpsmcr |= (uint16_t)(TIM_ExtTRGPrescaler | (uint16_t)(TIM_ExtTRGPolarity | (uint16_t)(ExtTRGFilt
 2336              		.loc 1 1167 0
 2337 0020 FB88     		ldrh	r3, [r7, #6]	@ movhi
 2338 0022 4FEA0323 		lsl	r3, r3, #8
 2339 0026 9AB2     		uxth	r2, r3
 2340 0028 3B89     		ldrh	r3, [r7, #8]	@ movhi
 2341 002a 1343     		orrs	r3, r3, r2
 2342 002c 9AB2     		uxth	r2, r3
 2343 002e 7B89     		ldrh	r3, [r7, #10]	@ movhi
 2344 0030 1343     		orrs	r3, r3, r2
 2345 0032 9AB2     		uxth	r2, r3
 2346 0034 FB8A     		ldrh	r3, [r7, #22]	@ movhi
 2347 0036 1343     		orrs	r3, r3, r2
 2348 0038 FB82     		strh	r3, [r7, #22]	@ movhi
1168:../libraries/STM32F10x_StdPeriph_Driver/src/stm32f10x_tim.c ****   /* Write to TIMx SMCR */
1169:../libraries/STM32F10x_StdPeriph_Driver/src/stm32f10x_tim.c ****   TIMx->SMCR = tmpsmcr;
 2349              		.loc 1 1169 0
 2350 003a FB68     		ldr	r3, [r7, #12]
 2351 003c FA8A     		ldrh	r2, [r7, #22]	@ movhi
 2352 003e 1A81     		strh	r2, [r3, #8]	@ movhi
1170:../libraries/STM32F10x_StdPeriph_Driver/src/stm32f10x_tim.c **** }
 2353              		.loc 1 1170 0
 2354 0040 07F11C07 		add	r7, r7, #28
 2355 0044 BD46     		mov	sp, r7
 2356 0046 80BC     		pop	{r7}
 2357 0048 7047     		bx	lr
 2358              		.cfi_endproc
 2359              	.LFE80:
 2361 004a 00BF     		.section	.text.TIM_PrescalerConfig,"ax",%progbits
 2362              		.align	2
 2363              		.global	TIM_PrescalerConfig
 2364              		.thumb
 2365              		.thumb_func
 2367              	TIM_PrescalerConfig:
 2368              	.LFB81:
1171:../libraries/STM32F10x_StdPeriph_Driver/src/stm32f10x_tim.c **** 
1172:../libraries/STM32F10x_StdPeriph_Driver/src/stm32f10x_tim.c **** /**
1173:../libraries/STM32F10x_StdPeriph_Driver/src/stm32f10x_tim.c ****   * @brief  Configures the TIMx Prescaler.
1174:../libraries/STM32F10x_StdPeriph_Driver/src/stm32f10x_tim.c ****   * @param  TIMx: where x can be 1 to 17 to select the TIM peripheral.
1175:../libraries/STM32F10x_StdPeriph_Driver/src/stm32f10x_tim.c ****   * @param  Prescaler: specifies the Prescaler Register value
1176:../libraries/STM32F10x_StdPeriph_Driver/src/stm32f10x_tim.c ****   * @param  TIM_PSCReloadMode: specifies the TIM Prescaler Reload mode
1177:../libraries/STM32F10x_StdPeriph_Driver/src/stm32f10x_tim.c ****   *   This parameter can be one of the following values:
1178:../libraries/STM32F10x_StdPeriph_Driver/src/stm32f10x_tim.c ****   *     @arg TIM_PSCReloadMode_Update: The Prescaler is loaded at the update event.
1179:../libraries/STM32F10x_StdPeriph_Driver/src/stm32f10x_tim.c ****   *     @arg TIM_PSCReloadMode_Immediate: The Prescaler is loaded immediately.
1180:../libraries/STM32F10x_StdPeriph_Driver/src/stm32f10x_tim.c ****   * @retval None
1181:../libraries/STM32F10x_StdPeriph_Driver/src/stm32f10x_tim.c ****   */
1182:../libraries/STM32F10x_StdPeriph_Driver/src/stm32f10x_tim.c **** void TIM_PrescalerConfig(TIM_TypeDef* TIMx, uint16_t Prescaler, uint16_t TIM_PSCReloadMode)
1183:../libraries/STM32F10x_StdPeriph_Driver/src/stm32f10x_tim.c **** {
 2369              		.loc 1 1183 0
 2370              		.cfi_startproc
 2371              		@ args = 0, pretend = 0, frame = 8
 2372              		@ frame_needed = 1, uses_anonymous_args = 0
 2373              		@ link register save eliminated.
 2374 0000 80B4     		push	{r7}
 2375              	.LCFI75:
 2376              		.cfi_def_cfa_offset 4
 2377              		.cfi_offset 7, -4
 2378 0002 83B0     		sub	sp, sp, #12
 2379              	.LCFI76:
 2380              		.cfi_def_cfa_offset 16
 2381 0004 00AF     		add	r7, sp, #0
 2382              	.LCFI77:
 2383              		.cfi_def_cfa_register 7
 2384 0006 7860     		str	r0, [r7, #4]
 2385 0008 1346     		mov	r3, r2
 2386 000a 0A46     		mov	r2, r1	@ movhi
 2387 000c 7A80     		strh	r2, [r7, #2]	@ movhi
 2388 000e 3B80     		strh	r3, [r7, #0]	@ movhi
1184:../libraries/STM32F10x_StdPeriph_Driver/src/stm32f10x_tim.c ****   /* Check the parameters */
1185:../libraries/STM32F10x_StdPeriph_Driver/src/stm32f10x_tim.c ****   assert_param(IS_TIM_ALL_PERIPH(TIMx));
1186:../libraries/STM32F10x_StdPeriph_Driver/src/stm32f10x_tim.c ****   assert_param(IS_TIM_PRESCALER_RELOAD(TIM_PSCReloadMode));
1187:../libraries/STM32F10x_StdPeriph_Driver/src/stm32f10x_tim.c ****   /* Set the Prescaler value */
1188:../libraries/STM32F10x_StdPeriph_Driver/src/stm32f10x_tim.c ****   TIMx->PSC = Prescaler;
 2389              		.loc 1 1188 0
 2390 0010 7B68     		ldr	r3, [r7, #4]
 2391 0012 7A88     		ldrh	r2, [r7, #2]	@ movhi
 2392 0014 1A85     		strh	r2, [r3, #40]	@ movhi
1189:../libraries/STM32F10x_StdPeriph_Driver/src/stm32f10x_tim.c ****   /* Set or reset the UG Bit */
1190:../libraries/STM32F10x_StdPeriph_Driver/src/stm32f10x_tim.c ****   TIMx->EGR = TIM_PSCReloadMode;
 2393              		.loc 1 1190 0
 2394 0016 7B68     		ldr	r3, [r7, #4]
 2395 0018 3A88     		ldrh	r2, [r7, #0]	@ movhi
 2396 001a 9A82     		strh	r2, [r3, #20]	@ movhi
1191:../libraries/STM32F10x_StdPeriph_Driver/src/stm32f10x_tim.c **** }
 2397              		.loc 1 1191 0
 2398 001c 07F10C07 		add	r7, r7, #12
 2399 0020 BD46     		mov	sp, r7
 2400 0022 80BC     		pop	{r7}
 2401 0024 7047     		bx	lr
 2402              		.cfi_endproc
 2403              	.LFE81:
 2405 0026 00BF     		.section	.text.TIM_CounterModeConfig,"ax",%progbits
 2406              		.align	2
 2407              		.global	TIM_CounterModeConfig
 2408              		.thumb
 2409              		.thumb_func
 2411              	TIM_CounterModeConfig:
 2412              	.LFB82:
1192:../libraries/STM32F10x_StdPeriph_Driver/src/stm32f10x_tim.c **** 
1193:../libraries/STM32F10x_StdPeriph_Driver/src/stm32f10x_tim.c **** /**
1194:../libraries/STM32F10x_StdPeriph_Driver/src/stm32f10x_tim.c ****   * @brief  Specifies the TIMx Counter Mode to be used.
1195:../libraries/STM32F10x_StdPeriph_Driver/src/stm32f10x_tim.c ****   * @param  TIMx: where x can be  1, 2, 3, 4, 5 or 8 to select the TIM peripheral.
1196:../libraries/STM32F10x_StdPeriph_Driver/src/stm32f10x_tim.c ****   * @param  TIM_CounterMode: specifies the Counter Mode to be used
1197:../libraries/STM32F10x_StdPeriph_Driver/src/stm32f10x_tim.c ****   *   This parameter can be one of the following values:
1198:../libraries/STM32F10x_StdPeriph_Driver/src/stm32f10x_tim.c ****   *     @arg TIM_CounterMode_Up: TIM Up Counting Mode
1199:../libraries/STM32F10x_StdPeriph_Driver/src/stm32f10x_tim.c ****   *     @arg TIM_CounterMode_Down: TIM Down Counting Mode
1200:../libraries/STM32F10x_StdPeriph_Driver/src/stm32f10x_tim.c ****   *     @arg TIM_CounterMode_CenterAligned1: TIM Center Aligned Mode1
1201:../libraries/STM32F10x_StdPeriph_Driver/src/stm32f10x_tim.c ****   *     @arg TIM_CounterMode_CenterAligned2: TIM Center Aligned Mode2
1202:../libraries/STM32F10x_StdPeriph_Driver/src/stm32f10x_tim.c ****   *     @arg TIM_CounterMode_CenterAligned3: TIM Center Aligned Mode3
1203:../libraries/STM32F10x_StdPeriph_Driver/src/stm32f10x_tim.c ****   * @retval None
1204:../libraries/STM32F10x_StdPeriph_Driver/src/stm32f10x_tim.c ****   */
1205:../libraries/STM32F10x_StdPeriph_Driver/src/stm32f10x_tim.c **** void TIM_CounterModeConfig(TIM_TypeDef* TIMx, uint16_t TIM_CounterMode)
1206:../libraries/STM32F10x_StdPeriph_Driver/src/stm32f10x_tim.c **** {
 2413              		.loc 1 1206 0
 2414              		.cfi_startproc
 2415              		@ args = 0, pretend = 0, frame = 16
 2416              		@ frame_needed = 1, uses_anonymous_args = 0
 2417              		@ link register save eliminated.
 2418 0000 80B4     		push	{r7}
 2419              	.LCFI78:
 2420              		.cfi_def_cfa_offset 4
 2421              		.cfi_offset 7, -4
 2422 0002 85B0     		sub	sp, sp, #20
 2423              	.LCFI79:
 2424              		.cfi_def_cfa_offset 24
 2425 0004 00AF     		add	r7, sp, #0
 2426              	.LCFI80:
 2427              		.cfi_def_cfa_register 7
 2428 0006 7860     		str	r0, [r7, #4]
 2429 0008 0B46     		mov	r3, r1
 2430 000a 7B80     		strh	r3, [r7, #2]	@ movhi
1207:../libraries/STM32F10x_StdPeriph_Driver/src/stm32f10x_tim.c ****   uint16_t tmpcr1 = 0;
 2431              		.loc 1 1207 0
 2432 000c 4FF00003 		mov	r3, #0
 2433 0010 FB81     		strh	r3, [r7, #14]	@ movhi
1208:../libraries/STM32F10x_StdPeriph_Driver/src/stm32f10x_tim.c ****   /* Check the parameters */
1209:../libraries/STM32F10x_StdPeriph_Driver/src/stm32f10x_tim.c ****   assert_param(IS_TIM_LIST3_PERIPH(TIMx));
1210:../libraries/STM32F10x_StdPeriph_Driver/src/stm32f10x_tim.c ****   assert_param(IS_TIM_COUNTER_MODE(TIM_CounterMode));
1211:../libraries/STM32F10x_StdPeriph_Driver/src/stm32f10x_tim.c ****   tmpcr1 = TIMx->CR1;
 2434              		.loc 1 1211 0
 2435 0012 7B68     		ldr	r3, [r7, #4]
 2436 0014 1B88     		ldrh	r3, [r3, #0]	@ movhi
 2437 0016 FB81     		strh	r3, [r7, #14]	@ movhi
1212:../libraries/STM32F10x_StdPeriph_Driver/src/stm32f10x_tim.c ****   /* Reset the CMS and DIR Bits */
1213:../libraries/STM32F10x_StdPeriph_Driver/src/stm32f10x_tim.c ****   tmpcr1 &= (uint16_t)(~((uint16_t)(TIM_CR1_DIR | TIM_CR1_CMS)));
 2438              		.loc 1 1213 0
 2439 0018 FB89     		ldrh	r3, [r7, #14]	@ movhi
 2440 001a 23F07003 		bic	r3, r3, #112
 2441 001e FB81     		strh	r3, [r7, #14]	@ movhi
1214:../libraries/STM32F10x_StdPeriph_Driver/src/stm32f10x_tim.c ****   /* Set the Counter Mode */
1215:../libraries/STM32F10x_StdPeriph_Driver/src/stm32f10x_tim.c ****   tmpcr1 |= TIM_CounterMode;
 2442              		.loc 1 1215 0
 2443 0020 FA89     		ldrh	r2, [r7, #14]	@ movhi
 2444 0022 7B88     		ldrh	r3, [r7, #2]	@ movhi
 2445 0024 1343     		orrs	r3, r3, r2
 2446 0026 FB81     		strh	r3, [r7, #14]	@ movhi
1216:../libraries/STM32F10x_StdPeriph_Driver/src/stm32f10x_tim.c ****   /* Write to TIMx CR1 register */
1217:../libraries/STM32F10x_StdPeriph_Driver/src/stm32f10x_tim.c ****   TIMx->CR1 = tmpcr1;
 2447              		.loc 1 1217 0
 2448 0028 7B68     		ldr	r3, [r7, #4]
 2449 002a FA89     		ldrh	r2, [r7, #14]	@ movhi
 2450 002c 1A80     		strh	r2, [r3, #0]	@ movhi
1218:../libraries/STM32F10x_StdPeriph_Driver/src/stm32f10x_tim.c **** }
 2451              		.loc 1 1218 0
 2452 002e 07F11407 		add	r7, r7, #20
 2453 0032 BD46     		mov	sp, r7
 2454 0034 80BC     		pop	{r7}
 2455 0036 7047     		bx	lr
 2456              		.cfi_endproc
 2457              	.LFE82:
 2459              		.section	.text.TIM_SelectInputTrigger,"ax",%progbits
 2460              		.align	2
 2461              		.global	TIM_SelectInputTrigger
 2462              		.thumb
 2463              		.thumb_func
 2465              	TIM_SelectInputTrigger:
 2466              	.LFB83:
1219:../libraries/STM32F10x_StdPeriph_Driver/src/stm32f10x_tim.c **** 
1220:../libraries/STM32F10x_StdPeriph_Driver/src/stm32f10x_tim.c **** /**
1221:../libraries/STM32F10x_StdPeriph_Driver/src/stm32f10x_tim.c ****   * @brief  Selects the Input Trigger source
1222:../libraries/STM32F10x_StdPeriph_Driver/src/stm32f10x_tim.c ****   * @param  TIMx: where x can be  1, 2, 3, 4, 5, 8, 9, 12 or 15 to select the TIM peripheral.
1223:../libraries/STM32F10x_StdPeriph_Driver/src/stm32f10x_tim.c ****   * @param  TIM_InputTriggerSource: The Input Trigger source.
1224:../libraries/STM32F10x_StdPeriph_Driver/src/stm32f10x_tim.c ****   *   This parameter can be one of the following values:
1225:../libraries/STM32F10x_StdPeriph_Driver/src/stm32f10x_tim.c ****   *     @arg TIM_TS_ITR0: Internal Trigger 0
1226:../libraries/STM32F10x_StdPeriph_Driver/src/stm32f10x_tim.c ****   *     @arg TIM_TS_ITR1: Internal Trigger 1
1227:../libraries/STM32F10x_StdPeriph_Driver/src/stm32f10x_tim.c ****   *     @arg TIM_TS_ITR2: Internal Trigger 2
1228:../libraries/STM32F10x_StdPeriph_Driver/src/stm32f10x_tim.c ****   *     @arg TIM_TS_ITR3: Internal Trigger 3
1229:../libraries/STM32F10x_StdPeriph_Driver/src/stm32f10x_tim.c ****   *     @arg TIM_TS_TI1F_ED: TI1 Edge Detector
1230:../libraries/STM32F10x_StdPeriph_Driver/src/stm32f10x_tim.c ****   *     @arg TIM_TS_TI1FP1: Filtered Timer Input 1
1231:../libraries/STM32F10x_StdPeriph_Driver/src/stm32f10x_tim.c ****   *     @arg TIM_TS_TI2FP2: Filtered Timer Input 2
1232:../libraries/STM32F10x_StdPeriph_Driver/src/stm32f10x_tim.c ****   *     @arg TIM_TS_ETRF: External Trigger input
1233:../libraries/STM32F10x_StdPeriph_Driver/src/stm32f10x_tim.c ****   * @retval None
1234:../libraries/STM32F10x_StdPeriph_Driver/src/stm32f10x_tim.c ****   */
1235:../libraries/STM32F10x_StdPeriph_Driver/src/stm32f10x_tim.c **** void TIM_SelectInputTrigger(TIM_TypeDef* TIMx, uint16_t TIM_InputTriggerSource)
1236:../libraries/STM32F10x_StdPeriph_Driver/src/stm32f10x_tim.c **** {
 2467              		.loc 1 1236 0
 2468              		.cfi_startproc
 2469              		@ args = 0, pretend = 0, frame = 16
 2470              		@ frame_needed = 1, uses_anonymous_args = 0
 2471              		@ link register save eliminated.
 2472 0000 80B4     		push	{r7}
 2473              	.LCFI81:
 2474              		.cfi_def_cfa_offset 4
 2475              		.cfi_offset 7, -4
 2476 0002 85B0     		sub	sp, sp, #20
 2477              	.LCFI82:
 2478              		.cfi_def_cfa_offset 24
 2479 0004 00AF     		add	r7, sp, #0
 2480              	.LCFI83:
 2481              		.cfi_def_cfa_register 7
 2482 0006 7860     		str	r0, [r7, #4]
 2483 0008 0B46     		mov	r3, r1
 2484 000a 7B80     		strh	r3, [r7, #2]	@ movhi
1237:../libraries/STM32F10x_StdPeriph_Driver/src/stm32f10x_tim.c ****   uint16_t tmpsmcr = 0;
 2485              		.loc 1 1237 0
 2486 000c 4FF00003 		mov	r3, #0
 2487 0010 FB81     		strh	r3, [r7, #14]	@ movhi
1238:../libraries/STM32F10x_StdPeriph_Driver/src/stm32f10x_tim.c ****   /* Check the parameters */
1239:../libraries/STM32F10x_StdPeriph_Driver/src/stm32f10x_tim.c ****   assert_param(IS_TIM_LIST6_PERIPH(TIMx));
1240:../libraries/STM32F10x_StdPeriph_Driver/src/stm32f10x_tim.c ****   assert_param(IS_TIM_TRIGGER_SELECTION(TIM_InputTriggerSource));
1241:../libraries/STM32F10x_StdPeriph_Driver/src/stm32f10x_tim.c ****   /* Get the TIMx SMCR register value */
1242:../libraries/STM32F10x_StdPeriph_Driver/src/stm32f10x_tim.c ****   tmpsmcr = TIMx->SMCR;
 2488              		.loc 1 1242 0
 2489 0012 7B68     		ldr	r3, [r7, #4]
 2490 0014 1B89     		ldrh	r3, [r3, #8]	@ movhi
 2491 0016 FB81     		strh	r3, [r7, #14]	@ movhi
1243:../libraries/STM32F10x_StdPeriph_Driver/src/stm32f10x_tim.c ****   /* Reset the TS Bits */
1244:../libraries/STM32F10x_StdPeriph_Driver/src/stm32f10x_tim.c ****   tmpsmcr &= (uint16_t)(~((uint16_t)TIM_SMCR_TS));
 2492              		.loc 1 1244 0
 2493 0018 FB89     		ldrh	r3, [r7, #14]	@ movhi
 2494 001a 23F07003 		bic	r3, r3, #112
 2495 001e FB81     		strh	r3, [r7, #14]	@ movhi
1245:../libraries/STM32F10x_StdPeriph_Driver/src/stm32f10x_tim.c ****   /* Set the Input Trigger source */
1246:../libraries/STM32F10x_StdPeriph_Driver/src/stm32f10x_tim.c ****   tmpsmcr |= TIM_InputTriggerSource;
 2496              		.loc 1 1246 0
 2497 0020 FA89     		ldrh	r2, [r7, #14]	@ movhi
 2498 0022 7B88     		ldrh	r3, [r7, #2]	@ movhi
 2499 0024 1343     		orrs	r3, r3, r2
 2500 0026 FB81     		strh	r3, [r7, #14]	@ movhi
1247:../libraries/STM32F10x_StdPeriph_Driver/src/stm32f10x_tim.c ****   /* Write to TIMx SMCR */
1248:../libraries/STM32F10x_StdPeriph_Driver/src/stm32f10x_tim.c ****   TIMx->SMCR = tmpsmcr;
 2501              		.loc 1 1248 0
 2502 0028 7B68     		ldr	r3, [r7, #4]
 2503 002a FA89     		ldrh	r2, [r7, #14]	@ movhi
 2504 002c 1A81     		strh	r2, [r3, #8]	@ movhi
1249:../libraries/STM32F10x_StdPeriph_Driver/src/stm32f10x_tim.c **** }
 2505              		.loc 1 1249 0
 2506 002e 07F11407 		add	r7, r7, #20
 2507 0032 BD46     		mov	sp, r7
 2508 0034 80BC     		pop	{r7}
 2509 0036 7047     		bx	lr
 2510              		.cfi_endproc
 2511              	.LFE83:
 2513              		.section	.text.TIM_EncoderInterfaceConfig,"ax",%progbits
 2514              		.align	2
 2515              		.global	TIM_EncoderInterfaceConfig
 2516              		.thumb
 2517              		.thumb_func
 2519              	TIM_EncoderInterfaceConfig:
 2520              	.LFB84:
1250:../libraries/STM32F10x_StdPeriph_Driver/src/stm32f10x_tim.c **** 
1251:../libraries/STM32F10x_StdPeriph_Driver/src/stm32f10x_tim.c **** /**
1252:../libraries/STM32F10x_StdPeriph_Driver/src/stm32f10x_tim.c ****   * @brief  Configures the TIMx Encoder Interface.
1253:../libraries/STM32F10x_StdPeriph_Driver/src/stm32f10x_tim.c ****   * @param  TIMx: where x can be  1, 2, 3, 4, 5 or 8 to select the TIM peripheral.
1254:../libraries/STM32F10x_StdPeriph_Driver/src/stm32f10x_tim.c ****   * @param  TIM_EncoderMode: specifies the TIMx Encoder Mode.
1255:../libraries/STM32F10x_StdPeriph_Driver/src/stm32f10x_tim.c ****   *   This parameter can be one of the following values:
1256:../libraries/STM32F10x_StdPeriph_Driver/src/stm32f10x_tim.c ****   *     @arg TIM_EncoderMode_TI1: Counter counts on TI1FP1 edge depending on TI2FP2 level.
1257:../libraries/STM32F10x_StdPeriph_Driver/src/stm32f10x_tim.c ****   *     @arg TIM_EncoderMode_TI2: Counter counts on TI2FP2 edge depending on TI1FP1 level.
1258:../libraries/STM32F10x_StdPeriph_Driver/src/stm32f10x_tim.c ****   *     @arg TIM_EncoderMode_TI12: Counter counts on both TI1FP1 and TI2FP2 edges depending
1259:../libraries/STM32F10x_StdPeriph_Driver/src/stm32f10x_tim.c ****   *                                on the level of the other input.
1260:../libraries/STM32F10x_StdPeriph_Driver/src/stm32f10x_tim.c ****   * @param  TIM_IC1Polarity: specifies the IC1 Polarity
1261:../libraries/STM32F10x_StdPeriph_Driver/src/stm32f10x_tim.c ****   *   This parameter can be one of the following values:
1262:../libraries/STM32F10x_StdPeriph_Driver/src/stm32f10x_tim.c ****   *     @arg TIM_ICPolarity_Falling: IC Falling edge.
1263:../libraries/STM32F10x_StdPeriph_Driver/src/stm32f10x_tim.c ****   *     @arg TIM_ICPolarity_Rising: IC Rising edge.
1264:../libraries/STM32F10x_StdPeriph_Driver/src/stm32f10x_tim.c ****   * @param  TIM_IC2Polarity: specifies the IC2 Polarity
1265:../libraries/STM32F10x_StdPeriph_Driver/src/stm32f10x_tim.c ****   *   This parameter can be one of the following values:
1266:../libraries/STM32F10x_StdPeriph_Driver/src/stm32f10x_tim.c ****   *     @arg TIM_ICPolarity_Falling: IC Falling edge.
1267:../libraries/STM32F10x_StdPeriph_Driver/src/stm32f10x_tim.c ****   *     @arg TIM_ICPolarity_Rising: IC Rising edge.
1268:../libraries/STM32F10x_StdPeriph_Driver/src/stm32f10x_tim.c ****   * @retval None
1269:../libraries/STM32F10x_StdPeriph_Driver/src/stm32f10x_tim.c ****   */
1270:../libraries/STM32F10x_StdPeriph_Driver/src/stm32f10x_tim.c **** void TIM_EncoderInterfaceConfig(TIM_TypeDef* TIMx, uint16_t TIM_EncoderMode,
1271:../libraries/STM32F10x_StdPeriph_Driver/src/stm32f10x_tim.c ****                                 uint16_t TIM_IC1Polarity, uint16_t TIM_IC2Polarity)
1272:../libraries/STM32F10x_StdPeriph_Driver/src/stm32f10x_tim.c **** {
 2521              		.loc 1 1272 0
 2522              		.cfi_startproc
 2523              		@ args = 0, pretend = 0, frame = 24
 2524              		@ frame_needed = 1, uses_anonymous_args = 0
 2525              		@ link register save eliminated.
 2526 0000 80B4     		push	{r7}
 2527              	.LCFI84:
 2528              		.cfi_def_cfa_offset 4
 2529              		.cfi_offset 7, -4
 2530 0002 87B0     		sub	sp, sp, #28
 2531              	.LCFI85:
 2532              		.cfi_def_cfa_offset 32
 2533 0004 00AF     		add	r7, sp, #0
 2534              	.LCFI86:
 2535              		.cfi_def_cfa_register 7
 2536 0006 F860     		str	r0, [r7, #12]
 2537 0008 7981     		strh	r1, [r7, #10]	@ movhi
 2538 000a 3A81     		strh	r2, [r7, #8]	@ movhi
 2539 000c FB80     		strh	r3, [r7, #6]	@ movhi
1273:../libraries/STM32F10x_StdPeriph_Driver/src/stm32f10x_tim.c ****   uint16_t tmpsmcr = 0;
 2540              		.loc 1 1273 0
 2541 000e 4FF00003 		mov	r3, #0
 2542 0012 FB82     		strh	r3, [r7, #22]	@ movhi
1274:../libraries/STM32F10x_StdPeriph_Driver/src/stm32f10x_tim.c ****   uint16_t tmpccmr1 = 0;
 2543              		.loc 1 1274 0
 2544 0014 4FF00003 		mov	r3, #0
 2545 0018 BB82     		strh	r3, [r7, #20]	@ movhi
1275:../libraries/STM32F10x_StdPeriph_Driver/src/stm32f10x_tim.c ****   uint16_t tmpccer = 0;
 2546              		.loc 1 1275 0
 2547 001a 4FF00003 		mov	r3, #0
 2548 001e 7B82     		strh	r3, [r7, #18]	@ movhi
1276:../libraries/STM32F10x_StdPeriph_Driver/src/stm32f10x_tim.c ****     
1277:../libraries/STM32F10x_StdPeriph_Driver/src/stm32f10x_tim.c ****   /* Check the parameters */
1278:../libraries/STM32F10x_StdPeriph_Driver/src/stm32f10x_tim.c ****   assert_param(IS_TIM_LIST5_PERIPH(TIMx));
1279:../libraries/STM32F10x_StdPeriph_Driver/src/stm32f10x_tim.c ****   assert_param(IS_TIM_ENCODER_MODE(TIM_EncoderMode));
1280:../libraries/STM32F10x_StdPeriph_Driver/src/stm32f10x_tim.c ****   assert_param(IS_TIM_IC_POLARITY(TIM_IC1Polarity));
1281:../libraries/STM32F10x_StdPeriph_Driver/src/stm32f10x_tim.c ****   assert_param(IS_TIM_IC_POLARITY(TIM_IC2Polarity));
1282:../libraries/STM32F10x_StdPeriph_Driver/src/stm32f10x_tim.c **** 
1283:../libraries/STM32F10x_StdPeriph_Driver/src/stm32f10x_tim.c ****   /* Get the TIMx SMCR register value */
1284:../libraries/STM32F10x_StdPeriph_Driver/src/stm32f10x_tim.c ****   tmpsmcr = TIMx->SMCR;
 2549              		.loc 1 1284 0
 2550 0020 FB68     		ldr	r3, [r7, #12]
 2551 0022 1B89     		ldrh	r3, [r3, #8]	@ movhi
 2552 0024 FB82     		strh	r3, [r7, #22]	@ movhi
1285:../libraries/STM32F10x_StdPeriph_Driver/src/stm32f10x_tim.c ****   
1286:../libraries/STM32F10x_StdPeriph_Driver/src/stm32f10x_tim.c ****   /* Get the TIMx CCMR1 register value */
1287:../libraries/STM32F10x_StdPeriph_Driver/src/stm32f10x_tim.c ****   tmpccmr1 = TIMx->CCMR1;
 2553              		.loc 1 1287 0
 2554 0026 FB68     		ldr	r3, [r7, #12]
 2555 0028 1B8B     		ldrh	r3, [r3, #24]	@ movhi
 2556 002a BB82     		strh	r3, [r7, #20]	@ movhi
1288:../libraries/STM32F10x_StdPeriph_Driver/src/stm32f10x_tim.c ****   
1289:../libraries/STM32F10x_StdPeriph_Driver/src/stm32f10x_tim.c ****   /* Get the TIMx CCER register value */
1290:../libraries/STM32F10x_StdPeriph_Driver/src/stm32f10x_tim.c ****   tmpccer = TIMx->CCER;
 2557              		.loc 1 1290 0
 2558 002c FB68     		ldr	r3, [r7, #12]
 2559 002e 1B8C     		ldrh	r3, [r3, #32]	@ movhi
 2560 0030 7B82     		strh	r3, [r7, #18]	@ movhi
1291:../libraries/STM32F10x_StdPeriph_Driver/src/stm32f10x_tim.c ****   
1292:../libraries/STM32F10x_StdPeriph_Driver/src/stm32f10x_tim.c ****   /* Set the encoder Mode */
1293:../libraries/STM32F10x_StdPeriph_Driver/src/stm32f10x_tim.c ****   tmpsmcr &= (uint16_t)(~((uint16_t)TIM_SMCR_SMS));
 2561              		.loc 1 1293 0
 2562 0032 FB8A     		ldrh	r3, [r7, #22]	@ movhi
 2563 0034 23F00703 		bic	r3, r3, #7
 2564 0038 FB82     		strh	r3, [r7, #22]	@ movhi
1294:../libraries/STM32F10x_StdPeriph_Driver/src/stm32f10x_tim.c ****   tmpsmcr |= TIM_EncoderMode;
 2565              		.loc 1 1294 0
 2566 003a FA8A     		ldrh	r2, [r7, #22]	@ movhi
 2567 003c 7B89     		ldrh	r3, [r7, #10]	@ movhi
 2568 003e 1343     		orrs	r3, r3, r2
 2569 0040 FB82     		strh	r3, [r7, #22]	@ movhi
1295:../libraries/STM32F10x_StdPeriph_Driver/src/stm32f10x_tim.c ****   
1296:../libraries/STM32F10x_StdPeriph_Driver/src/stm32f10x_tim.c ****   /* Select the Capture Compare 1 and the Capture Compare 2 as input */
1297:../libraries/STM32F10x_StdPeriph_Driver/src/stm32f10x_tim.c ****   tmpccmr1 &= (uint16_t)(((uint16_t)~((uint16_t)TIM_CCMR1_CC1S)) & (uint16_t)(~((uint16_t)TIM_CCMR1
 2570              		.loc 1 1297 0
 2571 0042 BB8A     		ldrh	r3, [r7, #20]	@ movhi
 2572 0044 23F44073 		bic	r3, r3, #768
 2573 0048 23F00303 		bic	r3, r3, #3
 2574 004c BB82     		strh	r3, [r7, #20]	@ movhi
1298:../libraries/STM32F10x_StdPeriph_Driver/src/stm32f10x_tim.c ****   tmpccmr1 |= TIM_CCMR1_CC1S_0 | TIM_CCMR1_CC2S_0;
 2575              		.loc 1 1298 0
 2576 004e BB8A     		ldrh	r3, [r7, #20]	@ movhi
 2577 0050 43F48073 		orr	r3, r3, #256
 2578 0054 43F00103 		orr	r3, r3, #1
 2579 0058 BB82     		strh	r3, [r7, #20]	@ movhi
1299:../libraries/STM32F10x_StdPeriph_Driver/src/stm32f10x_tim.c ****   
1300:../libraries/STM32F10x_StdPeriph_Driver/src/stm32f10x_tim.c ****   /* Set the TI1 and the TI2 Polarities */
1301:../libraries/STM32F10x_StdPeriph_Driver/src/stm32f10x_tim.c ****   tmpccer &= (uint16_t)(((uint16_t)~((uint16_t)TIM_CCER_CC1P)) & ((uint16_t)~((uint16_t)TIM_CCER_CC
 2580              		.loc 1 1301 0
 2581 005a 7B8A     		ldrh	r3, [r7, #18]	@ movhi
 2582 005c 23F02203 		bic	r3, r3, #34
 2583 0060 7B82     		strh	r3, [r7, #18]	@ movhi
1302:../libraries/STM32F10x_StdPeriph_Driver/src/stm32f10x_tim.c ****   tmpccer |= (uint16_t)(TIM_IC1Polarity | (uint16_t)(TIM_IC2Polarity << (uint16_t)4));
 2584              		.loc 1 1302 0
 2585 0062 FB88     		ldrh	r3, [r7, #6]	@ movhi
 2586 0064 4FEA0313 		lsl	r3, r3, #4
 2587 0068 9AB2     		uxth	r2, r3
 2588 006a 3B89     		ldrh	r3, [r7, #8]	@ movhi
 2589 006c 1343     		orrs	r3, r3, r2
 2590 006e 9AB2     		uxth	r2, r3
 2591 0070 7B8A     		ldrh	r3, [r7, #18]	@ movhi
 2592 0072 1343     		orrs	r3, r3, r2
 2593 0074 7B82     		strh	r3, [r7, #18]	@ movhi
1303:../libraries/STM32F10x_StdPeriph_Driver/src/stm32f10x_tim.c ****   
1304:../libraries/STM32F10x_StdPeriph_Driver/src/stm32f10x_tim.c ****   /* Write to TIMx SMCR */
1305:../libraries/STM32F10x_StdPeriph_Driver/src/stm32f10x_tim.c ****   TIMx->SMCR = tmpsmcr;
 2594              		.loc 1 1305 0
 2595 0076 FB68     		ldr	r3, [r7, #12]
 2596 0078 FA8A     		ldrh	r2, [r7, #22]	@ movhi
 2597 007a 1A81     		strh	r2, [r3, #8]	@ movhi
1306:../libraries/STM32F10x_StdPeriph_Driver/src/stm32f10x_tim.c ****   /* Write to TIMx CCMR1 */
1307:../libraries/STM32F10x_StdPeriph_Driver/src/stm32f10x_tim.c ****   TIMx->CCMR1 = tmpccmr1;
 2598              		.loc 1 1307 0
 2599 007c FB68     		ldr	r3, [r7, #12]
 2600 007e BA8A     		ldrh	r2, [r7, #20]	@ movhi
 2601 0080 1A83     		strh	r2, [r3, #24]	@ movhi
1308:../libraries/STM32F10x_StdPeriph_Driver/src/stm32f10x_tim.c ****   /* Write to TIMx CCER */
1309:../libraries/STM32F10x_StdPeriph_Driver/src/stm32f10x_tim.c ****   TIMx->CCER = tmpccer;
 2602              		.loc 1 1309 0
 2603 0082 FB68     		ldr	r3, [r7, #12]
 2604 0084 7A8A     		ldrh	r2, [r7, #18]	@ movhi
 2605 0086 1A84     		strh	r2, [r3, #32]	@ movhi
1310:../libraries/STM32F10x_StdPeriph_Driver/src/stm32f10x_tim.c **** }
 2606              		.loc 1 1310 0
 2607 0088 07F11C07 		add	r7, r7, #28
 2608 008c BD46     		mov	sp, r7
 2609 008e 80BC     		pop	{r7}
 2610 0090 7047     		bx	lr
 2611              		.cfi_endproc
 2612              	.LFE84:
 2614 0092 00BF     		.section	.text.TIM_ForcedOC1Config,"ax",%progbits
 2615              		.align	2
 2616              		.global	TIM_ForcedOC1Config
 2617              		.thumb
 2618              		.thumb_func
 2620              	TIM_ForcedOC1Config:
 2621              	.LFB85:
1311:../libraries/STM32F10x_StdPeriph_Driver/src/stm32f10x_tim.c **** 
1312:../libraries/STM32F10x_StdPeriph_Driver/src/stm32f10x_tim.c **** /**
1313:../libraries/STM32F10x_StdPeriph_Driver/src/stm32f10x_tim.c ****   * @brief  Forces the TIMx output 1 waveform to active or inactive level.
1314:../libraries/STM32F10x_StdPeriph_Driver/src/stm32f10x_tim.c ****   * @param  TIMx: where x can be  1 to 17 except 6 and 7 to select the TIM peripheral.
1315:../libraries/STM32F10x_StdPeriph_Driver/src/stm32f10x_tim.c ****   * @param  TIM_ForcedAction: specifies the forced Action to be set to the output waveform.
1316:../libraries/STM32F10x_StdPeriph_Driver/src/stm32f10x_tim.c ****   *   This parameter can be one of the following values:
1317:../libraries/STM32F10x_StdPeriph_Driver/src/stm32f10x_tim.c ****   *     @arg TIM_ForcedAction_Active: Force active level on OC1REF
1318:../libraries/STM32F10x_StdPeriph_Driver/src/stm32f10x_tim.c ****   *     @arg TIM_ForcedAction_InActive: Force inactive level on OC1REF.
1319:../libraries/STM32F10x_StdPeriph_Driver/src/stm32f10x_tim.c ****   * @retval None
1320:../libraries/STM32F10x_StdPeriph_Driver/src/stm32f10x_tim.c ****   */
1321:../libraries/STM32F10x_StdPeriph_Driver/src/stm32f10x_tim.c **** void TIM_ForcedOC1Config(TIM_TypeDef* TIMx, uint16_t TIM_ForcedAction)
1322:../libraries/STM32F10x_StdPeriph_Driver/src/stm32f10x_tim.c **** {
 2622              		.loc 1 1322 0
 2623              		.cfi_startproc
 2624              		@ args = 0, pretend = 0, frame = 16
 2625              		@ frame_needed = 1, uses_anonymous_args = 0
 2626              		@ link register save eliminated.
 2627 0000 80B4     		push	{r7}
 2628              	.LCFI87:
 2629              		.cfi_def_cfa_offset 4
 2630              		.cfi_offset 7, -4
 2631 0002 85B0     		sub	sp, sp, #20
 2632              	.LCFI88:
 2633              		.cfi_def_cfa_offset 24
 2634 0004 00AF     		add	r7, sp, #0
 2635              	.LCFI89:
 2636              		.cfi_def_cfa_register 7
 2637 0006 7860     		str	r0, [r7, #4]
 2638 0008 0B46     		mov	r3, r1
 2639 000a 7B80     		strh	r3, [r7, #2]	@ movhi
1323:../libraries/STM32F10x_StdPeriph_Driver/src/stm32f10x_tim.c ****   uint16_t tmpccmr1 = 0;
 2640              		.loc 1 1323 0
 2641 000c 4FF00003 		mov	r3, #0
 2642 0010 FB81     		strh	r3, [r7, #14]	@ movhi
1324:../libraries/STM32F10x_StdPeriph_Driver/src/stm32f10x_tim.c ****   /* Check the parameters */
1325:../libraries/STM32F10x_StdPeriph_Driver/src/stm32f10x_tim.c ****   assert_param(IS_TIM_LIST8_PERIPH(TIMx));
1326:../libraries/STM32F10x_StdPeriph_Driver/src/stm32f10x_tim.c ****   assert_param(IS_TIM_FORCED_ACTION(TIM_ForcedAction));
1327:../libraries/STM32F10x_StdPeriph_Driver/src/stm32f10x_tim.c ****   tmpccmr1 = TIMx->CCMR1;
 2643              		.loc 1 1327 0
 2644 0012 7B68     		ldr	r3, [r7, #4]
 2645 0014 1B8B     		ldrh	r3, [r3, #24]	@ movhi
 2646 0016 FB81     		strh	r3, [r7, #14]	@ movhi
1328:../libraries/STM32F10x_StdPeriph_Driver/src/stm32f10x_tim.c ****   /* Reset the OC1M Bits */
1329:../libraries/STM32F10x_StdPeriph_Driver/src/stm32f10x_tim.c ****   tmpccmr1 &= (uint16_t)~((uint16_t)TIM_CCMR1_OC1M);
 2647              		.loc 1 1329 0
 2648 0018 FB89     		ldrh	r3, [r7, #14]	@ movhi
 2649 001a 23F07003 		bic	r3, r3, #112
 2650 001e FB81     		strh	r3, [r7, #14]	@ movhi
1330:../libraries/STM32F10x_StdPeriph_Driver/src/stm32f10x_tim.c ****   /* Configure The Forced output Mode */
1331:../libraries/STM32F10x_StdPeriph_Driver/src/stm32f10x_tim.c ****   tmpccmr1 |= TIM_ForcedAction;
 2651              		.loc 1 1331 0
 2652 0020 FA89     		ldrh	r2, [r7, #14]	@ movhi
 2653 0022 7B88     		ldrh	r3, [r7, #2]	@ movhi
 2654 0024 1343     		orrs	r3, r3, r2
 2655 0026 FB81     		strh	r3, [r7, #14]	@ movhi
1332:../libraries/STM32F10x_StdPeriph_Driver/src/stm32f10x_tim.c ****   /* Write to TIMx CCMR1 register */
1333:../libraries/STM32F10x_StdPeriph_Driver/src/stm32f10x_tim.c ****   TIMx->CCMR1 = tmpccmr1;
 2656              		.loc 1 1333 0
 2657 0028 7B68     		ldr	r3, [r7, #4]
 2658 002a FA89     		ldrh	r2, [r7, #14]	@ movhi
 2659 002c 1A83     		strh	r2, [r3, #24]	@ movhi
1334:../libraries/STM32F10x_StdPeriph_Driver/src/stm32f10x_tim.c **** }
 2660              		.loc 1 1334 0
 2661 002e 07F11407 		add	r7, r7, #20
 2662 0032 BD46     		mov	sp, r7
 2663 0034 80BC     		pop	{r7}
 2664 0036 7047     		bx	lr
 2665              		.cfi_endproc
 2666              	.LFE85:
 2668              		.section	.text.TIM_ForcedOC2Config,"ax",%progbits
 2669              		.align	2
 2670              		.global	TIM_ForcedOC2Config
 2671              		.thumb
 2672              		.thumb_func
 2674              	TIM_ForcedOC2Config:
 2675              	.LFB86:
1335:../libraries/STM32F10x_StdPeriph_Driver/src/stm32f10x_tim.c **** 
1336:../libraries/STM32F10x_StdPeriph_Driver/src/stm32f10x_tim.c **** /**
1337:../libraries/STM32F10x_StdPeriph_Driver/src/stm32f10x_tim.c ****   * @brief  Forces the TIMx output 2 waveform to active or inactive level.
1338:../libraries/STM32F10x_StdPeriph_Driver/src/stm32f10x_tim.c ****   * @param  TIMx: where x can be  1, 2, 3, 4, 5, 8, 9, 12 or 15 to select the TIM peripheral.
1339:../libraries/STM32F10x_StdPeriph_Driver/src/stm32f10x_tim.c ****   * @param  TIM_ForcedAction: specifies the forced Action to be set to the output waveform.
1340:../libraries/STM32F10x_StdPeriph_Driver/src/stm32f10x_tim.c ****   *   This parameter can be one of the following values:
1341:../libraries/STM32F10x_StdPeriph_Driver/src/stm32f10x_tim.c ****   *     @arg TIM_ForcedAction_Active: Force active level on OC2REF
1342:../libraries/STM32F10x_StdPeriph_Driver/src/stm32f10x_tim.c ****   *     @arg TIM_ForcedAction_InActive: Force inactive level on OC2REF.
1343:../libraries/STM32F10x_StdPeriph_Driver/src/stm32f10x_tim.c ****   * @retval None
1344:../libraries/STM32F10x_StdPeriph_Driver/src/stm32f10x_tim.c ****   */
1345:../libraries/STM32F10x_StdPeriph_Driver/src/stm32f10x_tim.c **** void TIM_ForcedOC2Config(TIM_TypeDef* TIMx, uint16_t TIM_ForcedAction)
1346:../libraries/STM32F10x_StdPeriph_Driver/src/stm32f10x_tim.c **** {
 2676              		.loc 1 1346 0
 2677              		.cfi_startproc
 2678              		@ args = 0, pretend = 0, frame = 16
 2679              		@ frame_needed = 1, uses_anonymous_args = 0
 2680              		@ link register save eliminated.
 2681 0000 80B4     		push	{r7}
 2682              	.LCFI90:
 2683              		.cfi_def_cfa_offset 4
 2684              		.cfi_offset 7, -4
 2685 0002 85B0     		sub	sp, sp, #20
 2686              	.LCFI91:
 2687              		.cfi_def_cfa_offset 24
 2688 0004 00AF     		add	r7, sp, #0
 2689              	.LCFI92:
 2690              		.cfi_def_cfa_register 7
 2691 0006 7860     		str	r0, [r7, #4]
 2692 0008 0B46     		mov	r3, r1
 2693 000a 7B80     		strh	r3, [r7, #2]	@ movhi
1347:../libraries/STM32F10x_StdPeriph_Driver/src/stm32f10x_tim.c ****   uint16_t tmpccmr1 = 0;
 2694              		.loc 1 1347 0
 2695 000c 4FF00003 		mov	r3, #0
 2696 0010 FB81     		strh	r3, [r7, #14]	@ movhi
1348:../libraries/STM32F10x_StdPeriph_Driver/src/stm32f10x_tim.c ****   /* Check the parameters */
1349:../libraries/STM32F10x_StdPeriph_Driver/src/stm32f10x_tim.c ****   assert_param(IS_TIM_LIST6_PERIPH(TIMx));
1350:../libraries/STM32F10x_StdPeriph_Driver/src/stm32f10x_tim.c ****   assert_param(IS_TIM_FORCED_ACTION(TIM_ForcedAction));
1351:../libraries/STM32F10x_StdPeriph_Driver/src/stm32f10x_tim.c ****   tmpccmr1 = TIMx->CCMR1;
 2697              		.loc 1 1351 0
 2698 0012 7B68     		ldr	r3, [r7, #4]
 2699 0014 1B8B     		ldrh	r3, [r3, #24]	@ movhi
 2700 0016 FB81     		strh	r3, [r7, #14]	@ movhi
1352:../libraries/STM32F10x_StdPeriph_Driver/src/stm32f10x_tim.c ****   /* Reset the OC2M Bits */
1353:../libraries/STM32F10x_StdPeriph_Driver/src/stm32f10x_tim.c ****   tmpccmr1 &= (uint16_t)~((uint16_t)TIM_CCMR1_OC2M);
 2701              		.loc 1 1353 0
 2702 0018 FB89     		ldrh	r3, [r7, #14]	@ movhi
 2703 001a 23F4E043 		bic	r3, r3, #28672
 2704 001e FB81     		strh	r3, [r7, #14]	@ movhi
1354:../libraries/STM32F10x_StdPeriph_Driver/src/stm32f10x_tim.c ****   /* Configure The Forced output Mode */
1355:../libraries/STM32F10x_StdPeriph_Driver/src/stm32f10x_tim.c ****   tmpccmr1 |= (uint16_t)(TIM_ForcedAction << 8);
 2705              		.loc 1 1355 0
 2706 0020 7B88     		ldrh	r3, [r7, #2]	@ movhi
 2707 0022 4FEA0323 		lsl	r3, r3, #8
 2708 0026 9AB2     		uxth	r2, r3
 2709 0028 FB89     		ldrh	r3, [r7, #14]	@ movhi
 2710 002a 1343     		orrs	r3, r3, r2
 2711 002c FB81     		strh	r3, [r7, #14]	@ movhi
1356:../libraries/STM32F10x_StdPeriph_Driver/src/stm32f10x_tim.c ****   /* Write to TIMx CCMR1 register */
1357:../libraries/STM32F10x_StdPeriph_Driver/src/stm32f10x_tim.c ****   TIMx->CCMR1 = tmpccmr1;
 2712              		.loc 1 1357 0
 2713 002e 7B68     		ldr	r3, [r7, #4]
 2714 0030 FA89     		ldrh	r2, [r7, #14]	@ movhi
 2715 0032 1A83     		strh	r2, [r3, #24]	@ movhi
1358:../libraries/STM32F10x_StdPeriph_Driver/src/stm32f10x_tim.c **** }
 2716              		.loc 1 1358 0
 2717 0034 07F11407 		add	r7, r7, #20
 2718 0038 BD46     		mov	sp, r7
 2719 003a 80BC     		pop	{r7}
 2720 003c 7047     		bx	lr
 2721              		.cfi_endproc
 2722              	.LFE86:
 2724 003e 00BF     		.section	.text.TIM_ForcedOC3Config,"ax",%progbits
 2725              		.align	2
 2726              		.global	TIM_ForcedOC3Config
 2727              		.thumb
