   1              		.syntax unified
   2              		.cpu cortex-m3
   3              		.fpu softvfp
   4              		.eabi_attribute 20, 1
   5              		.eabi_attribute 21, 1
   6              		.eabi_attribute 23, 3
   7              		.eabi_attribute 24, 1
   8              		.eabi_attribute 25, 1
   9              		.eabi_attribute 26, 1
  10              		.eabi_attribute 30, 4
  11              		.eabi_attribute 34, 1
  12              		.eabi_attribute 18, 4
  13              		.thumb
  14              		.file	"stm32f10x_exti.c"
  15              		.text
  16              	.Ltext0:
  17              		.cfi_sections	.debug_frame
  18              		.section	.text.EXTI_DeInit,"ax",%progbits
  19              		.align	1
  20              		.global	EXTI_DeInit
  21              		.thumb
  22              		.thumb_func
  24              	EXTI_DeInit:
  25              	.LFB56:
  26              		.file 1 "../libraries/STM32F10x_StdPeriph_Driver/src/stm32f10x_exti.c"
   1:../libraries/STM32F10x_StdPeriph_Driver/src/stm32f10x_exti.c **** /**
   2:../libraries/STM32F10x_StdPeriph_Driver/src/stm32f10x_exti.c ****   ******************************************************************************
   3:../libraries/STM32F10x_StdPeriph_Driver/src/stm32f10x_exti.c ****   * @file    stm32f10x_exti.c
   4:../libraries/STM32F10x_StdPeriph_Driver/src/stm32f10x_exti.c ****   * @author  MCD Application Team
   5:../libraries/STM32F10x_StdPeriph_Driver/src/stm32f10x_exti.c ****   * @version V3.6.1
   6:../libraries/STM32F10x_StdPeriph_Driver/src/stm32f10x_exti.c ****   * @date    05-March-2012
   7:../libraries/STM32F10x_StdPeriph_Driver/src/stm32f10x_exti.c ****   * @brief   This file provides all the EXTI firmware functions.
   8:../libraries/STM32F10x_StdPeriph_Driver/src/stm32f10x_exti.c ****   ******************************************************************************
   9:../libraries/STM32F10x_StdPeriph_Driver/src/stm32f10x_exti.c ****   * @attention
  10:../libraries/STM32F10x_StdPeriph_Driver/src/stm32f10x_exti.c ****   *
  11:../libraries/STM32F10x_StdPeriph_Driver/src/stm32f10x_exti.c ****   * <h2><center>&copy; COPYRIGHT 2012 STMicroelectronics</center></h2>
  12:../libraries/STM32F10x_StdPeriph_Driver/src/stm32f10x_exti.c ****   *
  13:../libraries/STM32F10x_StdPeriph_Driver/src/stm32f10x_exti.c ****   * Licensed under MCD-ST Liberty SW License Agreement V2, (the "License");
  14:../libraries/STM32F10x_StdPeriph_Driver/src/stm32f10x_exti.c ****   * You may not use this file except in compliance with the License.
  15:../libraries/STM32F10x_StdPeriph_Driver/src/stm32f10x_exti.c ****   * You may obtain a copy of the License at:
  16:../libraries/STM32F10x_StdPeriph_Driver/src/stm32f10x_exti.c ****   *
  17:../libraries/STM32F10x_StdPeriph_Driver/src/stm32f10x_exti.c ****   *        http://www.st.com/software_license_agreement_liberty_v2
  18:../libraries/STM32F10x_StdPeriph_Driver/src/stm32f10x_exti.c ****   *
  19:../libraries/STM32F10x_StdPeriph_Driver/src/stm32f10x_exti.c ****   * Unless required by applicable law or agreed to in writing, software 
  20:../libraries/STM32F10x_StdPeriph_Driver/src/stm32f10x_exti.c ****   * distributed under the License is distributed on an "AS IS" BASIS, 
  21:../libraries/STM32F10x_StdPeriph_Driver/src/stm32f10x_exti.c ****   * WITHOUT WARRANTIES OR CONDITIONS OF ANY KIND, either express or implied.
  22:../libraries/STM32F10x_StdPeriph_Driver/src/stm32f10x_exti.c ****   * See the License for the specific language governing permissions and
  23:../libraries/STM32F10x_StdPeriph_Driver/src/stm32f10x_exti.c ****   * limitations under the License.
  24:../libraries/STM32F10x_StdPeriph_Driver/src/stm32f10x_exti.c ****   *
  25:../libraries/STM32F10x_StdPeriph_Driver/src/stm32f10x_exti.c ****   ******************************************************************************
  26:../libraries/STM32F10x_StdPeriph_Driver/src/stm32f10x_exti.c ****   */
  27:../libraries/STM32F10x_StdPeriph_Driver/src/stm32f10x_exti.c **** 
  28:../libraries/STM32F10x_StdPeriph_Driver/src/stm32f10x_exti.c **** /* Includes ------------------------------------------------------------------*/
  29:../libraries/STM32F10x_StdPeriph_Driver/src/stm32f10x_exti.c **** #include "stm32f10x_exti.h"
  30:../libraries/STM32F10x_StdPeriph_Driver/src/stm32f10x_exti.c **** 
  31:../libraries/STM32F10x_StdPeriph_Driver/src/stm32f10x_exti.c **** /** @addtogroup STM32F10x_StdPeriph_Driver
  32:../libraries/STM32F10x_StdPeriph_Driver/src/stm32f10x_exti.c ****   * @{
  33:../libraries/STM32F10x_StdPeriph_Driver/src/stm32f10x_exti.c ****   */
  34:../libraries/STM32F10x_StdPeriph_Driver/src/stm32f10x_exti.c **** 
  35:../libraries/STM32F10x_StdPeriph_Driver/src/stm32f10x_exti.c **** /** @defgroup EXTI 
  36:../libraries/STM32F10x_StdPeriph_Driver/src/stm32f10x_exti.c ****   * @brief EXTI driver modules
  37:../libraries/STM32F10x_StdPeriph_Driver/src/stm32f10x_exti.c ****   * @{
  38:../libraries/STM32F10x_StdPeriph_Driver/src/stm32f10x_exti.c ****   */
  39:../libraries/STM32F10x_StdPeriph_Driver/src/stm32f10x_exti.c **** 
  40:../libraries/STM32F10x_StdPeriph_Driver/src/stm32f10x_exti.c **** /** @defgroup EXTI_Private_TypesDefinitions
  41:../libraries/STM32F10x_StdPeriph_Driver/src/stm32f10x_exti.c ****   * @{
  42:../libraries/STM32F10x_StdPeriph_Driver/src/stm32f10x_exti.c ****   */
  43:../libraries/STM32F10x_StdPeriph_Driver/src/stm32f10x_exti.c **** 
  44:../libraries/STM32F10x_StdPeriph_Driver/src/stm32f10x_exti.c **** /**
  45:../libraries/STM32F10x_StdPeriph_Driver/src/stm32f10x_exti.c ****   * @}
  46:../libraries/STM32F10x_StdPeriph_Driver/src/stm32f10x_exti.c ****   */
  47:../libraries/STM32F10x_StdPeriph_Driver/src/stm32f10x_exti.c **** 
  48:../libraries/STM32F10x_StdPeriph_Driver/src/stm32f10x_exti.c **** /** @defgroup EXTI_Private_Defines
  49:../libraries/STM32F10x_StdPeriph_Driver/src/stm32f10x_exti.c ****   * @{
  50:../libraries/STM32F10x_StdPeriph_Driver/src/stm32f10x_exti.c ****   */
  51:../libraries/STM32F10x_StdPeriph_Driver/src/stm32f10x_exti.c **** 
  52:../libraries/STM32F10x_StdPeriph_Driver/src/stm32f10x_exti.c **** #define EXTI_LINENONE    ((uint32_t)0x00000)  /* No interrupt selected */
  53:../libraries/STM32F10x_StdPeriph_Driver/src/stm32f10x_exti.c **** 
  54:../libraries/STM32F10x_StdPeriph_Driver/src/stm32f10x_exti.c **** /**
  55:../libraries/STM32F10x_StdPeriph_Driver/src/stm32f10x_exti.c ****   * @}
  56:../libraries/STM32F10x_StdPeriph_Driver/src/stm32f10x_exti.c ****   */
  57:../libraries/STM32F10x_StdPeriph_Driver/src/stm32f10x_exti.c **** 
  58:../libraries/STM32F10x_StdPeriph_Driver/src/stm32f10x_exti.c **** /** @defgroup EXTI_Private_Macros
  59:../libraries/STM32F10x_StdPeriph_Driver/src/stm32f10x_exti.c ****   * @{
  60:../libraries/STM32F10x_StdPeriph_Driver/src/stm32f10x_exti.c ****   */
  61:../libraries/STM32F10x_StdPeriph_Driver/src/stm32f10x_exti.c **** 
  62:../libraries/STM32F10x_StdPeriph_Driver/src/stm32f10x_exti.c **** /**
  63:../libraries/STM32F10x_StdPeriph_Driver/src/stm32f10x_exti.c ****   * @}
  64:../libraries/STM32F10x_StdPeriph_Driver/src/stm32f10x_exti.c ****   */
  65:../libraries/STM32F10x_StdPeriph_Driver/src/stm32f10x_exti.c **** 
  66:../libraries/STM32F10x_StdPeriph_Driver/src/stm32f10x_exti.c **** /** @defgroup EXTI_Private_Variables
  67:../libraries/STM32F10x_StdPeriph_Driver/src/stm32f10x_exti.c ****   * @{
  68:../libraries/STM32F10x_StdPeriph_Driver/src/stm32f10x_exti.c ****   */
  69:../libraries/STM32F10x_StdPeriph_Driver/src/stm32f10x_exti.c **** 
  70:../libraries/STM32F10x_StdPeriph_Driver/src/stm32f10x_exti.c **** /**
  71:../libraries/STM32F10x_StdPeriph_Driver/src/stm32f10x_exti.c ****   * @}
  72:../libraries/STM32F10x_StdPeriph_Driver/src/stm32f10x_exti.c ****   */
  73:../libraries/STM32F10x_StdPeriph_Driver/src/stm32f10x_exti.c **** 
  74:../libraries/STM32F10x_StdPeriph_Driver/src/stm32f10x_exti.c **** /** @defgroup EXTI_Private_FunctionPrototypes
  75:../libraries/STM32F10x_StdPeriph_Driver/src/stm32f10x_exti.c ****   * @{
  76:../libraries/STM32F10x_StdPeriph_Driver/src/stm32f10x_exti.c ****   */
  77:../libraries/STM32F10x_StdPeriph_Driver/src/stm32f10x_exti.c **** 
  78:../libraries/STM32F10x_StdPeriph_Driver/src/stm32f10x_exti.c **** /**
  79:../libraries/STM32F10x_StdPeriph_Driver/src/stm32f10x_exti.c ****   * @}
  80:../libraries/STM32F10x_StdPeriph_Driver/src/stm32f10x_exti.c ****   */
  81:../libraries/STM32F10x_StdPeriph_Driver/src/stm32f10x_exti.c **** 
  82:../libraries/STM32F10x_StdPeriph_Driver/src/stm32f10x_exti.c **** /** @defgroup EXTI_Private_Functions
  83:../libraries/STM32F10x_StdPeriph_Driver/src/stm32f10x_exti.c ****   * @{
  84:../libraries/STM32F10x_StdPeriph_Driver/src/stm32f10x_exti.c ****   */
  85:../libraries/STM32F10x_StdPeriph_Driver/src/stm32f10x_exti.c **** 
  86:../libraries/STM32F10x_StdPeriph_Driver/src/stm32f10x_exti.c **** /**
  87:../libraries/STM32F10x_StdPeriph_Driver/src/stm32f10x_exti.c ****   * @brief  Deinitializes the EXTI peripheral registers to their default reset values.
  88:../libraries/STM32F10x_StdPeriph_Driver/src/stm32f10x_exti.c ****   * @param  None
  89:../libraries/STM32F10x_StdPeriph_Driver/src/stm32f10x_exti.c ****   * @retval None
  90:../libraries/STM32F10x_StdPeriph_Driver/src/stm32f10x_exti.c ****   */
  91:../libraries/STM32F10x_StdPeriph_Driver/src/stm32f10x_exti.c **** void EXTI_DeInit(void)
  92:../libraries/STM32F10x_StdPeriph_Driver/src/stm32f10x_exti.c **** {
  27              		.loc 1 92 0
  28              		.cfi_startproc
  29              		@ args = 0, pretend = 0, frame = 0
  30              		@ frame_needed = 0, uses_anonymous_args = 0
  31              		@ link register save eliminated.
  93:../libraries/STM32F10x_StdPeriph_Driver/src/stm32f10x_exti.c ****   EXTI->IMR = 0x00000000;
  32              		.loc 1 93 0
  33 0000 044B     		ldr	r3, .L2
  94:../libraries/STM32F10x_StdPeriph_Driver/src/stm32f10x_exti.c ****   EXTI->EMR = 0x00000000;
  95:../libraries/STM32F10x_StdPeriph_Driver/src/stm32f10x_exti.c ****   EXTI->RTSR = 0x00000000; 
  96:../libraries/STM32F10x_StdPeriph_Driver/src/stm32f10x_exti.c ****   EXTI->FTSR = 0x00000000; 
  97:../libraries/STM32F10x_StdPeriph_Driver/src/stm32f10x_exti.c ****   EXTI->PR = 0x000FFFFF;
  34              		.loc 1 97 0
  35 0002 0548     		ldr	r0, .L2+4
  93:../libraries/STM32F10x_StdPeriph_Driver/src/stm32f10x_exti.c ****   EXTI->IMR = 0x00000000;
  36              		.loc 1 93 0
  37 0004 0022     		movs	r2, #0
  38 0006 1A60     		str	r2, [r3, #0]
  94:../libraries/STM32F10x_StdPeriph_Driver/src/stm32f10x_exti.c ****   EXTI->EMR = 0x00000000;
  39              		.loc 1 94 0
  40 0008 5A60     		str	r2, [r3, #4]
  95:../libraries/STM32F10x_StdPeriph_Driver/src/stm32f10x_exti.c ****   EXTI->RTSR = 0x00000000; 
  41              		.loc 1 95 0
  42 000a 9A60     		str	r2, [r3, #8]
  96:../libraries/STM32F10x_StdPeriph_Driver/src/stm32f10x_exti.c ****   EXTI->FTSR = 0x00000000; 
  43              		.loc 1 96 0
  44 000c DA60     		str	r2, [r3, #12]
  45              		.loc 1 97 0
  46 000e 5861     		str	r0, [r3, #20]
  47 0010 7047     		bx	lr
  48              	.L3:
  49 0012 00BF     		.align	2
  50              	.L2:
  51 0014 00040140 		.word	1073808384
  52 0018 FFFF0F00 		.word	1048575
  53              		.cfi_endproc
  54              	.LFE56:
  56              		.section	.text.EXTI_Init,"ax",%progbits
  57              		.align	1
  58              		.global	EXTI_Init
  59              		.thumb
  60              		.thumb_func
  62              	EXTI_Init:
  63              	.LFB57:
  98:../libraries/STM32F10x_StdPeriph_Driver/src/stm32f10x_exti.c **** }
  99:../libraries/STM32F10x_StdPeriph_Driver/src/stm32f10x_exti.c **** 
 100:../libraries/STM32F10x_StdPeriph_Driver/src/stm32f10x_exti.c **** /**
 101:../libraries/STM32F10x_StdPeriph_Driver/src/stm32f10x_exti.c ****   * @brief  Initializes the EXTI peripheral according to the specified
 102:../libraries/STM32F10x_StdPeriph_Driver/src/stm32f10x_exti.c ****   *         parameters in the EXTI_InitStruct.
 103:../libraries/STM32F10x_StdPeriph_Driver/src/stm32f10x_exti.c ****   * @param  EXTI_InitStruct: pointer to a EXTI_InitTypeDef structure
 104:../libraries/STM32F10x_StdPeriph_Driver/src/stm32f10x_exti.c ****   *         that contains the configuration information for the EXTI peripheral.
 105:../libraries/STM32F10x_StdPeriph_Driver/src/stm32f10x_exti.c ****   * @retval None
 106:../libraries/STM32F10x_StdPeriph_Driver/src/stm32f10x_exti.c ****   */
 107:../libraries/STM32F10x_StdPeriph_Driver/src/stm32f10x_exti.c **** void EXTI_Init(EXTI_InitTypeDef* EXTI_InitStruct)
 108:../libraries/STM32F10x_StdPeriph_Driver/src/stm32f10x_exti.c **** {
  64              		.loc 1 108 0
  65              		.cfi_startproc
  66              		@ args = 0, pretend = 0, frame = 0
  67              		@ frame_needed = 0, uses_anonymous_args = 0
  68              	.LVL0:
 109:../libraries/STM32F10x_StdPeriph_Driver/src/stm32f10x_exti.c ****   uint32_t tmp = 0;
 110:../libraries/STM32F10x_StdPeriph_Driver/src/stm32f10x_exti.c **** 
 111:../libraries/STM32F10x_StdPeriph_Driver/src/stm32f10x_exti.c ****   /* Check the parameters */
 112:../libraries/STM32F10x_StdPeriph_Driver/src/stm32f10x_exti.c ****   assert_param(IS_EXTI_MODE(EXTI_InitStruct->EXTI_Mode));
 113:../libraries/STM32F10x_StdPeriph_Driver/src/stm32f10x_exti.c ****   assert_param(IS_EXTI_TRIGGER(EXTI_InitStruct->EXTI_Trigger));
 114:../libraries/STM32F10x_StdPeriph_Driver/src/stm32f10x_exti.c ****   assert_param(IS_EXTI_LINE(EXTI_InitStruct->EXTI_Line));  
 115:../libraries/STM32F10x_StdPeriph_Driver/src/stm32f10x_exti.c ****   assert_param(IS_FUNCTIONAL_STATE(EXTI_InitStruct->EXTI_LineCmd));
 116:../libraries/STM32F10x_StdPeriph_Driver/src/stm32f10x_exti.c **** 
 117:../libraries/STM32F10x_StdPeriph_Driver/src/stm32f10x_exti.c ****   tmp = (uint32_t)EXTI_BASE;
 118:../libraries/STM32F10x_StdPeriph_Driver/src/stm32f10x_exti.c ****      
 119:../libraries/STM32F10x_StdPeriph_Driver/src/stm32f10x_exti.c ****   if (EXTI_InitStruct->EXTI_LineCmd != DISABLE)
  69              		.loc 1 119 0
  70 0000 8379     		ldrb	r3, [r0, #6]	@ zero_extendqisi2
 108:../libraries/STM32F10x_StdPeriph_Driver/src/stm32f10x_exti.c **** {
  71              		.loc 1 108 0
  72 0002 10B5     		push	{r4, lr}
  73              	.LCFI0:
  74              		.cfi_def_cfa_offset 8
  75              		.cfi_offset 4, -8
  76              		.cfi_offset 14, -4
  77              		.loc 1 119 0
  78 0004 002B     		cmp	r3, #0
  79 0006 29D0     		beq	.L5
 120:../libraries/STM32F10x_StdPeriph_Driver/src/stm32f10x_exti.c ****   {
 121:../libraries/STM32F10x_StdPeriph_Driver/src/stm32f10x_exti.c ****     /* Clear EXTI line configuration */
 122:../libraries/STM32F10x_StdPeriph_Driver/src/stm32f10x_exti.c ****     EXTI->IMR &= ~EXTI_InitStruct->EXTI_Line;
  80              		.loc 1 122 0
  81 0008 1A4B     		ldr	r3, .L10
  82 000a 0168     		ldr	r1, [r0, #0]
  83 000c 1C68     		ldr	r4, [r3, #0]
  84 000e CA43     		mvns	r2, r1
  85 0010 1440     		ands	r4, r4, r2
  86 0012 1C60     		str	r4, [r3, #0]
 123:../libraries/STM32F10x_StdPeriph_Driver/src/stm32f10x_exti.c ****     EXTI->EMR &= ~EXTI_InitStruct->EXTI_Line;
  87              		.loc 1 123 0
  88 0014 5C68     		ldr	r4, [r3, #4]
  89 0016 2240     		ands	r2, r2, r4
  90 0018 5A60     		str	r2, [r3, #4]
  91              	.LVL1:
 124:../libraries/STM32F10x_StdPeriph_Driver/src/stm32f10x_exti.c ****     
 125:../libraries/STM32F10x_StdPeriph_Driver/src/stm32f10x_exti.c ****     tmp += EXTI_InitStruct->EXTI_Mode;
  92              		.loc 1 125 0
  93 001a 0279     		ldrb	r2, [r0, #4]	@ zero_extendqisi2
  94 001c 02F18044 		add	r4, r2, #1073741824
  95 0020 04F58232 		add	r2, r4, #66560
 126:../libraries/STM32F10x_StdPeriph_Driver/src/stm32f10x_exti.c **** 
 127:../libraries/STM32F10x_StdPeriph_Driver/src/stm32f10x_exti.c ****     *(__IO uint32_t *) tmp |= EXTI_InitStruct->EXTI_Line;
  96              		.loc 1 127 0
  97 0024 1468     		ldr	r4, [r2, #0]
  98 0026 2143     		orrs	r1, r1, r4
  99 0028 1160     		str	r1, [r2, #0]
 128:../libraries/STM32F10x_StdPeriph_Driver/src/stm32f10x_exti.c **** 
 129:../libraries/STM32F10x_StdPeriph_Driver/src/stm32f10x_exti.c ****     /* Clear Rising Falling edge configuration */
 130:../libraries/STM32F10x_StdPeriph_Driver/src/stm32f10x_exti.c ****     EXTI->RTSR &= ~EXTI_InitStruct->EXTI_Line;
 100              		.loc 1 130 0
 101 002a 0268     		ldr	r2, [r0, #0]
 102 002c 9C68     		ldr	r4, [r3, #8]
 103 002e D143     		mvns	r1, r2
 104 0030 0C40     		ands	r4, r4, r1
 105 0032 9C60     		str	r4, [r3, #8]
 131:../libraries/STM32F10x_StdPeriph_Driver/src/stm32f10x_exti.c ****     EXTI->FTSR &= ~EXTI_InitStruct->EXTI_Line;
 106              		.loc 1 131 0
 107 0034 DC68     		ldr	r4, [r3, #12]
 132:../libraries/STM32F10x_StdPeriph_Driver/src/stm32f10x_exti.c ****     
 133:../libraries/STM32F10x_StdPeriph_Driver/src/stm32f10x_exti.c ****     /* Select the trigger for the selected external interrupts */
 134:../libraries/STM32F10x_StdPeriph_Driver/src/stm32f10x_exti.c ****     if (EXTI_InitStruct->EXTI_Trigger == EXTI_Trigger_Rising_Falling)
 108              		.loc 1 134 0
 109 0036 4079     		ldrb	r0, [r0, #5]	@ zero_extendqisi2
 110              	.LVL2:
 131:../libraries/STM32F10x_StdPeriph_Driver/src/stm32f10x_exti.c ****     EXTI->FTSR &= ~EXTI_InitStruct->EXTI_Line;
 111              		.loc 1 131 0
 112 0038 2140     		ands	r1, r1, r4
 113              		.loc 1 134 0
 114 003a 1028     		cmp	r0, #16
 131:../libraries/STM32F10x_StdPeriph_Driver/src/stm32f10x_exti.c ****     EXTI->FTSR &= ~EXTI_InitStruct->EXTI_Line;
 115              		.loc 1 131 0
 116 003c D960     		str	r1, [r3, #12]
 117              		.loc 1 134 0
 118 003e 06D1     		bne	.L6
 135:../libraries/STM32F10x_StdPeriph_Driver/src/stm32f10x_exti.c ****     {
 136:../libraries/STM32F10x_StdPeriph_Driver/src/stm32f10x_exti.c ****       /* Rising Falling edge */
 137:../libraries/STM32F10x_StdPeriph_Driver/src/stm32f10x_exti.c ****       EXTI->RTSR |= EXTI_InitStruct->EXTI_Line;
 119              		.loc 1 137 0
 120 0040 9868     		ldr	r0, [r3, #8]
 121 0042 1043     		orrs	r0, r0, r2
 122 0044 9860     		str	r0, [r3, #8]
 138:../libraries/STM32F10x_StdPeriph_Driver/src/stm32f10x_exti.c ****       EXTI->FTSR |= EXTI_InitStruct->EXTI_Line;
 123              		.loc 1 138 0
 124 0046 D968     		ldr	r1, [r3, #12]
 125 0048 0A43     		orrs	r2, r2, r1
 126 004a DA60     		str	r2, [r3, #12]
 127 004c 10BD     		pop	{r4, pc}
 128              	.L6:
 129              	.LVL3:
 139:../libraries/STM32F10x_StdPeriph_Driver/src/stm32f10x_exti.c ****     }
 140:../libraries/STM32F10x_StdPeriph_Driver/src/stm32f10x_exti.c ****     else
 141:../libraries/STM32F10x_StdPeriph_Driver/src/stm32f10x_exti.c ****     {
 142:../libraries/STM32F10x_StdPeriph_Driver/src/stm32f10x_exti.c ****       tmp = (uint32_t)EXTI_BASE;
 143:../libraries/STM32F10x_StdPeriph_Driver/src/stm32f10x_exti.c ****       tmp += EXTI_InitStruct->EXTI_Trigger;
 130              		.loc 1 143 0
 131 004e 00F18043 		add	r3, r0, #1073741824
 132 0052 03F58233 		add	r3, r3, #66560
 144:../libraries/STM32F10x_StdPeriph_Driver/src/stm32f10x_exti.c **** 
 145:../libraries/STM32F10x_StdPeriph_Driver/src/stm32f10x_exti.c ****       *(__IO uint32_t *) tmp |= EXTI_InitStruct->EXTI_Line;
 133              		.loc 1 145 0
 134 0056 1968     		ldr	r1, [r3, #0]
 135 0058 0A43     		orrs	r2, r2, r1
 136 005a 08E0     		b	.L8
 137              	.LVL4:
 138              	.L5:
 146:../libraries/STM32F10x_StdPeriph_Driver/src/stm32f10x_exti.c ****     }
 147:../libraries/STM32F10x_StdPeriph_Driver/src/stm32f10x_exti.c ****   }
 148:../libraries/STM32F10x_StdPeriph_Driver/src/stm32f10x_exti.c ****   else
 149:../libraries/STM32F10x_StdPeriph_Driver/src/stm32f10x_exti.c ****   {
 150:../libraries/STM32F10x_StdPeriph_Driver/src/stm32f10x_exti.c ****     tmp += EXTI_InitStruct->EXTI_Mode;
 139              		.loc 1 150 0
 140 005c 0179     		ldrb	r1, [r0, #4]	@ zero_extendqisi2
 151:../libraries/STM32F10x_StdPeriph_Driver/src/stm32f10x_exti.c **** 
 152:../libraries/STM32F10x_StdPeriph_Driver/src/stm32f10x_exti.c ****     /* Disable the selected external lines */
 153:../libraries/STM32F10x_StdPeriph_Driver/src/stm32f10x_exti.c ****     *(__IO uint32_t *) tmp &= ~EXTI_InitStruct->EXTI_Line;
 141              		.loc 1 153 0
 142 005e 0068     		ldr	r0, [r0, #0]
 143              	.LVL5:
 150:../libraries/STM32F10x_StdPeriph_Driver/src/stm32f10x_exti.c ****     tmp += EXTI_InitStruct->EXTI_Mode;
 144              		.loc 1 150 0
 145 0060 01F18042 		add	r2, r1, #1073741824
 146 0064 02F58233 		add	r3, r2, #66560
 147              		.loc 1 153 0
 148 0068 1A68     		ldr	r2, [r3, #0]
 149 006a 22EA0002 		bic	r2, r2, r0
 150              	.LVL6:
 151              	.L8:
 152 006e 1A60     		str	r2, [r3, #0]
 153 0070 10BD     		pop	{r4, pc}
 154              	.L11:
 155 0072 00BF     		.align	2
 156              	.L10:
 157 0074 00040140 		.word	1073808384
 158              		.cfi_endproc
 159              	.LFE57:
 161              		.section	.text.EXTI_StructInit,"ax",%progbits
 162              		.align	1
 163              		.global	EXTI_StructInit
 164              		.thumb
 165              		.thumb_func
 167              	EXTI_StructInit:
 168              	.LFB58:
 154:../libraries/STM32F10x_StdPeriph_Driver/src/stm32f10x_exti.c ****   }
 155:../libraries/STM32F10x_StdPeriph_Driver/src/stm32f10x_exti.c **** }
 156:../libraries/STM32F10x_StdPeriph_Driver/src/stm32f10x_exti.c **** 
 157:../libraries/STM32F10x_StdPeriph_Driver/src/stm32f10x_exti.c **** /**
 158:../libraries/STM32F10x_StdPeriph_Driver/src/stm32f10x_exti.c ****   * @brief  Fills each EXTI_InitStruct member with its reset value.
 159:../libraries/STM32F10x_StdPeriph_Driver/src/stm32f10x_exti.c ****   * @param  EXTI_InitStruct: pointer to a EXTI_InitTypeDef structure which will
 160:../libraries/STM32F10x_StdPeriph_Driver/src/stm32f10x_exti.c ****   *         be initialized.
 161:../libraries/STM32F10x_StdPeriph_Driver/src/stm32f10x_exti.c ****   * @retval None
 162:../libraries/STM32F10x_StdPeriph_Driver/src/stm32f10x_exti.c ****   */
 163:../libraries/STM32F10x_StdPeriph_Driver/src/stm32f10x_exti.c **** void EXTI_StructInit(EXTI_InitTypeDef* EXTI_InitStruct)
 164:../libraries/STM32F10x_StdPeriph_Driver/src/stm32f10x_exti.c **** {
 169              		.loc 1 164 0
 170              		.cfi_startproc
 171              		@ args = 0, pretend = 0, frame = 0
 172              		@ frame_needed = 0, uses_anonymous_args = 0
 173              		@ link register save eliminated.
 174              	.LVL7:
 165:../libraries/STM32F10x_StdPeriph_Driver/src/stm32f10x_exti.c ****   EXTI_InitStruct->EXTI_Line = EXTI_LINENONE;
 175              		.loc 1 165 0
 176 0000 0023     		movs	r3, #0
 166:../libraries/STM32F10x_StdPeriph_Driver/src/stm32f10x_exti.c ****   EXTI_InitStruct->EXTI_Mode = EXTI_Mode_Interrupt;
 167:../libraries/STM32F10x_StdPeriph_Driver/src/stm32f10x_exti.c ****   EXTI_InitStruct->EXTI_Trigger = EXTI_Trigger_Falling;
 177              		.loc 1 167 0
 178 0002 0C22     		movs	r2, #12
 165:../libraries/STM32F10x_StdPeriph_Driver/src/stm32f10x_exti.c ****   EXTI_InitStruct->EXTI_Line = EXTI_LINENONE;
 179              		.loc 1 165 0
 180 0004 0360     		str	r3, [r0, #0]
 166:../libraries/STM32F10x_StdPeriph_Driver/src/stm32f10x_exti.c ****   EXTI_InitStruct->EXTI_Mode = EXTI_Mode_Interrupt;
 181              		.loc 1 166 0
 182 0006 0371     		strb	r3, [r0, #4]
 183              		.loc 1 167 0
 184 0008 4271     		strb	r2, [r0, #5]
 168:../libraries/STM32F10x_StdPeriph_Driver/src/stm32f10x_exti.c ****   EXTI_InitStruct->EXTI_LineCmd = DISABLE;
 185              		.loc 1 168 0
 186 000a 8371     		strb	r3, [r0, #6]
 187 000c 7047     		bx	lr
 188              		.cfi_endproc
 189              	.LFE58:
 191              		.section	.text.EXTI_GenerateSWInterrupt,"ax",%progbits
 192              		.align	1
 193              		.global	EXTI_GenerateSWInterrupt
 194              		.thumb
 195              		.thumb_func
 197              	EXTI_GenerateSWInterrupt:
 198              	.LFB59:
 169:../libraries/STM32F10x_StdPeriph_Driver/src/stm32f10x_exti.c **** }
 170:../libraries/STM32F10x_StdPeriph_Driver/src/stm32f10x_exti.c **** 
 171:../libraries/STM32F10x_StdPeriph_Driver/src/stm32f10x_exti.c **** /**
 172:../libraries/STM32F10x_StdPeriph_Driver/src/stm32f10x_exti.c ****   * @brief  Generates a Software interrupt.
 173:../libraries/STM32F10x_StdPeriph_Driver/src/stm32f10x_exti.c ****   * @param  EXTI_Line: specifies the EXTI lines to be enabled or disabled.
 174:../libraries/STM32F10x_StdPeriph_Driver/src/stm32f10x_exti.c ****   *   This parameter can be any combination of EXTI_Linex where x can be (0..19).
 175:../libraries/STM32F10x_StdPeriph_Driver/src/stm32f10x_exti.c ****   * @retval None
 176:../libraries/STM32F10x_StdPeriph_Driver/src/stm32f10x_exti.c ****   */
 177:../libraries/STM32F10x_StdPeriph_Driver/src/stm32f10x_exti.c **** void EXTI_GenerateSWInterrupt(uint32_t EXTI_Line)
 178:../libraries/STM32F10x_StdPeriph_Driver/src/stm32f10x_exti.c **** {
 199              		.loc 1 178 0
 200              		.cfi_startproc
 201              		@ args = 0, pretend = 0, frame = 0
 202              		@ frame_needed = 0, uses_anonymous_args = 0
 203              		@ link register save eliminated.
 204              	.LVL8:
 179:../libraries/STM32F10x_StdPeriph_Driver/src/stm32f10x_exti.c ****   /* Check the parameters */
 180:../libraries/STM32F10x_StdPeriph_Driver/src/stm32f10x_exti.c ****   assert_param(IS_EXTI_LINE(EXTI_Line));
 181:../libraries/STM32F10x_StdPeriph_Driver/src/stm32f10x_exti.c ****   
 182:../libraries/STM32F10x_StdPeriph_Driver/src/stm32f10x_exti.c ****   EXTI->SWIER |= EXTI_Line;
 205              		.loc 1 182 0
 206 0000 024B     		ldr	r3, .L14
 207 0002 1A69     		ldr	r2, [r3, #16]
 208 0004 1043     		orrs	r0, r0, r2
 209              	.LVL9:
 210 0006 1861     		str	r0, [r3, #16]
 211 0008 7047     		bx	lr
 212              	.L15:
 213 000a 00BF     		.align	2
 214              	.L14:
 215 000c 00040140 		.word	1073808384
 216              		.cfi_endproc
 217              	.LFE59:
 219              		.section	.text.EXTI_GetFlagStatus,"ax",%progbits
 220              		.align	1
 221              		.global	EXTI_GetFlagStatus
 222              		.thumb
 223              		.thumb_func
 225              	EXTI_GetFlagStatus:
 226              	.LFB60:
 183:../libraries/STM32F10x_StdPeriph_Driver/src/stm32f10x_exti.c **** }
 184:../libraries/STM32F10x_StdPeriph_Driver/src/stm32f10x_exti.c **** 
 185:../libraries/STM32F10x_StdPeriph_Driver/src/stm32f10x_exti.c **** /**
 186:../libraries/STM32F10x_StdPeriph_Driver/src/stm32f10x_exti.c ****   * @brief  Checks whether the specified EXTI line flag is set or not.
 187:../libraries/STM32F10x_StdPeriph_Driver/src/stm32f10x_exti.c ****   * @param  EXTI_Line: specifies the EXTI line flag to check.
 188:../libraries/STM32F10x_StdPeriph_Driver/src/stm32f10x_exti.c ****   *   This parameter can be:
 189:../libraries/STM32F10x_StdPeriph_Driver/src/stm32f10x_exti.c ****   *     @arg EXTI_Linex: External interrupt line x where x(0..19)
 190:../libraries/STM32F10x_StdPeriph_Driver/src/stm32f10x_exti.c ****   * @retval The new state of EXTI_Line (SET or RESET).
 191:../libraries/STM32F10x_StdPeriph_Driver/src/stm32f10x_exti.c ****   */
 192:../libraries/STM32F10x_StdPeriph_Driver/src/stm32f10x_exti.c **** FlagStatus EXTI_GetFlagStatus(uint32_t EXTI_Line)
 193:../libraries/STM32F10x_StdPeriph_Driver/src/stm32f10x_exti.c **** {
 227              		.loc 1 193 0
 228              		.cfi_startproc
 229              		@ args = 0, pretend = 0, frame = 0
 230              		@ frame_needed = 0, uses_anonymous_args = 0
 231              		@ link register save eliminated.
 232              	.LVL10:
 194:../libraries/STM32F10x_StdPeriph_Driver/src/stm32f10x_exti.c ****   FlagStatus bitstatus = RESET;
 195:../libraries/STM32F10x_StdPeriph_Driver/src/stm32f10x_exti.c ****   /* Check the parameters */
 196:../libraries/STM32F10x_StdPeriph_Driver/src/stm32f10x_exti.c ****   assert_param(IS_GET_EXTI_LINE(EXTI_Line));
 197:../libraries/STM32F10x_StdPeriph_Driver/src/stm32f10x_exti.c ****   
 198:../libraries/STM32F10x_StdPeriph_Driver/src/stm32f10x_exti.c ****   if ((EXTI->PR & EXTI_Line) != (uint32_t)RESET)
 233              		.loc 1 198 0
 234 0000 034B     		ldr	r3, .L17
 235 0002 5969     		ldr	r1, [r3, #20]
 236              	.LVL11:
 237 0004 0842     		tst	r0, r1
 199:../libraries/STM32F10x_StdPeriph_Driver/src/stm32f10x_exti.c ****   {
 200:../libraries/STM32F10x_StdPeriph_Driver/src/stm32f10x_exti.c ****     bitstatus = SET;
 201:../libraries/STM32F10x_StdPeriph_Driver/src/stm32f10x_exti.c ****   }
 202:../libraries/STM32F10x_StdPeriph_Driver/src/stm32f10x_exti.c ****   else
 203:../libraries/STM32F10x_StdPeriph_Driver/src/stm32f10x_exti.c ****   {
 204:../libraries/STM32F10x_StdPeriph_Driver/src/stm32f10x_exti.c ****     bitstatus = RESET;
 205:../libraries/STM32F10x_StdPeriph_Driver/src/stm32f10x_exti.c ****   }
 206:../libraries/STM32F10x_StdPeriph_Driver/src/stm32f10x_exti.c ****   return bitstatus;
 207:../libraries/STM32F10x_StdPeriph_Driver/src/stm32f10x_exti.c **** }
 238              		.loc 1 207 0
 239 0006 0CBF     		ite	eq
 240 0008 0020     		moveq	r0, #0
 241 000a 0120     		movne	r0, #1
 242              	.LVL12:
 243 000c 7047     		bx	lr
 244              	.L18:
 245 000e 00BF     		.align	2
 246              	.L17:
 247 0010 00040140 		.word	1073808384
 248              		.cfi_endproc
 249              	.LFE60:
 251              		.section	.text.EXTI_ClearFlag,"ax",%progbits
 252              		.align	1
 253              		.global	EXTI_ClearFlag
 254              		.thumb
 255              		.thumb_func
 257              	EXTI_ClearFlag:
 258              	.LFB61:
 208:../libraries/STM32F10x_StdPeriph_Driver/src/stm32f10x_exti.c **** 
 209:../libraries/STM32F10x_StdPeriph_Driver/src/stm32f10x_exti.c **** /**
 210:../libraries/STM32F10x_StdPeriph_Driver/src/stm32f10x_exti.c ****   * @brief  Clears the EXTI's line pending flags.
 211:../libraries/STM32F10x_StdPeriph_Driver/src/stm32f10x_exti.c ****   * @param  EXTI_Line: specifies the EXTI lines flags to clear.
 212:../libraries/STM32F10x_StdPeriph_Driver/src/stm32f10x_exti.c ****   *   This parameter can be any combination of EXTI_Linex where x can be (0..19).
 213:../libraries/STM32F10x_StdPeriph_Driver/src/stm32f10x_exti.c ****   * @retval None
 214:../libraries/STM32F10x_StdPeriph_Driver/src/stm32f10x_exti.c ****   */
 215:../libraries/STM32F10x_StdPeriph_Driver/src/stm32f10x_exti.c **** void EXTI_ClearFlag(uint32_t EXTI_Line)
 216:../libraries/STM32F10x_StdPeriph_Driver/src/stm32f10x_exti.c **** {
 259              		.loc 1 216 0
 260              		.cfi_startproc
 261              		@ args = 0, pretend = 0, frame = 0
 262              		@ frame_needed = 0, uses_anonymous_args = 0
 263              		@ link register save eliminated.
 264              	.LVL13:
 217:../libraries/STM32F10x_StdPeriph_Driver/src/stm32f10x_exti.c ****   /* Check the parameters */
 218:../libraries/STM32F10x_StdPeriph_Driver/src/stm32f10x_exti.c ****   assert_param(IS_EXTI_LINE(EXTI_Line));
 219:../libraries/STM32F10x_StdPeriph_Driver/src/stm32f10x_exti.c ****   
 220:../libraries/STM32F10x_StdPeriph_Driver/src/stm32f10x_exti.c ****   EXTI->PR = EXTI_Line;
 265              		.loc 1 220 0
 266 0000 014B     		ldr	r3, .L20
 267 0002 5861     		str	r0, [r3, #20]
 268 0004 7047     		bx	lr
 269              	.L21:
 270 0006 00BF     		.align	2
 271              	.L20:
 272 0008 00040140 		.word	1073808384
 273              		.cfi_endproc
 274              	.LFE61:
 276              		.section	.text.EXTI_GetITStatus,"ax",%progbits
 277              		.align	1
 278              		.global	EXTI_GetITStatus
 279              		.thumb
 280              		.thumb_func
 282              	EXTI_GetITStatus:
 283              	.LFB62:
 221:../libraries/STM32F10x_StdPeriph_Driver/src/stm32f10x_exti.c **** }
 222:../libraries/STM32F10x_StdPeriph_Driver/src/stm32f10x_exti.c **** 
 223:../libraries/STM32F10x_StdPeriph_Driver/src/stm32f10x_exti.c **** /**
 224:../libraries/STM32F10x_StdPeriph_Driver/src/stm32f10x_exti.c ****   * @brief  Checks whether the specified EXTI line is asserted or not.
 225:../libraries/STM32F10x_StdPeriph_Driver/src/stm32f10x_exti.c ****   * @param  EXTI_Line: specifies the EXTI line to check.
 226:../libraries/STM32F10x_StdPeriph_Driver/src/stm32f10x_exti.c ****   *   This parameter can be:
 227:../libraries/STM32F10x_StdPeriph_Driver/src/stm32f10x_exti.c ****   *     @arg EXTI_Linex: External interrupt line x where x(0..19)
 228:../libraries/STM32F10x_StdPeriph_Driver/src/stm32f10x_exti.c ****   * @retval The new state of EXTI_Line (SET or RESET).
 229:../libraries/STM32F10x_StdPeriph_Driver/src/stm32f10x_exti.c ****   */
 230:../libraries/STM32F10x_StdPeriph_Driver/src/stm32f10x_exti.c **** ITStatus EXTI_GetITStatus(uint32_t EXTI_Line)
 231:../libraries/STM32F10x_StdPeriph_Driver/src/stm32f10x_exti.c **** {
 284              		.loc 1 231 0
 285              		.cfi_startproc
 286              		@ args = 0, pretend = 0, frame = 0
 287              		@ frame_needed = 0, uses_anonymous_args = 0
 288              		@ link register save eliminated.
 289              	.LVL14:
 232:../libraries/STM32F10x_StdPeriph_Driver/src/stm32f10x_exti.c ****   ITStatus bitstatus = RESET;
 233:../libraries/STM32F10x_StdPeriph_Driver/src/stm32f10x_exti.c ****   uint32_t enablestatus = 0;
 234:../libraries/STM32F10x_StdPeriph_Driver/src/stm32f10x_exti.c ****   /* Check the parameters */
 235:../libraries/STM32F10x_StdPeriph_Driver/src/stm32f10x_exti.c ****   assert_param(IS_GET_EXTI_LINE(EXTI_Line));
 236:../libraries/STM32F10x_StdPeriph_Driver/src/stm32f10x_exti.c ****   
 237:../libraries/STM32F10x_StdPeriph_Driver/src/stm32f10x_exti.c ****   enablestatus =  EXTI->IMR & EXTI_Line;
 290              		.loc 1 237 0
 291 0000 064B     		ldr	r3, .L25
 292 0002 1A68     		ldr	r2, [r3, #0]
 293              	.LVL15:
 238:../libraries/STM32F10x_StdPeriph_Driver/src/stm32f10x_exti.c ****   if (((EXTI->PR & EXTI_Line) != (uint32_t)RESET) && (enablestatus != (uint32_t)RESET))
 294              		.loc 1 238 0
 295 0004 5969     		ldr	r1, [r3, #20]
 296 0006 10EA0103 		ands	r3, r0, r1
 297 000a 04D0     		beq	.L24
 298              		.loc 1 238 0 is_stmt 0 discriminator 1
 299 000c 1042     		tst	r0, r2
 239:../libraries/STM32F10x_StdPeriph_Driver/src/stm32f10x_exti.c ****   {
 240:../libraries/STM32F10x_StdPeriph_Driver/src/stm32f10x_exti.c ****     bitstatus = SET;
 300              		.loc 1 240 0 is_stmt 1 discriminator 1
 301 000e 0CBF     		ite	eq
 302 0010 0020     		moveq	r0, #0
 303 0012 0120     		movne	r0, #1
 304              	.LVL16:
 305 0014 7047     		bx	lr
 306              	.LVL17:
 307              	.L24:
 241:../libraries/STM32F10x_StdPeriph_Driver/src/stm32f10x_exti.c ****   }
 242:../libraries/STM32F10x_StdPeriph_Driver/src/stm32f10x_exti.c ****   else
 243:../libraries/STM32F10x_StdPeriph_Driver/src/stm32f10x_exti.c ****   {
 244:../libraries/STM32F10x_StdPeriph_Driver/src/stm32f10x_exti.c ****     bitstatus = RESET;
 308              		.loc 1 244 0
 309 0016 1846     		mov	r0, r3
 310              	.LVL18:
 245:../libraries/STM32F10x_StdPeriph_Driver/src/stm32f10x_exti.c ****   }
 246:../libraries/STM32F10x_StdPeriph_Driver/src/stm32f10x_exti.c ****   return bitstatus;
 247:../libraries/STM32F10x_StdPeriph_Driver/src/stm32f10x_exti.c **** }
 311              		.loc 1 247 0
 312 0018 7047     		bx	lr
 313              	.L26:
 314 001a 00BF     		.align	2
 315              	.L25:
 316 001c 00040140 		.word	1073808384
 317              		.cfi_endproc
 318              	.LFE62:
 320              		.section	.text.EXTI_ClearITPendingBit,"ax",%progbits
 321              		.align	1
 322              		.global	EXTI_ClearITPendingBit
 323              		.thumb
 324              		.thumb_func
 326              	EXTI_ClearITPendingBit:
 327              	.LFB63:
 248:../libraries/STM32F10x_StdPeriph_Driver/src/stm32f10x_exti.c **** 
 249:../libraries/STM32F10x_StdPeriph_Driver/src/stm32f10x_exti.c **** /**
 250:../libraries/STM32F10x_StdPeriph_Driver/src/stm32f10x_exti.c ****   * @brief  Clears the EXTI's line pending bits.
 251:../libraries/STM32F10x_StdPeriph_Driver/src/stm32f10x_exti.c ****   * @param  EXTI_Line: specifies the EXTI lines to clear.
 252:../libraries/STM32F10x_StdPeriph_Driver/src/stm32f10x_exti.c ****   *   This parameter can be any combination of EXTI_Linex where x can be (0..19).
 253:../libraries/STM32F10x_StdPeriph_Driver/src/stm32f10x_exti.c ****   * @retval None
 254:../libraries/STM32F10x_StdPeriph_Driver/src/stm32f10x_exti.c ****   */
 255:../libraries/STM32F10x_StdPeriph_Driver/src/stm32f10x_exti.c **** void EXTI_ClearITPendingBit(uint32_t EXTI_Line)
 256:../libraries/STM32F10x_StdPeriph_Driver/src/stm32f10x_exti.c **** {
 328              		.loc 1 256 0
 329              		.cfi_startproc
 330              		@ args = 0, pretend = 0, frame = 0
 331              		@ frame_needed = 0, uses_anonymous_args = 0
 332              		@ link register save eliminated.
 333              	.LVL19:
 257:../libraries/STM32F10x_StdPeriph_Driver/src/stm32f10x_exti.c ****   /* Check the parameters */
 258:../libraries/STM32F10x_StdPeriph_Driver/src/stm32f10x_exti.c ****   assert_param(IS_EXTI_LINE(EXTI_Line));
 259:../libraries/STM32F10x_StdPeriph_Driver/src/stm32f10x_exti.c ****   
 260:../libraries/STM32F10x_StdPeriph_Driver/src/stm32f10x_exti.c ****   EXTI->PR = EXTI_Line;
 334              		.loc 1 260 0
 335 0000 014B     		ldr	r3, .L28
 336 0002 5861     		str	r0, [r3, #20]
 337 0004 7047     		bx	lr
 338              	.L29:
 339 0006 00BF     		.align	2
 340              	.L28:
 341 0008 00040140 		.word	1073808384
 342              		.cfi_endproc
 343              	.LFE63:
 345              		.text
 346              	.Letext0:
 347              		.file 2 "/usr/local/gcc-arm-none-eabi-4_7-2013q1/bin/../lib/gcc/arm-none-eabi/4.7.3/../../../../ar
 348              		.file 3 "/Users/zac/code/spark/usb-dfu/libraries/CMSIS/Device/ST/STM32F10x/Include/stm32f10x.h"
 349              		.file 4 "/Users/zac/code/spark/usb-dfu/libraries/STM32F10x_StdPeriph_Driver/inc/stm32f10x_exti.h"
 350              		.file 5 "/Users/zac/code/spark/usb-dfu/libraries/CMSIS/Include/core_cm3.h"
DEFINED SYMBOLS
                            *ABS*:0000000000000000 stm32f10x_exti.c
/var/folders/d1/846xqcps64v4wybnmd7kk8540000gn/T//cc9D8GBM.s:19     .text.EXTI_DeInit:0000000000000000 $t
/var/folders/d1/846xqcps64v4wybnmd7kk8540000gn/T//cc9D8GBM.s:24     .text.EXTI_DeInit:0000000000000000 EXTI_DeInit
/var/folders/d1/846xqcps64v4wybnmd7kk8540000gn/T//cc9D8GBM.s:51     .text.EXTI_DeInit:0000000000000014 $d
/var/folders/d1/846xqcps64v4wybnmd7kk8540000gn/T//cc9D8GBM.s:57     .text.EXTI_Init:0000000000000000 $t
/var/folders/d1/846xqcps64v4wybnmd7kk8540000gn/T//cc9D8GBM.s:62     .text.EXTI_Init:0000000000000000 EXTI_Init
/var/folders/d1/846xqcps64v4wybnmd7kk8540000gn/T//cc9D8GBM.s:157    .text.EXTI_Init:0000000000000074 $d
/var/folders/d1/846xqcps64v4wybnmd7kk8540000gn/T//cc9D8GBM.s:162    .text.EXTI_StructInit:0000000000000000 $t
/var/folders/d1/846xqcps64v4wybnmd7kk8540000gn/T//cc9D8GBM.s:167    .text.EXTI_StructInit:0000000000000000 EXTI_StructInit
/var/folders/d1/846xqcps64v4wybnmd7kk8540000gn/T//cc9D8GBM.s:192    .text.EXTI_GenerateSWInterrupt:0000000000000000 $t
/var/folders/d1/846xqcps64v4wybnmd7kk8540000gn/T//cc9D8GBM.s:197    .text.EXTI_GenerateSWInterrupt:0000000000000000 EXTI_GenerateSWInterrupt
/var/folders/d1/846xqcps64v4wybnmd7kk8540000gn/T//cc9D8GBM.s:215    .text.EXTI_GenerateSWInterrupt:000000000000000c $d
/var/folders/d1/846xqcps64v4wybnmd7kk8540000gn/T//cc9D8GBM.s:220    .text.EXTI_GetFlagStatus:0000000000000000 $t
/var/folders/d1/846xqcps64v4wybnmd7kk8540000gn/T//cc9D8GBM.s:225    .text.EXTI_GetFlagStatus:0000000000000000 EXTI_GetFlagStatus
/var/folders/d1/846xqcps64v4wybnmd7kk8540000gn/T//cc9D8GBM.s:247    .text.EXTI_GetFlagStatus:0000000000000010 $d
/var/folders/d1/846xqcps64v4wybnmd7kk8540000gn/T//cc9D8GBM.s:252    .text.EXTI_ClearFlag:0000000000000000 $t
/var/folders/d1/846xqcps64v4wybnmd7kk8540000gn/T//cc9D8GBM.s:257    .text.EXTI_ClearFlag:0000000000000000 EXTI_ClearFlag
/var/folders/d1/846xqcps64v4wybnmd7kk8540000gn/T//cc9D8GBM.s:272    .text.EXTI_ClearFlag:0000000000000008 $d
/var/folders/d1/846xqcps64v4wybnmd7kk8540000gn/T//cc9D8GBM.s:277    .text.EXTI_GetITStatus:0000000000000000 $t
/var/folders/d1/846xqcps64v4wybnmd7kk8540000gn/T//cc9D8GBM.s:282    .text.EXTI_GetITStatus:0000000000000000 EXTI_GetITStatus
/var/folders/d1/846xqcps64v4wybnmd7kk8540000gn/T//cc9D8GBM.s:316    .text.EXTI_GetITStatus:000000000000001c $d
/var/folders/d1/846xqcps64v4wybnmd7kk8540000gn/T//cc9D8GBM.s:321    .text.EXTI_ClearITPendingBit:0000000000000000 $t
/var/folders/d1/846xqcps64v4wybnmd7kk8540000gn/T//cc9D8GBM.s:326    .text.EXTI_ClearITPendingBit:0000000000000000 EXTI_ClearITPendingBit
/var/folders/d1/846xqcps64v4wybnmd7kk8540000gn/T//cc9D8GBM.s:341    .text.EXTI_ClearITPendingBit:0000000000000008 $d
                     .debug_frame:0000000000000010 $d
                           .group:0000000000000000 wm4.1.94ea818a60f77b04fe5add16507b1dca
                           .group:0000000000000000 wm4.stm32f10x.h.57.69ab29c83f735418a543aa508b559235
                           .group:0000000000000000 wm4.core_cm3.h.32.8e21fbd14bb96c2b40e026c4d2c8fe1f
                           .group:0000000000000000 wm4.newlib.h.8.a9901dc52d1357e3e94003403d43f8b5
                           .group:0000000000000000 wm4.features.h.22.b72b3baab2bb2eab3661375590100b6b
                           .group:0000000000000000 wm4.config.h.193.5fb8ef056cdff92dec3dee9552839d8c
                           .group:0000000000000000 wm4._ansi.h.23.b5bb84d7ba97d82b5b1dc1826a7ae811
                           .group:0000000000000000 wm4.stdint.h.20.54ad762faa59e3c05491630641c8d8bf
                           .group:0000000000000000 wm4.core_cmInstr.h.25.d8165482ef3061013a2fc83e2d85f3d9
                           .group:0000000000000000 wm4.core_cm3.h.129.e08b7204181ea22e6a9fa84cb9ad0924
                           .group:0000000000000000 wm4.stm32f10x.h.532.91bd57525f6c583f00129a351847d405
                           .group:0000000000000000 wm4.stm32f10x_adc.h.89.9f2b285fa0070185d48a05b61a05798c
                           .group:0000000000000000 wm4.stm32f10x_bkp.h.31.74a586c036c8ee5d9205c6728cc8d6ab
                           .group:0000000000000000 wm4.stm32f10x_can.h.31.b14273b95de79d8fbb020ba042473fb1
                           .group:0000000000000000 wm4.stm32f10x_dac.h.31.116c27cadc3b4ee8aa44ed11b14b64ae
                           .group:0000000000000000 wm4.stm32f10x_dbgmcu.h.31.45f176e9b7a15051b8c69cb2700c78b8
                           .group:0000000000000000 wm4.stm32f10x_dma.h.31.ef16218235edc52b414c0353f44b4bf0
                           .group:0000000000000000 wm4.stm32f10x_flash.h.31.0203bc95b65c5396b67991e07a675efb
                           .group:0000000000000000 wm4.stm32f10x_fsmc.h.31.a761d459aa046c2769a99b93e8763ba0
                           .group:0000000000000000 wm4.stm32f10x_gpio.h.31.0a32659dbac1fc1055c7cbdc248963be
                           .group:0000000000000000 wm4.stm32f10x_i2c.h.31.93d7dc2d477856f119d957730d4c6f1c
                           .group:0000000000000000 wm4.stm32f10x_iwdg.h.31.959ae9b7e1d603f1e5ae6468c0fc1624
                           .group:0000000000000000 wm4.stm32f10x_pwr.h.31.9168b6921e0cf03b467c7ed90861c701
                           .group:0000000000000000 wm4.stm32f10x_rcc.h.31.2ee3219a25ef4ced658f2fe9d8cd94aa
                           .group:0000000000000000 wm4.stm32f10x_rtc.h.31.00ba78fc0dbb06b6e6783a1e7fccf5a0
                           .group:0000000000000000 wm4.stm32f10x_sdio.h.31.37dab89d08b2364a3dfaace444dec7c3
                           .group:0000000000000000 wm4.stm32f10x_spi.h.31.d2f6e4626887cabe8c98f3a185590a36
                           .group:0000000000000000 wm4.stm32f10x_tim.h.31.6c06f7f26e0864f9cd59597f46ca2c7c
                           .group:0000000000000000 wm4.stm32f10x_usart.h.31.28d75d6af05cefbbfa00cf30a7c8a335
                           .group:0000000000000000 wm4.stm32f10x_wwdg.h.31.4504f930b88ade4f56d1e3f2a11c098b
                           .group:0000000000000000 wm4.misc.h.31.a89fba2040036f6f8c835a78a213e0cd
                           .group:0000000000000000 wm4.stm32f10x.h.8356.9fd2fa84655112ac7dfc5c88beeb383d
                           .group:0000000000000000 wm4.stm32f10x_exti.h.62.859150dbbec1683cf27209c178b55387

NO UNDEFINED SYMBOLS
