   1              		.syntax unified
   2              		.cpu cortex-m3
   3              		.fpu softvfp
   4              		.eabi_attribute 20, 1
   5              		.eabi_attribute 21, 1
   6              		.eabi_attribute 23, 3
   7              		.eabi_attribute 24, 1
   8              		.eabi_attribute 25, 1
   9              		.eabi_attribute 26, 1
  10              		.eabi_attribute 30, 6
  11              		.eabi_attribute 34, 1
  12              		.eabi_attribute 18, 4
  13              		.thumb
  14              		.file	"application.c"
  15              		.text
  16              	.Ltext0:
  17              		.cfi_sections	.debug_frame
  18              		.section	.text.setup,"ax",%progbits
  19              		.align	2
  20              		.global	setup
  21              		.thumb
  22              		.thumb_func
  24              	setup:
  25              	.LFB56:
  26              		.file 1 "../src/application.c"
   1:../src/application.c **** #include "application.h"
   2:../src/application.c **** 
   3:../src/application.c **** void setup()
   4:../src/application.c **** {
  27              		.loc 1 4 0
  28              		.cfi_startproc
  29              		@ args = 0, pretend = 0, frame = 0
  30              		@ frame_needed = 1, uses_anonymous_args = 0
  31              		@ link register save eliminated.
  32 0000 80B4     		push	{r7}
  33              	.LCFI0:
  34              		.cfi_def_cfa_offset 4
  35              		.cfi_offset 7, -4
  36 0002 00AF     		add	r7, sp, #0
  37              	.LCFI1:
  38              		.cfi_def_cfa_register 7
   5:../src/application.c **** 	// runs once
   6:../src/application.c **** 
   7:../src/application.c **** /*
   8:../src/application.c **** 	// Serial Test
   9:../src/application.c **** 	Serial.begin(9600);
  10:../src/application.c **** */
  11:../src/application.c **** }
  39              		.loc 1 11 0
  40 0004 BD46     		mov	sp, r7
  41 0006 80BC     		pop	{r7}
  42 0008 7047     		bx	lr
  43              		.cfi_endproc
  44              	.LFE56:
  46 000a 00BF     		.section	.text.loop,"ax",%progbits
  47              		.align	2
  48              		.global	loop
  49              		.thumb
  50              		.thumb_func
  52              	loop:
  53              	.LFB57:
  12:../src/application.c **** 
  13:../src/application.c **** void loop()
  14:../src/application.c **** {
  54              		.loc 1 14 0
  55              		.cfi_startproc
  56              		@ args = 0, pretend = 0, frame = 0
  57              		@ frame_needed = 1, uses_anonymous_args = 0
  58              		@ link register save eliminated.
  59 0000 80B4     		push	{r7}
  60              	.LCFI2:
  61              		.cfi_def_cfa_offset 4
  62              		.cfi_offset 7, -4
  63 0002 00AF     		add	r7, sp, #0
  64              	.LCFI3:
  65              		.cfi_def_cfa_register 7
  15:../src/application.c **** 	// runs repeatedly
  16:../src/application.c **** 
  17:../src/application.c **** /*
  18:../src/application.c **** 	// Serial loopback test: what is typed on serial console
  19:../src/application.c **** 	// using Hyperterminal/Putty should echo back on the console
  20:../src/application.c **** 	if(Serial.available())
  21:../src/application.c **** 	{
  22:../src/application.c **** 		Serial.write(Serial.read());
  23:../src/application.c **** 	}
  24:../src/application.c **** */
  25:../src/application.c **** 
  26:../src/application.c **** /*
  27:../src/application.c **** 	// Serial print test
  28:../src/application.c **** 	Serial.print("Hello ");
  29:../src/application.c **** 	Serial.println("Spark");
  30:../src/application.c **** 	delay(500);
  31:../src/application.c **** */
  32:../src/application.c **** }
  66              		.loc 1 32 0
  67 0004 BD46     		mov	sp, r7
  68 0006 80BC     		pop	{r7}
  69 0008 7047     		bx	lr
  70              		.cfi_endproc
  71              	.LFE57:
  73 000a 00BF     		.text
  74              	.Letext0:
  75              		.file 2 "/usr/local/gcc-arm-none-eabi-4_7-2013q1/bin/../lib/gcc/arm-none-eabi/4.7.3/../../../../ar
  76              		.file 3 "/Users/zac/code/spark/marvin/libraries/CMSIS/Include/core_cm3.h"