   1              		.syntax unified
   2              		.cpu cortex-m3
   3              		.fpu softvfp
   4              		.eabi_attribute 20, 1
   5              		.eabi_attribute 21, 1
   6              		.eabi_attribute 23, 3
   7              		.eabi_attribute 24, 1
   8              		.eabi_attribute 25, 1
   9              		.eabi_attribute 26, 1
  10              		.eabi_attribute 30, 6
  11              		.eabi_attribute 34, 1
  12              		.eabi_attribute 18, 4
  13              		.thumb
  14              		.file	"usb_core.c"
  15              		.text
  16              	.Ltext0:
  17              		.cfi_sections	.debug_frame
  18              		.comm	StatusInfo,2,4
  19              		.global	Data_Mul_MaxPacketSize
  20              		.bss
  23              	Data_Mul_MaxPacketSize:
  24 0000 00       		.space	1
  25              		.section	.text.Standard_GetConfiguration,"ax",%progbits
  26              		.align	2
  27              		.global	Standard_GetConfiguration
  28              		.thumb
  29              		.thumb_func
  31              	Standard_GetConfiguration:
  32              	.LFB56:
  33              		.file 1 "../libraries/STM32_USB-FS-Device_Driver/src/usb_core.c"
   1:../libraries/STM32_USB-FS-Device_Driver/src/usb_core.c **** /**
   2:../libraries/STM32_USB-FS-Device_Driver/src/usb_core.c ****   ******************************************************************************
   3:../libraries/STM32_USB-FS-Device_Driver/src/usb_core.c ****   * @file    usb_core.c
   4:../libraries/STM32_USB-FS-Device_Driver/src/usb_core.c ****   * @author  MCD Application Team
   5:../libraries/STM32_USB-FS-Device_Driver/src/usb_core.c ****   * @version V4.0.0
   6:../libraries/STM32_USB-FS-Device_Driver/src/usb_core.c ****   * @date    28-August-2012
   7:../libraries/STM32_USB-FS-Device_Driver/src/usb_core.c ****   * @brief   Standard protocol processing (USB v2.0)
   8:../libraries/STM32_USB-FS-Device_Driver/src/usb_core.c ****   ******************************************************************************
   9:../libraries/STM32_USB-FS-Device_Driver/src/usb_core.c ****   * @attention
  10:../libraries/STM32_USB-FS-Device_Driver/src/usb_core.c ****   *
  11:../libraries/STM32_USB-FS-Device_Driver/src/usb_core.c ****   * <h2><center>&copy; COPYRIGHT 2012 STMicroelectronics</center></h2>
  12:../libraries/STM32_USB-FS-Device_Driver/src/usb_core.c ****   *
  13:../libraries/STM32_USB-FS-Device_Driver/src/usb_core.c ****   * Licensed under MCD-ST Liberty SW License Agreement V2, (the "License");
  14:../libraries/STM32_USB-FS-Device_Driver/src/usb_core.c ****   * You may not use this file except in compliance with the License.
  15:../libraries/STM32_USB-FS-Device_Driver/src/usb_core.c ****   * You may obtain a copy of the License at:
  16:../libraries/STM32_USB-FS-Device_Driver/src/usb_core.c ****   *
  17:../libraries/STM32_USB-FS-Device_Driver/src/usb_core.c ****   *        http://www.st.com/software_license_agreement_liberty_v2
  18:../libraries/STM32_USB-FS-Device_Driver/src/usb_core.c ****   *
  19:../libraries/STM32_USB-FS-Device_Driver/src/usb_core.c ****   * Unless required by applicable law or agreed to in writing, software 
  20:../libraries/STM32_USB-FS-Device_Driver/src/usb_core.c ****   * distributed under the License is distributed on an "AS IS" BASIS, 
  21:../libraries/STM32_USB-FS-Device_Driver/src/usb_core.c ****   * WITHOUT WARRANTIES OR CONDITIONS OF ANY KIND, either express or implied.
  22:../libraries/STM32_USB-FS-Device_Driver/src/usb_core.c ****   * See the License for the specific language governing permissions and
  23:../libraries/STM32_USB-FS-Device_Driver/src/usb_core.c ****   * limitations under the License.
  24:../libraries/STM32_USB-FS-Device_Driver/src/usb_core.c ****   *
  25:../libraries/STM32_USB-FS-Device_Driver/src/usb_core.c ****   ******************************************************************************
  26:../libraries/STM32_USB-FS-Device_Driver/src/usb_core.c ****   */
  27:../libraries/STM32_USB-FS-Device_Driver/src/usb_core.c **** 
  28:../libraries/STM32_USB-FS-Device_Driver/src/usb_core.c **** 
  29:../libraries/STM32_USB-FS-Device_Driver/src/usb_core.c **** /* Includes ------------------------------------------------------------------*/
  30:../libraries/STM32_USB-FS-Device_Driver/src/usb_core.c **** #include "usb_lib.h"
  31:../libraries/STM32_USB-FS-Device_Driver/src/usb_core.c **** /* Private typedef -----------------------------------------------------------*/
  32:../libraries/STM32_USB-FS-Device_Driver/src/usb_core.c **** /* Private define ------------------------------------------------------------*/
  33:../libraries/STM32_USB-FS-Device_Driver/src/usb_core.c **** #define ValBit(VAR,Place)    (VAR & (1 << Place))
  34:../libraries/STM32_USB-FS-Device_Driver/src/usb_core.c **** #define SetBit(VAR,Place)    (VAR |= (1 << Place))
  35:../libraries/STM32_USB-FS-Device_Driver/src/usb_core.c **** #define ClrBit(VAR,Place)    (VAR &= ((1 << Place) ^ 255))
  36:../libraries/STM32_USB-FS-Device_Driver/src/usb_core.c **** #define Send0LengthData() { _SetEPTxCount(ENDP0, 0); \
  37:../libraries/STM32_USB-FS-Device_Driver/src/usb_core.c ****     vSetEPTxStatus(EP_TX_VALID); \
  38:../libraries/STM32_USB-FS-Device_Driver/src/usb_core.c ****   }
  39:../libraries/STM32_USB-FS-Device_Driver/src/usb_core.c **** 
  40:../libraries/STM32_USB-FS-Device_Driver/src/usb_core.c **** #define vSetEPRxStatus(st) (SaveRState = st)
  41:../libraries/STM32_USB-FS-Device_Driver/src/usb_core.c **** #define vSetEPTxStatus(st) (SaveTState = st)
  42:../libraries/STM32_USB-FS-Device_Driver/src/usb_core.c **** 
  43:../libraries/STM32_USB-FS-Device_Driver/src/usb_core.c **** #define USB_StatusIn() Send0LengthData()
  44:../libraries/STM32_USB-FS-Device_Driver/src/usb_core.c **** #define USB_StatusOut() vSetEPRxStatus(EP_RX_VALID)
  45:../libraries/STM32_USB-FS-Device_Driver/src/usb_core.c **** 
  46:../libraries/STM32_USB-FS-Device_Driver/src/usb_core.c **** #define StatusInfo0 StatusInfo.bw.bb1 /* Reverse bb0 & bb1 */
  47:../libraries/STM32_USB-FS-Device_Driver/src/usb_core.c **** #define StatusInfo1 StatusInfo.bw.bb0
  48:../libraries/STM32_USB-FS-Device_Driver/src/usb_core.c **** 
  49:../libraries/STM32_USB-FS-Device_Driver/src/usb_core.c **** /* Private macro -------------------------------------------------------------*/
  50:../libraries/STM32_USB-FS-Device_Driver/src/usb_core.c **** /* Private variables ---------------------------------------------------------*/
  51:../libraries/STM32_USB-FS-Device_Driver/src/usb_core.c **** uint16_t_uint8_t StatusInfo;
  52:../libraries/STM32_USB-FS-Device_Driver/src/usb_core.c **** 
  53:../libraries/STM32_USB-FS-Device_Driver/src/usb_core.c **** bool Data_Mul_MaxPacketSize = FALSE;
  54:../libraries/STM32_USB-FS-Device_Driver/src/usb_core.c **** /* Private function prototypes -----------------------------------------------*/
  55:../libraries/STM32_USB-FS-Device_Driver/src/usb_core.c **** static void DataStageOut(void);
  56:../libraries/STM32_USB-FS-Device_Driver/src/usb_core.c **** static void DataStageIn(void);
  57:../libraries/STM32_USB-FS-Device_Driver/src/usb_core.c **** static void NoData_Setup0(void);
  58:../libraries/STM32_USB-FS-Device_Driver/src/usb_core.c **** static void Data_Setup0(void);
  59:../libraries/STM32_USB-FS-Device_Driver/src/usb_core.c **** /* Private functions ---------------------------------------------------------*/
  60:../libraries/STM32_USB-FS-Device_Driver/src/usb_core.c **** 
  61:../libraries/STM32_USB-FS-Device_Driver/src/usb_core.c **** /*******************************************************************************
  62:../libraries/STM32_USB-FS-Device_Driver/src/usb_core.c **** * Function Name  : Standard_GetConfiguration.
  63:../libraries/STM32_USB-FS-Device_Driver/src/usb_core.c **** * Description    : Return the current configuration variable address.
  64:../libraries/STM32_USB-FS-Device_Driver/src/usb_core.c **** * Input          : Length - How many bytes are needed.
  65:../libraries/STM32_USB-FS-Device_Driver/src/usb_core.c **** * Output         : None.
  66:../libraries/STM32_USB-FS-Device_Driver/src/usb_core.c **** * Return         : Return 1 , if the request is invalid when "Length" is 0.
  67:../libraries/STM32_USB-FS-Device_Driver/src/usb_core.c **** *                  Return "Buffer" if the "Length" is not 0.
  68:../libraries/STM32_USB-FS-Device_Driver/src/usb_core.c **** *******************************************************************************/
  69:../libraries/STM32_USB-FS-Device_Driver/src/usb_core.c **** uint8_t *Standard_GetConfiguration(uint16_t Length)
  70:../libraries/STM32_USB-FS-Device_Driver/src/usb_core.c **** {
  34              		.loc 1 70 0
  35              		.cfi_startproc
  36              		@ args = 0, pretend = 0, frame = 8
  37              		@ frame_needed = 1, uses_anonymous_args = 0
  38 0000 80B5     		push	{r7, lr}
  39              	.LCFI0:
  40              		.cfi_def_cfa_offset 8
  41              		.cfi_offset 7, -8
  42              		.cfi_offset 14, -4
  43 0002 82B0     		sub	sp, sp, #8
  44              	.LCFI1:
  45              		.cfi_def_cfa_offset 16
  46 0004 00AF     		add	r7, sp, #0
  47              	.LCFI2:
  48              		.cfi_def_cfa_register 7
  49 0006 0346     		mov	r3, r0
  50 0008 FB80     		strh	r3, [r7, #6]	@ movhi
  71:../libraries/STM32_USB-FS-Device_Driver/src/usb_core.c ****   if (Length == 0)
  51              		.loc 1 71 0
  52 000a FB88     		ldrh	r3, [r7, #6]
  53 000c 002B     		cmp	r3, #0
  54 000e 0AD1     		bne	.L2
  72:../libraries/STM32_USB-FS-Device_Driver/src/usb_core.c ****   {
  73:../libraries/STM32_USB-FS-Device_Driver/src/usb_core.c ****     pInformation->Ctrl_Info.Usb_wLength =
  55              		.loc 1 73 0
  56 0010 40F20003 		movw	r3, #:lower16:pInformation
  57 0014 C0F20003 		movt	r3, #:upper16:pInformation
  58 0018 1B68     		ldr	r3, [r3, #0]
  59 001a 4FF00102 		mov	r2, #1
  60 001e 1A82     		strh	r2, [r3, #16]	@ movhi
  74:../libraries/STM32_USB-FS-Device_Driver/src/usb_core.c ****       sizeof(pInformation->Current_Configuration);
  75:../libraries/STM32_USB-FS-Device_Driver/src/usb_core.c ****     return 0;
  61              		.loc 1 75 0
  62 0020 4FF00003 		mov	r3, #0
  63 0024 0DE0     		b	.L3
  64              	.L2:
  76:../libraries/STM32_USB-FS-Device_Driver/src/usb_core.c ****   }
  77:../libraries/STM32_USB-FS-Device_Driver/src/usb_core.c ****   pUser_Standard_Requests->User_GetConfiguration();
  65              		.loc 1 77 0
  66 0026 40F20003 		movw	r3, #:lower16:pUser_Standard_Requests
  67 002a C0F20003 		movt	r3, #:upper16:pUser_Standard_Requests
  68 002e 1B68     		ldr	r3, [r3, #0]
  69 0030 1B68     		ldr	r3, [r3, #0]
  70 0032 9847     		blx	r3
  78:../libraries/STM32_USB-FS-Device_Driver/src/usb_core.c ****   return (uint8_t *)&pInformation->Current_Configuration;
  71              		.loc 1 78 0
  72 0034 40F20003 		movw	r3, #:lower16:pInformation
  73 0038 C0F20003 		movt	r3, #:upper16:pInformation
  74 003c 1B68     		ldr	r3, [r3, #0]
  75 003e 03F10A03 		add	r3, r3, #10
  76              	.L3:
  79:../libraries/STM32_USB-FS-Device_Driver/src/usb_core.c **** }
  77              		.loc 1 79 0
  78 0042 1846     		mov	r0, r3
  79 0044 07F10807 		add	r7, r7, #8
  80 0048 BD46     		mov	sp, r7
  81 004a 80BD     		pop	{r7, pc}
  82              		.cfi_endproc
  83              	.LFE56:
  85              		.section	.text.Standard_SetConfiguration,"ax",%progbits
  86              		.align	2
  87              		.global	Standard_SetConfiguration
  88              		.thumb
  89              		.thumb_func
  91              	Standard_SetConfiguration:
  92              	.LFB57:
  80:../libraries/STM32_USB-FS-Device_Driver/src/usb_core.c **** 
  81:../libraries/STM32_USB-FS-Device_Driver/src/usb_core.c **** /*******************************************************************************
  82:../libraries/STM32_USB-FS-Device_Driver/src/usb_core.c **** * Function Name  : Standard_SetConfiguration.
  83:../libraries/STM32_USB-FS-Device_Driver/src/usb_core.c **** * Description    : This routine is called to set the configuration value
  84:../libraries/STM32_USB-FS-Device_Driver/src/usb_core.c **** *                  Then each class should configure device itself.
  85:../libraries/STM32_USB-FS-Device_Driver/src/usb_core.c **** * Input          : None.
  86:../libraries/STM32_USB-FS-Device_Driver/src/usb_core.c **** * Output         : None.
  87:../libraries/STM32_USB-FS-Device_Driver/src/usb_core.c **** * Return         : Return USB_SUCCESS, if the request is performed.
  88:../libraries/STM32_USB-FS-Device_Driver/src/usb_core.c **** *                  Return USB_UNSUPPORT, if the request is invalid.
  89:../libraries/STM32_USB-FS-Device_Driver/src/usb_core.c **** *******************************************************************************/
  90:../libraries/STM32_USB-FS-Device_Driver/src/usb_core.c **** RESULT Standard_SetConfiguration(void)
  91:../libraries/STM32_USB-FS-Device_Driver/src/usb_core.c **** {
  93              		.loc 1 91 0
  94              		.cfi_startproc
  95              		@ args = 0, pretend = 0, frame = 0
  96              		@ frame_needed = 1, uses_anonymous_args = 0
  97 0000 80B5     		push	{r7, lr}
  98              	.LCFI3:
  99              		.cfi_def_cfa_offset 8
 100              		.cfi_offset 7, -8
 101              		.cfi_offset 14, -4
 102 0002 00AF     		add	r7, sp, #0
 103              	.LCFI4:
 104              		.cfi_def_cfa_register 7
  92:../libraries/STM32_USB-FS-Device_Driver/src/usb_core.c **** 
  93:../libraries/STM32_USB-FS-Device_Driver/src/usb_core.c ****   if ((pInformation->USBwValue0 <=
 105              		.loc 1 93 0
 106 0004 40F20003 		movw	r3, #:lower16:pInformation
 107 0008 C0F20003 		movt	r3, #:upper16:pInformation
 108 000c 1B68     		ldr	r3, [r3, #0]
 109 000e DA78     		ldrb	r2, [r3, #3]	@ zero_extendqisi2
  94:../libraries/STM32_USB-FS-Device_Driver/src/usb_core.c ****       Device_Table.Total_Configuration) && (pInformation->USBwValue1 == 0)
 110              		.loc 1 94 0
 111 0010 40F20003 		movw	r3, #:lower16:Device_Table
 112 0014 C0F20003 		movt	r3, #:upper16:Device_Table
 113 0018 5B78     		ldrb	r3, [r3, #1]	@ zero_extendqisi2
  93:../libraries/STM32_USB-FS-Device_Driver/src/usb_core.c ****   if ((pInformation->USBwValue0 <=
 114              		.loc 1 93 0
 115 001a 9A42     		cmp	r2, r3
 116 001c 25D8     		bhi	.L5
 117              		.loc 1 94 0
 118 001e 40F20003 		movw	r3, #:lower16:pInformation
 119 0022 C0F20003 		movt	r3, #:upper16:pInformation
 120 0026 1B68     		ldr	r3, [r3, #0]
 121 0028 9B78     		ldrb	r3, [r3, #2]	@ zero_extendqisi2
 122 002a 002B     		cmp	r3, #0
 123 002c 1DD1     		bne	.L5
  95:../libraries/STM32_USB-FS-Device_Driver/src/usb_core.c ****       && (pInformation->USBwIndex == 0)) /*call Back usb spec 2.0*/
 124              		.loc 1 95 0
 125 002e 40F20003 		movw	r3, #:lower16:pInformation
 126 0032 C0F20003 		movt	r3, #:upper16:pInformation
 127 0036 1B68     		ldr	r3, [r3, #0]
 128 0038 9B88     		ldrh	r3, [r3, #4]
 129 003a 002B     		cmp	r3, #0
 130 003c 15D1     		bne	.L5
  96:../libraries/STM32_USB-FS-Device_Driver/src/usb_core.c ****   {
  97:../libraries/STM32_USB-FS-Device_Driver/src/usb_core.c ****     pInformation->Current_Configuration = pInformation->USBwValue0;
 131              		.loc 1 97 0
 132 003e 40F20003 		movw	r3, #:lower16:pInformation
 133 0042 C0F20003 		movt	r3, #:upper16:pInformation
 134 0046 1A68     		ldr	r2, [r3, #0]
 135 0048 40F20003 		movw	r3, #:lower16:pInformation
 136 004c C0F20003 		movt	r3, #:upper16:pInformation
 137 0050 1B68     		ldr	r3, [r3, #0]
 138 0052 DB78     		ldrb	r3, [r3, #3]	@ zero_extendqisi2
 139 0054 9372     		strb	r3, [r2, #10]
  98:../libraries/STM32_USB-FS-Device_Driver/src/usb_core.c ****     pUser_Standard_Requests->User_SetConfiguration();
 140              		.loc 1 98 0
 141 0056 40F20003 		movw	r3, #:lower16:pUser_Standard_Requests
 142 005a C0F20003 		movt	r3, #:upper16:pUser_Standard_Requests
 143 005e 1B68     		ldr	r3, [r3, #0]
 144 0060 5B68     		ldr	r3, [r3, #4]
 145 0062 9847     		blx	r3
  99:../libraries/STM32_USB-FS-Device_Driver/src/usb_core.c ****     return USB_SUCCESS;
 146              		.loc 1 99 0
 147 0064 4FF00003 		mov	r3, #0
 148 0068 01E0     		b	.L6
 149              	.L5:
 100:../libraries/STM32_USB-FS-Device_Driver/src/usb_core.c ****   }
 101:../libraries/STM32_USB-FS-Device_Driver/src/usb_core.c ****   else
 102:../libraries/STM32_USB-FS-Device_Driver/src/usb_core.c ****   {
 103:../libraries/STM32_USB-FS-Device_Driver/src/usb_core.c ****     return USB_UNSUPPORT;
 150              		.loc 1 103 0
 151 006a 4FF00203 		mov	r3, #2
 152              	.L6:
 104:../libraries/STM32_USB-FS-Device_Driver/src/usb_core.c ****   }
 105:../libraries/STM32_USB-FS-Device_Driver/src/usb_core.c **** }
 153              		.loc 1 105 0
 154 006e 1846     		mov	r0, r3
 155 0070 80BD     		pop	{r7, pc}
 156              		.cfi_endproc
 157              	.LFE57:
 159 0072 00BF     		.section	.text.Standard_GetInterface,"ax",%progbits
 160              		.align	2
 161              		.global	Standard_GetInterface
 162              		.thumb
 163              		.thumb_func
 165              	Standard_GetInterface:
 166              	.LFB58:
 106:../libraries/STM32_USB-FS-Device_Driver/src/usb_core.c **** 
 107:../libraries/STM32_USB-FS-Device_Driver/src/usb_core.c **** /*******************************************************************************
 108:../libraries/STM32_USB-FS-Device_Driver/src/usb_core.c **** * Function Name  : Standard_GetInterface.
 109:../libraries/STM32_USB-FS-Device_Driver/src/usb_core.c **** * Description    : Return the Alternate Setting of the current interface.
 110:../libraries/STM32_USB-FS-Device_Driver/src/usb_core.c **** * Input          : Length - How many bytes are needed.
 111:../libraries/STM32_USB-FS-Device_Driver/src/usb_core.c **** * Output         : None.
 112:../libraries/STM32_USB-FS-Device_Driver/src/usb_core.c **** * Return         : Return 0, if the request is invalid when "Length" is 0.
 113:../libraries/STM32_USB-FS-Device_Driver/src/usb_core.c **** *                  Return "Buffer" if the "Length" is not 0.
 114:../libraries/STM32_USB-FS-Device_Driver/src/usb_core.c **** *******************************************************************************/
 115:../libraries/STM32_USB-FS-Device_Driver/src/usb_core.c **** uint8_t *Standard_GetInterface(uint16_t Length)
 116:../libraries/STM32_USB-FS-Device_Driver/src/usb_core.c **** {
 167              		.loc 1 116 0
 168              		.cfi_startproc
 169              		@ args = 0, pretend = 0, frame = 8
 170              		@ frame_needed = 1, uses_anonymous_args = 0
 171 0000 80B5     		push	{r7, lr}
 172              	.LCFI5:
 173              		.cfi_def_cfa_offset 8
 174              		.cfi_offset 7, -8
 175              		.cfi_offset 14, -4
 176 0002 82B0     		sub	sp, sp, #8
 177              	.LCFI6:
 178              		.cfi_def_cfa_offset 16
 179 0004 00AF     		add	r7, sp, #0
 180              	.LCFI7:
 181              		.cfi_def_cfa_register 7
 182 0006 0346     		mov	r3, r0
 183 0008 FB80     		strh	r3, [r7, #6]	@ movhi
 117:../libraries/STM32_USB-FS-Device_Driver/src/usb_core.c ****   if (Length == 0)
 184              		.loc 1 117 0
 185 000a FB88     		ldrh	r3, [r7, #6]
 186 000c 002B     		cmp	r3, #0
 187 000e 0AD1     		bne	.L8
 118:../libraries/STM32_USB-FS-Device_Driver/src/usb_core.c ****   {
 119:../libraries/STM32_USB-FS-Device_Driver/src/usb_core.c ****     pInformation->Ctrl_Info.Usb_wLength =
 188              		.loc 1 119 0
 189 0010 40F20003 		movw	r3, #:lower16:pInformation
 190 0014 C0F20003 		movt	r3, #:upper16:pInformation
 191 0018 1B68     		ldr	r3, [r3, #0]
 192 001a 4FF00102 		mov	r2, #1
 193 001e 1A82     		strh	r2, [r3, #16]	@ movhi
 120:../libraries/STM32_USB-FS-Device_Driver/src/usb_core.c ****       sizeof(pInformation->Current_AlternateSetting);
 121:../libraries/STM32_USB-FS-Device_Driver/src/usb_core.c ****     return 0;
 194              		.loc 1 121 0
 195 0020 4FF00003 		mov	r3, #0
 196 0024 0DE0     		b	.L9
 197              	.L8:
 122:../libraries/STM32_USB-FS-Device_Driver/src/usb_core.c ****   }
 123:../libraries/STM32_USB-FS-Device_Driver/src/usb_core.c ****   pUser_Standard_Requests->User_GetInterface();
 198              		.loc 1 123 0
 199 0026 40F20003 		movw	r3, #:lower16:pUser_Standard_Requests
 200 002a C0F20003 		movt	r3, #:upper16:pUser_Standard_Requests
 201 002e 1B68     		ldr	r3, [r3, #0]
 202 0030 9B68     		ldr	r3, [r3, #8]
 203 0032 9847     		blx	r3
 124:../libraries/STM32_USB-FS-Device_Driver/src/usb_core.c ****   return (uint8_t *)&pInformation->Current_AlternateSetting;
 204              		.loc 1 124 0
 205 0034 40F20003 		movw	r3, #:lower16:pInformation
 206 0038 C0F20003 		movt	r3, #:upper16:pInformation
 207 003c 1B68     		ldr	r3, [r3, #0]
 208 003e 03F10C03 		add	r3, r3, #12
 209              	.L9:
 125:../libraries/STM32_USB-FS-Device_Driver/src/usb_core.c **** }
 210              		.loc 1 125 0
 211 0042 1846     		mov	r0, r3
 212 0044 07F10807 		add	r7, r7, #8
 213 0048 BD46     		mov	sp, r7
 214 004a 80BD     		pop	{r7, pc}
 215              		.cfi_endproc
 216              	.LFE58:
 218              		.section	.text.Standard_SetInterface,"ax",%progbits
 219              		.align	2
 220              		.global	Standard_SetInterface
 221              		.thumb
 222              		.thumb_func
 224              	Standard_SetInterface:
 225              	.LFB59:
 126:../libraries/STM32_USB-FS-Device_Driver/src/usb_core.c **** 
 127:../libraries/STM32_USB-FS-Device_Driver/src/usb_core.c **** /*******************************************************************************
 128:../libraries/STM32_USB-FS-Device_Driver/src/usb_core.c **** * Function Name  : Standard_SetInterface.
 129:../libraries/STM32_USB-FS-Device_Driver/src/usb_core.c **** * Description    : This routine is called to set the interface.
 130:../libraries/STM32_USB-FS-Device_Driver/src/usb_core.c **** *                  Then each class should configure the interface them self.
 131:../libraries/STM32_USB-FS-Device_Driver/src/usb_core.c **** * Input          : None.
 132:../libraries/STM32_USB-FS-Device_Driver/src/usb_core.c **** * Output         : None.
 133:../libraries/STM32_USB-FS-Device_Driver/src/usb_core.c **** * Return         : - Return USB_SUCCESS, if the request is performed.
 134:../libraries/STM32_USB-FS-Device_Driver/src/usb_core.c **** *                  - Return USB_UNSUPPORT, if the request is invalid.
 135:../libraries/STM32_USB-FS-Device_Driver/src/usb_core.c **** *******************************************************************************/
 136:../libraries/STM32_USB-FS-Device_Driver/src/usb_core.c **** RESULT Standard_SetInterface(void)
 137:../libraries/STM32_USB-FS-Device_Driver/src/usb_core.c **** {
 226              		.loc 1 137 0
 227              		.cfi_startproc
 228              		@ args = 0, pretend = 0, frame = 8
 229              		@ frame_needed = 1, uses_anonymous_args = 0
 230 0000 80B5     		push	{r7, lr}
 231              	.LCFI8:
 232              		.cfi_def_cfa_offset 8
 233              		.cfi_offset 7, -8
 234              		.cfi_offset 14, -4
 235 0002 82B0     		sub	sp, sp, #8
 236              	.LCFI9:
 237              		.cfi_def_cfa_offset 16
 238 0004 00AF     		add	r7, sp, #0
 239              	.LCFI10:
 240              		.cfi_def_cfa_register 7
 138:../libraries/STM32_USB-FS-Device_Driver/src/usb_core.c ****   RESULT Re;
 139:../libraries/STM32_USB-FS-Device_Driver/src/usb_core.c ****   /*Test if the specified Interface and Alternate Setting are supported by
 140:../libraries/STM32_USB-FS-Device_Driver/src/usb_core.c ****     the application Firmware*/
 141:../libraries/STM32_USB-FS-Device_Driver/src/usb_core.c ****   Re = (*pProperty->Class_Get_Interface_Setting)(pInformation->USBwIndex0, pInformation->USBwValue0
 241              		.loc 1 141 0
 242 0006 40F20003 		movw	r3, #:lower16:pProperty
 243 000a C0F20003 		movt	r3, #:upper16:pProperty
 244 000e 1B68     		ldr	r3, [r3, #0]
 245 0010 9A69     		ldr	r2, [r3, #24]
 246 0012 40F20003 		movw	r3, #:lower16:pInformation
 247 0016 C0F20003 		movt	r3, #:upper16:pInformation
 248 001a 1B68     		ldr	r3, [r3, #0]
 249 001c 5979     		ldrb	r1, [r3, #5]	@ zero_extendqisi2
 250 001e 40F20003 		movw	r3, #:lower16:pInformation
 251 0022 C0F20003 		movt	r3, #:upper16:pInformation
 252 0026 1B68     		ldr	r3, [r3, #0]
 253 0028 DB78     		ldrb	r3, [r3, #3]	@ zero_extendqisi2
 254 002a 0846     		mov	r0, r1
 255 002c 1946     		mov	r1, r3
 256 002e 9047     		blx	r2
 257 0030 0346     		mov	r3, r0
 258 0032 FB71     		strb	r3, [r7, #7]
 142:../libraries/STM32_USB-FS-Device_Driver/src/usb_core.c **** 
 143:../libraries/STM32_USB-FS-Device_Driver/src/usb_core.c ****   if (pInformation->Current_Configuration != 0)
 259              		.loc 1 143 0
 260 0034 40F20003 		movw	r3, #:lower16:pInformation
 261 0038 C0F20003 		movt	r3, #:upper16:pInformation
 262 003c 1B68     		ldr	r3, [r3, #0]
 263 003e 9B7A     		ldrb	r3, [r3, #10]	@ zero_extendqisi2
 264 0040 002B     		cmp	r3, #0
 265 0042 3AD0     		beq	.L11
 144:../libraries/STM32_USB-FS-Device_Driver/src/usb_core.c ****   {
 145:../libraries/STM32_USB-FS-Device_Driver/src/usb_core.c ****     if ((Re != USB_SUCCESS) || (pInformation->USBwIndex1 != 0)
 266              		.loc 1 145 0
 267 0044 FB79     		ldrb	r3, [r7, #7]	@ zero_extendqisi2
 268 0046 002B     		cmp	r3, #0
 269 0048 0FD1     		bne	.L12
 270              		.loc 1 145 0 is_stmt 0 discriminator 1
 271 004a 40F20003 		movw	r3, #:lower16:pInformation
 272 004e C0F20003 		movt	r3, #:upper16:pInformation
 273 0052 1B68     		ldr	r3, [r3, #0]
 274 0054 1B79     		ldrb	r3, [r3, #4]	@ zero_extendqisi2
 275 0056 002B     		cmp	r3, #0
 276 0058 07D1     		bne	.L12
 146:../libraries/STM32_USB-FS-Device_Driver/src/usb_core.c ****         || (pInformation->USBwValue1 != 0))
 277              		.loc 1 146 0 is_stmt 1
 278 005a 40F20003 		movw	r3, #:lower16:pInformation
 279 005e C0F20003 		movt	r3, #:upper16:pInformation
 280 0062 1B68     		ldr	r3, [r3, #0]
 281 0064 9B78     		ldrb	r3, [r3, #2]	@ zero_extendqisi2
 282 0066 002B     		cmp	r3, #0
 283 0068 02D0     		beq	.L13
 284              	.L12:
 147:../libraries/STM32_USB-FS-Device_Driver/src/usb_core.c ****     {
 148:../libraries/STM32_USB-FS-Device_Driver/src/usb_core.c ****       return  USB_UNSUPPORT;
 285              		.loc 1 148 0
 286 006a 4FF00203 		mov	r3, #2
 287 006e 26E0     		b	.L14
 288              	.L13:
 149:../libraries/STM32_USB-FS-Device_Driver/src/usb_core.c ****     }
 150:../libraries/STM32_USB-FS-Device_Driver/src/usb_core.c ****     else if (Re == USB_SUCCESS)
 289              		.loc 1 150 0
 290 0070 FB79     		ldrb	r3, [r7, #7]	@ zero_extendqisi2
 291 0072 002B     		cmp	r3, #0
 292 0074 21D1     		bne	.L11
 151:../libraries/STM32_USB-FS-Device_Driver/src/usb_core.c ****     {
 152:../libraries/STM32_USB-FS-Device_Driver/src/usb_core.c ****       pUser_Standard_Requests->User_SetInterface();
 293              		.loc 1 152 0
 294 0076 40F20003 		movw	r3, #:lower16:pUser_Standard_Requests
 295 007a C0F20003 		movt	r3, #:upper16:pUser_Standard_Requests
 296 007e 1B68     		ldr	r3, [r3, #0]
 297 0080 DB68     		ldr	r3, [r3, #12]
 298 0082 9847     		blx	r3
 153:../libraries/STM32_USB-FS-Device_Driver/src/usb_core.c ****       pInformation->Current_Interface = pInformation->USBwIndex0;
 299              		.loc 1 153 0
 300 0084 40F20003 		movw	r3, #:lower16:pInformation
 301 0088 C0F20003 		movt	r3, #:upper16:pInformation
 302 008c 1A68     		ldr	r2, [r3, #0]
 303 008e 40F20003 		movw	r3, #:lower16:pInformation
 304 0092 C0F20003 		movt	r3, #:upper16:pInformation
 305 0096 1B68     		ldr	r3, [r3, #0]
 306 0098 5B79     		ldrb	r3, [r3, #5]	@ zero_extendqisi2
 307 009a D372     		strb	r3, [r2, #11]
 154:../libraries/STM32_USB-FS-Device_Driver/src/usb_core.c ****       pInformation->Current_AlternateSetting = pInformation->USBwValue0;
 308              		.loc 1 154 0
 309 009c 40F20003 		movw	r3, #:lower16:pInformation
 310 00a0 C0F20003 		movt	r3, #:upper16:pInformation
 311 00a4 1A68     		ldr	r2, [r3, #0]
 312 00a6 40F20003 		movw	r3, #:lower16:pInformation
 313 00aa C0F20003 		movt	r3, #:upper16:pInformation
 314 00ae 1B68     		ldr	r3, [r3, #0]
 315 00b0 DB78     		ldrb	r3, [r3, #3]	@ zero_extendqisi2
 316 00b2 1373     		strb	r3, [r2, #12]
 155:../libraries/STM32_USB-FS-Device_Driver/src/usb_core.c ****       return USB_SUCCESS;
 317              		.loc 1 155 0
 318 00b4 4FF00003 		mov	r3, #0
 319 00b8 01E0     		b	.L14
 320              	.L11:
 156:../libraries/STM32_USB-FS-Device_Driver/src/usb_core.c ****     }
 157:../libraries/STM32_USB-FS-Device_Driver/src/usb_core.c **** 
 158:../libraries/STM32_USB-FS-Device_Driver/src/usb_core.c ****   }
 159:../libraries/STM32_USB-FS-Device_Driver/src/usb_core.c **** 
 160:../libraries/STM32_USB-FS-Device_Driver/src/usb_core.c ****   return USB_UNSUPPORT;
 321              		.loc 1 160 0
 322 00ba 4FF00203 		mov	r3, #2
 323              	.L14:
 161:../libraries/STM32_USB-FS-Device_Driver/src/usb_core.c **** }
 324              		.loc 1 161 0
 325 00be 1846     		mov	r0, r3
 326 00c0 07F10807 		add	r7, r7, #8
 327 00c4 BD46     		mov	sp, r7
 328 00c6 80BD     		pop	{r7, pc}
 329              		.cfi_endproc
 330              	.LFE59:
 332              		.section	.text.Standard_GetStatus,"ax",%progbits
 333              		.align	2
 334              		.global	Standard_GetStatus
 335              		.thumb
 336              		.thumb_func
 338              	Standard_GetStatus:
 339              	.LFB60:
 162:../libraries/STM32_USB-FS-Device_Driver/src/usb_core.c **** 
 163:../libraries/STM32_USB-FS-Device_Driver/src/usb_core.c **** /*******************************************************************************
 164:../libraries/STM32_USB-FS-Device_Driver/src/usb_core.c **** * Function Name  : Standard_GetStatus.
 165:../libraries/STM32_USB-FS-Device_Driver/src/usb_core.c **** * Description    : Copy the device request data to "StatusInfo buffer".
 166:../libraries/STM32_USB-FS-Device_Driver/src/usb_core.c **** * Input          : - Length - How many bytes are needed.
 167:../libraries/STM32_USB-FS-Device_Driver/src/usb_core.c **** * Output         : None.
 168:../libraries/STM32_USB-FS-Device_Driver/src/usb_core.c **** * Return         : Return 0, if the request is at end of data block,
 169:../libraries/STM32_USB-FS-Device_Driver/src/usb_core.c **** *                  or is invalid when "Length" is 0.
 170:../libraries/STM32_USB-FS-Device_Driver/src/usb_core.c **** *******************************************************************************/
 171:../libraries/STM32_USB-FS-Device_Driver/src/usb_core.c **** uint8_t *Standard_GetStatus(uint16_t Length)
 172:../libraries/STM32_USB-FS-Device_Driver/src/usb_core.c **** {
 340              		.loc 1 172 0
 341              		.cfi_startproc
 342              		@ args = 0, pretend = 0, frame = 16
 343              		@ frame_needed = 1, uses_anonymous_args = 0
 344 0000 80B5     		push	{r7, lr}
 345              	.LCFI11:
 346              		.cfi_def_cfa_offset 8
 347              		.cfi_offset 7, -8
 348              		.cfi_offset 14, -4
 349 0002 84B0     		sub	sp, sp, #16
 350              	.LCFI12:
 351              		.cfi_def_cfa_offset 24
 352 0004 00AF     		add	r7, sp, #0
 353              	.LCFI13:
 354              		.cfi_def_cfa_register 7
 355 0006 0346     		mov	r3, r0
 356 0008 FB80     		strh	r3, [r7, #6]	@ movhi
 173:../libraries/STM32_USB-FS-Device_Driver/src/usb_core.c ****   if (Length == 0)
 357              		.loc 1 173 0
 358 000a FB88     		ldrh	r3, [r7, #6]
 359 000c 002B     		cmp	r3, #0
 360 000e 0AD1     		bne	.L16
 174:../libraries/STM32_USB-FS-Device_Driver/src/usb_core.c ****   {
 175:../libraries/STM32_USB-FS-Device_Driver/src/usb_core.c ****     pInformation->Ctrl_Info.Usb_wLength = 2;
 361              		.loc 1 175 0
 362 0010 40F20003 		movw	r3, #:lower16:pInformation
 363 0014 C0F20003 		movt	r3, #:upper16:pInformation
 364 0018 1B68     		ldr	r3, [r3, #0]
 365 001a 4FF00202 		mov	r2, #2
 366 001e 1A82     		strh	r2, [r3, #16]	@ movhi
 176:../libraries/STM32_USB-FS-Device_Driver/src/usb_core.c ****     return 0;
 367              		.loc 1 176 0
 368 0020 4FF00003 		mov	r3, #0
 369 0024 C5E0     		b	.L17
 370              	.L16:
 177:../libraries/STM32_USB-FS-Device_Driver/src/usb_core.c ****   }
 178:../libraries/STM32_USB-FS-Device_Driver/src/usb_core.c **** 
 179:../libraries/STM32_USB-FS-Device_Driver/src/usb_core.c ****   /* Reset Status Information */
 180:../libraries/STM32_USB-FS-Device_Driver/src/usb_core.c ****   StatusInfo.w = 0;
 371              		.loc 1 180 0
 372 0026 40F20003 		movw	r3, #:lower16:StatusInfo
 373 002a C0F20003 		movt	r3, #:upper16:StatusInfo
 374 002e 4FF00002 		mov	r2, #0
 375 0032 1A80     		strh	r2, [r3, #0]	@ movhi
 181:../libraries/STM32_USB-FS-Device_Driver/src/usb_core.c **** 
 182:../libraries/STM32_USB-FS-Device_Driver/src/usb_core.c ****   if (Type_Recipient == (STANDARD_REQUEST | DEVICE_RECIPIENT))
 376              		.loc 1 182 0
 377 0034 40F20003 		movw	r3, #:lower16:pInformation
 378 0038 C0F20003 		movt	r3, #:upper16:pInformation
 379 003c 1B68     		ldr	r3, [r3, #0]
 380 003e 1B78     		ldrb	r3, [r3, #0]	@ zero_extendqisi2
 381 0040 03F07F03 		and	r3, r3, #127
 382 0044 002B     		cmp	r3, #0
 383 0046 47D1     		bne	.L18
 384              	.LBB2:
 183:../libraries/STM32_USB-FS-Device_Driver/src/usb_core.c ****   {
 184:../libraries/STM32_USB-FS-Device_Driver/src/usb_core.c ****     /*Get Device Status */
 185:../libraries/STM32_USB-FS-Device_Driver/src/usb_core.c ****     uint8_t Feature = pInformation->Current_Feature;
 385              		.loc 1 185 0
 386 0048 40F20003 		movw	r3, #:lower16:pInformation
 387 004c C0F20003 		movt	r3, #:upper16:pInformation
 388 0050 1B68     		ldr	r3, [r3, #0]
 389 0052 5B7A     		ldrb	r3, [r3, #9]
 390 0054 FB73     		strb	r3, [r7, #15]
 186:../libraries/STM32_USB-FS-Device_Driver/src/usb_core.c **** 
 187:../libraries/STM32_USB-FS-Device_Driver/src/usb_core.c ****     /* Remote Wakeup enabled */
 188:../libraries/STM32_USB-FS-Device_Driver/src/usb_core.c ****     if (ValBit(Feature, 5))
 391              		.loc 1 188 0
 392 0056 FB7B     		ldrb	r3, [r7, #15]	@ zero_extendqisi2
 393 0058 03F02003 		and	r3, r3, #32
 394 005c 002B     		cmp	r3, #0
 395 005e 0DD0     		beq	.L19
 189:../libraries/STM32_USB-FS-Device_Driver/src/usb_core.c ****     {
 190:../libraries/STM32_USB-FS-Device_Driver/src/usb_core.c ****       SetBit(StatusInfo0, 1);
 396              		.loc 1 190 0
 397 0060 40F20003 		movw	r3, #:lower16:StatusInfo
 398 0064 C0F20003 		movt	r3, #:upper16:StatusInfo
 399 0068 1B78     		ldrb	r3, [r3, #0]	@ zero_extendqisi2
 400 006a 43F00203 		orr	r3, r3, #2
 401 006e DAB2     		uxtb	r2, r3
 402 0070 40F20003 		movw	r3, #:lower16:StatusInfo
 403 0074 C0F20003 		movt	r3, #:upper16:StatusInfo
 404 0078 1A70     		strb	r2, [r3, #0]
 405 007a 0CE0     		b	.L20
 406              	.L19:
 191:../libraries/STM32_USB-FS-Device_Driver/src/usb_core.c ****     }
 192:../libraries/STM32_USB-FS-Device_Driver/src/usb_core.c ****     else
 193:../libraries/STM32_USB-FS-Device_Driver/src/usb_core.c ****     {
 194:../libraries/STM32_USB-FS-Device_Driver/src/usb_core.c ****       ClrBit(StatusInfo0, 1);
 407              		.loc 1 194 0
 408 007c 40F20003 		movw	r3, #:lower16:StatusInfo
 409 0080 C0F20003 		movt	r3, #:upper16:StatusInfo
 410 0084 1B78     		ldrb	r3, [r3, #0]	@ zero_extendqisi2
 411 0086 23F00203 		bic	r3, r3, #2
 412 008a DAB2     		uxtb	r2, r3
 413 008c 40F20003 		movw	r3, #:lower16:StatusInfo
 414 0090 C0F20003 		movt	r3, #:upper16:StatusInfo
 415 0094 1A70     		strb	r2, [r3, #0]
 416              	.L20:
 195:../libraries/STM32_USB-FS-Device_Driver/src/usb_core.c ****     }      
 196:../libraries/STM32_USB-FS-Device_Driver/src/usb_core.c **** 
 197:../libraries/STM32_USB-FS-Device_Driver/src/usb_core.c ****     /* Bus-powered */
 198:../libraries/STM32_USB-FS-Device_Driver/src/usb_core.c ****     if (ValBit(Feature, 6))
 417              		.loc 1 198 0
 418 0096 FB7B     		ldrb	r3, [r7, #15]	@ zero_extendqisi2
 419 0098 03F04003 		and	r3, r3, #64
 420 009c 002B     		cmp	r3, #0
 421 009e 0DD0     		beq	.L21
 199:../libraries/STM32_USB-FS-Device_Driver/src/usb_core.c ****     {
 200:../libraries/STM32_USB-FS-Device_Driver/src/usb_core.c ****       SetBit(StatusInfo0, 0);
 422              		.loc 1 200 0
 423 00a0 40F20003 		movw	r3, #:lower16:StatusInfo
 424 00a4 C0F20003 		movt	r3, #:upper16:StatusInfo
 425 00a8 1B78     		ldrb	r3, [r3, #0]	@ zero_extendqisi2
 426 00aa 43F00103 		orr	r3, r3, #1
 427 00ae DAB2     		uxtb	r2, r3
 428 00b0 40F20003 		movw	r3, #:lower16:StatusInfo
 429 00b4 C0F20003 		movt	r3, #:upper16:StatusInfo
 430 00b8 1A70     		strb	r2, [r3, #0]
 431 00ba 6FE0     		b	.L22
 432              	.L21:
 201:../libraries/STM32_USB-FS-Device_Driver/src/usb_core.c ****     }
 202:../libraries/STM32_USB-FS-Device_Driver/src/usb_core.c ****     else /* Self-powered */
 203:../libraries/STM32_USB-FS-Device_Driver/src/usb_core.c ****     {
 204:../libraries/STM32_USB-FS-Device_Driver/src/usb_core.c ****       ClrBit(StatusInfo0, 0);
 433              		.loc 1 204 0
 434 00bc 40F20003 		movw	r3, #:lower16:StatusInfo
 435 00c0 C0F20003 		movt	r3, #:upper16:StatusInfo
 436 00c4 1B78     		ldrb	r3, [r3, #0]	@ zero_extendqisi2
 437 00c6 23F00103 		bic	r3, r3, #1
 438 00ca DAB2     		uxtb	r2, r3
 439 00cc 40F20003 		movw	r3, #:lower16:StatusInfo
 440 00d0 C0F20003 		movt	r3, #:upper16:StatusInfo
 441 00d4 1A70     		strb	r2, [r3, #0]
 442 00d6 61E0     		b	.L22
 443              	.L18:
 444              	.LBE2:
 205:../libraries/STM32_USB-FS-Device_Driver/src/usb_core.c ****     }
 206:../libraries/STM32_USB-FS-Device_Driver/src/usb_core.c ****   }
 207:../libraries/STM32_USB-FS-Device_Driver/src/usb_core.c ****   /*Interface Status*/
 208:../libraries/STM32_USB-FS-Device_Driver/src/usb_core.c ****   else if (Type_Recipient == (STANDARD_REQUEST | INTERFACE_RECIPIENT))
 445              		.loc 1 208 0
 446 00d8 40F20003 		movw	r3, #:lower16:pInformation
 447 00dc C0F20003 		movt	r3, #:upper16:pInformation
 448 00e0 1B68     		ldr	r3, [r3, #0]
 449 00e2 1B78     		ldrb	r3, [r3, #0]	@ zero_extendqisi2
 450 00e4 03F07F03 		and	r3, r3, #127
 451 00e8 012B     		cmp	r3, #1
 452 00ea 04D1     		bne	.L23
 209:../libraries/STM32_USB-FS-Device_Driver/src/usb_core.c ****   {
 210:../libraries/STM32_USB-FS-Device_Driver/src/usb_core.c ****     return (uint8_t *)&StatusInfo;
 453              		.loc 1 210 0
 454 00ec 40F20003 		movw	r3, #:lower16:StatusInfo
 455 00f0 C0F20003 		movt	r3, #:upper16:StatusInfo
 456 00f4 5DE0     		b	.L17
 457              	.L23:
 211:../libraries/STM32_USB-FS-Device_Driver/src/usb_core.c ****   }
 212:../libraries/STM32_USB-FS-Device_Driver/src/usb_core.c ****   /*Get EndPoint Status*/
 213:../libraries/STM32_USB-FS-Device_Driver/src/usb_core.c ****   else if (Type_Recipient == (STANDARD_REQUEST | ENDPOINT_RECIPIENT))
 458              		.loc 1 213 0
 459 00f6 40F20003 		movw	r3, #:lower16:pInformation
 460 00fa C0F20003 		movt	r3, #:upper16:pInformation
 461 00fe 1B68     		ldr	r3, [r3, #0]
 462 0100 1B78     		ldrb	r3, [r3, #0]	@ zero_extendqisi2
 463 0102 03F07F03 		and	r3, r3, #127
 464 0106 022B     		cmp	r3, #2
 465 0108 45D1     		bne	.L24
 466              	.LBB3:
 214:../libraries/STM32_USB-FS-Device_Driver/src/usb_core.c ****   {
 215:../libraries/STM32_USB-FS-Device_Driver/src/usb_core.c ****     uint8_t Related_Endpoint;
 216:../libraries/STM32_USB-FS-Device_Driver/src/usb_core.c ****     uint8_t wIndex0 = pInformation->USBwIndex0;
 467              		.loc 1 216 0
 468 010a 40F20003 		movw	r3, #:lower16:pInformation
 469 010e C0F20003 		movt	r3, #:upper16:pInformation
 470 0112 1B68     		ldr	r3, [r3, #0]
 471 0114 5B79     		ldrb	r3, [r3, #5]
 472 0116 BB73     		strb	r3, [r7, #14]
 217:../libraries/STM32_USB-FS-Device_Driver/src/usb_core.c **** 
 218:../libraries/STM32_USB-FS-Device_Driver/src/usb_core.c ****     Related_Endpoint = (wIndex0 & 0x0f);
 473              		.loc 1 218 0
 474 0118 BB7B     		ldrb	r3, [r7, #14]
 475 011a 03F00F03 		and	r3, r3, #15
 476 011e 7B73     		strb	r3, [r7, #13]
 219:../libraries/STM32_USB-FS-Device_Driver/src/usb_core.c ****     if (ValBit(wIndex0, 7))
 477              		.loc 1 219 0
 478 0120 BB7B     		ldrb	r3, [r7, #14]	@ zero_extendqisi2
 479 0122 5BB2     		sxtb	r3, r3
 480 0124 002B     		cmp	r3, #0
 481 0126 1ADA     		bge	.L25
 220:../libraries/STM32_USB-FS-Device_Driver/src/usb_core.c ****     {
 221:../libraries/STM32_USB-FS-Device_Driver/src/usb_core.c ****       /* IN endpoint */
 222:../libraries/STM32_USB-FS-Device_Driver/src/usb_core.c ****       if (_GetTxStallStatus(Related_Endpoint))
 482              		.loc 1 222 0
 483 0128 7B7B     		ldrb	r3, [r7, #13]	@ zero_extendqisi2
 484 012a 4FEA8303 		lsl	r3, r3, #2
 485 012e 03F18043 		add	r3, r3, #1073741824
 486 0132 03F5B843 		add	r3, r3, #23552
 487 0136 1B68     		ldr	r3, [r3, #0]
 488 0138 9BB2     		uxth	r3, r3
 489 013a 03F03003 		and	r3, r3, #48
 490 013e 102B     		cmp	r3, #16
 491 0140 2CD1     		bne	.L22
 223:../libraries/STM32_USB-FS-Device_Driver/src/usb_core.c ****       {
 224:../libraries/STM32_USB-FS-Device_Driver/src/usb_core.c ****         SetBit(StatusInfo0, 0); /* IN Endpoint stalled */
 492              		.loc 1 224 0
 493 0142 40F20003 		movw	r3, #:lower16:StatusInfo
 494 0146 C0F20003 		movt	r3, #:upper16:StatusInfo
 495 014a 1B78     		ldrb	r3, [r3, #0]	@ zero_extendqisi2
 496 014c 43F00103 		orr	r3, r3, #1
 497 0150 DAB2     		uxtb	r2, r3
 498 0152 40F20003 		movw	r3, #:lower16:StatusInfo
 499 0156 C0F20003 		movt	r3, #:upper16:StatusInfo
 500 015a 1A70     		strb	r2, [r3, #0]
 501 015c 1EE0     		b	.L22
 502              	.L25:
 225:../libraries/STM32_USB-FS-Device_Driver/src/usb_core.c ****       }
 226:../libraries/STM32_USB-FS-Device_Driver/src/usb_core.c ****     }
 227:../libraries/STM32_USB-FS-Device_Driver/src/usb_core.c ****     else
 228:../libraries/STM32_USB-FS-Device_Driver/src/usb_core.c ****     {
 229:../libraries/STM32_USB-FS-Device_Driver/src/usb_core.c ****       /* OUT endpoint */
 230:../libraries/STM32_USB-FS-Device_Driver/src/usb_core.c ****       if (_GetRxStallStatus(Related_Endpoint))
 503              		.loc 1 230 0
 504 015e 7B7B     		ldrb	r3, [r7, #13]	@ zero_extendqisi2
 505 0160 4FEA8303 		lsl	r3, r3, #2
 506 0164 03F18043 		add	r3, r3, #1073741824
 507 0168 03F5B843 		add	r3, r3, #23552
 508 016c 1B68     		ldr	r3, [r3, #0]
 509 016e 9BB2     		uxth	r3, r3
 510 0170 03F44053 		and	r3, r3, #12288
 511 0174 B3F5805F 		cmp	r3, #4096
 512 0178 10D1     		bne	.L22
 231:../libraries/STM32_USB-FS-Device_Driver/src/usb_core.c ****       {
 232:../libraries/STM32_USB-FS-Device_Driver/src/usb_core.c ****         SetBit(StatusInfo0, 0); /* OUT Endpoint stalled */
 513              		.loc 1 232 0
 514 017a 40F20003 		movw	r3, #:lower16:StatusInfo
 515 017e C0F20003 		movt	r3, #:upper16:StatusInfo
 516 0182 1B78     		ldrb	r3, [r3, #0]	@ zero_extendqisi2
 517 0184 43F00103 		orr	r3, r3, #1
 518 0188 DAB2     		uxtb	r2, r3
 519 018a 40F20003 		movw	r3, #:lower16:StatusInfo
 520 018e C0F20003 		movt	r3, #:upper16:StatusInfo
 521 0192 1A70     		strb	r2, [r3, #0]
 522 0194 02E0     		b	.L22
 523              	.L24:
 524              	.LBE3:
 233:../libraries/STM32_USB-FS-Device_Driver/src/usb_core.c ****       }
 234:../libraries/STM32_USB-FS-Device_Driver/src/usb_core.c ****     }
 235:../libraries/STM32_USB-FS-Device_Driver/src/usb_core.c **** 
 236:../libraries/STM32_USB-FS-Device_Driver/src/usb_core.c ****   }
 237:../libraries/STM32_USB-FS-Device_Driver/src/usb_core.c ****   else
 238:../libraries/STM32_USB-FS-Device_Driver/src/usb_core.c ****   {
 239:../libraries/STM32_USB-FS-Device_Driver/src/usb_core.c ****     return NULL;
 525              		.loc 1 239 0
 526 0196 4FF00003 		mov	r3, #0
 527 019a 0AE0     		b	.L17
 528              	.L22:
 240:../libraries/STM32_USB-FS-Device_Driver/src/usb_core.c ****   }
 241:../libraries/STM32_USB-FS-Device_Driver/src/usb_core.c ****   pUser_Standard_Requests->User_GetStatus();
 529              		.loc 1 241 0
 530 019c 40F20003 		movw	r3, #:lower16:pUser_Standard_Requests
 531 01a0 C0F20003 		movt	r3, #:upper16:pUser_Standard_Requests
 532 01a4 1B68     		ldr	r3, [r3, #0]
 533 01a6 1B69     		ldr	r3, [r3, #16]
 534 01a8 9847     		blx	r3
 242:../libraries/STM32_USB-FS-Device_Driver/src/usb_core.c ****   return (uint8_t *)&StatusInfo;
 535              		.loc 1 242 0
 536 01aa 40F20003 		movw	r3, #:lower16:StatusInfo
 537 01ae C0F20003 		movt	r3, #:upper16:StatusInfo
 538              	.L17:
 243:../libraries/STM32_USB-FS-Device_Driver/src/usb_core.c **** }
 539              		.loc 1 243 0
 540 01b2 1846     		mov	r0, r3
 541 01b4 07F11007 		add	r7, r7, #16
 542 01b8 BD46     		mov	sp, r7
 543 01ba 80BD     		pop	{r7, pc}
 544              		.cfi_endproc
 545              	.LFE60:
 547              		.section	.text.Standard_ClearFeature,"ax",%progbits
 548              		.align	2
 549              		.global	Standard_ClearFeature
 550              		.thumb
 551              		.thumb_func
 553              	Standard_ClearFeature:
 554              	.LFB61:
 244:../libraries/STM32_USB-FS-Device_Driver/src/usb_core.c **** 
 245:../libraries/STM32_USB-FS-Device_Driver/src/usb_core.c **** /*******************************************************************************
 246:../libraries/STM32_USB-FS-Device_Driver/src/usb_core.c **** * Function Name  : Standard_ClearFeature.
 247:../libraries/STM32_USB-FS-Device_Driver/src/usb_core.c **** * Description    : Clear or disable a specific feature.
 248:../libraries/STM32_USB-FS-Device_Driver/src/usb_core.c **** * Input          : None.
 249:../libraries/STM32_USB-FS-Device_Driver/src/usb_core.c **** * Output         : None.
 250:../libraries/STM32_USB-FS-Device_Driver/src/usb_core.c **** * Return         : - Return USB_SUCCESS, if the request is performed.
 251:../libraries/STM32_USB-FS-Device_Driver/src/usb_core.c **** *                  - Return USB_UNSUPPORT, if the request is invalid.
 252:../libraries/STM32_USB-FS-Device_Driver/src/usb_core.c **** *******************************************************************************/
 253:../libraries/STM32_USB-FS-Device_Driver/src/usb_core.c **** RESULT Standard_ClearFeature(void)
 254:../libraries/STM32_USB-FS-Device_Driver/src/usb_core.c **** {
 555              		.loc 1 254 0
 556              		.cfi_startproc
 557              		@ args = 0, pretend = 0, frame = 24
 558              		@ frame_needed = 1, uses_anonymous_args = 0
 559 0000 90B5     		push	{r4, r7, lr}
 560              	.LCFI14:
 561              		.cfi_def_cfa_offset 12
 562              		.cfi_offset 4, -12
 563              		.cfi_offset 7, -8
 564              		.cfi_offset 14, -4
 565 0002 87B0     		sub	sp, sp, #28
 566              	.LCFI15:
 567              		.cfi_def_cfa_offset 40
 568 0004 00AF     		add	r7, sp, #0
 569              	.LCFI16:
 570              		.cfi_def_cfa_register 7
 255:../libraries/STM32_USB-FS-Device_Driver/src/usb_core.c ****   uint32_t     Type_Rec = Type_Recipient;
 571              		.loc 1 255 0
 572 0006 40F20003 		movw	r3, #:lower16:pInformation
 573 000a C0F20003 		movt	r3, #:upper16:pInformation
 574 000e 1B68     		ldr	r3, [r3, #0]
 575 0010 1B78     		ldrb	r3, [r3, #0]	@ zero_extendqisi2
 576 0012 03F07F03 		and	r3, r3, #127
 577 0016 3B61     		str	r3, [r7, #16]
 256:../libraries/STM32_USB-FS-Device_Driver/src/usb_core.c ****   uint32_t     Status;
 257:../libraries/STM32_USB-FS-Device_Driver/src/usb_core.c **** 
 258:../libraries/STM32_USB-FS-Device_Driver/src/usb_core.c **** 
 259:../libraries/STM32_USB-FS-Device_Driver/src/usb_core.c ****   if (Type_Rec == (STANDARD_REQUEST | DEVICE_RECIPIENT))
 578              		.loc 1 259 0
 579 0018 3B69     		ldr	r3, [r7, #16]
 580 001a 002B     		cmp	r3, #0
 581 001c 11D1     		bne	.L27
 260:../libraries/STM32_USB-FS-Device_Driver/src/usb_core.c ****   {/*Device Clear Feature*/
 261:../libraries/STM32_USB-FS-Device_Driver/src/usb_core.c ****     ClrBit(pInformation->Current_Feature, 5);
 582              		.loc 1 261 0
 583 001e 40F20003 		movw	r3, #:lower16:pInformation
 584 0022 C0F20003 		movt	r3, #:upper16:pInformation
 585 0026 1A68     		ldr	r2, [r3, #0]
 586 0028 40F20003 		movw	r3, #:lower16:pInformation
 587 002c C0F20003 		movt	r3, #:upper16:pInformation
 588 0030 1B68     		ldr	r3, [r3, #0]
 589 0032 5B7A     		ldrb	r3, [r3, #9]	@ zero_extendqisi2
 590 0034 23F02003 		bic	r3, r3, #32
 591 0038 DBB2     		uxtb	r3, r3
 592 003a 5372     		strb	r3, [r2, #9]
 262:../libraries/STM32_USB-FS-Device_Driver/src/usb_core.c ****     return USB_SUCCESS;
 593              		.loc 1 262 0
 594 003c 4FF00003 		mov	r3, #0
 595 0040 F1E0     		b	.L28
 596              	.L27:
 263:../libraries/STM32_USB-FS-Device_Driver/src/usb_core.c ****   }
 264:../libraries/STM32_USB-FS-Device_Driver/src/usb_core.c ****   else if (Type_Rec == (STANDARD_REQUEST | ENDPOINT_RECIPIENT))
 597              		.loc 1 264 0
 598 0042 3B69     		ldr	r3, [r7, #16]
 599 0044 022B     		cmp	r3, #2
 600 0046 40F0EC80 		bne	.L29
 601              	.LBB4:
 265:../libraries/STM32_USB-FS-Device_Driver/src/usb_core.c ****   {/*EndPoint Clear Feature*/
 266:../libraries/STM32_USB-FS-Device_Driver/src/usb_core.c ****     DEVICE* pDev;
 267:../libraries/STM32_USB-FS-Device_Driver/src/usb_core.c ****     uint32_t Related_Endpoint;
 268:../libraries/STM32_USB-FS-Device_Driver/src/usb_core.c ****     uint32_t wIndex0;
 269:../libraries/STM32_USB-FS-Device_Driver/src/usb_core.c ****     uint32_t rEP;
 270:../libraries/STM32_USB-FS-Device_Driver/src/usb_core.c **** 
 271:../libraries/STM32_USB-FS-Device_Driver/src/usb_core.c ****     if ((pInformation->USBwValue != ENDPOINT_STALL)
 602              		.loc 1 271 0
 603 004a 40F20003 		movw	r3, #:lower16:pInformation
 604 004e C0F20003 		movt	r3, #:upper16:pInformation
 605 0052 1B68     		ldr	r3, [r3, #0]
 606 0054 5B88     		ldrh	r3, [r3, #2]
 607 0056 002B     		cmp	r3, #0
 608 0058 07D1     		bne	.L30
 272:../libraries/STM32_USB-FS-Device_Driver/src/usb_core.c ****         || (pInformation->USBwIndex1 != 0))
 609              		.loc 1 272 0
 610 005a 40F20003 		movw	r3, #:lower16:pInformation
 611 005e C0F20003 		movt	r3, #:upper16:pInformation
 612 0062 1B68     		ldr	r3, [r3, #0]
 613 0064 1B79     		ldrb	r3, [r3, #4]	@ zero_extendqisi2
 614 0066 002B     		cmp	r3, #0
 615 0068 02D0     		beq	.L31
 616              	.L30:
 273:../libraries/STM32_USB-FS-Device_Driver/src/usb_core.c ****     {
 274:../libraries/STM32_USB-FS-Device_Driver/src/usb_core.c ****       return USB_UNSUPPORT;
 617              		.loc 1 274 0
 618 006a 4FF00203 		mov	r3, #2
 619 006e DAE0     		b	.L28
 620              	.L31:
 275:../libraries/STM32_USB-FS-Device_Driver/src/usb_core.c ****     }
 276:../libraries/STM32_USB-FS-Device_Driver/src/usb_core.c **** 
 277:../libraries/STM32_USB-FS-Device_Driver/src/usb_core.c ****     pDev = &Device_Table;
 621              		.loc 1 277 0
 622 0070 40F20003 		movw	r3, #:lower16:Device_Table
 623 0074 C0F20003 		movt	r3, #:upper16:Device_Table
 624 0078 FB60     		str	r3, [r7, #12]
 278:../libraries/STM32_USB-FS-Device_Driver/src/usb_core.c ****     wIndex0 = pInformation->USBwIndex0;
 625              		.loc 1 278 0
 626 007a 40F20003 		movw	r3, #:lower16:pInformation
 627 007e C0F20003 		movt	r3, #:upper16:pInformation
 628 0082 1B68     		ldr	r3, [r3, #0]
 629 0084 5B79     		ldrb	r3, [r3, #5]	@ zero_extendqisi2
 630 0086 BB60     		str	r3, [r7, #8]
 279:../libraries/STM32_USB-FS-Device_Driver/src/usb_core.c ****     rEP = wIndex0 & ~0x80;
 631              		.loc 1 279 0
 632 0088 BB68     		ldr	r3, [r7, #8]
 633 008a 23F08003 		bic	r3, r3, #128
 634 008e 7B60     		str	r3, [r7, #4]
 280:../libraries/STM32_USB-FS-Device_Driver/src/usb_core.c ****     Related_Endpoint = ENDP0 + rEP;
 635              		.loc 1 280 0
 636 0090 7B68     		ldr	r3, [r7, #4]
 637 0092 3B60     		str	r3, [r7, #0]
 281:../libraries/STM32_USB-FS-Device_Driver/src/usb_core.c **** 
 282:../libraries/STM32_USB-FS-Device_Driver/src/usb_core.c ****     if (ValBit(pInformation->USBwIndex0, 7))
 638              		.loc 1 282 0
 639 0094 40F20003 		movw	r3, #:lower16:pInformation
 640 0098 C0F20003 		movt	r3, #:upper16:pInformation
 641 009c 1B68     		ldr	r3, [r3, #0]
 642 009e 5B79     		ldrb	r3, [r3, #5]	@ zero_extendqisi2
 643 00a0 DBB2     		uxtb	r3, r3
 644 00a2 5BB2     		sxtb	r3, r3
 645 00a4 002B     		cmp	r3, #0
 646 00a6 0CDA     		bge	.L32
 283:../libraries/STM32_USB-FS-Device_Driver/src/usb_core.c ****     {
 284:../libraries/STM32_USB-FS-Device_Driver/src/usb_core.c ****       /*Get Status of endpoint & stall the request if the related_ENdpoint
 285:../libraries/STM32_USB-FS-Device_Driver/src/usb_core.c ****       is Disabled*/
 286:../libraries/STM32_USB-FS-Device_Driver/src/usb_core.c ****       Status = _GetEPTxStatus(Related_Endpoint);
 647              		.loc 1 286 0
 648 00a8 3B68     		ldr	r3, [r7, #0]
 649 00aa 4FEA8303 		lsl	r3, r3, #2
 650 00ae 03F18043 		add	r3, r3, #1073741824
 651 00b2 03F5B843 		add	r3, r3, #23552
 652 00b6 1B68     		ldr	r3, [r3, #0]
 653 00b8 9BB2     		uxth	r3, r3
 654 00ba 03F03003 		and	r3, r3, #48
 655 00be 7B61     		str	r3, [r7, #20]
 656 00c0 0BE0     		b	.L33
 657              	.L32:
 287:../libraries/STM32_USB-FS-Device_Driver/src/usb_core.c ****     }
 288:../libraries/STM32_USB-FS-Device_Driver/src/usb_core.c ****     else
 289:../libraries/STM32_USB-FS-Device_Driver/src/usb_core.c ****     {
 290:../libraries/STM32_USB-FS-Device_Driver/src/usb_core.c ****       Status = _GetEPRxStatus(Related_Endpoint);
 658              		.loc 1 290 0
 659 00c2 3B68     		ldr	r3, [r7, #0]
 660 00c4 4FEA8303 		lsl	r3, r3, #2
 661 00c8 03F18043 		add	r3, r3, #1073741824
 662 00cc 03F5B843 		add	r3, r3, #23552
 663 00d0 1B68     		ldr	r3, [r3, #0]
 664 00d2 9BB2     		uxth	r3, r3
 665 00d4 03F44053 		and	r3, r3, #12288
 666 00d8 7B61     		str	r3, [r7, #20]
 667              	.L33:
 291:../libraries/STM32_USB-FS-Device_Driver/src/usb_core.c ****     }
 292:../libraries/STM32_USB-FS-Device_Driver/src/usb_core.c **** 
 293:../libraries/STM32_USB-FS-Device_Driver/src/usb_core.c ****     if ((rEP >= pDev->Total_Endpoint) || (Status == 0)
 668              		.loc 1 293 0
 669 00da FB68     		ldr	r3, [r7, #12]
 670 00dc 1B78     		ldrb	r3, [r3, #0]	@ zero_extendqisi2
 671 00de 1A46     		mov	r2, r3
 672 00e0 7B68     		ldr	r3, [r7, #4]
 673 00e2 9A42     		cmp	r2, r3
 674 00e4 0AD9     		bls	.L34
 675              		.loc 1 293 0 is_stmt 0 discriminator 1
 676 00e6 7B69     		ldr	r3, [r7, #20]
 677 00e8 002B     		cmp	r3, #0
 678 00ea 07D0     		beq	.L34
 294:../libraries/STM32_USB-FS-Device_Driver/src/usb_core.c ****         || (pInformation->Current_Configuration == 0))
 679              		.loc 1 294 0 is_stmt 1
 680 00ec 40F20003 		movw	r3, #:lower16:pInformation
 681 00f0 C0F20003 		movt	r3, #:upper16:pInformation
 682 00f4 1B68     		ldr	r3, [r3, #0]
 683 00f6 9B7A     		ldrb	r3, [r3, #10]	@ zero_extendqisi2
 684 00f8 002B     		cmp	r3, #0
 685 00fa 02D1     		bne	.L35
 686              	.L34:
 295:../libraries/STM32_USB-FS-Device_Driver/src/usb_core.c ****     {
 296:../libraries/STM32_USB-FS-Device_Driver/src/usb_core.c ****       return USB_UNSUPPORT;
 687              		.loc 1 296 0
 688 00fc 4FF00203 		mov	r3, #2
 689 0100 91E0     		b	.L28
 690              	.L35:
 297:../libraries/STM32_USB-FS-Device_Driver/src/usb_core.c ****     }
 298:../libraries/STM32_USB-FS-Device_Driver/src/usb_core.c **** 
 299:../libraries/STM32_USB-FS-Device_Driver/src/usb_core.c **** 
 300:../libraries/STM32_USB-FS-Device_Driver/src/usb_core.c ****     if (wIndex0 & 0x80)
 691              		.loc 1 300 0
 692 0102 BB68     		ldr	r3, [r7, #8]
 693 0104 03F08003 		and	r3, r3, #128
 694 0108 002B     		cmp	r3, #0
 695 010a 19D0     		beq	.L36
 301:../libraries/STM32_USB-FS-Device_Driver/src/usb_core.c ****     {
 302:../libraries/STM32_USB-FS-Device_Driver/src/usb_core.c ****       /* IN endpoint */
 303:../libraries/STM32_USB-FS-Device_Driver/src/usb_core.c ****       if (_GetTxStallStatus(Related_Endpoint ))
 696              		.loc 1 303 0
 697 010c 3B68     		ldr	r3, [r7, #0]
 698 010e 4FEA8303 		lsl	r3, r3, #2
 699 0112 03F18043 		add	r3, r3, #1073741824
 700 0116 03F5B843 		add	r3, r3, #23552
 701 011a 1B68     		ldr	r3, [r3, #0]
 702 011c 9BB2     		uxth	r3, r3
 703 011e 03F03003 		and	r3, r3, #48
 704 0122 102B     		cmp	r3, #16
 705 0124 73D1     		bne	.L37
 304:../libraries/STM32_USB-FS-Device_Driver/src/usb_core.c ****       {
 305:../libraries/STM32_USB-FS-Device_Driver/src/usb_core.c ****         ClearDTOG_TX(Related_Endpoint);
 706              		.loc 1 305 0
 707 0126 3B68     		ldr	r3, [r7, #0]
 708 0128 DBB2     		uxtb	r3, r3
 709 012a 1846     		mov	r0, r3
 710 012c FFF7FEFF 		bl	ClearDTOG_TX
 306:../libraries/STM32_USB-FS-Device_Driver/src/usb_core.c ****         SetEPTxStatus(Related_Endpoint, EP_TX_VALID);
 711              		.loc 1 306 0
 712 0130 3B68     		ldr	r3, [r7, #0]
 713 0132 DBB2     		uxtb	r3, r3
 714 0134 1846     		mov	r0, r3
 715 0136 4FF03001 		mov	r1, #48
 716 013a FFF7FEFF 		bl	SetEPTxStatus
 717 013e 66E0     		b	.L37
 718              	.L36:
 307:../libraries/STM32_USB-FS-Device_Driver/src/usb_core.c ****       }
 308:../libraries/STM32_USB-FS-Device_Driver/src/usb_core.c ****     }
 309:../libraries/STM32_USB-FS-Device_Driver/src/usb_core.c ****     else
 310:../libraries/STM32_USB-FS-Device_Driver/src/usb_core.c ****     {
 311:../libraries/STM32_USB-FS-Device_Driver/src/usb_core.c ****       /* OUT endpoint */
 312:../libraries/STM32_USB-FS-Device_Driver/src/usb_core.c ****       if (_GetRxStallStatus(Related_Endpoint))
 719              		.loc 1 312 0
 720 0140 3B68     		ldr	r3, [r7, #0]
 721 0142 4FEA8303 		lsl	r3, r3, #2
 722 0146 03F18043 		add	r3, r3, #1073741824
 723 014a 03F5B843 		add	r3, r3, #23552
 724 014e 1B68     		ldr	r3, [r3, #0]
 725 0150 9BB2     		uxth	r3, r3
 726 0152 03F44053 		and	r3, r3, #12288
 727 0156 B3F5805F 		cmp	r3, #4096
 728 015a 58D1     		bne	.L37
 313:../libraries/STM32_USB-FS-Device_Driver/src/usb_core.c ****       {
 314:../libraries/STM32_USB-FS-Device_Driver/src/usb_core.c ****         if (Related_Endpoint == ENDP0)
 729              		.loc 1 314 0
 730 015c 3B68     		ldr	r3, [r7, #0]
 731 015e 002B     		cmp	r3, #0
 732 0160 2ED1     		bne	.L38
 315:../libraries/STM32_USB-FS-Device_Driver/src/usb_core.c ****         {
 316:../libraries/STM32_USB-FS-Device_Driver/src/usb_core.c ****           /* After clear the STALL, enable the default endpoint receiver */
 317:../libraries/STM32_USB-FS-Device_Driver/src/usb_core.c ****           SetEPRxCount(Related_Endpoint, Device_Property.MaxPacketSize);
 733              		.loc 1 317 0
 734 0162 3B68     		ldr	r3, [r7, #0]
 735 0164 DAB2     		uxtb	r2, r3
 736 0166 40F20003 		movw	r3, #:lower16:Device_Property
 737 016a C0F20003 		movt	r3, #:upper16:Device_Property
 738 016e 93F82C30 		ldrb	r3, [r3, #44]	@ zero_extendqisi2
 739 0172 1046     		mov	r0, r2
 740 0174 1946     		mov	r1, r3
 741 0176 FFF7FEFF 		bl	SetEPRxCount
 742              	.LBB5:
 318:../libraries/STM32_USB-FS-Device_Driver/src/usb_core.c ****           _SetEPRxStatus(Related_Endpoint, EP_RX_VALID);
 743              		.loc 1 318 0
 744 017a 3B68     		ldr	r3, [r7, #0]
 745 017c 4FEA8303 		lsl	r3, r3, #2
 746 0180 03F18043 		add	r3, r3, #1073741824
 747 0184 03F5B843 		add	r3, r3, #23552
 748 0188 1B68     		ldr	r3, [r3, #0]
 749 018a 9BB2     		uxth	r3, r3
 750 018c 23F48043 		bic	r3, r3, #16384
 751 0190 23F07003 		bic	r3, r3, #112
 752 0194 9CB2     		uxth	r4, r3
 753 0196 84F48053 		eor	r3, r4, #4096
 754 019a 9CB2     		uxth	r4, r3
 755 019c 84F40053 		eor	r3, r4, #8192
 756 01a0 9CB2     		uxth	r4, r3
 757 01a2 3B68     		ldr	r3, [r7, #0]
 758 01a4 4FEA8303 		lsl	r3, r3, #2
 759 01a8 03F18042 		add	r2, r3, #1073741824
 760 01ac 02F5B842 		add	r2, r2, #23552
 761 01b0 48F28003 		movw	r3, #32896
 762 01b4 CFF6FF73 		movt	r3, 65535
 763 01b8 2343     		orrs	r3, r3, r4
 764 01ba 9BB2     		uxth	r3, r3
 765 01bc 1360     		str	r3, [r2, #0]
 766 01be 26E0     		b	.L37
 767              	.L38:
 768              	.LBE5:
 319:../libraries/STM32_USB-FS-Device_Driver/src/usb_core.c ****         }
 320:../libraries/STM32_USB-FS-Device_Driver/src/usb_core.c ****         else
 321:../libraries/STM32_USB-FS-Device_Driver/src/usb_core.c ****         {
 322:../libraries/STM32_USB-FS-Device_Driver/src/usb_core.c ****           ClearDTOG_RX(Related_Endpoint);
 769              		.loc 1 322 0
 770 01c0 3B68     		ldr	r3, [r7, #0]
 771 01c2 DBB2     		uxtb	r3, r3
 772 01c4 1846     		mov	r0, r3
 773 01c6 FFF7FEFF 		bl	ClearDTOG_RX
 774              	.LBB6:
 323:../libraries/STM32_USB-FS-Device_Driver/src/usb_core.c ****           _SetEPRxStatus(Related_Endpoint, EP_RX_VALID);
 775              		.loc 1 323 0
 776 01ca 3B68     		ldr	r3, [r7, #0]
 777 01cc 4FEA8303 		lsl	r3, r3, #2
 778 01d0 03F18043 		add	r3, r3, #1073741824
 779 01d4 03F5B843 		add	r3, r3, #23552
 780 01d8 1B68     		ldr	r3, [r3, #0]
 781 01da 9BB2     		uxth	r3, r3
 782 01dc 23F48043 		bic	r3, r3, #16384
 783 01e0 23F07003 		bic	r3, r3, #112
 784 01e4 9CB2     		uxth	r4, r3
 785 01e6 84F48053 		eor	r3, r4, #4096
 786 01ea 9CB2     		uxth	r4, r3
 787 01ec 84F40053 		eor	r3, r4, #8192
 788 01f0 9CB2     		uxth	r4, r3
 789 01f2 3B68     		ldr	r3, [r7, #0]
 790 01f4 4FEA8303 		lsl	r3, r3, #2
 791 01f8 03F18042 		add	r2, r3, #1073741824
 792 01fc 02F5B842 		add	r2, r2, #23552
 793 0200 48F28003 		movw	r3, #32896
 794 0204 CFF6FF73 		movt	r3, 65535
 795 0208 2343     		orrs	r3, r3, r4
 796 020a 9BB2     		uxth	r3, r3
 797 020c 1360     		str	r3, [r2, #0]
 798              	.L37:
 799              	.LBE6:
 324:../libraries/STM32_USB-FS-Device_Driver/src/usb_core.c ****         }
 325:../libraries/STM32_USB-FS-Device_Driver/src/usb_core.c ****       }
 326:../libraries/STM32_USB-FS-Device_Driver/src/usb_core.c ****     }
 327:../libraries/STM32_USB-FS-Device_Driver/src/usb_core.c ****     pUser_Standard_Requests->User_ClearFeature();
 800              		.loc 1 327 0
 801 020e 40F20003 		movw	r3, #:lower16:pUser_Standard_Requests
 802 0212 C0F20003 		movt	r3, #:upper16:pUser_Standard_Requests
 803 0216 1B68     		ldr	r3, [r3, #0]
 804 0218 5B69     		ldr	r3, [r3, #20]
 805 021a 9847     		blx	r3
 328:../libraries/STM32_USB-FS-Device_Driver/src/usb_core.c ****     return USB_SUCCESS;
 806              		.loc 1 328 0
 807 021c 4FF00003 		mov	r3, #0
 808 0220 01E0     		b	.L28
 809              	.L29:
 810              	.LBE4:
 329:../libraries/STM32_USB-FS-Device_Driver/src/usb_core.c ****   }
 330:../libraries/STM32_USB-FS-Device_Driver/src/usb_core.c **** 
 331:../libraries/STM32_USB-FS-Device_Driver/src/usb_core.c ****   return USB_UNSUPPORT;
 811              		.loc 1 331 0
 812 0222 4FF00203 		mov	r3, #2
 813              	.L28:
 332:../libraries/STM32_USB-FS-Device_Driver/src/usb_core.c **** }
 814              		.loc 1 332 0
 815 0226 1846     		mov	r0, r3
 816 0228 07F11C07 		add	r7, r7, #28
 817 022c BD46     		mov	sp, r7
 818 022e 90BD     		pop	{r4, r7, pc}
 819              		.cfi_endproc
 820              	.LFE61:
 822              		.section	.text.Standard_SetEndPointFeature,"ax",%progbits
 823              		.align	2
 824              		.global	Standard_SetEndPointFeature
 825              		.thumb
 826              		.thumb_func
 828              	Standard_SetEndPointFeature:
 829              	.LFB62:
 333:../libraries/STM32_USB-FS-Device_Driver/src/usb_core.c **** 
 334:../libraries/STM32_USB-FS-Device_Driver/src/usb_core.c **** /*******************************************************************************
 335:../libraries/STM32_USB-FS-Device_Driver/src/usb_core.c **** * Function Name  : Standard_SetEndPointFeature
 336:../libraries/STM32_USB-FS-Device_Driver/src/usb_core.c **** * Description    : Set or enable a specific feature of EndPoint
 337:../libraries/STM32_USB-FS-Device_Driver/src/usb_core.c **** * Input          : None.
 338:../libraries/STM32_USB-FS-Device_Driver/src/usb_core.c **** * Output         : None.
 339:../libraries/STM32_USB-FS-Device_Driver/src/usb_core.c **** * Return         : - Return USB_SUCCESS, if the request is performed.
 340:../libraries/STM32_USB-FS-Device_Driver/src/usb_core.c **** *                  - Return USB_UNSUPPORT, if the request is invalid.
 341:../libraries/STM32_USB-FS-Device_Driver/src/usb_core.c **** *******************************************************************************/
 342:../libraries/STM32_USB-FS-Device_Driver/src/usb_core.c **** RESULT Standard_SetEndPointFeature(void)
 343:../libraries/STM32_USB-FS-Device_Driver/src/usb_core.c **** {
 830              		.loc 1 343 0
 831              		.cfi_startproc
 832              		@ args = 0, pretend = 0, frame = 16
 833              		@ frame_needed = 1, uses_anonymous_args = 0
 834 0000 90B5     		push	{r4, r7, lr}
 835              	.LCFI17:
 836              		.cfi_def_cfa_offset 12
 837              		.cfi_offset 4, -12
 838              		.cfi_offset 7, -8
 839              		.cfi_offset 14, -4
 840 0002 85B0     		sub	sp, sp, #20
 841              	.LCFI18:
 842              		.cfi_def_cfa_offset 32
 843 0004 00AF     		add	r7, sp, #0
 844              	.LCFI19:
 845              		.cfi_def_cfa_register 7
 344:../libraries/STM32_USB-FS-Device_Driver/src/usb_core.c ****   uint32_t    wIndex0;
 345:../libraries/STM32_USB-FS-Device_Driver/src/usb_core.c ****   uint32_t    Related_Endpoint;
 346:../libraries/STM32_USB-FS-Device_Driver/src/usb_core.c ****   uint32_t    rEP;
 347:../libraries/STM32_USB-FS-Device_Driver/src/usb_core.c ****   uint32_t    Status;
 348:../libraries/STM32_USB-FS-Device_Driver/src/usb_core.c **** 
 349:../libraries/STM32_USB-FS-Device_Driver/src/usb_core.c ****   wIndex0 = pInformation->USBwIndex0;
 846              		.loc 1 349 0
 847 0006 40F20003 		movw	r3, #:lower16:pInformation
 848 000a C0F20003 		movt	r3, #:upper16:pInformation
 849 000e 1B68     		ldr	r3, [r3, #0]
 850 0010 5B79     		ldrb	r3, [r3, #5]	@ zero_extendqisi2
 851 0012 BB60     		str	r3, [r7, #8]
 350:../libraries/STM32_USB-FS-Device_Driver/src/usb_core.c ****   rEP = wIndex0 & ~0x80;
 852              		.loc 1 350 0
 853 0014 BB68     		ldr	r3, [r7, #8]
 854 0016 23F08003 		bic	r3, r3, #128
 855 001a 7B60     		str	r3, [r7, #4]
 351:../libraries/STM32_USB-FS-Device_Driver/src/usb_core.c ****   Related_Endpoint = ENDP0 + rEP;
 856              		.loc 1 351 0
 857 001c 7B68     		ldr	r3, [r7, #4]
 858 001e 3B60     		str	r3, [r7, #0]
 352:../libraries/STM32_USB-FS-Device_Driver/src/usb_core.c **** 
 353:../libraries/STM32_USB-FS-Device_Driver/src/usb_core.c ****   if (ValBit(pInformation->USBwIndex0, 7))
 859              		.loc 1 353 0
 860 0020 40F20003 		movw	r3, #:lower16:pInformation
 861 0024 C0F20003 		movt	r3, #:upper16:pInformation
 862 0028 1B68     		ldr	r3, [r3, #0]
 863 002a 5B79     		ldrb	r3, [r3, #5]	@ zero_extendqisi2
 864 002c DBB2     		uxtb	r3, r3
 865 002e 5BB2     		sxtb	r3, r3
 866 0030 002B     		cmp	r3, #0
 867 0032 0CDA     		bge	.L40
 354:../libraries/STM32_USB-FS-Device_Driver/src/usb_core.c ****   {
 355:../libraries/STM32_USB-FS-Device_Driver/src/usb_core.c ****     /* get Status of endpoint & stall the request if the related_ENdpoint
 356:../libraries/STM32_USB-FS-Device_Driver/src/usb_core.c ****     is Disabled*/
 357:../libraries/STM32_USB-FS-Device_Driver/src/usb_core.c ****     Status = _GetEPTxStatus(Related_Endpoint);
 868              		.loc 1 357 0
 869 0034 3B68     		ldr	r3, [r7, #0]
 870 0036 4FEA8303 		lsl	r3, r3, #2
 871 003a 03F18043 		add	r3, r3, #1073741824
 872 003e 03F5B843 		add	r3, r3, #23552
 873 0042 1B68     		ldr	r3, [r3, #0]
 874 0044 9BB2     		uxth	r3, r3
 875 0046 03F03003 		and	r3, r3, #48
 876 004a FB60     		str	r3, [r7, #12]
 877 004c 0BE0     		b	.L41
 878              	.L40:
 358:../libraries/STM32_USB-FS-Device_Driver/src/usb_core.c ****   }
 359:../libraries/STM32_USB-FS-Device_Driver/src/usb_core.c ****   else
 360:../libraries/STM32_USB-FS-Device_Driver/src/usb_core.c ****   {
 361:../libraries/STM32_USB-FS-Device_Driver/src/usb_core.c ****     Status = _GetEPRxStatus(Related_Endpoint);
 879              		.loc 1 361 0
 880 004e 3B68     		ldr	r3, [r7, #0]
 881 0050 4FEA8303 		lsl	r3, r3, #2
 882 0054 03F18043 		add	r3, r3, #1073741824
 883 0058 03F5B843 		add	r3, r3, #23552
 884 005c 1B68     		ldr	r3, [r3, #0]
 885 005e 9BB2     		uxth	r3, r3
 886 0060 03F44053 		and	r3, r3, #12288
 887 0064 FB60     		str	r3, [r7, #12]
 888              	.L41:
 362:../libraries/STM32_USB-FS-Device_Driver/src/usb_core.c ****   }
 363:../libraries/STM32_USB-FS-Device_Driver/src/usb_core.c **** 
 364:../libraries/STM32_USB-FS-Device_Driver/src/usb_core.c ****   if (Related_Endpoint >= Device_Table.Total_Endpoint
 889              		.loc 1 364 0
 890 0066 40F20003 		movw	r3, #:lower16:Device_Table
 891 006a C0F20003 		movt	r3, #:upper16:Device_Table
 892 006e 1B78     		ldrb	r3, [r3, #0]	@ zero_extendqisi2
 893 0070 1A46     		mov	r2, r3
 894 0072 3B68     		ldr	r3, [r7, #0]
 895 0074 9A42     		cmp	r2, r3
 896 0076 12D9     		bls	.L42
 365:../libraries/STM32_USB-FS-Device_Driver/src/usb_core.c ****       || pInformation->USBwValue != 0 || Status == 0
 897              		.loc 1 365 0
 898 0078 40F20003 		movw	r3, #:lower16:pInformation
 899 007c C0F20003 		movt	r3, #:upper16:pInformation
 900 0080 1B68     		ldr	r3, [r3, #0]
 901 0082 5B88     		ldrh	r3, [r3, #2]
 902 0084 002B     		cmp	r3, #0
 903 0086 0AD1     		bne	.L42
 904              		.loc 1 365 0 is_stmt 0 discriminator 1
 905 0088 FB68     		ldr	r3, [r7, #12]
 906 008a 002B     		cmp	r3, #0
 907 008c 07D0     		beq	.L42
 366:../libraries/STM32_USB-FS-Device_Driver/src/usb_core.c ****       || pInformation->Current_Configuration == 0)
 908              		.loc 1 366 0 is_stmt 1
 909 008e 40F20003 		movw	r3, #:lower16:pInformation
 910 0092 C0F20003 		movt	r3, #:upper16:pInformation
 911 0096 1B68     		ldr	r3, [r3, #0]
 912 0098 9B7A     		ldrb	r3, [r3, #10]	@ zero_extendqisi2
 913 009a 002B     		cmp	r3, #0
 914 009c 02D1     		bne	.L43
 915              	.L42:
 367:../libraries/STM32_USB-FS-Device_Driver/src/usb_core.c ****   {
 368:../libraries/STM32_USB-FS-Device_Driver/src/usb_core.c ****     return USB_UNSUPPORT;
 916              		.loc 1 368 0
 917 009e 4FF00203 		mov	r3, #2
 918 00a2 4CE0     		b	.L44
 919              	.L43:
 369:../libraries/STM32_USB-FS-Device_Driver/src/usb_core.c ****   }
 370:../libraries/STM32_USB-FS-Device_Driver/src/usb_core.c ****   else
 371:../libraries/STM32_USB-FS-Device_Driver/src/usb_core.c ****   {
 372:../libraries/STM32_USB-FS-Device_Driver/src/usb_core.c ****     if (wIndex0 & 0x80)
 920              		.loc 1 372 0
 921 00a4 BB68     		ldr	r3, [r7, #8]
 922 00a6 03F08003 		and	r3, r3, #128
 923 00aa 002B     		cmp	r3, #0
 924 00ac 1FD0     		beq	.L45
 925              	.LBB7:
 373:../libraries/STM32_USB-FS-Device_Driver/src/usb_core.c ****     {
 374:../libraries/STM32_USB-FS-Device_Driver/src/usb_core.c ****       /* IN endpoint */
 375:../libraries/STM32_USB-FS-Device_Driver/src/usb_core.c ****       _SetEPTxStatus(Related_Endpoint, EP_TX_STALL);
 926              		.loc 1 375 0
 927 00ae 3B68     		ldr	r3, [r7, #0]
 928 00b0 4FEA8303 		lsl	r3, r3, #2
 929 00b4 03F18043 		add	r3, r3, #1073741824
 930 00b8 03F5B843 		add	r3, r3, #23552
 931 00bc 1B68     		ldr	r3, [r3, #0]
 932 00be 9BB2     		uxth	r3, r3
 933 00c0 23F4E043 		bic	r3, r3, #28672
 934 00c4 23F04003 		bic	r3, r3, #64
 935 00c8 9CB2     		uxth	r4, r3
 936 00ca 84F01003 		eor	r3, r4, #16
 937 00ce 9CB2     		uxth	r4, r3
 938 00d0 3B68     		ldr	r3, [r7, #0]
 939 00d2 4FEA8303 		lsl	r3, r3, #2
 940 00d6 03F18042 		add	r2, r3, #1073741824
 941 00da 02F5B842 		add	r2, r2, #23552
 942 00de 48F28003 		movw	r3, #32896
 943 00e2 CFF6FF73 		movt	r3, 65535
 944 00e6 2343     		orrs	r3, r3, r4
 945 00e8 9BB2     		uxth	r3, r3
 946 00ea 1360     		str	r3, [r2, #0]
 947 00ec 1EE0     		b	.L46
 948              	.L45:
 949              	.LBE7:
 950              	.LBB8:
 376:../libraries/STM32_USB-FS-Device_Driver/src/usb_core.c ****     }
 377:../libraries/STM32_USB-FS-Device_Driver/src/usb_core.c **** 
 378:../libraries/STM32_USB-FS-Device_Driver/src/usb_core.c ****     else
 379:../libraries/STM32_USB-FS-Device_Driver/src/usb_core.c ****     {
 380:../libraries/STM32_USB-FS-Device_Driver/src/usb_core.c ****       /* OUT endpoint */
 381:../libraries/STM32_USB-FS-Device_Driver/src/usb_core.c ****       _SetEPRxStatus(Related_Endpoint, EP_RX_STALL);
 951              		.loc 1 381 0
 952 00ee 3B68     		ldr	r3, [r7, #0]
 953 00f0 4FEA8303 		lsl	r3, r3, #2
 954 00f4 03F18043 		add	r3, r3, #1073741824
 955 00f8 03F5B843 		add	r3, r3, #23552
 956 00fc 1B68     		ldr	r3, [r3, #0]
 957 00fe 9BB2     		uxth	r3, r3
 958 0100 23F48043 		bic	r3, r3, #16384
 959 0104 23F07003 		bic	r3, r3, #112
 960 0108 9CB2     		uxth	r4, r3
 961 010a 84F48053 		eor	r3, r4, #4096
 962 010e 9CB2     		uxth	r4, r3
 963 0110 3B68     		ldr	r3, [r7, #0]
 964 0112 4FEA8303 		lsl	r3, r3, #2
 965 0116 03F18042 		add	r2, r3, #1073741824
 966 011a 02F5B842 		add	r2, r2, #23552
 967 011e 48F28003 		movw	r3, #32896
 968 0122 CFF6FF73 		movt	r3, 65535
 969 0126 2343     		orrs	r3, r3, r4
 970 0128 9BB2     		uxth	r3, r3
 971 012a 1360     		str	r3, [r2, #0]
 972              	.L46:
 973              	.LBE8:
 382:../libraries/STM32_USB-FS-Device_Driver/src/usb_core.c ****     }
 383:../libraries/STM32_USB-FS-Device_Driver/src/usb_core.c ****   }
 384:../libraries/STM32_USB-FS-Device_Driver/src/usb_core.c ****   pUser_Standard_Requests->User_SetEndPointFeature();
 974              		.loc 1 384 0
 975 012c 40F20003 		movw	r3, #:lower16:pUser_Standard_Requests
 976 0130 C0F20003 		movt	r3, #:upper16:pUser_Standard_Requests
 977 0134 1B68     		ldr	r3, [r3, #0]
 978 0136 9B69     		ldr	r3, [r3, #24]
 979 0138 9847     		blx	r3
 385:../libraries/STM32_USB-FS-Device_Driver/src/usb_core.c ****   return USB_SUCCESS;
 980              		.loc 1 385 0
 981 013a 4FF00003 		mov	r3, #0
 982              	.L44:
 386:../libraries/STM32_USB-FS-Device_Driver/src/usb_core.c **** }
 983              		.loc 1 386 0
 984 013e 1846     		mov	r0, r3
 985 0140 07F11407 		add	r7, r7, #20
 986 0144 BD46     		mov	sp, r7
 987 0146 90BD     		pop	{r4, r7, pc}
 988              		.cfi_endproc
 989              	.LFE62:
 991              		.section	.text.Standard_SetDeviceFeature,"ax",%progbits
 992              		.align	2
 993              		.global	Standard_SetDeviceFeature
 994              		.thumb
 995              		.thumb_func
 997              	Standard_SetDeviceFeature:
 998              	.LFB63:
 387:../libraries/STM32_USB-FS-Device_Driver/src/usb_core.c **** 
 388:../libraries/STM32_USB-FS-Device_Driver/src/usb_core.c **** /*******************************************************************************
 389:../libraries/STM32_USB-FS-Device_Driver/src/usb_core.c **** * Function Name  : Standard_SetDeviceFeature.
 390:../libraries/STM32_USB-FS-Device_Driver/src/usb_core.c **** * Description    : Set or enable a specific feature of Device.
 391:../libraries/STM32_USB-FS-Device_Driver/src/usb_core.c **** * Input          : None.
 392:../libraries/STM32_USB-FS-Device_Driver/src/usb_core.c **** * Output         : None.
 393:../libraries/STM32_USB-FS-Device_Driver/src/usb_core.c **** * Return         : - Return USB_SUCCESS, if the request is performed.
 394:../libraries/STM32_USB-FS-Device_Driver/src/usb_core.c **** *                  - Return USB_UNSUPPORT, if the request is invalid.
 395:../libraries/STM32_USB-FS-Device_Driver/src/usb_core.c **** *******************************************************************************/
 396:../libraries/STM32_USB-FS-Device_Driver/src/usb_core.c **** RESULT Standard_SetDeviceFeature(void)
 397:../libraries/STM32_USB-FS-Device_Driver/src/usb_core.c **** {
 999              		.loc 1 397 0
 1000              		.cfi_startproc
 1001              		@ args = 0, pretend = 0, frame = 0
 1002              		@ frame_needed = 1, uses_anonymous_args = 0
 1003 0000 80B5     		push	{r7, lr}
 1004              	.LCFI20:
 1005              		.cfi_def_cfa_offset 8
 1006              		.cfi_offset 7, -8
 1007              		.cfi_offset 14, -4
 1008 0002 00AF     		add	r7, sp, #0
 1009              	.LCFI21:
 1010              		.cfi_def_cfa_register 7
 398:../libraries/STM32_USB-FS-Device_Driver/src/usb_core.c ****   SetBit(pInformation->Current_Feature, 5);
 1011              		.loc 1 398 0
 1012 0004 40F20003 		movw	r3, #:lower16:pInformation
 1013 0008 C0F20003 		movt	r3, #:upper16:pInformation
 1014 000c 1A68     		ldr	r2, [r3, #0]
 1015 000e 40F20003 		movw	r3, #:lower16:pInformation
 1016 0012 C0F20003 		movt	r3, #:upper16:pInformation
 1017 0016 1B68     		ldr	r3, [r3, #0]
 1018 0018 5B7A     		ldrb	r3, [r3, #9]	@ zero_extendqisi2
 1019 001a 43F02003 		orr	r3, r3, #32
 1020 001e DBB2     		uxtb	r3, r3
 1021 0020 5372     		strb	r3, [r2, #9]
 399:../libraries/STM32_USB-FS-Device_Driver/src/usb_core.c ****   pUser_Standard_Requests->User_SetDeviceFeature();
 1022              		.loc 1 399 0
 1023 0022 40F20003 		movw	r3, #:lower16:pUser_Standard_Requests
 1024 0026 C0F20003 		movt	r3, #:upper16:pUser_Standard_Requests
 1025 002a 1B68     		ldr	r3, [r3, #0]
 1026 002c DB69     		ldr	r3, [r3, #28]
 1027 002e 9847     		blx	r3
 400:../libraries/STM32_USB-FS-Device_Driver/src/usb_core.c ****   return USB_SUCCESS;
 1028              		.loc 1 400 0
 1029 0030 4FF00003 		mov	r3, #0
 401:../libraries/STM32_USB-FS-Device_Driver/src/usb_core.c **** }
 1030              		.loc 1 401 0
 1031 0034 1846     		mov	r0, r3
 1032 0036 80BD     		pop	{r7, pc}
 1033              		.cfi_endproc
 1034              	.LFE63:
 1036              		.section	.text.Standard_GetDescriptorData,"ax",%progbits
 1037              		.align	2
 1038              		.global	Standard_GetDescriptorData
 1039              		.thumb
 1040              		.thumb_func
 1042              	Standard_GetDescriptorData:
 1043              	.LFB64:
 402:../libraries/STM32_USB-FS-Device_Driver/src/usb_core.c **** 
 403:../libraries/STM32_USB-FS-Device_Driver/src/usb_core.c **** /*******************************************************************************
 404:../libraries/STM32_USB-FS-Device_Driver/src/usb_core.c **** * Function Name  : Standard_GetDescriptorData.
 405:../libraries/STM32_USB-FS-Device_Driver/src/usb_core.c **** * Description    : Standard_GetDescriptorData is used for descriptors transfer.
 406:../libraries/STM32_USB-FS-Device_Driver/src/usb_core.c **** *                : This routine is used for the descriptors resident in Flash
 407:../libraries/STM32_USB-FS-Device_Driver/src/usb_core.c **** *                  or RAM
 408:../libraries/STM32_USB-FS-Device_Driver/src/usb_core.c **** *                  pDesc can be in either Flash or RAM
 409:../libraries/STM32_USB-FS-Device_Driver/src/usb_core.c **** *                  The purpose of this routine is to have a versatile way to
 410:../libraries/STM32_USB-FS-Device_Driver/src/usb_core.c **** *                  response descriptors request. It allows user to generate
 411:../libraries/STM32_USB-FS-Device_Driver/src/usb_core.c **** *                  certain descriptors with software or read descriptors from
 412:../libraries/STM32_USB-FS-Device_Driver/src/usb_core.c **** *                  external storage part by part.
 413:../libraries/STM32_USB-FS-Device_Driver/src/usb_core.c **** * Input          : - Length - Length of the data in this transfer.
 414:../libraries/STM32_USB-FS-Device_Driver/src/usb_core.c **** *                  - pDesc - A pointer points to descriptor struct.
 415:../libraries/STM32_USB-FS-Device_Driver/src/usb_core.c **** *                  The structure gives the initial address of the descriptor and
 416:../libraries/STM32_USB-FS-Device_Driver/src/usb_core.c **** *                  its original size.
 417:../libraries/STM32_USB-FS-Device_Driver/src/usb_core.c **** * Output         : None.
 418:../libraries/STM32_USB-FS-Device_Driver/src/usb_core.c **** * Return         : Address of a part of the descriptor pointed by the Usb_
 419:../libraries/STM32_USB-FS-Device_Driver/src/usb_core.c **** *                  wOffset The buffer pointed by this address contains at least
 420:../libraries/STM32_USB-FS-Device_Driver/src/usb_core.c **** *                  Length bytes.
 421:../libraries/STM32_USB-FS-Device_Driver/src/usb_core.c **** *******************************************************************************/
 422:../libraries/STM32_USB-FS-Device_Driver/src/usb_core.c **** uint8_t *Standard_GetDescriptorData(uint16_t Length, ONE_DESCRIPTOR *pDesc)
 423:../libraries/STM32_USB-FS-Device_Driver/src/usb_core.c **** {
 1044              		.loc 1 423 0
 1045              		.cfi_startproc
 1046              		@ args = 0, pretend = 0, frame = 16
 1047              		@ frame_needed = 1, uses_anonymous_args = 0
 1048              		@ link register save eliminated.
 1049 0000 80B4     		push	{r7}
 1050              	.LCFI22:
 1051              		.cfi_def_cfa_offset 4
 1052              		.cfi_offset 7, -4
 1053 0002 85B0     		sub	sp, sp, #20
 1054              	.LCFI23:
 1055              		.cfi_def_cfa_offset 24
 1056 0004 00AF     		add	r7, sp, #0
 1057              	.LCFI24:
 1058              		.cfi_def_cfa_register 7
 1059 0006 0346     		mov	r3, r0
 1060 0008 3960     		str	r1, [r7, #0]
 1061 000a FB80     		strh	r3, [r7, #6]	@ movhi
 424:../libraries/STM32_USB-FS-Device_Driver/src/usb_core.c ****   uint32_t  wOffset;
 425:../libraries/STM32_USB-FS-Device_Driver/src/usb_core.c **** 
 426:../libraries/STM32_USB-FS-Device_Driver/src/usb_core.c ****   wOffset = pInformation->Ctrl_Info.Usb_wOffset;
 1062              		.loc 1 426 0
 1063 000c 40F20003 		movw	r3, #:lower16:pInformation
 1064 0010 C0F20003 		movt	r3, #:upper16:pInformation
 1065 0014 1B68     		ldr	r3, [r3, #0]
 1066 0016 5B8A     		ldrh	r3, [r3, #18]
 1067 0018 FB60     		str	r3, [r7, #12]
 427:../libraries/STM32_USB-FS-Device_Driver/src/usb_core.c ****   if (Length == 0)
 1068              		.loc 1 427 0
 1069 001a FB88     		ldrh	r3, [r7, #6]
 1070 001c 002B     		cmp	r3, #0
 1071 001e 0ED1     		bne	.L50
 428:../libraries/STM32_USB-FS-Device_Driver/src/usb_core.c ****   {
 429:../libraries/STM32_USB-FS-Device_Driver/src/usb_core.c ****     pInformation->Ctrl_Info.Usb_wLength = pDesc->Descriptor_Size - wOffset;
 1072              		.loc 1 429 0
 1073 0020 40F20003 		movw	r3, #:lower16:pInformation
 1074 0024 C0F20003 		movt	r3, #:upper16:pInformation
 1075 0028 1B68     		ldr	r3, [r3, #0]
 1076 002a 3A68     		ldr	r2, [r7, #0]
 1077 002c 9188     		ldrh	r1, [r2, #4]
 1078 002e FA68     		ldr	r2, [r7, #12]
 1079 0030 92B2     		uxth	r2, r2
 1080 0032 8A1A     		subs	r2, r1, r2
 1081 0034 92B2     		uxth	r2, r2
 1082 0036 1A82     		strh	r2, [r3, #16]	@ movhi
 430:../libraries/STM32_USB-FS-Device_Driver/src/usb_core.c ****     return 0;
 1083              		.loc 1 430 0
 1084 0038 4FF00003 		mov	r3, #0
 1085 003c 03E0     		b	.L51
 1086              	.L50:
 431:../libraries/STM32_USB-FS-Device_Driver/src/usb_core.c ****   }
 432:../libraries/STM32_USB-FS-Device_Driver/src/usb_core.c **** 
 433:../libraries/STM32_USB-FS-Device_Driver/src/usb_core.c ****   return pDesc->Descriptor + wOffset;
 1087              		.loc 1 433 0
 1088 003e 3B68     		ldr	r3, [r7, #0]
 1089 0040 1A68     		ldr	r2, [r3, #0]
 1090 0042 FB68     		ldr	r3, [r7, #12]
 1091 0044 D318     		adds	r3, r2, r3
 1092              	.L51:
 434:../libraries/STM32_USB-FS-Device_Driver/src/usb_core.c **** }
 1093              		.loc 1 434 0
 1094 0046 1846     		mov	r0, r3
 1095 0048 07F11407 		add	r7, r7, #20
 1096 004c BD46     		mov	sp, r7
 1097 004e 80BC     		pop	{r7}
 1098 0050 7047     		bx	lr
 1099              		.cfi_endproc
 1100              	.LFE64:
 1102 0052 00BF     		.section	.text.DataStageOut,"ax",%progbits
 1103              		.align	2
 1104              		.thumb
 1105              		.thumb_func
 1107              	DataStageOut:
 1108              	.LFB65:
 435:../libraries/STM32_USB-FS-Device_Driver/src/usb_core.c **** 
 436:../libraries/STM32_USB-FS-Device_Driver/src/usb_core.c **** /*******************************************************************************
 437:../libraries/STM32_USB-FS-Device_Driver/src/usb_core.c **** * Function Name  : DataStageOut.
 438:../libraries/STM32_USB-FS-Device_Driver/src/usb_core.c **** * Description    : Data stage of a Control Write Transfer.
 439:../libraries/STM32_USB-FS-Device_Driver/src/usb_core.c **** * Input          : None.
 440:../libraries/STM32_USB-FS-Device_Driver/src/usb_core.c **** * Output         : None.
 441:../libraries/STM32_USB-FS-Device_Driver/src/usb_core.c **** * Return         : None.
 442:../libraries/STM32_USB-FS-Device_Driver/src/usb_core.c **** *******************************************************************************/
 443:../libraries/STM32_USB-FS-Device_Driver/src/usb_core.c **** void DataStageOut(void)
 444:../libraries/STM32_USB-FS-Device_Driver/src/usb_core.c **** {
 1109              		.loc 1 444 0
 1110              		.cfi_startproc
 1111              		@ args = 0, pretend = 0, frame = 16
 1112              		@ frame_needed = 1, uses_anonymous_args = 0
 1113 0000 80B5     		push	{r7, lr}
 1114              	.LCFI25:
 1115              		.cfi_def_cfa_offset 8
 1116              		.cfi_offset 7, -8
 1117              		.cfi_offset 14, -4
 1118 0002 84B0     		sub	sp, sp, #16
 1119              	.LCFI26:
 1120              		.cfi_def_cfa_offset 24
 1121 0004 00AF     		add	r7, sp, #0
 1122              	.LCFI27:
 1123              		.cfi_def_cfa_register 7
 445:../libraries/STM32_USB-FS-Device_Driver/src/usb_core.c ****   ENDPOINT_INFO *pEPinfo = &pInformation->Ctrl_Info;
 1124              		.loc 1 445 0
 1125 0006 40F20003 		movw	r3, #:lower16:pInformation
 1126 000a C0F20003 		movt	r3, #:upper16:pInformation
 1127 000e 1B68     		ldr	r3, [r3, #0]
 1128 0010 03F11003 		add	r3, r3, #16
 1129 0014 BB60     		str	r3, [r7, #8]
 446:../libraries/STM32_USB-FS-Device_Driver/src/usb_core.c ****   uint32_t save_rLength;
 447:../libraries/STM32_USB-FS-Device_Driver/src/usb_core.c **** 
 448:../libraries/STM32_USB-FS-Device_Driver/src/usb_core.c ****   save_rLength = pEPinfo->Usb_rLength;
 1130              		.loc 1 448 0
 1131 0016 BB68     		ldr	r3, [r7, #8]
 1132 0018 1B88     		ldrh	r3, [r3, #0]
 1133 001a 7B60     		str	r3, [r7, #4]
 449:../libraries/STM32_USB-FS-Device_Driver/src/usb_core.c **** 
 450:../libraries/STM32_USB-FS-Device_Driver/src/usb_core.c ****   if (pEPinfo->CopyData && save_rLength)
 1134              		.loc 1 450 0
 1135 001c BB68     		ldr	r3, [r7, #8]
 1136 001e 9B68     		ldr	r3, [r3, #8]
 1137 0020 002B     		cmp	r3, #0
 1138 0022 2FD0     		beq	.L53
 1139              		.loc 1 450 0 is_stmt 0 discriminator 1
 1140 0024 7B68     		ldr	r3, [r7, #4]
 1141 0026 002B     		cmp	r3, #0
 1142 0028 2CD0     		beq	.L53
 1143              	.LBB9:
 451:../libraries/STM32_USB-FS-Device_Driver/src/usb_core.c ****   {
 452:../libraries/STM32_USB-FS-Device_Driver/src/usb_core.c ****     uint8_t *Buffer;
 453:../libraries/STM32_USB-FS-Device_Driver/src/usb_core.c ****     uint32_t Length;
 454:../libraries/STM32_USB-FS-Device_Driver/src/usb_core.c **** 
 455:../libraries/STM32_USB-FS-Device_Driver/src/usb_core.c ****     Length = pEPinfo->PacketSize;
 1144              		.loc 1 455 0 is_stmt 1
 1145 002a BB68     		ldr	r3, [r7, #8]
 1146 002c 9B88     		ldrh	r3, [r3, #4]
 1147 002e FB60     		str	r3, [r7, #12]
 456:../libraries/STM32_USB-FS-Device_Driver/src/usb_core.c ****     if (Length > save_rLength)
 1148              		.loc 1 456 0
 1149 0030 FA68     		ldr	r2, [r7, #12]
 1150 0032 7B68     		ldr	r3, [r7, #4]
 1151 0034 9A42     		cmp	r2, r3
 1152 0036 01D9     		bls	.L54
 457:../libraries/STM32_USB-FS-Device_Driver/src/usb_core.c ****     {
 458:../libraries/STM32_USB-FS-Device_Driver/src/usb_core.c ****       Length = save_rLength;
 1153              		.loc 1 458 0
 1154 0038 7B68     		ldr	r3, [r7, #4]
 1155 003a FB60     		str	r3, [r7, #12]
 1156              	.L54:
 459:../libraries/STM32_USB-FS-Device_Driver/src/usb_core.c ****     }
 460:../libraries/STM32_USB-FS-Device_Driver/src/usb_core.c **** 
 461:../libraries/STM32_USB-FS-Device_Driver/src/usb_core.c ****     Buffer = (*pEPinfo->CopyData)(Length);
 1157              		.loc 1 461 0
 1158 003c BB68     		ldr	r3, [r7, #8]
 1159 003e 9B68     		ldr	r3, [r3, #8]
 1160 0040 FA68     		ldr	r2, [r7, #12]
 1161 0042 92B2     		uxth	r2, r2
 1162 0044 1046     		mov	r0, r2
 1163 0046 9847     		blx	r3
 1164 0048 3860     		str	r0, [r7, #0]
 462:../libraries/STM32_USB-FS-Device_Driver/src/usb_core.c ****     pEPinfo->Usb_rLength -= Length;
 1165              		.loc 1 462 0
 1166 004a BB68     		ldr	r3, [r7, #8]
 1167 004c 1A88     		ldrh	r2, [r3, #0]
 1168 004e FB68     		ldr	r3, [r7, #12]
 1169 0050 9BB2     		uxth	r3, r3
 1170 0052 D31A     		subs	r3, r2, r3
 1171 0054 9AB2     		uxth	r2, r3
 1172 0056 BB68     		ldr	r3, [r7, #8]
 1173 0058 1A80     		strh	r2, [r3, #0]	@ movhi
 463:../libraries/STM32_USB-FS-Device_Driver/src/usb_core.c ****     pEPinfo->Usb_rOffset += Length;
 1174              		.loc 1 463 0
 1175 005a BB68     		ldr	r3, [r7, #8]
 1176 005c 5A88     		ldrh	r2, [r3, #2]
 1177 005e FB68     		ldr	r3, [r7, #12]
 1178 0060 9BB2     		uxth	r3, r3
 1179 0062 D318     		adds	r3, r2, r3
 1180 0064 9AB2     		uxth	r2, r3
 1181 0066 BB68     		ldr	r3, [r7, #8]
 1182 0068 5A80     		strh	r2, [r3, #2]	@ movhi
 464:../libraries/STM32_USB-FS-Device_Driver/src/usb_core.c ****     PMAToUserBufferCopy(Buffer, GetEPRxAddr(ENDP0), Length);
 1183              		.loc 1 464 0
 1184 006a 4FF00000 		mov	r0, #0
 1185 006e FFF7FEFF 		bl	GetEPRxAddr
 1186 0072 0346     		mov	r3, r0
 1187 0074 1A46     		mov	r2, r3
 1188 0076 FB68     		ldr	r3, [r7, #12]
 1189 0078 9BB2     		uxth	r3, r3
 1190 007a 3868     		ldr	r0, [r7, #0]
 1191 007c 1146     		mov	r1, r2
 1192 007e 1A46     		mov	r2, r3
 1193 0080 FFF7FEFF 		bl	PMAToUserBufferCopy
 1194              	.L53:
 1195              	.LBE9:
 465:../libraries/STM32_USB-FS-Device_Driver/src/usb_core.c **** 
 466:../libraries/STM32_USB-FS-Device_Driver/src/usb_core.c ****   }
 467:../libraries/STM32_USB-FS-Device_Driver/src/usb_core.c **** 
 468:../libraries/STM32_USB-FS-Device_Driver/src/usb_core.c ****   if (pEPinfo->Usb_rLength != 0)
 1196              		.loc 1 468 0
 1197 0084 BB68     		ldr	r3, [r7, #8]
 1198 0086 1B88     		ldrh	r3, [r3, #0]
 1199 0088 002B     		cmp	r3, #0
 1200 008a 13D0     		beq	.L55
 469:../libraries/STM32_USB-FS-Device_Driver/src/usb_core.c ****   {
 470:../libraries/STM32_USB-FS-Device_Driver/src/usb_core.c ****     vSetEPRxStatus(EP_RX_VALID);/* re-enable for next data reception */
 1201              		.loc 1 470 0
 1202 008c 40F20003 		movw	r3, #:lower16:SaveRState
 1203 0090 C0F20003 		movt	r3, #:upper16:SaveRState
 1204 0094 4FF44052 		mov	r2, #12288
 1205 0098 1A80     		strh	r2, [r3, #0]	@ movhi
 471:../libraries/STM32_USB-FS-Device_Driver/src/usb_core.c ****     SetEPTxCount(ENDP0, 0);
 1206              		.loc 1 471 0
 1207 009a 4FF00000 		mov	r0, #0
 1208 009e 4FF00001 		mov	r1, #0
 1209 00a2 FFF7FEFF 		bl	SetEPTxCount
 472:../libraries/STM32_USB-FS-Device_Driver/src/usb_core.c ****     vSetEPTxStatus(EP_TX_VALID);/* Expect the host to abort the data OUT stage */
 1210              		.loc 1 472 0
 1211 00a6 40F20003 		movw	r3, #:lower16:SaveTState
 1212 00aa C0F20003 		movt	r3, #:upper16:SaveTState
 1213 00ae 4FF03002 		mov	r2, #48
 1214 00b2 1A80     		strh	r2, [r3, #0]	@ movhi
 1215              	.L55:
 473:../libraries/STM32_USB-FS-Device_Driver/src/usb_core.c ****   }
 474:../libraries/STM32_USB-FS-Device_Driver/src/usb_core.c ****   /* Set the next State*/
 475:../libraries/STM32_USB-FS-Device_Driver/src/usb_core.c ****   if (pEPinfo->Usb_rLength >= pEPinfo->PacketSize)
 1216              		.loc 1 475 0
 1217 00b4 BB68     		ldr	r3, [r7, #8]
 1218 00b6 1A88     		ldrh	r2, [r3, #0]
 1219 00b8 BB68     		ldr	r3, [r7, #8]
 1220 00ba 9B88     		ldrh	r3, [r3, #4]
 1221 00bc 9A42     		cmp	r2, r3
 1222 00be 08D3     		bcc	.L56
 476:../libraries/STM32_USB-FS-Device_Driver/src/usb_core.c ****   {
 477:../libraries/STM32_USB-FS-Device_Driver/src/usb_core.c ****     pInformation->ControlState = OUT_DATA;
 1223              		.loc 1 477 0
 1224 00c0 40F20003 		movw	r3, #:lower16:pInformation
 1225 00c4 C0F20003 		movt	r3, #:upper16:pInformation
 1226 00c8 1B68     		ldr	r3, [r3, #0]
 1227 00ca 4FF00302 		mov	r2, #3
 1228 00ce 1A72     		strb	r2, [r3, #8]
 1229 00d0 30E0     		b	.L52
 1230              	.L56:
 478:../libraries/STM32_USB-FS-Device_Driver/src/usb_core.c ****   }
 479:../libraries/STM32_USB-FS-Device_Driver/src/usb_core.c ****   else
 480:../libraries/STM32_USB-FS-Device_Driver/src/usb_core.c ****   {
 481:../libraries/STM32_USB-FS-Device_Driver/src/usb_core.c ****     if (pEPinfo->Usb_rLength > 0)
 1231              		.loc 1 481 0
 1232 00d2 BB68     		ldr	r3, [r7, #8]
 1233 00d4 1B88     		ldrh	r3, [r3, #0]
 1234 00d6 002B     		cmp	r3, #0
 1235 00d8 08D0     		beq	.L58
 482:../libraries/STM32_USB-FS-Device_Driver/src/usb_core.c ****     {
 483:../libraries/STM32_USB-FS-Device_Driver/src/usb_core.c ****       pInformation->ControlState = LAST_OUT_DATA;
 1236              		.loc 1 483 0
 1237 00da 40F20003 		movw	r3, #:lower16:pInformation
 1238 00de C0F20003 		movt	r3, #:upper16:pInformation
 1239 00e2 1B68     		ldr	r3, [r3, #0]
 1240 00e4 4FF00502 		mov	r2, #5
 1241 00e8 1A72     		strb	r2, [r3, #8]
 1242 00ea 23E0     		b	.L52
 1243              	.L58:
 484:../libraries/STM32_USB-FS-Device_Driver/src/usb_core.c ****     }
 485:../libraries/STM32_USB-FS-Device_Driver/src/usb_core.c ****     else if (pEPinfo->Usb_rLength == 0)
 1244              		.loc 1 485 0
 1245 00ec BB68     		ldr	r3, [r7, #8]
 1246 00ee 1B88     		ldrh	r3, [r3, #0]
 1247 00f0 002B     		cmp	r3, #0
 1248 00f2 1FD1     		bne	.L52
 486:../libraries/STM32_USB-FS-Device_Driver/src/usb_core.c ****     {
 487:../libraries/STM32_USB-FS-Device_Driver/src/usb_core.c ****       pInformation->ControlState = WAIT_STATUS_IN;
 1249              		.loc 1 487 0
 1250 00f4 40F20003 		movw	r3, #:lower16:pInformation
 1251 00f8 C0F20003 		movt	r3, #:upper16:pInformation
 1252 00fc 1B68     		ldr	r3, [r3, #0]
 1253 00fe 4FF00602 		mov	r2, #6
 1254 0102 1A72     		strb	r2, [r3, #8]
 488:../libraries/STM32_USB-FS-Device_Driver/src/usb_core.c ****       USB_StatusIn();
 1255              		.loc 1 488 0
 1256 0104 45F65043 		movw	r3, #23632
 1257 0108 C4F20003 		movt	r3, 16384
 1258 010c 1B68     		ldr	r3, [r3, #0]
 1259 010e 9BB2     		uxth	r3, r3
 1260 0110 1A46     		mov	r2, r3
 1261 0112 43F20203 		movw	r3, #12290
 1262 0116 C2F20003 		movt	r3, 8192
 1263 011a D318     		adds	r3, r2, r3
 1264 011c 4FEA4303 		lsl	r3, r3, #1
 1265 0120 4FF00002 		mov	r2, #0
 1266 0124 1A60     		str	r2, [r3, #0]
 1267 0126 40F20003 		movw	r3, #:lower16:SaveTState
 1268 012a C0F20003 		movt	r3, #:upper16:SaveTState
 1269 012e 4FF03002 		mov	r2, #48
 1270 0132 1A80     		strh	r2, [r3, #0]	@ movhi
 1271              	.L52:
 489:../libraries/STM32_USB-FS-Device_Driver/src/usb_core.c ****     }
 490:../libraries/STM32_USB-FS-Device_Driver/src/usb_core.c ****   }
 491:../libraries/STM32_USB-FS-Device_Driver/src/usb_core.c **** }
 1272              		.loc 1 491 0
 1273 0134 07F11007 		add	r7, r7, #16
 1274 0138 BD46     		mov	sp, r7
 1275 013a 80BD     		pop	{r7, pc}
 1276              		.cfi_endproc
 1277              	.LFE65:
 1279              		.section	.text.DataStageIn,"ax",%progbits
 1280              		.align	2
 1281              		.thumb
 1282              		.thumb_func
 1284              	DataStageIn:
 1285              	.LFB66:
 492:../libraries/STM32_USB-FS-Device_Driver/src/usb_core.c **** 
 493:../libraries/STM32_USB-FS-Device_Driver/src/usb_core.c **** /*******************************************************************************
 494:../libraries/STM32_USB-FS-Device_Driver/src/usb_core.c **** * Function Name  : DataStageIn.
 495:../libraries/STM32_USB-FS-Device_Driver/src/usb_core.c **** * Description    : Data stage of a Control Read Transfer.
 496:../libraries/STM32_USB-FS-Device_Driver/src/usb_core.c **** * Input          : None.
 497:../libraries/STM32_USB-FS-Device_Driver/src/usb_core.c **** * Output         : None.
 498:../libraries/STM32_USB-FS-Device_Driver/src/usb_core.c **** * Return         : None.
 499:../libraries/STM32_USB-FS-Device_Driver/src/usb_core.c **** *******************************************************************************/
 500:../libraries/STM32_USB-FS-Device_Driver/src/usb_core.c **** void DataStageIn(void)
 501:../libraries/STM32_USB-FS-Device_Driver/src/usb_core.c **** {
 1286              		.loc 1 501 0
 1287              		.cfi_startproc
 1288              		@ args = 0, pretend = 0, frame = 24
 1289              		@ frame_needed = 1, uses_anonymous_args = 0
 1290 0000 80B5     		push	{r7, lr}
 1291              	.LCFI28:
 1292              		.cfi_def_cfa_offset 8
 1293              		.cfi_offset 7, -8
 1294              		.cfi_offset 14, -4
 1295 0002 86B0     		sub	sp, sp, #24
 1296              	.LCFI29:
 1297              		.cfi_def_cfa_offset 32
 1298 0004 00AF     		add	r7, sp, #0
 1299              	.LCFI30:
 1300              		.cfi_def_cfa_register 7
 502:../libraries/STM32_USB-FS-Device_Driver/src/usb_core.c ****   ENDPOINT_INFO *pEPinfo = &pInformation->Ctrl_Info;
 1301              		.loc 1 502 0
 1302 0006 40F20003 		movw	r3, #:lower16:pInformation
 1303 000a C0F20003 		movt	r3, #:upper16:pInformation
 1304 000e 1B68     		ldr	r3, [r3, #0]
 1305 0010 03F11003 		add	r3, r3, #16
 1306 0014 FB60     		str	r3, [r7, #12]
 503:../libraries/STM32_USB-FS-Device_Driver/src/usb_core.c ****   uint32_t save_wLength = pEPinfo->Usb_wLength;
 1307              		.loc 1 503 0
 1308 0016 FB68     		ldr	r3, [r7, #12]
 1309 0018 1B88     		ldrh	r3, [r3, #0]
 1310 001a BB60     		str	r3, [r7, #8]
 504:../libraries/STM32_USB-FS-Device_Driver/src/usb_core.c ****   uint32_t ControlState = pInformation->ControlState;
 1311              		.loc 1 504 0
 1312 001c 40F20003 		movw	r3, #:lower16:pInformation
 1313 0020 C0F20003 		movt	r3, #:upper16:pInformation
 1314 0024 1B68     		ldr	r3, [r3, #0]
 1315 0026 1B7A     		ldrb	r3, [r3, #8]	@ zero_extendqisi2
 1316 0028 7B61     		str	r3, [r7, #20]
 505:../libraries/STM32_USB-FS-Device_Driver/src/usb_core.c **** 
 506:../libraries/STM32_USB-FS-Device_Driver/src/usb_core.c ****   uint8_t *DataBuffer;
 507:../libraries/STM32_USB-FS-Device_Driver/src/usb_core.c ****   uint32_t Length;
 508:../libraries/STM32_USB-FS-Device_Driver/src/usb_core.c **** 
 509:../libraries/STM32_USB-FS-Device_Driver/src/usb_core.c ****   if ((save_wLength == 0) && (ControlState == LAST_IN_DATA))
 1317              		.loc 1 509 0
 1318 002a BB68     		ldr	r3, [r7, #8]
 1319 002c 002B     		cmp	r3, #0
 1320 002e 37D1     		bne	.L60
 1321              		.loc 1 509 0 is_stmt 0 discriminator 1
 1322 0030 7B69     		ldr	r3, [r7, #20]
 1323 0032 042B     		cmp	r3, #4
 1324 0034 34D1     		bne	.L60
 510:../libraries/STM32_USB-FS-Device_Driver/src/usb_core.c ****   {
 511:../libraries/STM32_USB-FS-Device_Driver/src/usb_core.c ****     if(Data_Mul_MaxPacketSize == TRUE)
 1325              		.loc 1 511 0 is_stmt 1
 1326 0036 40F20003 		movw	r3, #:lower16:Data_Mul_MaxPacketSize
 1327 003a C0F20003 		movt	r3, #:upper16:Data_Mul_MaxPacketSize
 1328 003e 1B78     		ldrb	r3, [r3, #0]	@ zero_extendqisi2
 1329 0040 012B     		cmp	r3, #1
 1330 0042 22D1     		bne	.L61
 512:../libraries/STM32_USB-FS-Device_Driver/src/usb_core.c ****     {
 513:../libraries/STM32_USB-FS-Device_Driver/src/usb_core.c ****       /* No more data to send and empty packet */
 514:../libraries/STM32_USB-FS-Device_Driver/src/usb_core.c ****       Send0LengthData();
 1331              		.loc 1 514 0
 1332 0044 45F65043 		movw	r3, #23632
 1333 0048 C4F20003 		movt	r3, 16384
 1334 004c 1B68     		ldr	r3, [r3, #0]
 1335 004e 9BB2     		uxth	r3, r3
 1336 0050 1A46     		mov	r2, r3
 1337 0052 43F20203 		movw	r3, #12290
 1338 0056 C2F20003 		movt	r3, 8192
 1339 005a D318     		adds	r3, r2, r3
 1340 005c 4FEA4303 		lsl	r3, r3, #1
 1341 0060 4FF00002 		mov	r2, #0
 1342 0064 1A60     		str	r2, [r3, #0]
 1343 0066 40F20003 		movw	r3, #:lower16:SaveTState
 1344 006a C0F20003 		movt	r3, #:upper16:SaveTState
 1345 006e 4FF03002 		mov	r2, #48
 1346 0072 1A80     		strh	r2, [r3, #0]	@ movhi
 515:../libraries/STM32_USB-FS-Device_Driver/src/usb_core.c ****       ControlState = LAST_IN_DATA;
 1347              		.loc 1 515 0
 1348 0074 4FF00403 		mov	r3, #4
 1349 0078 7B61     		str	r3, [r7, #20]
 516:../libraries/STM32_USB-FS-Device_Driver/src/usb_core.c ****       Data_Mul_MaxPacketSize = FALSE;
 1350              		.loc 1 516 0
 1351 007a 40F20003 		movw	r3, #:lower16:Data_Mul_MaxPacketSize
 1352 007e C0F20003 		movt	r3, #:upper16:Data_Mul_MaxPacketSize
 1353 0082 4FF00002 		mov	r2, #0
 1354 0086 1A70     		strb	r2, [r3, #0]
 517:../libraries/STM32_USB-FS-Device_Driver/src/usb_core.c ****     }
 518:../libraries/STM32_USB-FS-Device_Driver/src/usb_core.c ****     else 
 519:../libraries/STM32_USB-FS-Device_Driver/src/usb_core.c ****     {
 520:../libraries/STM32_USB-FS-Device_Driver/src/usb_core.c ****       /* No more data to send so STALL the TX Status*/
 521:../libraries/STM32_USB-FS-Device_Driver/src/usb_core.c ****       ControlState = WAIT_STATUS_OUT;
 522:../libraries/STM32_USB-FS-Device_Driver/src/usb_core.c ****       vSetEPTxStatus(EP_TX_STALL);
 523:../libraries/STM32_USB-FS-Device_Driver/src/usb_core.c ****  
 524:../libraries/STM32_USB-FS-Device_Driver/src/usb_core.c ****     }
 525:../libraries/STM32_USB-FS-Device_Driver/src/usb_core.c ****     
 526:../libraries/STM32_USB-FS-Device_Driver/src/usb_core.c ****     goto Expect_Status_Out;
 1355              		.loc 1 526 0
 1356 0088 56E0     		b	.L63
 1357              	.L61:
 521:../libraries/STM32_USB-FS-Device_Driver/src/usb_core.c ****       ControlState = WAIT_STATUS_OUT;
 1358              		.loc 1 521 0
 1359 008a 4FF00703 		mov	r3, #7
 1360 008e 7B61     		str	r3, [r7, #20]
 522:../libraries/STM32_USB-FS-Device_Driver/src/usb_core.c ****       vSetEPTxStatus(EP_TX_STALL);
 1361              		.loc 1 522 0
 1362 0090 40F20003 		movw	r3, #:lower16:SaveTState
 1363 0094 C0F20003 		movt	r3, #:upper16:SaveTState
 1364 0098 4FF01002 		mov	r2, #16
 1365 009c 1A80     		strh	r2, [r3, #0]	@ movhi
 1366              		.loc 1 526 0
 1367 009e 4BE0     		b	.L63
 1368              	.L60:
 527:../libraries/STM32_USB-FS-Device_Driver/src/usb_core.c ****   }
 528:../libraries/STM32_USB-FS-Device_Driver/src/usb_core.c **** 
 529:../libraries/STM32_USB-FS-Device_Driver/src/usb_core.c ****   Length = pEPinfo->PacketSize;
 1369              		.loc 1 529 0
 1370 00a0 FB68     		ldr	r3, [r7, #12]
 1371 00a2 9B88     		ldrh	r3, [r3, #4]
 1372 00a4 3B61     		str	r3, [r7, #16]
 530:../libraries/STM32_USB-FS-Device_Driver/src/usb_core.c ****   ControlState = (save_wLength <= Length) ? LAST_IN_DATA : IN_DATA;
 1373              		.loc 1 530 0
 1374 00a6 BA68     		ldr	r2, [r7, #8]
 1375 00a8 3B69     		ldr	r3, [r7, #16]
 1376 00aa 9A42     		cmp	r2, r3
 1377 00ac 02D8     		bhi	.L64
 1378              		.loc 1 530 0 is_stmt 0 discriminator 1
 1379 00ae 4FF00403 		mov	r3, #4
 1380 00b2 01E0     		b	.L65
 1381              	.L64:
 1382              		.loc 1 530 0 discriminator 2
 1383 00b4 4FF00203 		mov	r3, #2
 1384              	.L65:
 1385              		.loc 1 530 0 discriminator 3
 1386 00b8 7B61     		str	r3, [r7, #20]
 531:../libraries/STM32_USB-FS-Device_Driver/src/usb_core.c **** 
 532:../libraries/STM32_USB-FS-Device_Driver/src/usb_core.c ****   if (Length > save_wLength)
 1387              		.loc 1 532 0 is_stmt 1 discriminator 3
 1388 00ba 3A69     		ldr	r2, [r7, #16]
 1389 00bc BB68     		ldr	r3, [r7, #8]
 1390 00be 9A42     		cmp	r2, r3
 1391 00c0 01D9     		bls	.L66
 533:../libraries/STM32_USB-FS-Device_Driver/src/usb_core.c ****   {
 534:../libraries/STM32_USB-FS-Device_Driver/src/usb_core.c ****     Length = save_wLength;
 1392              		.loc 1 534 0
 1393 00c2 BB68     		ldr	r3, [r7, #8]
 1394 00c4 3B61     		str	r3, [r7, #16]
 1395              	.L66:
 535:../libraries/STM32_USB-FS-Device_Driver/src/usb_core.c ****   }
 536:../libraries/STM32_USB-FS-Device_Driver/src/usb_core.c **** 
 537:../libraries/STM32_USB-FS-Device_Driver/src/usb_core.c ****   DataBuffer = (*pEPinfo->CopyData)(Length);
 1396              		.loc 1 537 0
 1397 00c6 FB68     		ldr	r3, [r7, #12]
 1398 00c8 9B68     		ldr	r3, [r3, #8]
 1399 00ca 3A69     		ldr	r2, [r7, #16]
 1400 00cc 92B2     		uxth	r2, r2
 1401 00ce 1046     		mov	r0, r2
 1402 00d0 9847     		blx	r3
 1403 00d2 7860     		str	r0, [r7, #4]
 538:../libraries/STM32_USB-FS-Device_Driver/src/usb_core.c ****   
 539:../libraries/STM32_USB-FS-Device_Driver/src/usb_core.c ****   UserToPMABufferCopy(DataBuffer, GetEPTxAddr(ENDP0), Length);
 1404              		.loc 1 539 0
 1405 00d4 4FF00000 		mov	r0, #0
 1406 00d8 FFF7FEFF 		bl	GetEPTxAddr
 1407 00dc 0346     		mov	r3, r0
 1408 00de 1A46     		mov	r2, r3
 1409 00e0 3B69     		ldr	r3, [r7, #16]
 1410 00e2 9BB2     		uxth	r3, r3
 1411 00e4 7868     		ldr	r0, [r7, #4]
 1412 00e6 1146     		mov	r1, r2
 1413 00e8 1A46     		mov	r2, r3
 1414 00ea FFF7FEFF 		bl	UserToPMABufferCopy
 540:../libraries/STM32_USB-FS-Device_Driver/src/usb_core.c **** 
 541:../libraries/STM32_USB-FS-Device_Driver/src/usb_core.c ****   SetEPTxCount(ENDP0, Length);
 1415              		.loc 1 541 0
 1416 00ee 3B69     		ldr	r3, [r7, #16]
 1417 00f0 9BB2     		uxth	r3, r3
 1418 00f2 4FF00000 		mov	r0, #0
 1419 00f6 1946     		mov	r1, r3
 1420 00f8 FFF7FEFF 		bl	SetEPTxCount
 542:../libraries/STM32_USB-FS-Device_Driver/src/usb_core.c **** 
 543:../libraries/STM32_USB-FS-Device_Driver/src/usb_core.c ****   pEPinfo->Usb_wLength -= Length;
 1421              		.loc 1 543 0
 1422 00fc FB68     		ldr	r3, [r7, #12]
 1423 00fe 1A88     		ldrh	r2, [r3, #0]
 1424 0100 3B69     		ldr	r3, [r7, #16]
 1425 0102 9BB2     		uxth	r3, r3
 1426 0104 D31A     		subs	r3, r2, r3
 1427 0106 9AB2     		uxth	r2, r3
 1428 0108 FB68     		ldr	r3, [r7, #12]
 1429 010a 1A80     		strh	r2, [r3, #0]	@ movhi
 544:../libraries/STM32_USB-FS-Device_Driver/src/usb_core.c ****   pEPinfo->Usb_wOffset += Length;
 1430              		.loc 1 544 0
 1431 010c FB68     		ldr	r3, [r7, #12]
 1432 010e 5A88     		ldrh	r2, [r3, #2]
 1433 0110 3B69     		ldr	r3, [r7, #16]
 1434 0112 9BB2     		uxth	r3, r3
 1435 0114 D318     		adds	r3, r2, r3
 1436 0116 9AB2     		uxth	r2, r3
 1437 0118 FB68     		ldr	r3, [r7, #12]
 1438 011a 5A80     		strh	r2, [r3, #2]	@ movhi
 545:../libraries/STM32_USB-FS-Device_Driver/src/usb_core.c ****   vSetEPTxStatus(EP_TX_VALID);
 1439              		.loc 1 545 0
 1440 011c 40F20003 		movw	r3, #:lower16:SaveTState
 1441 0120 C0F20003 		movt	r3, #:upper16:SaveTState
 1442 0124 4FF03002 		mov	r2, #48
 1443 0128 1A80     		strh	r2, [r3, #0]	@ movhi
 546:../libraries/STM32_USB-FS-Device_Driver/src/usb_core.c **** 
 547:../libraries/STM32_USB-FS-Device_Driver/src/usb_core.c ****   USB_StatusOut();/* Expect the host to abort the data IN stage */
 1444              		.loc 1 547 0
 1445 012a 40F20003 		movw	r3, #:lower16:SaveRState
 1446 012e C0F20003 		movt	r3, #:upper16:SaveRState
 1447 0132 4FF44052 		mov	r2, #12288
 1448 0136 1A80     		strh	r2, [r3, #0]	@ movhi
 1449              	.L63:
 548:../libraries/STM32_USB-FS-Device_Driver/src/usb_core.c **** 
 549:../libraries/STM32_USB-FS-Device_Driver/src/usb_core.c **** Expect_Status_Out:
 550:../libraries/STM32_USB-FS-Device_Driver/src/usb_core.c ****   pInformation->ControlState = ControlState;
 1450              		.loc 1 550 0
 1451 0138 40F20003 		movw	r3, #:lower16:pInformation
 1452 013c C0F20003 		movt	r3, #:upper16:pInformation
 1453 0140 1B68     		ldr	r3, [r3, #0]
 1454 0142 7A69     		ldr	r2, [r7, #20]
 1455 0144 D2B2     		uxtb	r2, r2
 1456 0146 1A72     		strb	r2, [r3, #8]
 551:../libraries/STM32_USB-FS-Device_Driver/src/usb_core.c **** }
 1457              		.loc 1 551 0
 1458 0148 07F11807 		add	r7, r7, #24
 1459 014c BD46     		mov	sp, r7
 1460 014e 80BD     		pop	{r7, pc}
 1461              		.cfi_endproc
 1462              	.LFE66:
 1464              		.section	.text.NoData_Setup0,"ax",%progbits
 1465              		.align	2
 1466              		.thumb
 1467              		.thumb_func
 1469              	NoData_Setup0:
 1470              	.LFB67:
 552:../libraries/STM32_USB-FS-Device_Driver/src/usb_core.c **** 
 553:../libraries/STM32_USB-FS-Device_Driver/src/usb_core.c **** /*******************************************************************************
 554:../libraries/STM32_USB-FS-Device_Driver/src/usb_core.c **** * Function Name  : NoData_Setup0.
 555:../libraries/STM32_USB-FS-Device_Driver/src/usb_core.c **** * Description    : Proceed the processing of setup request without data stage.
 556:../libraries/STM32_USB-FS-Device_Driver/src/usb_core.c **** * Input          : None.
 557:../libraries/STM32_USB-FS-Device_Driver/src/usb_core.c **** * Output         : None.
 558:../libraries/STM32_USB-FS-Device_Driver/src/usb_core.c **** * Return         : None.
 559:../libraries/STM32_USB-FS-Device_Driver/src/usb_core.c **** *******************************************************************************/
 560:../libraries/STM32_USB-FS-Device_Driver/src/usb_core.c **** void NoData_Setup0(void)
 561:../libraries/STM32_USB-FS-Device_Driver/src/usb_core.c **** {
 1471              		.loc 1 561 0
 1472              		.cfi_startproc
 1473              		@ args = 0, pretend = 0, frame = 16
 1474              		@ frame_needed = 1, uses_anonymous_args = 0
 1475 0000 80B5     		push	{r7, lr}
 1476              	.LCFI31:
 1477              		.cfi_def_cfa_offset 8
 1478              		.cfi_offset 7, -8
 1479              		.cfi_offset 14, -4
 1480 0002 84B0     		sub	sp, sp, #16
 1481              	.LCFI32:
 1482              		.cfi_def_cfa_offset 24
 1483 0004 00AF     		add	r7, sp, #0
 1484              	.LCFI33:
 1485              		.cfi_def_cfa_register 7
 562:../libraries/STM32_USB-FS-Device_Driver/src/usb_core.c ****   RESULT Result = USB_UNSUPPORT;
 1486              		.loc 1 562 0
 1487 0006 4FF00203 		mov	r3, #2
 1488 000a FB73     		strb	r3, [r7, #15]
 563:../libraries/STM32_USB-FS-Device_Driver/src/usb_core.c ****   uint32_t RequestNo = pInformation->USBbRequest;
 1489              		.loc 1 563 0
 1490 000c 40F20003 		movw	r3, #:lower16:pInformation
 1491 0010 C0F20003 		movt	r3, #:upper16:pInformation
 1492 0014 1B68     		ldr	r3, [r3, #0]
 1493 0016 5B78     		ldrb	r3, [r3, #1]	@ zero_extendqisi2
 1494 0018 7B60     		str	r3, [r7, #4]
 564:../libraries/STM32_USB-FS-Device_Driver/src/usb_core.c ****   uint32_t ControlState;
 565:../libraries/STM32_USB-FS-Device_Driver/src/usb_core.c **** 
 566:../libraries/STM32_USB-FS-Device_Driver/src/usb_core.c ****   if (Type_Recipient == (STANDARD_REQUEST | DEVICE_RECIPIENT))
 1495              		.loc 1 566 0
 1496 001a 40F20003 		movw	r3, #:lower16:pInformation
 1497 001e C0F20003 		movt	r3, #:upper16:pInformation
 1498 0022 1B68     		ldr	r3, [r3, #0]
 1499 0024 1B78     		ldrb	r3, [r3, #0]	@ zero_extendqisi2
 1500 0026 03F07F03 		and	r3, r3, #127
 1501 002a 002B     		cmp	r3, #0
 1502 002c 76D1     		bne	.L68
 567:../libraries/STM32_USB-FS-Device_Driver/src/usb_core.c ****   {
 568:../libraries/STM32_USB-FS-Device_Driver/src/usb_core.c ****     /* Device Request*/
 569:../libraries/STM32_USB-FS-Device_Driver/src/usb_core.c ****     /* SET_CONFIGURATION*/
 570:../libraries/STM32_USB-FS-Device_Driver/src/usb_core.c ****     if (RequestNo == SET_CONFIGURATION)
 1503              		.loc 1 570 0
 1504 002e 7B68     		ldr	r3, [r7, #4]
 1505 0030 092B     		cmp	r3, #9
 1506 0032 04D1     		bne	.L69
 571:../libraries/STM32_USB-FS-Device_Driver/src/usb_core.c ****     {
 572:../libraries/STM32_USB-FS-Device_Driver/src/usb_core.c ****       Result = Standard_SetConfiguration();
 1507              		.loc 1 572 0
 1508 0034 FFF7FEFF 		bl	Standard_SetConfiguration
 1509 0038 0346     		mov	r3, r0
 1510 003a FB73     		strb	r3, [r7, #15]
 573:../libraries/STM32_USB-FS-Device_Driver/src/usb_core.c ****     }
 574:../libraries/STM32_USB-FS-Device_Driver/src/usb_core.c **** 
 575:../libraries/STM32_USB-FS-Device_Driver/src/usb_core.c ****     /*SET ADDRESS*/
 576:../libraries/STM32_USB-FS-Device_Driver/src/usb_core.c ****     else if (RequestNo == SET_ADDRESS)
 577:../libraries/STM32_USB-FS-Device_Driver/src/usb_core.c ****     {
 578:../libraries/STM32_USB-FS-Device_Driver/src/usb_core.c ****       if ((pInformation->USBwValue0 > 127) || (pInformation->USBwValue1 != 0)
 579:../libraries/STM32_USB-FS-Device_Driver/src/usb_core.c ****           || (pInformation->USBwIndex != 0)
 580:../libraries/STM32_USB-FS-Device_Driver/src/usb_core.c ****           || (pInformation->Current_Configuration != 0))
 581:../libraries/STM32_USB-FS-Device_Driver/src/usb_core.c ****         /* Device Address should be 127 or less*/
 582:../libraries/STM32_USB-FS-Device_Driver/src/usb_core.c ****       {
 583:../libraries/STM32_USB-FS-Device_Driver/src/usb_core.c ****         ControlState = STALLED;
 584:../libraries/STM32_USB-FS-Device_Driver/src/usb_core.c ****         goto exit_NoData_Setup0;
 585:../libraries/STM32_USB-FS-Device_Driver/src/usb_core.c ****       }
 586:../libraries/STM32_USB-FS-Device_Driver/src/usb_core.c ****       else
 587:../libraries/STM32_USB-FS-Device_Driver/src/usb_core.c ****       {
 588:../libraries/STM32_USB-FS-Device_Driver/src/usb_core.c ****         Result = USB_SUCCESS;
 589:../libraries/STM32_USB-FS-Device_Driver/src/usb_core.c ****       }
 590:../libraries/STM32_USB-FS-Device_Driver/src/usb_core.c ****     }
 591:../libraries/STM32_USB-FS-Device_Driver/src/usb_core.c ****     /*SET FEATURE for Device*/
 592:../libraries/STM32_USB-FS-Device_Driver/src/usb_core.c ****     else if (RequestNo == SET_FEATURE)
 593:../libraries/STM32_USB-FS-Device_Driver/src/usb_core.c ****     {
 594:../libraries/STM32_USB-FS-Device_Driver/src/usb_core.c ****       if ((pInformation->USBwValue0 == DEVICE_REMOTE_WAKEUP) \
 595:../libraries/STM32_USB-FS-Device_Driver/src/usb_core.c ****           && (pInformation->USBwIndex == 0))
 596:../libraries/STM32_USB-FS-Device_Driver/src/usb_core.c ****       {
 597:../libraries/STM32_USB-FS-Device_Driver/src/usb_core.c ****         Result = Standard_SetDeviceFeature();
 598:../libraries/STM32_USB-FS-Device_Driver/src/usb_core.c ****       }
 599:../libraries/STM32_USB-FS-Device_Driver/src/usb_core.c ****       else
 600:../libraries/STM32_USB-FS-Device_Driver/src/usb_core.c ****       {
 601:../libraries/STM32_USB-FS-Device_Driver/src/usb_core.c ****         Result = USB_UNSUPPORT;
 602:../libraries/STM32_USB-FS-Device_Driver/src/usb_core.c ****       }
 603:../libraries/STM32_USB-FS-Device_Driver/src/usb_core.c ****     }
 604:../libraries/STM32_USB-FS-Device_Driver/src/usb_core.c ****     /*Clear FEATURE for Device */
 605:../libraries/STM32_USB-FS-Device_Driver/src/usb_core.c ****     else if (RequestNo == CLEAR_FEATURE)
 606:../libraries/STM32_USB-FS-Device_Driver/src/usb_core.c ****     {
 607:../libraries/STM32_USB-FS-Device_Driver/src/usb_core.c ****       if (pInformation->USBwValue0 == DEVICE_REMOTE_WAKEUP
 608:../libraries/STM32_USB-FS-Device_Driver/src/usb_core.c ****           && pInformation->USBwIndex == 0
 609:../libraries/STM32_USB-FS-Device_Driver/src/usb_core.c ****           && ValBit(pInformation->Current_Feature, 5))
 610:../libraries/STM32_USB-FS-Device_Driver/src/usb_core.c ****       {
 611:../libraries/STM32_USB-FS-Device_Driver/src/usb_core.c ****         Result = Standard_ClearFeature();
 612:../libraries/STM32_USB-FS-Device_Driver/src/usb_core.c ****       }
 613:../libraries/STM32_USB-FS-Device_Driver/src/usb_core.c ****       else
 614:../libraries/STM32_USB-FS-Device_Driver/src/usb_core.c ****       {
 615:../libraries/STM32_USB-FS-Device_Driver/src/usb_core.c ****         Result = USB_UNSUPPORT;
 1511              		.loc 1 615 0
 1512 003c 9EE0     		b	.L86
 1513              	.L69:
 576:../libraries/STM32_USB-FS-Device_Driver/src/usb_core.c ****     else if (RequestNo == SET_ADDRESS)
 1514              		.loc 1 576 0
 1515 003e 7B68     		ldr	r3, [r7, #4]
 1516 0040 052B     		cmp	r3, #5
 1517 0042 29D1     		bne	.L71
 578:../libraries/STM32_USB-FS-Device_Driver/src/usb_core.c ****       if ((pInformation->USBwValue0 > 127) || (pInformation->USBwValue1 != 0)
 1518              		.loc 1 578 0
 1519 0044 40F20003 		movw	r3, #:lower16:pInformation
 1520 0048 C0F20003 		movt	r3, #:upper16:pInformation
 1521 004c 1B68     		ldr	r3, [r3, #0]
 1522 004e DB78     		ldrb	r3, [r3, #3]	@ zero_extendqisi2
 1523 0050 DBB2     		uxtb	r3, r3
 1524 0052 5BB2     		sxtb	r3, r3
 1525 0054 002B     		cmp	r3, #0
 1526 0056 17DB     		blt	.L72
 578:../libraries/STM32_USB-FS-Device_Driver/src/usb_core.c ****       if ((pInformation->USBwValue0 > 127) || (pInformation->USBwValue1 != 0)
 1527              		.loc 1 578 0 is_stmt 0 discriminator 1
 1528 0058 40F20003 		movw	r3, #:lower16:pInformation
 1529 005c C0F20003 		movt	r3, #:upper16:pInformation
 1530 0060 1B68     		ldr	r3, [r3, #0]
 1531 0062 9B78     		ldrb	r3, [r3, #2]	@ zero_extendqisi2
 1532 0064 002B     		cmp	r3, #0
 1533 0066 0FD1     		bne	.L72
 579:../libraries/STM32_USB-FS-Device_Driver/src/usb_core.c ****           || (pInformation->USBwIndex != 0)
 1534              		.loc 1 579 0 is_stmt 1
 1535 0068 40F20003 		movw	r3, #:lower16:pInformation
 1536 006c C0F20003 		movt	r3, #:upper16:pInformation
 1537 0070 1B68     		ldr	r3, [r3, #0]
 1538 0072 9B88     		ldrh	r3, [r3, #4]
 1539 0074 002B     		cmp	r3, #0
 1540 0076 07D1     		bne	.L72
 580:../libraries/STM32_USB-FS-Device_Driver/src/usb_core.c ****           || (pInformation->Current_Configuration != 0))
 1541              		.loc 1 580 0
 1542 0078 40F20003 		movw	r3, #:lower16:pInformation
 1543 007c C0F20003 		movt	r3, #:upper16:pInformation
 1544 0080 1B68     		ldr	r3, [r3, #0]
 1545 0082 9B7A     		ldrb	r3, [r3, #10]	@ zero_extendqisi2
 1546 0084 002B     		cmp	r3, #0
 1547 0086 03D0     		beq	.L73
 1548              	.L72:
 583:../libraries/STM32_USB-FS-Device_Driver/src/usb_core.c ****         ControlState = STALLED;
 1549              		.loc 1 583 0
 1550 0088 4FF00803 		mov	r3, #8
 1551 008c BB60     		str	r3, [r7, #8]
 584:../libraries/STM32_USB-FS-Device_Driver/src/usb_core.c ****         goto exit_NoData_Setup0;
 1552              		.loc 1 584 0
 1553 008e AEE0     		b	.L74
 1554              	.L73:
 588:../libraries/STM32_USB-FS-Device_Driver/src/usb_core.c ****         Result = USB_SUCCESS;
 1555              		.loc 1 588 0
 1556 0090 4FF00003 		mov	r3, #0
 1557 0094 FB73     		strb	r3, [r7, #15]
 1558              		.loc 1 615 0
 1559 0096 71E0     		b	.L86
 1560              	.L71:
 592:../libraries/STM32_USB-FS-Device_Driver/src/usb_core.c ****     else if (RequestNo == SET_FEATURE)
 1561              		.loc 1 592 0
 1562 0098 7B68     		ldr	r3, [r7, #4]
 1563 009a 032B     		cmp	r3, #3
 1564 009c 18D1     		bne	.L75
 594:../libraries/STM32_USB-FS-Device_Driver/src/usb_core.c ****       if ((pInformation->USBwValue0 == DEVICE_REMOTE_WAKEUP) \
 1565              		.loc 1 594 0
 1566 009e 40F20003 		movw	r3, #:lower16:pInformation
 1567 00a2 C0F20003 		movt	r3, #:upper16:pInformation
 1568 00a6 1B68     		ldr	r3, [r3, #0]
 1569 00a8 DB78     		ldrb	r3, [r3, #3]	@ zero_extendqisi2
 1570 00aa 012B     		cmp	r3, #1
 1571 00ac 0CD1     		bne	.L76
 595:../libraries/STM32_USB-FS-Device_Driver/src/usb_core.c ****           && (pInformation->USBwIndex == 0))
 1572              		.loc 1 595 0
 1573 00ae 40F20003 		movw	r3, #:lower16:pInformation
 1574 00b2 C0F20003 		movt	r3, #:upper16:pInformation
 1575 00b6 1B68     		ldr	r3, [r3, #0]
 1576 00b8 9B88     		ldrh	r3, [r3, #4]
 1577 00ba 002B     		cmp	r3, #0
 1578 00bc 04D1     		bne	.L76
 597:../libraries/STM32_USB-FS-Device_Driver/src/usb_core.c ****         Result = Standard_SetDeviceFeature();
 1579              		.loc 1 597 0
 1580 00be FFF7FEFF 		bl	Standard_SetDeviceFeature
 1581 00c2 0346     		mov	r3, r0
 1582 00c4 FB73     		strb	r3, [r7, #15]
 1583              		.loc 1 615 0
 1584 00c6 59E0     		b	.L86
 1585              	.L76:
 601:../libraries/STM32_USB-FS-Device_Driver/src/usb_core.c ****         Result = USB_UNSUPPORT;
 1586              		.loc 1 601 0
 1587 00c8 4FF00203 		mov	r3, #2
 1588 00cc FB73     		strb	r3, [r7, #15]
 1589 00ce 56E0     		b	.L79
 1590              	.L75:
 605:../libraries/STM32_USB-FS-Device_Driver/src/usb_core.c ****     else if (RequestNo == CLEAR_FEATURE)
 1591              		.loc 1 605 0
 1592 00d0 7B68     		ldr	r3, [r7, #4]
 1593 00d2 012B     		cmp	r3, #1
 1594 00d4 52D1     		bne	.L86
 607:../libraries/STM32_USB-FS-Device_Driver/src/usb_core.c ****       if (pInformation->USBwValue0 == DEVICE_REMOTE_WAKEUP
 1595              		.loc 1 607 0
 1596 00d6 40F20003 		movw	r3, #:lower16:pInformation
 1597 00da C0F20003 		movt	r3, #:upper16:pInformation
 1598 00de 1B68     		ldr	r3, [r3, #0]
 1599 00e0 DB78     		ldrb	r3, [r3, #3]	@ zero_extendqisi2
 1600 00e2 012B     		cmp	r3, #1
 1601 00e4 16D1     		bne	.L78
 608:../libraries/STM32_USB-FS-Device_Driver/src/usb_core.c ****           && pInformation->USBwIndex == 0
 1602              		.loc 1 608 0
 1603 00e6 40F20003 		movw	r3, #:lower16:pInformation
 1604 00ea C0F20003 		movt	r3, #:upper16:pInformation
 1605 00ee 1B68     		ldr	r3, [r3, #0]
 1606 00f0 9B88     		ldrh	r3, [r3, #4]
 1607 00f2 002B     		cmp	r3, #0
 1608 00f4 0ED1     		bne	.L78
 609:../libraries/STM32_USB-FS-Device_Driver/src/usb_core.c ****           && ValBit(pInformation->Current_Feature, 5))
 1609              		.loc 1 609 0
 1610 00f6 40F20003 		movw	r3, #:lower16:pInformation
 1611 00fa C0F20003 		movt	r3, #:upper16:pInformation
 1612 00fe 1B68     		ldr	r3, [r3, #0]
 1613 0100 5B7A     		ldrb	r3, [r3, #9]	@ zero_extendqisi2
 1614 0102 03F02003 		and	r3, r3, #32
 1615 0106 002B     		cmp	r3, #0
 1616 0108 04D0     		beq	.L78
 611:../libraries/STM32_USB-FS-Device_Driver/src/usb_core.c ****         Result = Standard_ClearFeature();
 1617              		.loc 1 611 0
 1618 010a FFF7FEFF 		bl	Standard_ClearFeature
 1619 010e 0346     		mov	r3, r0
 1620 0110 FB73     		strb	r3, [r7, #15]
 1621 0112 34E0     		b	.L79
 1622              	.L78:
 1623              		.loc 1 615 0
 1624 0114 4FF00203 		mov	r3, #2
 1625 0118 FB73     		strb	r3, [r7, #15]
 1626 011a 2FE0     		b	.L86
 1627              	.L68:
 616:../libraries/STM32_USB-FS-Device_Driver/src/usb_core.c ****       }
 617:../libraries/STM32_USB-FS-Device_Driver/src/usb_core.c ****     }
 618:../libraries/STM32_USB-FS-Device_Driver/src/usb_core.c **** 
 619:../libraries/STM32_USB-FS-Device_Driver/src/usb_core.c ****   }
 620:../libraries/STM32_USB-FS-Device_Driver/src/usb_core.c **** 
 621:../libraries/STM32_USB-FS-Device_Driver/src/usb_core.c ****   /* Interface Request*/
 622:../libraries/STM32_USB-FS-Device_Driver/src/usb_core.c ****   else if (Type_Recipient == (STANDARD_REQUEST | INTERFACE_RECIPIENT))
 1628              		.loc 1 622 0
 1629 011c 40F20003 		movw	r3, #:lower16:pInformation
 1630 0120 C0F20003 		movt	r3, #:upper16:pInformation
 1631 0124 1B68     		ldr	r3, [r3, #0]
 1632 0126 1B78     		ldrb	r3, [r3, #0]	@ zero_extendqisi2
 1633 0128 03F07F03 		and	r3, r3, #127
 1634 012c 012B     		cmp	r3, #1
 1635 012e 07D1     		bne	.L80
 623:../libraries/STM32_USB-FS-Device_Driver/src/usb_core.c ****   {
 624:../libraries/STM32_USB-FS-Device_Driver/src/usb_core.c ****     /*SET INTERFACE*/
 625:../libraries/STM32_USB-FS-Device_Driver/src/usb_core.c ****     if (RequestNo == SET_INTERFACE)
 1636              		.loc 1 625 0
 1637 0130 7B68     		ldr	r3, [r7, #4]
 1638 0132 0B2B     		cmp	r3, #11
 1639 0134 23D1     		bne	.L79
 626:../libraries/STM32_USB-FS-Device_Driver/src/usb_core.c ****     {
 627:../libraries/STM32_USB-FS-Device_Driver/src/usb_core.c ****       Result = Standard_SetInterface();
 1640              		.loc 1 627 0
 1641 0136 FFF7FEFF 		bl	Standard_SetInterface
 1642 013a 0346     		mov	r3, r0
 1643 013c FB73     		strb	r3, [r7, #15]
 1644 013e 1EE0     		b	.L79
 1645              	.L80:
 628:../libraries/STM32_USB-FS-Device_Driver/src/usb_core.c ****     }
 629:../libraries/STM32_USB-FS-Device_Driver/src/usb_core.c ****   }
 630:../libraries/STM32_USB-FS-Device_Driver/src/usb_core.c **** 
 631:../libraries/STM32_USB-FS-Device_Driver/src/usb_core.c ****   /* EndPoint Request*/
 632:../libraries/STM32_USB-FS-Device_Driver/src/usb_core.c ****   else if (Type_Recipient == (STANDARD_REQUEST | ENDPOINT_RECIPIENT))
 1646              		.loc 1 632 0
 1647 0140 40F20003 		movw	r3, #:lower16:pInformation
 1648 0144 C0F20003 		movt	r3, #:upper16:pInformation
 1649 0148 1B68     		ldr	r3, [r3, #0]
 1650 014a 1B78     		ldrb	r3, [r3, #0]	@ zero_extendqisi2
 1651 014c 03F07F03 		and	r3, r3, #127
 1652 0150 022B     		cmp	r3, #2
 1653 0152 0FD1     		bne	.L81
 633:../libraries/STM32_USB-FS-Device_Driver/src/usb_core.c ****   {
 634:../libraries/STM32_USB-FS-Device_Driver/src/usb_core.c ****     /*CLEAR FEATURE for EndPoint*/
 635:../libraries/STM32_USB-FS-Device_Driver/src/usb_core.c ****     if (RequestNo == CLEAR_FEATURE)
 1654              		.loc 1 635 0
 1655 0154 7B68     		ldr	r3, [r7, #4]
 1656 0156 012B     		cmp	r3, #1
 1657 0158 04D1     		bne	.L82
 636:../libraries/STM32_USB-FS-Device_Driver/src/usb_core.c ****     {
 637:../libraries/STM32_USB-FS-Device_Driver/src/usb_core.c ****       Result = Standard_ClearFeature();
 1658              		.loc 1 637 0
 1659 015a FFF7FEFF 		bl	Standard_ClearFeature
 1660 015e 0346     		mov	r3, r0
 1661 0160 FB73     		strb	r3, [r7, #15]
 1662 0162 0CE0     		b	.L79
 1663              	.L82:
 638:../libraries/STM32_USB-FS-Device_Driver/src/usb_core.c ****     }
 639:../libraries/STM32_USB-FS-Device_Driver/src/usb_core.c ****     /* SET FEATURE for EndPoint*/
 640:../libraries/STM32_USB-FS-Device_Driver/src/usb_core.c ****     else if (RequestNo == SET_FEATURE)
 1664              		.loc 1 640 0
 1665 0164 7B68     		ldr	r3, [r7, #4]
 1666 0166 032B     		cmp	r3, #3
 1667 0168 09D1     		bne	.L79
 641:../libraries/STM32_USB-FS-Device_Driver/src/usb_core.c ****     {
 642:../libraries/STM32_USB-FS-Device_Driver/src/usb_core.c ****       Result = Standard_SetEndPointFeature();
 1668              		.loc 1 642 0
 1669 016a FFF7FEFF 		bl	Standard_SetEndPointFeature
 1670 016e 0346     		mov	r3, r0
 1671 0170 FB73     		strb	r3, [r7, #15]
 1672 0172 04E0     		b	.L79
 1673              	.L81:
 643:../libraries/STM32_USB-FS-Device_Driver/src/usb_core.c ****     }
 644:../libraries/STM32_USB-FS-Device_Driver/src/usb_core.c ****   }
 645:../libraries/STM32_USB-FS-Device_Driver/src/usb_core.c ****   else
 646:../libraries/STM32_USB-FS-Device_Driver/src/usb_core.c ****   {
 647:../libraries/STM32_USB-FS-Device_Driver/src/usb_core.c ****     Result = USB_UNSUPPORT;
 1674              		.loc 1 647 0
 1675 0174 4FF00203 		mov	r3, #2
 1676 0178 FB73     		strb	r3, [r7, #15]
 1677 017a 00E0     		b	.L79
 1678              	.L86:
 615:../libraries/STM32_USB-FS-Device_Driver/src/usb_core.c ****         Result = USB_UNSUPPORT;
 1679              		.loc 1 615 0
 1680 017c 00BF     		nop
 1681              	.L79:
 648:../libraries/STM32_USB-FS-Device_Driver/src/usb_core.c ****   }
 649:../libraries/STM32_USB-FS-Device_Driver/src/usb_core.c **** 
 650:../libraries/STM32_USB-FS-Device_Driver/src/usb_core.c **** 
 651:../libraries/STM32_USB-FS-Device_Driver/src/usb_core.c ****   if (Result != USB_SUCCESS)
 1682              		.loc 1 651 0
 1683 017e FB7B     		ldrb	r3, [r7, #15]	@ zero_extendqisi2
 1684 0180 002B     		cmp	r3, #0
 1685 0182 12D0     		beq	.L83
 652:../libraries/STM32_USB-FS-Device_Driver/src/usb_core.c ****   {
 653:../libraries/STM32_USB-FS-Device_Driver/src/usb_core.c ****     Result = (*pProperty->Class_NoData_Setup)(RequestNo);
 1686              		.loc 1 653 0
 1687 0184 40F20003 		movw	r3, #:lower16:pProperty
 1688 0188 C0F20003 		movt	r3, #:upper16:pProperty
 1689 018c 1B68     		ldr	r3, [r3, #0]
 1690 018e 5B69     		ldr	r3, [r3, #20]
 1691 0190 7A68     		ldr	r2, [r7, #4]
 1692 0192 D2B2     		uxtb	r2, r2
 1693 0194 1046     		mov	r0, r2
 1694 0196 9847     		blx	r3
 1695 0198 0346     		mov	r3, r0
 1696 019a FB73     		strb	r3, [r7, #15]
 654:../libraries/STM32_USB-FS-Device_Driver/src/usb_core.c ****     if (Result == USB_NOT_READY)
 1697              		.loc 1 654 0
 1698 019c FB7B     		ldrb	r3, [r7, #15]	@ zero_extendqisi2
 1699 019e 032B     		cmp	r3, #3
 1700 01a0 03D1     		bne	.L83
 655:../libraries/STM32_USB-FS-Device_Driver/src/usb_core.c ****     {
 656:../libraries/STM32_USB-FS-Device_Driver/src/usb_core.c ****       ControlState = PAUSE;
 1701              		.loc 1 656 0
 1702 01a2 4FF00903 		mov	r3, #9
 1703 01a6 BB60     		str	r3, [r7, #8]
 657:../libraries/STM32_USB-FS-Device_Driver/src/usb_core.c ****       goto exit_NoData_Setup0;
 1704              		.loc 1 657 0
 1705 01a8 21E0     		b	.L74
 1706              	.L83:
 658:../libraries/STM32_USB-FS-Device_Driver/src/usb_core.c ****     }
 659:../libraries/STM32_USB-FS-Device_Driver/src/usb_core.c ****   }
 660:../libraries/STM32_USB-FS-Device_Driver/src/usb_core.c **** 
 661:../libraries/STM32_USB-FS-Device_Driver/src/usb_core.c ****   if (Result != USB_SUCCESS)
 1707              		.loc 1 661 0
 1708 01aa FB7B     		ldrb	r3, [r7, #15]	@ zero_extendqisi2
 1709 01ac 002B     		cmp	r3, #0
 1710 01ae 03D0     		beq	.L84
 662:../libraries/STM32_USB-FS-Device_Driver/src/usb_core.c ****   {
 663:../libraries/STM32_USB-FS-Device_Driver/src/usb_core.c ****     ControlState = STALLED;
 1711              		.loc 1 663 0
 1712 01b0 4FF00803 		mov	r3, #8
 1713 01b4 BB60     		str	r3, [r7, #8]
 664:../libraries/STM32_USB-FS-Device_Driver/src/usb_core.c ****     goto exit_NoData_Setup0;
 1714              		.loc 1 664 0
 1715 01b6 1AE0     		b	.L74
 1716              	.L84:
 665:../libraries/STM32_USB-FS-Device_Driver/src/usb_core.c ****   }
 666:../libraries/STM32_USB-FS-Device_Driver/src/usb_core.c **** 
 667:../libraries/STM32_USB-FS-Device_Driver/src/usb_core.c ****   ControlState = WAIT_STATUS_IN;/* After no data stage SETUP */
 1717              		.loc 1 667 0
 1718 01b8 4FF00603 		mov	r3, #6
 1719 01bc BB60     		str	r3, [r7, #8]
 668:../libraries/STM32_USB-FS-Device_Driver/src/usb_core.c **** 
 669:../libraries/STM32_USB-FS-Device_Driver/src/usb_core.c ****   USB_StatusIn();
 1720              		.loc 1 669 0
 1721 01be 45F65043 		movw	r3, #23632
 1722 01c2 C4F20003 		movt	r3, 16384
 1723 01c6 1B68     		ldr	r3, [r3, #0]
 1724 01c8 9BB2     		uxth	r3, r3
 1725 01ca 1A46     		mov	r2, r3
 1726 01cc 43F20203 		movw	r3, #12290
 1727 01d0 C2F20003 		movt	r3, 8192
 1728 01d4 D318     		adds	r3, r2, r3
 1729 01d6 4FEA4303 		lsl	r3, r3, #1
 1730 01da 4FF00002 		mov	r2, #0
 1731 01de 1A60     		str	r2, [r3, #0]
 1732 01e0 40F20003 		movw	r3, #:lower16:SaveTState
 1733 01e4 C0F20003 		movt	r3, #:upper16:SaveTState
 1734 01e8 4FF03002 		mov	r2, #48
 1735 01ec 1A80     		strh	r2, [r3, #0]	@ movhi
 1736              	.L74:
 670:../libraries/STM32_USB-FS-Device_Driver/src/usb_core.c **** 
 671:../libraries/STM32_USB-FS-Device_Driver/src/usb_core.c **** exit_NoData_Setup0:
 672:../libraries/STM32_USB-FS-Device_Driver/src/usb_core.c ****   pInformation->ControlState = ControlState;
 1737              		.loc 1 672 0
 1738 01ee 40F20003 		movw	r3, #:lower16:pInformation
 1739 01f2 C0F20003 		movt	r3, #:upper16:pInformation
 1740 01f6 1B68     		ldr	r3, [r3, #0]
 1741 01f8 BA68     		ldr	r2, [r7, #8]
 1742 01fa D2B2     		uxtb	r2, r2
 1743 01fc 1A72     		strb	r2, [r3, #8]
 673:../libraries/STM32_USB-FS-Device_Driver/src/usb_core.c ****   return;
 1744              		.loc 1 673 0
 1745 01fe 00BF     		nop
 674:../libraries/STM32_USB-FS-Device_Driver/src/usb_core.c **** }
 1746              		.loc 1 674 0
 1747 0200 07F11007 		add	r7, r7, #16
 1748 0204 BD46     		mov	sp, r7
 1749 0206 80BD     		pop	{r7, pc}
 1750              		.cfi_endproc
 1751              	.LFE67:
 1753              		.section	.text.Data_Setup0,"ax",%progbits
 1754              		.align	2
 1755              		.thumb
 1756              		.thumb_func
 1758              	Data_Setup0:
 1759              	.LFB68:
 675:../libraries/STM32_USB-FS-Device_Driver/src/usb_core.c **** 
 676:../libraries/STM32_USB-FS-Device_Driver/src/usb_core.c **** /*******************************************************************************
 677:../libraries/STM32_USB-FS-Device_Driver/src/usb_core.c **** * Function Name  : Data_Setup0.
 678:../libraries/STM32_USB-FS-Device_Driver/src/usb_core.c **** * Description    : Proceed the processing of setup request with data stage.
 679:../libraries/STM32_USB-FS-Device_Driver/src/usb_core.c **** * Input          : None.
 680:../libraries/STM32_USB-FS-Device_Driver/src/usb_core.c **** * Output         : None.
 681:../libraries/STM32_USB-FS-Device_Driver/src/usb_core.c **** * Return         : None.
 682:../libraries/STM32_USB-FS-Device_Driver/src/usb_core.c **** *******************************************************************************/
 683:../libraries/STM32_USB-FS-Device_Driver/src/usb_core.c **** void Data_Setup0(void)
 684:../libraries/STM32_USB-FS-Device_Driver/src/usb_core.c **** {
 1760              		.loc 1 684 0
 1761              		.cfi_startproc
 1762              		@ args = 0, pretend = 0, frame = 40
 1763              		@ frame_needed = 1, uses_anonymous_args = 0
 1764 0000 80B5     		push	{r7, lr}
 1765              	.LCFI34:
 1766              		.cfi_def_cfa_offset 8
 1767              		.cfi_offset 7, -8
 1768              		.cfi_offset 14, -4
 1769 0002 8AB0     		sub	sp, sp, #40
 1770              	.LCFI35:
 1771              		.cfi_def_cfa_offset 48
 1772 0004 00AF     		add	r7, sp, #0
 1773              	.LCFI36:
 1774              		.cfi_def_cfa_register 7
 685:../libraries/STM32_USB-FS-Device_Driver/src/usb_core.c ****   uint8_t *(*CopyRoutine)(uint16_t);
 686:../libraries/STM32_USB-FS-Device_Driver/src/usb_core.c ****   RESULT Result;
 687:../libraries/STM32_USB-FS-Device_Driver/src/usb_core.c ****   uint32_t Request_No = pInformation->USBbRequest;
 1775              		.loc 1 687 0
 1776 0006 40F20003 		movw	r3, #:lower16:pInformation
 1777 000a C0F20003 		movt	r3, #:upper16:pInformation
 1778 000e 1B68     		ldr	r3, [r3, #0]
 1779 0010 5B78     		ldrb	r3, [r3, #1]	@ zero_extendqisi2
 1780 0012 BB61     		str	r3, [r7, #24]
 688:../libraries/STM32_USB-FS-Device_Driver/src/usb_core.c **** 
 689:../libraries/STM32_USB-FS-Device_Driver/src/usb_core.c ****   uint32_t Related_Endpoint, Reserved;
 690:../libraries/STM32_USB-FS-Device_Driver/src/usb_core.c ****   uint32_t wOffset, Status;
 691:../libraries/STM32_USB-FS-Device_Driver/src/usb_core.c **** 
 692:../libraries/STM32_USB-FS-Device_Driver/src/usb_core.c **** 
 693:../libraries/STM32_USB-FS-Device_Driver/src/usb_core.c **** 
 694:../libraries/STM32_USB-FS-Device_Driver/src/usb_core.c ****   CopyRoutine = NULL;
 1781              		.loc 1 694 0
 1782 0014 4FF00003 		mov	r3, #0
 1783 0018 7B62     		str	r3, [r7, #36]
 695:../libraries/STM32_USB-FS-Device_Driver/src/usb_core.c ****   wOffset = 0;
 1784              		.loc 1 695 0
 1785 001a 4FF00003 		mov	r3, #0
 1786 001e 7B61     		str	r3, [r7, #20]
 696:../libraries/STM32_USB-FS-Device_Driver/src/usb_core.c **** 
 697:../libraries/STM32_USB-FS-Device_Driver/src/usb_core.c ****   /*GET DESCRIPTOR*/
 698:../libraries/STM32_USB-FS-Device_Driver/src/usb_core.c ****   if (Request_No == GET_DESCRIPTOR)
 1787              		.loc 1 698 0
 1788 0020 BB69     		ldr	r3, [r7, #24]
 1789 0022 062B     		cmp	r3, #6
 1790 0024 33D1     		bne	.L88
 699:../libraries/STM32_USB-FS-Device_Driver/src/usb_core.c ****   {
 700:../libraries/STM32_USB-FS-Device_Driver/src/usb_core.c ****     if (Type_Recipient == (STANDARD_REQUEST | DEVICE_RECIPIENT))
 1791              		.loc 1 700 0
 1792 0026 40F20003 		movw	r3, #:lower16:pInformation
 1793 002a C0F20003 		movt	r3, #:upper16:pInformation
 1794 002e 1B68     		ldr	r3, [r3, #0]
 1795 0030 1B78     		ldrb	r3, [r3, #0]	@ zero_extendqisi2
 1796 0032 03F07F03 		and	r3, r3, #127
 1797 0036 002B     		cmp	r3, #0
 1798 0038 40F03C81 		bne	.L89
 1799              	.LBB10:
 701:../libraries/STM32_USB-FS-Device_Driver/src/usb_core.c ****     {
 702:../libraries/STM32_USB-FS-Device_Driver/src/usb_core.c ****       uint8_t wValue1 = pInformation->USBwValue1;
 1800              		.loc 1 702 0
 1801 003c 40F20003 		movw	r3, #:lower16:pInformation
 1802 0040 C0F20003 		movt	r3, #:upper16:pInformation
 1803 0044 1B68     		ldr	r3, [r3, #0]
 1804 0046 9B78     		ldrb	r3, [r3, #2]
 1805 0048 FB74     		strb	r3, [r7, #19]
 703:../libraries/STM32_USB-FS-Device_Driver/src/usb_core.c ****       if (wValue1 == DEVICE_DESCRIPTOR)
 1806              		.loc 1 703 0
 1807 004a FB7C     		ldrb	r3, [r7, #19]	@ zero_extendqisi2
 1808 004c 012B     		cmp	r3, #1
 1809 004e 07D1     		bne	.L90
 704:../libraries/STM32_USB-FS-Device_Driver/src/usb_core.c ****       {
 705:../libraries/STM32_USB-FS-Device_Driver/src/usb_core.c ****         CopyRoutine = pProperty->GetDeviceDescriptor;
 1810              		.loc 1 705 0
 1811 0050 40F20003 		movw	r3, #:lower16:pProperty
 1812 0054 C0F20003 		movt	r3, #:upper16:pProperty
 1813 0058 1B68     		ldr	r3, [r3, #0]
 1814 005a DB69     		ldr	r3, [r3, #28]
 1815 005c 7B62     		str	r3, [r7, #36]
 1816 005e 29E1     		b	.L89
 1817              	.L90:
 706:../libraries/STM32_USB-FS-Device_Driver/src/usb_core.c ****       }
 707:../libraries/STM32_USB-FS-Device_Driver/src/usb_core.c ****       else if (wValue1 == CONFIG_DESCRIPTOR)
 1818              		.loc 1 707 0
 1819 0060 FB7C     		ldrb	r3, [r7, #19]	@ zero_extendqisi2
 1820 0062 022B     		cmp	r3, #2
 1821 0064 07D1     		bne	.L91
 708:../libraries/STM32_USB-FS-Device_Driver/src/usb_core.c ****       {
 709:../libraries/STM32_USB-FS-Device_Driver/src/usb_core.c ****         CopyRoutine = pProperty->GetConfigDescriptor;
 1822              		.loc 1 709 0
 1823 0066 40F20003 		movw	r3, #:lower16:pProperty
 1824 006a C0F20003 		movt	r3, #:upper16:pProperty
 1825 006e 1B68     		ldr	r3, [r3, #0]
 1826 0070 1B6A     		ldr	r3, [r3, #32]
 1827 0072 7B62     		str	r3, [r7, #36]
 1828 0074 1EE1     		b	.L89
 1829              	.L91:
 710:../libraries/STM32_USB-FS-Device_Driver/src/usb_core.c ****       }
 711:../libraries/STM32_USB-FS-Device_Driver/src/usb_core.c ****       else if (wValue1 == STRING_DESCRIPTOR)
 1830              		.loc 1 711 0
 1831 0076 FB7C     		ldrb	r3, [r7, #19]	@ zero_extendqisi2
 1832 0078 032B     		cmp	r3, #3
 1833 007a 40F01B81 		bne	.L89
 712:../libraries/STM32_USB-FS-Device_Driver/src/usb_core.c ****       {
 713:../libraries/STM32_USB-FS-Device_Driver/src/usb_core.c ****         CopyRoutine = pProperty->GetStringDescriptor;
 1834              		.loc 1 713 0
 1835 007e 40F20003 		movw	r3, #:lower16:pProperty
 1836 0082 C0F20003 		movt	r3, #:upper16:pProperty
 1837 0086 1B68     		ldr	r3, [r3, #0]
 1838 0088 5B6A     		ldr	r3, [r3, #36]
 1839 008a 7B62     		str	r3, [r7, #36]
 1840 008c 12E1     		b	.L89
 1841              	.L88:
 1842              	.LBE10:
 714:../libraries/STM32_USB-FS-Device_Driver/src/usb_core.c ****       }  /* End of GET_DESCRIPTOR */
 715:../libraries/STM32_USB-FS-Device_Driver/src/usb_core.c ****     }
 716:../libraries/STM32_USB-FS-Device_Driver/src/usb_core.c ****   }
 717:../libraries/STM32_USB-FS-Device_Driver/src/usb_core.c **** 
 718:../libraries/STM32_USB-FS-Device_Driver/src/usb_core.c ****   /*GET STATUS*/
 719:../libraries/STM32_USB-FS-Device_Driver/src/usb_core.c ****   else if ((Request_No == GET_STATUS) && (pInformation->USBwValue == 0)
 1843              		.loc 1 719 0
 1844 008e BB69     		ldr	r3, [r7, #24]
 1845 0090 002B     		cmp	r3, #0
 1846 0092 40F0B580 		bne	.L92
 1847              		.loc 1 719 0 is_stmt 0 discriminator 1
 1848 0096 40F20003 		movw	r3, #:lower16:pInformation
 1849 009a C0F20003 		movt	r3, #:upper16:pInformation
 1850 009e 1B68     		ldr	r3, [r3, #0]
 1851 00a0 5B88     		ldrh	r3, [r3, #2]
 1852 00a2 002B     		cmp	r3, #0
 1853 00a4 40F0AC80 		bne	.L92
 720:../libraries/STM32_USB-FS-Device_Driver/src/usb_core.c ****            && (pInformation->USBwLength == 0x0002)
 1854              		.loc 1 720 0 is_stmt 1
 1855 00a8 40F20003 		movw	r3, #:lower16:pInformation
 1856 00ac C0F20003 		movt	r3, #:upper16:pInformation
 1857 00b0 1B68     		ldr	r3, [r3, #0]
 1858 00b2 DB88     		ldrh	r3, [r3, #6]
 1859 00b4 022B     		cmp	r3, #2
 1860 00b6 40F0A380 		bne	.L92
 721:../libraries/STM32_USB-FS-Device_Driver/src/usb_core.c ****            && (pInformation->USBwIndex1 == 0))
 1861              		.loc 1 721 0
 1862 00ba 40F20003 		movw	r3, #:lower16:pInformation
 1863 00be C0F20003 		movt	r3, #:upper16:pInformation
 1864 00c2 1B68     		ldr	r3, [r3, #0]
 1865 00c4 1B79     		ldrb	r3, [r3, #4]	@ zero_extendqisi2
 1866 00c6 002B     		cmp	r3, #0
 1867 00c8 40F09A80 		bne	.L92
 722:../libraries/STM32_USB-FS-Device_Driver/src/usb_core.c ****   {
 723:../libraries/STM32_USB-FS-Device_Driver/src/usb_core.c ****     /* GET STATUS for Device*/
 724:../libraries/STM32_USB-FS-Device_Driver/src/usb_core.c ****     if ((Type_Recipient == (STANDARD_REQUEST | DEVICE_RECIPIENT))
 1868              		.loc 1 724 0
 1869 00cc 40F20003 		movw	r3, #:lower16:pInformation
 1870 00d0 C0F20003 		movt	r3, #:upper16:pInformation
 1871 00d4 1B68     		ldr	r3, [r3, #0]
 1872 00d6 1B78     		ldrb	r3, [r3, #0]	@ zero_extendqisi2
 1873 00d8 03F07F03 		and	r3, r3, #127
 1874 00dc 002B     		cmp	r3, #0
 1875 00de 0DD1     		bne	.L93
 725:../libraries/STM32_USB-FS-Device_Driver/src/usb_core.c ****         && (pInformation->USBwIndex == 0))
 1876              		.loc 1 725 0
 1877 00e0 40F20003 		movw	r3, #:lower16:pInformation
 1878 00e4 C0F20003 		movt	r3, #:upper16:pInformation
 1879 00e8 1B68     		ldr	r3, [r3, #0]
 1880 00ea 9B88     		ldrh	r3, [r3, #4]
 1881 00ec 002B     		cmp	r3, #0
 1882 00ee 05D1     		bne	.L93
 726:../libraries/STM32_USB-FS-Device_Driver/src/usb_core.c ****     {
 727:../libraries/STM32_USB-FS-Device_Driver/src/usb_core.c ****       CopyRoutine = Standard_GetStatus;
 1883              		.loc 1 727 0
 1884 00f0 40F20003 		movw	r3, #:lower16:Standard_GetStatus
 1885 00f4 C0F20003 		movt	r3, #:upper16:Standard_GetStatus
 1886 00f8 7B62     		str	r3, [r7, #36]
 724:../libraries/STM32_USB-FS-Device_Driver/src/usb_core.c ****     if ((Type_Recipient == (STANDARD_REQUEST | DEVICE_RECIPIENT))
 1887              		.loc 1 724 0
 1888 00fa DAE0     		b	.L110
 1889              	.L93:
 728:../libraries/STM32_USB-FS-Device_Driver/src/usb_core.c ****     }
 729:../libraries/STM32_USB-FS-Device_Driver/src/usb_core.c **** 
 730:../libraries/STM32_USB-FS-Device_Driver/src/usb_core.c ****     /* GET STATUS for Interface*/
 731:../libraries/STM32_USB-FS-Device_Driver/src/usb_core.c ****     else if (Type_Recipient == (STANDARD_REQUEST | INTERFACE_RECIPIENT))
 1890              		.loc 1 731 0
 1891 00fc 40F20003 		movw	r3, #:lower16:pInformation
 1892 0100 C0F20003 		movt	r3, #:upper16:pInformation
 1893 0104 1B68     		ldr	r3, [r3, #0]
 1894 0106 1B78     		ldrb	r3, [r3, #0]	@ zero_extendqisi2
 1895 0108 03F07F03 		and	r3, r3, #127
 1896 010c 012B     		cmp	r3, #1
 1897 010e 22D1     		bne	.L95
 732:../libraries/STM32_USB-FS-Device_Driver/src/usb_core.c ****     {
 733:../libraries/STM32_USB-FS-Device_Driver/src/usb_core.c ****       if (((*pProperty->Class_Get_Interface_Setting)(pInformation->USBwIndex0, 0) == USB_SUCCESS)
 1898              		.loc 1 733 0
 1899 0110 40F20003 		movw	r3, #:lower16:pProperty
 1900 0114 C0F20003 		movt	r3, #:upper16:pProperty
 1901 0118 1B68     		ldr	r3, [r3, #0]
 1902 011a 9A69     		ldr	r2, [r3, #24]
 1903 011c 40F20003 		movw	r3, #:lower16:pInformation
 1904 0120 C0F20003 		movt	r3, #:upper16:pInformation
 1905 0124 1B68     		ldr	r3, [r3, #0]
 1906 0126 5B79     		ldrb	r3, [r3, #5]	@ zero_extendqisi2
 1907 0128 1846     		mov	r0, r3
 1908 012a 4FF00001 		mov	r1, #0
 1909 012e 9047     		blx	r2
 1910 0130 0346     		mov	r3, r0
 1911 0132 002B     		cmp	r3, #0
 1912 0134 40F0BD80 		bne	.L110
 734:../libraries/STM32_USB-FS-Device_Driver/src/usb_core.c ****           && (pInformation->Current_Configuration != 0))
 1913              		.loc 1 734 0
 1914 0138 40F20003 		movw	r3, #:lower16:pInformation
 1915 013c C0F20003 		movt	r3, #:upper16:pInformation
 1916 0140 1B68     		ldr	r3, [r3, #0]
 1917 0142 9B7A     		ldrb	r3, [r3, #10]	@ zero_extendqisi2
 1918 0144 002B     		cmp	r3, #0
 1919 0146 00F0B480 		beq	.L110
 735:../libraries/STM32_USB-FS-Device_Driver/src/usb_core.c ****       {
 736:../libraries/STM32_USB-FS-Device_Driver/src/usb_core.c ****         CopyRoutine = Standard_GetStatus;
 1920              		.loc 1 736 0
 1921 014a 40F20003 		movw	r3, #:lower16:Standard_GetStatus
 1922 014e C0F20003 		movt	r3, #:upper16:Standard_GetStatus
 1923 0152 7B62     		str	r3, [r7, #36]
 724:../libraries/STM32_USB-FS-Device_Driver/src/usb_core.c ****     if ((Type_Recipient == (STANDARD_REQUEST | DEVICE_RECIPIENT))
 1924              		.loc 1 724 0
 1925 0154 ADE0     		b	.L110
 1926              	.L95:
 737:../libraries/STM32_USB-FS-Device_Driver/src/usb_core.c ****       }
 738:../libraries/STM32_USB-FS-Device_Driver/src/usb_core.c ****     }
 739:../libraries/STM32_USB-FS-Device_Driver/src/usb_core.c **** 
 740:../libraries/STM32_USB-FS-Device_Driver/src/usb_core.c ****     /* GET STATUS for EndPoint*/
 741:../libraries/STM32_USB-FS-Device_Driver/src/usb_core.c ****     else if (Type_Recipient == (STANDARD_REQUEST | ENDPOINT_RECIPIENT))
 1927              		.loc 1 741 0
 1928 0156 40F20003 		movw	r3, #:lower16:pInformation
 1929 015a C0F20003 		movt	r3, #:upper16:pInformation
 1930 015e 1B68     		ldr	r3, [r3, #0]
 1931 0160 1B78     		ldrb	r3, [r3, #0]	@ zero_extendqisi2
 1932 0162 03F07F03 		and	r3, r3, #127
 1933 0166 022B     		cmp	r3, #2
 1934 0168 40F0A380 		bne	.L110
 742:../libraries/STM32_USB-FS-Device_Driver/src/usb_core.c ****     {
 743:../libraries/STM32_USB-FS-Device_Driver/src/usb_core.c ****       Related_Endpoint = (pInformation->USBwIndex0 & 0x0f);
 1935              		.loc 1 743 0
 1936 016c 40F20003 		movw	r3, #:lower16:pInformation
 1937 0170 C0F20003 		movt	r3, #:upper16:pInformation
 1938 0174 1B68     		ldr	r3, [r3, #0]
 1939 0176 5B79     		ldrb	r3, [r3, #5]	@ zero_extendqisi2
 1940 0178 03F00F03 		and	r3, r3, #15
 1941 017c FB60     		str	r3, [r7, #12]
 744:../libraries/STM32_USB-FS-Device_Driver/src/usb_core.c ****       Reserved = pInformation->USBwIndex0 & 0x70;
 1942              		.loc 1 744 0
 1943 017e 40F20003 		movw	r3, #:lower16:pInformation
 1944 0182 C0F20003 		movt	r3, #:upper16:pInformation
 1945 0186 1B68     		ldr	r3, [r3, #0]
 1946 0188 5B79     		ldrb	r3, [r3, #5]	@ zero_extendqisi2
 1947 018a 03F07003 		and	r3, r3, #112
 1948 018e BB60     		str	r3, [r7, #8]
 745:../libraries/STM32_USB-FS-Device_Driver/src/usb_core.c **** 
 746:../libraries/STM32_USB-FS-Device_Driver/src/usb_core.c ****       if (ValBit(pInformation->USBwIndex0, 7))
 1949              		.loc 1 746 0
 1950 0190 40F20003 		movw	r3, #:lower16:pInformation
 1951 0194 C0F20003 		movt	r3, #:upper16:pInformation
 1952 0198 1B68     		ldr	r3, [r3, #0]
 1953 019a 5B79     		ldrb	r3, [r3, #5]	@ zero_extendqisi2
 1954 019c DBB2     		uxtb	r3, r3
 1955 019e 5BB2     		sxtb	r3, r3
 1956 01a0 002B     		cmp	r3, #0
 1957 01a2 0CDA     		bge	.L96
 747:../libraries/STM32_USB-FS-Device_Driver/src/usb_core.c ****       {
 748:../libraries/STM32_USB-FS-Device_Driver/src/usb_core.c ****         /*Get Status of endpoint & stall the request if the related_ENdpoint
 749:../libraries/STM32_USB-FS-Device_Driver/src/usb_core.c ****         is Disabled*/
 750:../libraries/STM32_USB-FS-Device_Driver/src/usb_core.c ****         Status = _GetEPTxStatus(Related_Endpoint);
 1958              		.loc 1 750 0
 1959 01a4 FB68     		ldr	r3, [r7, #12]
 1960 01a6 4FEA8303 		lsl	r3, r3, #2
 1961 01aa 03F18043 		add	r3, r3, #1073741824
 1962 01ae 03F5B843 		add	r3, r3, #23552
 1963 01b2 1B68     		ldr	r3, [r3, #0]
 1964 01b4 9BB2     		uxth	r3, r3
 1965 01b6 03F03003 		and	r3, r3, #48
 1966 01ba FB61     		str	r3, [r7, #28]
 1967 01bc 0BE0     		b	.L97
 1968              	.L96:
 751:../libraries/STM32_USB-FS-Device_Driver/src/usb_core.c ****       }
 752:../libraries/STM32_USB-FS-Device_Driver/src/usb_core.c ****       else
 753:../libraries/STM32_USB-FS-Device_Driver/src/usb_core.c ****       {
 754:../libraries/STM32_USB-FS-Device_Driver/src/usb_core.c ****         Status = _GetEPRxStatus(Related_Endpoint);
 1969              		.loc 1 754 0
 1970 01be FB68     		ldr	r3, [r7, #12]
 1971 01c0 4FEA8303 		lsl	r3, r3, #2
 1972 01c4 03F18043 		add	r3, r3, #1073741824
 1973 01c8 03F5B843 		add	r3, r3, #23552
 1974 01cc 1B68     		ldr	r3, [r3, #0]
 1975 01ce 9BB2     		uxth	r3, r3
 1976 01d0 03F44053 		and	r3, r3, #12288
 1977 01d4 FB61     		str	r3, [r7, #28]
 1978              	.L97:
 755:../libraries/STM32_USB-FS-Device_Driver/src/usb_core.c ****       }
 756:../libraries/STM32_USB-FS-Device_Driver/src/usb_core.c **** 
 757:../libraries/STM32_USB-FS-Device_Driver/src/usb_core.c ****       if ((Related_Endpoint < Device_Table.Total_Endpoint) && (Reserved == 0)
 1979              		.loc 1 757 0
 1980 01d6 40F20003 		movw	r3, #:lower16:Device_Table
 1981 01da C0F20003 		movt	r3, #:upper16:Device_Table
 1982 01de 1B78     		ldrb	r3, [r3, #0]	@ zero_extendqisi2
 1983 01e0 1A46     		mov	r2, r3
 1984 01e2 FB68     		ldr	r3, [r7, #12]
 1985 01e4 9A42     		cmp	r2, r3
 1986 01e6 64D9     		bls	.L110
 1987              		.loc 1 757 0 is_stmt 0 discriminator 1
 1988 01e8 BB68     		ldr	r3, [r7, #8]
 1989 01ea 002B     		cmp	r3, #0
 1990 01ec 61D1     		bne	.L110
 758:../libraries/STM32_USB-FS-Device_Driver/src/usb_core.c ****           && (Status != 0))
 1991              		.loc 1 758 0 is_stmt 1
 1992 01ee FB69     		ldr	r3, [r7, #28]
 1993 01f0 002B     		cmp	r3, #0
 1994 01f2 5ED0     		beq	.L110
 759:../libraries/STM32_USB-FS-Device_Driver/src/usb_core.c ****       {
 760:../libraries/STM32_USB-FS-Device_Driver/src/usb_core.c ****         CopyRoutine = Standard_GetStatus;
 1995              		.loc 1 760 0
 1996 01f4 40F20003 		movw	r3, #:lower16:Standard_GetStatus
 1997 01f8 C0F20003 		movt	r3, #:upper16:Standard_GetStatus
 1998 01fc 7B62     		str	r3, [r7, #36]
 724:../libraries/STM32_USB-FS-Device_Driver/src/usb_core.c ****     if ((Type_Recipient == (STANDARD_REQUEST | DEVICE_RECIPIENT))
 1999              		.loc 1 724 0
 2000 01fe 58E0     		b	.L110
 2001              	.L92:
 761:../libraries/STM32_USB-FS-Device_Driver/src/usb_core.c ****       }
 762:../libraries/STM32_USB-FS-Device_Driver/src/usb_core.c ****     }
 763:../libraries/STM32_USB-FS-Device_Driver/src/usb_core.c **** 
 764:../libraries/STM32_USB-FS-Device_Driver/src/usb_core.c ****   }
 765:../libraries/STM32_USB-FS-Device_Driver/src/usb_core.c **** 
 766:../libraries/STM32_USB-FS-Device_Driver/src/usb_core.c ****   /*GET CONFIGURATION*/
 767:../libraries/STM32_USB-FS-Device_Driver/src/usb_core.c ****   else if (Request_No == GET_CONFIGURATION)
 2002              		.loc 1 767 0
 2003 0200 BB69     		ldr	r3, [r7, #24]
 2004 0202 082B     		cmp	r3, #8
 2005 0204 0FD1     		bne	.L98
 768:../libraries/STM32_USB-FS-Device_Driver/src/usb_core.c ****   {
 769:../libraries/STM32_USB-FS-Device_Driver/src/usb_core.c ****     if (Type_Recipient == (STANDARD_REQUEST | DEVICE_RECIPIENT))
 2006              		.loc 1 769 0
 2007 0206 40F20003 		movw	r3, #:lower16:pInformation
 2008 020a C0F20003 		movt	r3, #:upper16:pInformation
 2009 020e 1B68     		ldr	r3, [r3, #0]
 2010 0210 1B78     		ldrb	r3, [r3, #0]	@ zero_extendqisi2
 2011 0212 03F07F03 		and	r3, r3, #127
 2012 0216 002B     		cmp	r3, #0
 2013 0218 4CD1     		bne	.L89
 770:../libraries/STM32_USB-FS-Device_Driver/src/usb_core.c ****     {
 771:../libraries/STM32_USB-FS-Device_Driver/src/usb_core.c ****       CopyRoutine = Standard_GetConfiguration;
 2014              		.loc 1 771 0
 2015 021a 40F20003 		movw	r3, #:lower16:Standard_GetConfiguration
 2016 021e C0F20003 		movt	r3, #:upper16:Standard_GetConfiguration
 2017 0222 7B62     		str	r3, [r7, #36]
 2018 0224 46E0     		b	.L89
 2019              	.L98:
 772:../libraries/STM32_USB-FS-Device_Driver/src/usb_core.c ****     }
 773:../libraries/STM32_USB-FS-Device_Driver/src/usb_core.c ****   }
 774:../libraries/STM32_USB-FS-Device_Driver/src/usb_core.c ****   /*GET INTERFACE*/
 775:../libraries/STM32_USB-FS-Device_Driver/src/usb_core.c ****   else if (Request_No == GET_INTERFACE)
 2020              		.loc 1 775 0
 2021 0226 BB69     		ldr	r3, [r7, #24]
 2022 0228 0A2B     		cmp	r3, #10
 2023 022a 43D1     		bne	.L89
 776:../libraries/STM32_USB-FS-Device_Driver/src/usb_core.c ****   {
 777:../libraries/STM32_USB-FS-Device_Driver/src/usb_core.c ****     if ((Type_Recipient == (STANDARD_REQUEST | INTERFACE_RECIPIENT))
 2024              		.loc 1 777 0
 2025 022c 40F20003 		movw	r3, #:lower16:pInformation
 2026 0230 C0F20003 		movt	r3, #:upper16:pInformation
 2027 0234 1B68     		ldr	r3, [r3, #0]
 2028 0236 1B78     		ldrb	r3, [r3, #0]	@ zero_extendqisi2
 2029 0238 03F07F03 		and	r3, r3, #127
 2030 023c 012B     		cmp	r3, #1
 2031 023e 39D1     		bne	.L89
 778:../libraries/STM32_USB-FS-Device_Driver/src/usb_core.c ****         && (pInformation->Current_Configuration != 0) && (pInformation->USBwValue == 0)
 2032              		.loc 1 778 0
 2033 0240 40F20003 		movw	r3, #:lower16:pInformation
 2034 0244 C0F20003 		movt	r3, #:upper16:pInformation
 2035 0248 1B68     		ldr	r3, [r3, #0]
 2036 024a 9B7A     		ldrb	r3, [r3, #10]	@ zero_extendqisi2
 2037 024c 002B     		cmp	r3, #0
 2038 024e 31D0     		beq	.L89
 2039              		.loc 1 778 0 is_stmt 0 discriminator 1
 2040 0250 40F20003 		movw	r3, #:lower16:pInformation
 2041 0254 C0F20003 		movt	r3, #:upper16:pInformation
 2042 0258 1B68     		ldr	r3, [r3, #0]
 2043 025a 5B88     		ldrh	r3, [r3, #2]
 2044 025c 002B     		cmp	r3, #0
 2045 025e 29D1     		bne	.L89
 779:../libraries/STM32_USB-FS-Device_Driver/src/usb_core.c ****         && (pInformation->USBwIndex1 == 0) && (pInformation->USBwLength == 0x0001)
 2046              		.loc 1 779 0 is_stmt 1
 2047 0260 40F20003 		movw	r3, #:lower16:pInformation
 2048 0264 C0F20003 		movt	r3, #:upper16:pInformation
 2049 0268 1B68     		ldr	r3, [r3, #0]
 2050 026a 1B79     		ldrb	r3, [r3, #4]	@ zero_extendqisi2
 2051 026c 002B     		cmp	r3, #0
 2052 026e 21D1     		bne	.L89
 2053              		.loc 1 779 0 is_stmt 0 discriminator 1
 2054 0270 40F20003 		movw	r3, #:lower16:pInformation
 2055 0274 C0F20003 		movt	r3, #:upper16:pInformation
 2056 0278 1B68     		ldr	r3, [r3, #0]
 2057 027a DB88     		ldrh	r3, [r3, #6]
 2058 027c 012B     		cmp	r3, #1
 2059 027e 19D1     		bne	.L89
 780:../libraries/STM32_USB-FS-Device_Driver/src/usb_core.c ****         && ((*pProperty->Class_Get_Interface_Setting)(pInformation->USBwIndex0, 0) == USB_SUCCESS))
 2060              		.loc 1 780 0 is_stmt 1
 2061 0280 40F20003 		movw	r3, #:lower16:pProperty
 2062 0284 C0F20003 		movt	r3, #:upper16:pProperty
 2063 0288 1B68     		ldr	r3, [r3, #0]
 2064 028a 9A69     		ldr	r2, [r3, #24]
 2065 028c 40F20003 		movw	r3, #:lower16:pInformation
 2066 0290 C0F20003 		movt	r3, #:upper16:pInformation
 2067 0294 1B68     		ldr	r3, [r3, #0]
 2068 0296 5B79     		ldrb	r3, [r3, #5]	@ zero_extendqisi2
 2069 0298 1846     		mov	r0, r3
 2070 029a 4FF00001 		mov	r1, #0
 2071 029e 9047     		blx	r2
 2072 02a0 0346     		mov	r3, r0
 2073 02a2 002B     		cmp	r3, #0
 2074 02a4 06D1     		bne	.L89
 781:../libraries/STM32_USB-FS-Device_Driver/src/usb_core.c ****     {
 782:../libraries/STM32_USB-FS-Device_Driver/src/usb_core.c ****       CopyRoutine = Standard_GetInterface;
 2075              		.loc 1 782 0
 2076 02a6 40F20003 		movw	r3, #:lower16:Standard_GetInterface
 2077 02aa C0F20003 		movt	r3, #:upper16:Standard_GetInterface
 2078 02ae 7B62     		str	r3, [r7, #36]
 2079 02b0 00E0     		b	.L89
 2080              	.L110:
 724:../libraries/STM32_USB-FS-Device_Driver/src/usb_core.c ****     if ((Type_Recipient == (STANDARD_REQUEST | DEVICE_RECIPIENT))
 2081              		.loc 1 724 0
 2082 02b2 00BF     		nop
 2083              	.L89:
 783:../libraries/STM32_USB-FS-Device_Driver/src/usb_core.c ****     }
 784:../libraries/STM32_USB-FS-Device_Driver/src/usb_core.c **** 
 785:../libraries/STM32_USB-FS-Device_Driver/src/usb_core.c ****   }
 786:../libraries/STM32_USB-FS-Device_Driver/src/usb_core.c ****   
 787:../libraries/STM32_USB-FS-Device_Driver/src/usb_core.c ****   if (CopyRoutine)
 2084              		.loc 1 787 0
 2085 02b4 7B6A     		ldr	r3, [r7, #36]
 2086 02b6 002B     		cmp	r3, #0
 2087 02b8 17D0     		beq	.L99
 788:../libraries/STM32_USB-FS-Device_Driver/src/usb_core.c ****   {
 789:../libraries/STM32_USB-FS-Device_Driver/src/usb_core.c ****     pInformation->Ctrl_Info.Usb_wOffset = wOffset;
 2088              		.loc 1 789 0
 2089 02ba 40F20003 		movw	r3, #:lower16:pInformation
 2090 02be C0F20003 		movt	r3, #:upper16:pInformation
 2091 02c2 1B68     		ldr	r3, [r3, #0]
 2092 02c4 7A69     		ldr	r2, [r7, #20]
 2093 02c6 92B2     		uxth	r2, r2
 2094 02c8 5A82     		strh	r2, [r3, #18]	@ movhi
 790:../libraries/STM32_USB-FS-Device_Driver/src/usb_core.c ****     pInformation->Ctrl_Info.CopyData = CopyRoutine;
 2095              		.loc 1 790 0
 2096 02ca 40F20003 		movw	r3, #:lower16:pInformation
 2097 02ce C0F20003 		movt	r3, #:upper16:pInformation
 2098 02d2 1B68     		ldr	r3, [r3, #0]
 2099 02d4 7A6A     		ldr	r2, [r7, #36]
 2100 02d6 9A61     		str	r2, [r3, #24]
 791:../libraries/STM32_USB-FS-Device_Driver/src/usb_core.c ****     /* sb in the original the cast to word was directly */
 792:../libraries/STM32_USB-FS-Device_Driver/src/usb_core.c ****     /* now the cast is made step by step */
 793:../libraries/STM32_USB-FS-Device_Driver/src/usb_core.c ****     (*CopyRoutine)(0);
 2101              		.loc 1 793 0
 2102 02d8 7B6A     		ldr	r3, [r7, #36]
 2103 02da 4FF00000 		mov	r0, #0
 2104 02de 9847     		blx	r3
 794:../libraries/STM32_USB-FS-Device_Driver/src/usb_core.c ****     Result = USB_SUCCESS;
 2105              		.loc 1 794 0
 2106 02e0 4FF00003 		mov	r3, #0
 2107 02e4 87F82330 		strb	r3, [r7, #35]
 2108 02e8 1DE0     		b	.L100
 2109              	.L99:
 795:../libraries/STM32_USB-FS-Device_Driver/src/usb_core.c ****   }
 796:../libraries/STM32_USB-FS-Device_Driver/src/usb_core.c ****   else
 797:../libraries/STM32_USB-FS-Device_Driver/src/usb_core.c ****   {
 798:../libraries/STM32_USB-FS-Device_Driver/src/usb_core.c ****     Result = (*pProperty->Class_Data_Setup)(pInformation->USBbRequest);
 2110              		.loc 1 798 0
 2111 02ea 40F20003 		movw	r3, #:lower16:pProperty
 2112 02ee C0F20003 		movt	r3, #:upper16:pProperty
 2113 02f2 1B68     		ldr	r3, [r3, #0]
 2114 02f4 1A69     		ldr	r2, [r3, #16]
 2115 02f6 40F20003 		movw	r3, #:lower16:pInformation
 2116 02fa C0F20003 		movt	r3, #:upper16:pInformation
 2117 02fe 1B68     		ldr	r3, [r3, #0]
 2118 0300 5B78     		ldrb	r3, [r3, #1]	@ zero_extendqisi2
 2119 0302 1846     		mov	r0, r3
 2120 0304 9047     		blx	r2
 2121 0306 0346     		mov	r3, r0
 2122 0308 87F82330 		strb	r3, [r7, #35]
 799:../libraries/STM32_USB-FS-Device_Driver/src/usb_core.c ****     if (Result == USB_NOT_READY)
 2123              		.loc 1 799 0
 2124 030c 97F82330 		ldrb	r3, [r7, #35]	@ zero_extendqisi2
 2125 0310 032B     		cmp	r3, #3
 2126 0312 08D1     		bne	.L100
 800:../libraries/STM32_USB-FS-Device_Driver/src/usb_core.c ****     {
 801:../libraries/STM32_USB-FS-Device_Driver/src/usb_core.c ****       pInformation->ControlState = PAUSE;
 2127              		.loc 1 801 0
 2128 0314 40F20003 		movw	r3, #:lower16:pInformation
 2129 0318 C0F20003 		movt	r3, #:upper16:pInformation
 2130 031c 1B68     		ldr	r3, [r3, #0]
 2131 031e 4FF00902 		mov	r2, #9
 2132 0322 1A72     		strb	r2, [r3, #8]
 802:../libraries/STM32_USB-FS-Device_Driver/src/usb_core.c ****       return;
 2133              		.loc 1 802 0
 2134 0324 ACE0     		b	.L87
 2135              	.L100:
 803:../libraries/STM32_USB-FS-Device_Driver/src/usb_core.c ****     }
 804:../libraries/STM32_USB-FS-Device_Driver/src/usb_core.c ****   }
 805:../libraries/STM32_USB-FS-Device_Driver/src/usb_core.c **** 
 806:../libraries/STM32_USB-FS-Device_Driver/src/usb_core.c ****   if (pInformation->Ctrl_Info.Usb_wLength == 0xFFFF)
 2136              		.loc 1 806 0
 2137 0326 40F20003 		movw	r3, #:lower16:pInformation
 2138 032a C0F20003 		movt	r3, #:upper16:pInformation
 2139 032e 1B68     		ldr	r3, [r3, #0]
 2140 0330 1A8A     		ldrh	r2, [r3, #16]
 2141 0332 4FF6FF73 		movw	r3, #65535
 2142 0336 9A42     		cmp	r2, r3
 2143 0338 08D1     		bne	.L102
 807:../libraries/STM32_USB-FS-Device_Driver/src/usb_core.c ****   {
 808:../libraries/STM32_USB-FS-Device_Driver/src/usb_core.c ****     /* Data is not ready, wait it */
 809:../libraries/STM32_USB-FS-Device_Driver/src/usb_core.c ****     pInformation->ControlState = PAUSE;
 2144              		.loc 1 809 0
 2145 033a 40F20003 		movw	r3, #:lower16:pInformation
 2146 033e C0F20003 		movt	r3, #:upper16:pInformation
 2147 0342 1B68     		ldr	r3, [r3, #0]
 2148 0344 4FF00902 		mov	r2, #9
 2149 0348 1A72     		strb	r2, [r3, #8]
 810:../libraries/STM32_USB-FS-Device_Driver/src/usb_core.c ****     return;
 2150              		.loc 1 810 0
 2151 034a 99E0     		b	.L87
 2152              	.L102:
 811:../libraries/STM32_USB-FS-Device_Driver/src/usb_core.c ****   }
 812:../libraries/STM32_USB-FS-Device_Driver/src/usb_core.c ****   if ((Result == USB_UNSUPPORT) || (pInformation->Ctrl_Info.Usb_wLength == 0))
 2153              		.loc 1 812 0
 2154 034c 97F82330 		ldrb	r3, [r7, #35]	@ zero_extendqisi2
 2155 0350 022B     		cmp	r3, #2
 2156 0352 07D0     		beq	.L103
 2157              		.loc 1 812 0 is_stmt 0 discriminator 1
 2158 0354 40F20003 		movw	r3, #:lower16:pInformation
 2159 0358 C0F20003 		movt	r3, #:upper16:pInformation
 2160 035c 1B68     		ldr	r3, [r3, #0]
 2161 035e 1B8A     		ldrh	r3, [r3, #16]
 2162 0360 002B     		cmp	r3, #0
 2163 0362 08D1     		bne	.L104
 2164              	.L103:
 813:../libraries/STM32_USB-FS-Device_Driver/src/usb_core.c ****   {
 814:../libraries/STM32_USB-FS-Device_Driver/src/usb_core.c ****     /* Unsupported request */
 815:../libraries/STM32_USB-FS-Device_Driver/src/usb_core.c ****     pInformation->ControlState = STALLED;
 2165              		.loc 1 815 0 is_stmt 1
 2166 0364 40F20003 		movw	r3, #:lower16:pInformation
 2167 0368 C0F20003 		movt	r3, #:upper16:pInformation
 2168 036c 1B68     		ldr	r3, [r3, #0]
 2169 036e 4FF00802 		mov	r2, #8
 2170 0372 1A72     		strb	r2, [r3, #8]
 816:../libraries/STM32_USB-FS-Device_Driver/src/usb_core.c ****     return;
 2171              		.loc 1 816 0
 2172 0374 84E0     		b	.L87
 2173              	.L104:
 817:../libraries/STM32_USB-FS-Device_Driver/src/usb_core.c ****   }
 818:../libraries/STM32_USB-FS-Device_Driver/src/usb_core.c **** 
 819:../libraries/STM32_USB-FS-Device_Driver/src/usb_core.c **** 
 820:../libraries/STM32_USB-FS-Device_Driver/src/usb_core.c ****   if (ValBit(pInformation->USBbmRequestType, 7))
 2174              		.loc 1 820 0
 2175 0376 40F20003 		movw	r3, #:lower16:pInformation
 2176 037a C0F20003 		movt	r3, #:upper16:pInformation
 2177 037e 1B68     		ldr	r3, [r3, #0]
 2178 0380 1B78     		ldrb	r3, [r3, #0]	@ zero_extendqisi2
 2179 0382 DBB2     		uxtb	r3, r3
 2180 0384 5BB2     		sxtb	r3, r3
 2181 0386 002B     		cmp	r3, #0
 2182 0388 6ADA     		bge	.L105
 2183              	.LBB11:
 821:../libraries/STM32_USB-FS-Device_Driver/src/usb_core.c ****   {
 822:../libraries/STM32_USB-FS-Device_Driver/src/usb_core.c ****     /* Device ==> Host */
 823:../libraries/STM32_USB-FS-Device_Driver/src/usb_core.c ****     __IO uint32_t wLength = pInformation->USBwLength;
 2184              		.loc 1 823 0
 2185 038a 40F20003 		movw	r3, #:lower16:pInformation
 2186 038e C0F20003 		movt	r3, #:upper16:pInformation
 2187 0392 1B68     		ldr	r3, [r3, #0]
 2188 0394 DB88     		ldrh	r3, [r3, #6]
 2189 0396 7B60     		str	r3, [r7, #4]
 824:../libraries/STM32_USB-FS-Device_Driver/src/usb_core.c ****      
 825:../libraries/STM32_USB-FS-Device_Driver/src/usb_core.c ****     /* Restrict the data length to be the one host asks for */
 826:../libraries/STM32_USB-FS-Device_Driver/src/usb_core.c ****     if (pInformation->Ctrl_Info.Usb_wLength > wLength)
 2190              		.loc 1 826 0
 2191 0398 40F20003 		movw	r3, #:lower16:pInformation
 2192 039c C0F20003 		movt	r3, #:upper16:pInformation
 2193 03a0 1B68     		ldr	r3, [r3, #0]
 2194 03a2 1B8A     		ldrh	r3, [r3, #16]
 2195 03a4 1A46     		mov	r2, r3
 2196 03a6 7B68     		ldr	r3, [r7, #4]
 2197 03a8 9A42     		cmp	r2, r3
 2198 03aa 08D9     		bls	.L106
 827:../libraries/STM32_USB-FS-Device_Driver/src/usb_core.c ****     {
 828:../libraries/STM32_USB-FS-Device_Driver/src/usb_core.c ****       pInformation->Ctrl_Info.Usb_wLength = wLength;
 2199              		.loc 1 828 0
 2200 03ac 40F20003 		movw	r3, #:lower16:pInformation
 2201 03b0 C0F20003 		movt	r3, #:upper16:pInformation
 2202 03b4 1B68     		ldr	r3, [r3, #0]
 2203 03b6 7A68     		ldr	r2, [r7, #4]
 2204 03b8 92B2     		uxth	r2, r2
 2205 03ba 1A82     		strh	r2, [r3, #16]	@ movhi
 2206 03bc 40E0     		b	.L107
 2207              	.L106:
 829:../libraries/STM32_USB-FS-Device_Driver/src/usb_core.c ****     }
 830:../libraries/STM32_USB-FS-Device_Driver/src/usb_core.c ****     
 831:../libraries/STM32_USB-FS-Device_Driver/src/usb_core.c ****     else if (pInformation->Ctrl_Info.Usb_wLength < pInformation->USBwLength)
 2208              		.loc 1 831 0
 2209 03be 40F20003 		movw	r3, #:lower16:pInformation
 2210 03c2 C0F20003 		movt	r3, #:upper16:pInformation
 2211 03c6 1B68     		ldr	r3, [r3, #0]
 2212 03c8 1A8A     		ldrh	r2, [r3, #16]
 2213 03ca 40F20003 		movw	r3, #:lower16:pInformation
 2214 03ce C0F20003 		movt	r3, #:upper16:pInformation
 2215 03d2 1B68     		ldr	r3, [r3, #0]
 2216 03d4 DB88     		ldrh	r3, [r3, #6]
 2217 03d6 9A42     		cmp	r2, r3
 2218 03d8 32D2     		bcs	.L107
 832:../libraries/STM32_USB-FS-Device_Driver/src/usb_core.c ****     {
 833:../libraries/STM32_USB-FS-Device_Driver/src/usb_core.c ****       if (pInformation->Ctrl_Info.Usb_wLength < pProperty->MaxPacketSize)
 2219              		.loc 1 833 0
 2220 03da 40F20003 		movw	r3, #:lower16:pInformation
 2221 03de C0F20003 		movt	r3, #:upper16:pInformation
 2222 03e2 1B68     		ldr	r3, [r3, #0]
 2223 03e4 1A8A     		ldrh	r2, [r3, #16]
 2224 03e6 40F20003 		movw	r3, #:lower16:pProperty
 2225 03ea C0F20003 		movt	r3, #:upper16:pProperty
 2226 03ee 1B68     		ldr	r3, [r3, #0]
 2227 03f0 93F82C30 		ldrb	r3, [r3, #44]	@ zero_extendqisi2
 2228 03f4 9A42     		cmp	r2, r3
 2229 03f6 07D2     		bcs	.L108
 834:../libraries/STM32_USB-FS-Device_Driver/src/usb_core.c ****       {
 835:../libraries/STM32_USB-FS-Device_Driver/src/usb_core.c ****         Data_Mul_MaxPacketSize = FALSE;
 2230              		.loc 1 835 0
 2231 03f8 40F20003 		movw	r3, #:lower16:Data_Mul_MaxPacketSize
 2232 03fc C0F20003 		movt	r3, #:upper16:Data_Mul_MaxPacketSize
 2233 0400 4FF00002 		mov	r2, #0
 2234 0404 1A70     		strb	r2, [r3, #0]
 2235 0406 1BE0     		b	.L107
 2236              	.L108:
 836:../libraries/STM32_USB-FS-Device_Driver/src/usb_core.c ****       }
 837:../libraries/STM32_USB-FS-Device_Driver/src/usb_core.c ****       else if ((pInformation->Ctrl_Info.Usb_wLength % pProperty->MaxPacketSize) == 0)
 2237              		.loc 1 837 0
 2238 0408 40F20003 		movw	r3, #:lower16:pInformation
 2239 040c C0F20003 		movt	r3, #:upper16:pInformation
 2240 0410 1B68     		ldr	r3, [r3, #0]
 2241 0412 1B8A     		ldrh	r3, [r3, #16]
 2242 0414 1A46     		mov	r2, r3
 2243 0416 40F20003 		movw	r3, #:lower16:pProperty
 2244 041a C0F20003 		movt	r3, #:upper16:pProperty
 2245 041e 1B68     		ldr	r3, [r3, #0]
 2246 0420 93F82C30 		ldrb	r3, [r3, #44]	@ zero_extendqisi2
 2247 0424 92FBF3F1 		sdiv	r1, r2, r3
 2248 0428 03FB01F3 		mul	r3, r3, r1
 2249 042c D31A     		subs	r3, r2, r3
 2250 042e 002B     		cmp	r3, #0
 2251 0430 06D1     		bne	.L107
 838:../libraries/STM32_USB-FS-Device_Driver/src/usb_core.c ****       {
 839:../libraries/STM32_USB-FS-Device_Driver/src/usb_core.c ****         Data_Mul_MaxPacketSize = TRUE;
 2252              		.loc 1 839 0
 2253 0432 40F20003 		movw	r3, #:lower16:Data_Mul_MaxPacketSize
 2254 0436 C0F20003 		movt	r3, #:upper16:Data_Mul_MaxPacketSize
 2255 043a 4FF00102 		mov	r2, #1
 2256 043e 1A70     		strb	r2, [r3, #0]
 2257              	.L107:
 840:../libraries/STM32_USB-FS-Device_Driver/src/usb_core.c ****       }
 841:../libraries/STM32_USB-FS-Device_Driver/src/usb_core.c ****     }   
 842:../libraries/STM32_USB-FS-Device_Driver/src/usb_core.c **** 
 843:../libraries/STM32_USB-FS-Device_Driver/src/usb_core.c ****     pInformation->Ctrl_Info.PacketSize = pProperty->MaxPacketSize;
 2258              		.loc 1 843 0
 2259 0440 40F20003 		movw	r3, #:lower16:pInformation
 2260 0444 C0F20003 		movt	r3, #:upper16:pInformation
 2261 0448 1A68     		ldr	r2, [r3, #0]
 2262 044a 40F20003 		movw	r3, #:lower16:pProperty
 2263 044e C0F20003 		movt	r3, #:upper16:pProperty
 2264 0452 1B68     		ldr	r3, [r3, #0]
 2265 0454 93F82C30 		ldrb	r3, [r3, #44]	@ zero_extendqisi2
 2266 0458 9382     		strh	r3, [r2, #20]	@ movhi
 844:../libraries/STM32_USB-FS-Device_Driver/src/usb_core.c ****     DataStageIn();
 2267              		.loc 1 844 0
 2268 045a FFF7FEFF 		bl	DataStageIn
 2269              	.LBE11:
 845:../libraries/STM32_USB-FS-Device_Driver/src/usb_core.c ****   }
 846:../libraries/STM32_USB-FS-Device_Driver/src/usb_core.c ****   else
 847:../libraries/STM32_USB-FS-Device_Driver/src/usb_core.c ****   {
 848:../libraries/STM32_USB-FS-Device_Driver/src/usb_core.c ****     pInformation->ControlState = OUT_DATA;
 849:../libraries/STM32_USB-FS-Device_Driver/src/usb_core.c ****     vSetEPRxStatus(EP_RX_VALID); /* enable for next data reception */
 850:../libraries/STM32_USB-FS-Device_Driver/src/usb_core.c ****   }
 851:../libraries/STM32_USB-FS-Device_Driver/src/usb_core.c **** 
 852:../libraries/STM32_USB-FS-Device_Driver/src/usb_core.c ****   return;
 2270              		.loc 1 852 0
 2271 045e 0EE0     		b	.L111
 2272              	.L105:
 848:../libraries/STM32_USB-FS-Device_Driver/src/usb_core.c ****     pInformation->ControlState = OUT_DATA;
 2273              		.loc 1 848 0
 2274 0460 40F20003 		movw	r3, #:lower16:pInformation
 2275 0464 C0F20003 		movt	r3, #:upper16:pInformation
 2276 0468 1B68     		ldr	r3, [r3, #0]
 2277 046a 4FF00302 		mov	r2, #3
 2278 046e 1A72     		strb	r2, [r3, #8]
 849:../libraries/STM32_USB-FS-Device_Driver/src/usb_core.c ****     vSetEPRxStatus(EP_RX_VALID); /* enable for next data reception */
 2279              		.loc 1 849 0
 2280 0470 40F20003 		movw	r3, #:lower16:SaveRState
 2281 0474 C0F20003 		movt	r3, #:upper16:SaveRState
 2282 0478 4FF44052 		mov	r2, #12288
 2283 047c 1A80     		strh	r2, [r3, #0]	@ movhi
 2284              	.L111:
 2285              		.loc 1 852 0
 2286 047e 00BF     		nop
 2287              	.L87:
 853:../libraries/STM32_USB-FS-Device_Driver/src/usb_core.c **** }
 2288              		.loc 1 853 0
 2289 0480 07F12807 		add	r7, r7, #40
 2290 0484 BD46     		mov	sp, r7
 2291 0486 80BD     		pop	{r7, pc}
 2292              		.cfi_endproc
 2293              	.LFE68:
 2295              		.section	.text.Setup0_Process,"ax",%progbits
 2296              		.align	2
 2297              		.global	Setup0_Process
 2298              		.thumb
 2299              		.thumb_func
 2301              	Setup0_Process:
 2302              	.LFB69:
 854:../libraries/STM32_USB-FS-Device_Driver/src/usb_core.c **** 
 855:../libraries/STM32_USB-FS-Device_Driver/src/usb_core.c **** /*******************************************************************************
 856:../libraries/STM32_USB-FS-Device_Driver/src/usb_core.c **** * Function Name  : Setup0_Process
 857:../libraries/STM32_USB-FS-Device_Driver/src/usb_core.c **** * Description    : Get the device request data and dispatch to individual process.
 858:../libraries/STM32_USB-FS-Device_Driver/src/usb_core.c **** * Input          : None.
 859:../libraries/STM32_USB-FS-Device_Driver/src/usb_core.c **** * Output         : None.
 860:../libraries/STM32_USB-FS-Device_Driver/src/usb_core.c **** * Return         : Post0_Process.
 861:../libraries/STM32_USB-FS-Device_Driver/src/usb_core.c **** *******************************************************************************/
 862:../libraries/STM32_USB-FS-Device_Driver/src/usb_core.c **** uint8_t Setup0_Process(void)
 863:../libraries/STM32_USB-FS-Device_Driver/src/usb_core.c **** {
 2303              		.loc 1 863 0
 2304              		.cfi_startproc
 2305              		@ args = 0, pretend = 0, frame = 8
 2306              		@ frame_needed = 1, uses_anonymous_args = 0
 2307 0000 90B5     		push	{r4, r7, lr}
 2308              	.LCFI37:
 2309              		.cfi_def_cfa_offset 12
 2310              		.cfi_offset 4, -12
 2311              		.cfi_offset 7, -8
 2312              		.cfi_offset 14, -4
 2313 0002 83B0     		sub	sp, sp, #12
 2314              	.LCFI38:
 2315              		.cfi_def_cfa_offset 24
 2316 0004 00AF     		add	r7, sp, #0
 2317              	.LCFI39:
 2318              		.cfi_def_cfa_register 7
 864:../libraries/STM32_USB-FS-Device_Driver/src/usb_core.c **** 
 865:../libraries/STM32_USB-FS-Device_Driver/src/usb_core.c ****   union
 866:../libraries/STM32_USB-FS-Device_Driver/src/usb_core.c ****   {
 867:../libraries/STM32_USB-FS-Device_Driver/src/usb_core.c ****     uint8_t* b;
 868:../libraries/STM32_USB-FS-Device_Driver/src/usb_core.c ****     uint16_t* w;
 869:../libraries/STM32_USB-FS-Device_Driver/src/usb_core.c ****   } pBuf;
 870:../libraries/STM32_USB-FS-Device_Driver/src/usb_core.c ****   uint16_t offset = 1;
 2319              		.loc 1 870 0
 2320 0006 4FF00103 		mov	r3, #1
 2321 000a FB80     		strh	r3, [r7, #6]	@ movhi
 871:../libraries/STM32_USB-FS-Device_Driver/src/usb_core.c ****   
 872:../libraries/STM32_USB-FS-Device_Driver/src/usb_core.c ****   pBuf.b = PMAAddr + (uint8_t *)(_GetEPRxAddr(ENDP0) * 2); /* *2 for 32 bits addr */
 2322              		.loc 1 872 0
 2323 000c 45F65043 		movw	r3, #23632
 2324 0010 C4F20003 		movt	r3, 16384
 2325 0014 1B68     		ldr	r3, [r3, #0]
 2326 0016 9BB2     		uxth	r3, r3
 2327 0018 1A46     		mov	r2, r3
 2328 001a 43F20403 		movw	r3, #12292
 2329 001e C2F20003 		movt	r3, 8192
 2330 0022 D318     		adds	r3, r2, r3
 2331 0024 4FEA4303 		lsl	r3, r3, #1
 2332 0028 1B68     		ldr	r3, [r3, #0]
 2333 002a 9BB2     		uxth	r3, r3
 2334 002c 4FEA4303 		lsl	r3, r3, #1
 2335 0030 03F18043 		add	r3, r3, #1073741824
 2336 0034 03F5C043 		add	r3, r3, #24576
 2337 0038 3B60     		str	r3, [r7, #0]
 873:../libraries/STM32_USB-FS-Device_Driver/src/usb_core.c **** 
 874:../libraries/STM32_USB-FS-Device_Driver/src/usb_core.c ****   if (pInformation->ControlState != PAUSE)
 2338              		.loc 1 874 0
 2339 003a 40F20003 		movw	r3, #:lower16:pInformation
 2340 003e C0F20003 		movt	r3, #:upper16:pInformation
 2341 0042 1B68     		ldr	r3, [r3, #0]
 2342 0044 1B7A     		ldrb	r3, [r3, #8]	@ zero_extendqisi2
 2343 0046 092B     		cmp	r3, #9
 2344 0048 4DD0     		beq	.L113
 875:../libraries/STM32_USB-FS-Device_Driver/src/usb_core.c ****   {
 876:../libraries/STM32_USB-FS-Device_Driver/src/usb_core.c ****     pInformation->USBbmRequestType = *pBuf.b++; /* bmRequestType */
 2345              		.loc 1 876 0
 2346 004a 40F20003 		movw	r3, #:lower16:pInformation
 2347 004e C0F20003 		movt	r3, #:upper16:pInformation
 2348 0052 1A68     		ldr	r2, [r3, #0]
 2349 0054 3B68     		ldr	r3, [r7, #0]
 2350 0056 1978     		ldrb	r1, [r3, #0]	@ zero_extendqisi2
 2351 0058 1170     		strb	r1, [r2, #0]
 2352 005a 03F10103 		add	r3, r3, #1
 2353 005e 3B60     		str	r3, [r7, #0]
 877:../libraries/STM32_USB-FS-Device_Driver/src/usb_core.c ****     pInformation->USBbRequest = *pBuf.b++; /* bRequest */
 2354              		.loc 1 877 0
 2355 0060 40F20003 		movw	r3, #:lower16:pInformation
 2356 0064 C0F20003 		movt	r3, #:upper16:pInformation
 2357 0068 1A68     		ldr	r2, [r3, #0]
 2358 006a 3B68     		ldr	r3, [r7, #0]
 2359 006c 1978     		ldrb	r1, [r3, #0]	@ zero_extendqisi2
 2360 006e 5170     		strb	r1, [r2, #1]
 2361 0070 03F10103 		add	r3, r3, #1
 2362 0074 3B60     		str	r3, [r7, #0]
 878:../libraries/STM32_USB-FS-Device_Driver/src/usb_core.c ****     pBuf.w += offset;  /* word not accessed because of 32 bits addressing */
 2363              		.loc 1 878 0
 2364 0076 3A68     		ldr	r2, [r7, #0]
 2365 0078 FB88     		ldrh	r3, [r7, #6]
 2366 007a 4FEA4303 		lsl	r3, r3, #1
 2367 007e D318     		adds	r3, r2, r3
 2368 0080 3B60     		str	r3, [r7, #0]
 879:../libraries/STM32_USB-FS-Device_Driver/src/usb_core.c ****     pInformation->USBwValue = ByteSwap(*pBuf.w++); /* wValue */
 2369              		.loc 1 879 0
 2370 0082 40F20003 		movw	r3, #:lower16:pInformation
 2371 0086 C0F20003 		movt	r3, #:upper16:pInformation
 2372 008a 1C68     		ldr	r4, [r3, #0]
 2373 008c 3B68     		ldr	r3, [r7, #0]
 2374 008e 1A88     		ldrh	r2, [r3, #0]
 2375 0090 03F10203 		add	r3, r3, #2
 2376 0094 3B60     		str	r3, [r7, #0]
 2377 0096 1046     		mov	r0, r2
 2378 0098 FFF7FEFF 		bl	ByteSwap
 2379 009c 0346     		mov	r3, r0
 2380 009e 6380     		strh	r3, [r4, #2]	@ movhi
 880:../libraries/STM32_USB-FS-Device_Driver/src/usb_core.c ****     pBuf.w += offset;  /* word not accessed because of 32 bits addressing */
 2381              		.loc 1 880 0
 2382 00a0 3A68     		ldr	r2, [r7, #0]
 2383 00a2 FB88     		ldrh	r3, [r7, #6]
 2384 00a4 4FEA4303 		lsl	r3, r3, #1
 2385 00a8 D318     		adds	r3, r2, r3
 2386 00aa 3B60     		str	r3, [r7, #0]
 881:../libraries/STM32_USB-FS-Device_Driver/src/usb_core.c ****     pInformation->USBwIndex  = ByteSwap(*pBuf.w++); /* wIndex */
 2387              		.loc 1 881 0
 2388 00ac 40F20003 		movw	r3, #:lower16:pInformation
 2389 00b0 C0F20003 		movt	r3, #:upper16:pInformation
 2390 00b4 1C68     		ldr	r4, [r3, #0]
 2391 00b6 3B68     		ldr	r3, [r7, #0]
 2392 00b8 1A88     		ldrh	r2, [r3, #0]
 2393 00ba 03F10203 		add	r3, r3, #2
 2394 00be 3B60     		str	r3, [r7, #0]
 2395 00c0 1046     		mov	r0, r2
 2396 00c2 FFF7FEFF 		bl	ByteSwap
 2397 00c6 0346     		mov	r3, r0
 2398 00c8 A380     		strh	r3, [r4, #4]	@ movhi
 882:../libraries/STM32_USB-FS-Device_Driver/src/usb_core.c ****     pBuf.w += offset;  /* word not accessed because of 32 bits addressing */
 2399              		.loc 1 882 0
 2400 00ca 3A68     		ldr	r2, [r7, #0]
 2401 00cc FB88     		ldrh	r3, [r7, #6]
 2402 00ce 4FEA4303 		lsl	r3, r3, #1
 2403 00d2 D318     		adds	r3, r2, r3
 2404 00d4 3B60     		str	r3, [r7, #0]
 883:../libraries/STM32_USB-FS-Device_Driver/src/usb_core.c ****     pInformation->USBwLength = *pBuf.w; /* wLength */
 2405              		.loc 1 883 0
 2406 00d6 40F20003 		movw	r3, #:lower16:pInformation
 2407 00da C0F20003 		movt	r3, #:upper16:pInformation
 2408 00de 1B68     		ldr	r3, [r3, #0]
 2409 00e0 3A68     		ldr	r2, [r7, #0]
 2410 00e2 1288     		ldrh	r2, [r2, #0]
 2411 00e4 DA80     		strh	r2, [r3, #6]	@ movhi
 2412              	.L113:
 884:../libraries/STM32_USB-FS-Device_Driver/src/usb_core.c ****   }
 885:../libraries/STM32_USB-FS-Device_Driver/src/usb_core.c **** 
 886:../libraries/STM32_USB-FS-Device_Driver/src/usb_core.c ****   pInformation->ControlState = SETTING_UP;
 2413              		.loc 1 886 0
 2414 00e6 40F20003 		movw	r3, #:lower16:pInformation
 2415 00ea C0F20003 		movt	r3, #:upper16:pInformation
 2416 00ee 1B68     		ldr	r3, [r3, #0]
 2417 00f0 4FF00102 		mov	r2, #1
 2418 00f4 1A72     		strb	r2, [r3, #8]
 887:../libraries/STM32_USB-FS-Device_Driver/src/usb_core.c ****   if (pInformation->USBwLength == 0)
 2419              		.loc 1 887 0
 2420 00f6 40F20003 		movw	r3, #:lower16:pInformation
 2421 00fa C0F20003 		movt	r3, #:upper16:pInformation
 2422 00fe 1B68     		ldr	r3, [r3, #0]
 2423 0100 DB88     		ldrh	r3, [r3, #6]
 2424 0102 002B     		cmp	r3, #0
 2425 0104 02D1     		bne	.L114
 888:../libraries/STM32_USB-FS-Device_Driver/src/usb_core.c ****   {
 889:../libraries/STM32_USB-FS-Device_Driver/src/usb_core.c ****     /* Setup with no data stage */
 890:../libraries/STM32_USB-FS-Device_Driver/src/usb_core.c ****     NoData_Setup0();
 2426              		.loc 1 890 0
 2427 0106 FFF7FEFF 		bl	NoData_Setup0
 2428 010a 01E0     		b	.L115
 2429              	.L114:
 891:../libraries/STM32_USB-FS-Device_Driver/src/usb_core.c ****   }
 892:../libraries/STM32_USB-FS-Device_Driver/src/usb_core.c ****   else
 893:../libraries/STM32_USB-FS-Device_Driver/src/usb_core.c ****   {
 894:../libraries/STM32_USB-FS-Device_Driver/src/usb_core.c ****     /* Setup with data stage */
 895:../libraries/STM32_USB-FS-Device_Driver/src/usb_core.c ****     Data_Setup0();
 2430              		.loc 1 895 0
 2431 010c FFF7FEFF 		bl	Data_Setup0
 2432              	.L115:
 896:../libraries/STM32_USB-FS-Device_Driver/src/usb_core.c ****   }
 897:../libraries/STM32_USB-FS-Device_Driver/src/usb_core.c ****   return Post0_Process();
 2433              		.loc 1 897 0
 2434 0110 FFF7FEFF 		bl	Post0_Process
 2435 0114 0346     		mov	r3, r0
 898:../libraries/STM32_USB-FS-Device_Driver/src/usb_core.c **** }
 2436              		.loc 1 898 0
 2437 0116 1846     		mov	r0, r3
 2438 0118 07F10C07 		add	r7, r7, #12
 2439 011c BD46     		mov	sp, r7
 2440 011e 90BD     		pop	{r4, r7, pc}
 2441              		.cfi_endproc
 2442              	.LFE69:
 2444              		.section	.text.In0_Process,"ax",%progbits
 2445              		.align	2
 2446              		.global	In0_Process
 2447              		.thumb
 2448              		.thumb_func
 2450              	In0_Process:
 2451              	.LFB70:
 899:../libraries/STM32_USB-FS-Device_Driver/src/usb_core.c **** 
 900:../libraries/STM32_USB-FS-Device_Driver/src/usb_core.c **** /*******************************************************************************
 901:../libraries/STM32_USB-FS-Device_Driver/src/usb_core.c **** * Function Name  : In0_Process
 902:../libraries/STM32_USB-FS-Device_Driver/src/usb_core.c **** * Description    : Process the IN token on all default endpoint.
 903:../libraries/STM32_USB-FS-Device_Driver/src/usb_core.c **** * Input          : None.
 904:../libraries/STM32_USB-FS-Device_Driver/src/usb_core.c **** * Output         : None.
 905:../libraries/STM32_USB-FS-Device_Driver/src/usb_core.c **** * Return         : Post0_Process.
 906:../libraries/STM32_USB-FS-Device_Driver/src/usb_core.c **** *******************************************************************************/
 907:../libraries/STM32_USB-FS-Device_Driver/src/usb_core.c **** uint8_t In0_Process(void)
 908:../libraries/STM32_USB-FS-Device_Driver/src/usb_core.c **** {
 2452              		.loc 1 908 0
 2453              		.cfi_startproc
 2454              		@ args = 0, pretend = 0, frame = 8
 2455              		@ frame_needed = 1, uses_anonymous_args = 0
 2456 0000 80B5     		push	{r7, lr}
 2457              	.LCFI40:
 2458              		.cfi_def_cfa_offset 8
 2459              		.cfi_offset 7, -8
 2460              		.cfi_offset 14, -4
 2461 0002 82B0     		sub	sp, sp, #8
 2462              	.LCFI41:
 2463              		.cfi_def_cfa_offset 16
 2464 0004 00AF     		add	r7, sp, #0
 2465              	.LCFI42:
 2466              		.cfi_def_cfa_register 7
 909:../libraries/STM32_USB-FS-Device_Driver/src/usb_core.c ****   uint32_t ControlState = pInformation->ControlState;
 2467              		.loc 1 909 0
 2468 0006 40F20003 		movw	r3, #:lower16:pInformation
 2469 000a C0F20003 		movt	r3, #:upper16:pInformation
 2470 000e 1B68     		ldr	r3, [r3, #0]
 2471 0010 1B7A     		ldrb	r3, [r3, #8]	@ zero_extendqisi2
 2472 0012 7B60     		str	r3, [r7, #4]
 910:../libraries/STM32_USB-FS-Device_Driver/src/usb_core.c **** 
 911:../libraries/STM32_USB-FS-Device_Driver/src/usb_core.c ****   if ((ControlState == IN_DATA) || (ControlState == LAST_IN_DATA))
 2473              		.loc 1 911 0
 2474 0014 7B68     		ldr	r3, [r7, #4]
 2475 0016 022B     		cmp	r3, #2
 2476 0018 02D0     		beq	.L118
 2477              		.loc 1 911 0 is_stmt 0 discriminator 1
 2478 001a 7B68     		ldr	r3, [r7, #4]
 2479 001c 042B     		cmp	r3, #4
 2480 001e 09D1     		bne	.L119
 2481              	.L118:
 912:../libraries/STM32_USB-FS-Device_Driver/src/usb_core.c ****   {
 913:../libraries/STM32_USB-FS-Device_Driver/src/usb_core.c ****     DataStageIn();
 2482              		.loc 1 913 0 is_stmt 1
 2483 0020 FFF7FEFF 		bl	DataStageIn
 914:../libraries/STM32_USB-FS-Device_Driver/src/usb_core.c ****     /* ControlState may be changed outside the function */
 915:../libraries/STM32_USB-FS-Device_Driver/src/usb_core.c ****     ControlState = pInformation->ControlState;
 2484              		.loc 1 915 0
 2485 0024 40F20003 		movw	r3, #:lower16:pInformation
 2486 0028 C0F20003 		movt	r3, #:upper16:pInformation
 2487 002c 1B68     		ldr	r3, [r3, #0]
 2488 002e 1B7A     		ldrb	r3, [r3, #8]	@ zero_extendqisi2
 2489 0030 7B60     		str	r3, [r7, #4]
 2490 0032 32E0     		b	.L120
 2491              	.L119:
 916:../libraries/STM32_USB-FS-Device_Driver/src/usb_core.c ****   }
 917:../libraries/STM32_USB-FS-Device_Driver/src/usb_core.c **** 
 918:../libraries/STM32_USB-FS-Device_Driver/src/usb_core.c ****   else if (ControlState == WAIT_STATUS_IN)
 2492              		.loc 1 918 0
 2493 0034 7B68     		ldr	r3, [r7, #4]
 2494 0036 062B     		cmp	r3, #6
 2495 0038 2CD1     		bne	.L121
 919:../libraries/STM32_USB-FS-Device_Driver/src/usb_core.c ****   {
 920:../libraries/STM32_USB-FS-Device_Driver/src/usb_core.c ****     if ((pInformation->USBbRequest == SET_ADDRESS) &&
 2496              		.loc 1 920 0
 2497 003a 40F20003 		movw	r3, #:lower16:pInformation
 2498 003e C0F20003 		movt	r3, #:upper16:pInformation
 2499 0042 1B68     		ldr	r3, [r3, #0]
 2500 0044 5B78     		ldrb	r3, [r3, #1]	@ zero_extendqisi2
 2501 0046 052B     		cmp	r3, #5
 2502 0048 19D1     		bne	.L122
 921:../libraries/STM32_USB-FS-Device_Driver/src/usb_core.c ****         (Type_Recipient == (STANDARD_REQUEST | DEVICE_RECIPIENT)))
 2503              		.loc 1 921 0 discriminator 1
 2504 004a 40F20003 		movw	r3, #:lower16:pInformation
 2505 004e C0F20003 		movt	r3, #:upper16:pInformation
 2506 0052 1B68     		ldr	r3, [r3, #0]
 2507 0054 1B78     		ldrb	r3, [r3, #0]	@ zero_extendqisi2
 2508 0056 03F07F03 		and	r3, r3, #127
 920:../libraries/STM32_USB-FS-Device_Driver/src/usb_core.c ****     if ((pInformation->USBbRequest == SET_ADDRESS) &&
 2509              		.loc 1 920 0 discriminator 1
 2510 005a 002B     		cmp	r3, #0
 2511 005c 0FD1     		bne	.L122
 922:../libraries/STM32_USB-FS-Device_Driver/src/usb_core.c ****     {
 923:../libraries/STM32_USB-FS-Device_Driver/src/usb_core.c ****       SetDeviceAddress(pInformation->USBwValue0);
 2512              		.loc 1 923 0
 2513 005e 40F20003 		movw	r3, #:lower16:pInformation
 2514 0062 C0F20003 		movt	r3, #:upper16:pInformation
 2515 0066 1B68     		ldr	r3, [r3, #0]
 2516 0068 DB78     		ldrb	r3, [r3, #3]	@ zero_extendqisi2
 2517 006a 1846     		mov	r0, r3
 2518 006c FFF7FEFF 		bl	SetDeviceAddress
 924:../libraries/STM32_USB-FS-Device_Driver/src/usb_core.c ****       pUser_Standard_Requests->User_SetDeviceAddress();
 2519              		.loc 1 924 0
 2520 0070 40F20003 		movw	r3, #:lower16:pUser_Standard_Requests
 2521 0074 C0F20003 		movt	r3, #:upper16:pUser_Standard_Requests
 2522 0078 1B68     		ldr	r3, [r3, #0]
 2523 007a 1B6A     		ldr	r3, [r3, #32]
 2524 007c 9847     		blx	r3
 2525              	.L122:
 925:../libraries/STM32_USB-FS-Device_Driver/src/usb_core.c ****     }
 926:../libraries/STM32_USB-FS-Device_Driver/src/usb_core.c ****     (*pProperty->Process_Status_IN)();
 2526              		.loc 1 926 0
 2527 007e 40F20003 		movw	r3, #:lower16:pProperty
 2528 0082 C0F20003 		movt	r3, #:upper16:pProperty
 2529 0086 1B68     		ldr	r3, [r3, #0]
 2530 0088 9B68     		ldr	r3, [r3, #8]
 2531 008a 9847     		blx	r3
 927:../libraries/STM32_USB-FS-Device_Driver/src/usb_core.c ****     ControlState = STALLED;
 2532              		.loc 1 927 0
 2533 008c 4FF00803 		mov	r3, #8
 2534 0090 7B60     		str	r3, [r7, #4]
 2535 0092 02E0     		b	.L120
 2536              	.L121:
 928:../libraries/STM32_USB-FS-Device_Driver/src/usb_core.c ****   }
 929:../libraries/STM32_USB-FS-Device_Driver/src/usb_core.c **** 
 930:../libraries/STM32_USB-FS-Device_Driver/src/usb_core.c ****   else
 931:../libraries/STM32_USB-FS-Device_Driver/src/usb_core.c ****   {
 932:../libraries/STM32_USB-FS-Device_Driver/src/usb_core.c ****     ControlState = STALLED;
 2537              		.loc 1 932 0
 2538 0094 4FF00803 		mov	r3, #8
 2539 0098 7B60     		str	r3, [r7, #4]
 2540              	.L120:
 933:../libraries/STM32_USB-FS-Device_Driver/src/usb_core.c ****   }
 934:../libraries/STM32_USB-FS-Device_Driver/src/usb_core.c **** 
 935:../libraries/STM32_USB-FS-Device_Driver/src/usb_core.c ****   pInformation->ControlState = ControlState;
 2541              		.loc 1 935 0
 2542 009a 40F20003 		movw	r3, #:lower16:pInformation
 2543 009e C0F20003 		movt	r3, #:upper16:pInformation
 2544 00a2 1B68     		ldr	r3, [r3, #0]
 2545 00a4 7A68     		ldr	r2, [r7, #4]
 2546 00a6 D2B2     		uxtb	r2, r2
 2547 00a8 1A72     		strb	r2, [r3, #8]
 936:../libraries/STM32_USB-FS-Device_Driver/src/usb_core.c **** 
 937:../libraries/STM32_USB-FS-Device_Driver/src/usb_core.c ****   return Post0_Process();
 2548              		.loc 1 937 0
 2549 00aa FFF7FEFF 		bl	Post0_Process
 2550 00ae 0346     		mov	r3, r0
 938:../libraries/STM32_USB-FS-Device_Driver/src/usb_core.c **** }
 2551              		.loc 1 938 0
 2552 00b0 1846     		mov	r0, r3
 2553 00b2 07F10807 		add	r7, r7, #8
 2554 00b6 BD46     		mov	sp, r7
 2555 00b8 80BD     		pop	{r7, pc}
 2556              		.cfi_endproc
 2557              	.LFE70:
 2559 00ba 00BF     		.section	.text.Out0_Process,"ax",%progbits
 2560              		.align	2
 2561              		.global	Out0_Process
 2562              		.thumb
 2563              		.thumb_func
 2565              	Out0_Process:
 2566              	.LFB71:
 939:../libraries/STM32_USB-FS-Device_Driver/src/usb_core.c **** 
 940:../libraries/STM32_USB-FS-Device_Driver/src/usb_core.c **** /*******************************************************************************
 941:../libraries/STM32_USB-FS-Device_Driver/src/usb_core.c **** * Function Name  : Out0_Process
 942:../libraries/STM32_USB-FS-Device_Driver/src/usb_core.c **** * Description    : Process the OUT token on all default endpoint.
 943:../libraries/STM32_USB-FS-Device_Driver/src/usb_core.c **** * Input          : None.
 944:../libraries/STM32_USB-FS-Device_Driver/src/usb_core.c **** * Output         : None.
 945:../libraries/STM32_USB-FS-Device_Driver/src/usb_core.c **** * Return         : Post0_Process.
 946:../libraries/STM32_USB-FS-Device_Driver/src/usb_core.c **** *******************************************************************************/
 947:../libraries/STM32_USB-FS-Device_Driver/src/usb_core.c **** uint8_t Out0_Process(void)
 948:../libraries/STM32_USB-FS-Device_Driver/src/usb_core.c **** {
 2567              		.loc 1 948 0
 2568              		.cfi_startproc
 2569              		@ args = 0, pretend = 0, frame = 8
 2570              		@ frame_needed = 1, uses_anonymous_args = 0
 2571 0000 80B5     		push	{r7, lr}
 2572              	.LCFI43:
 2573              		.cfi_def_cfa_offset 8
 2574              		.cfi_offset 7, -8
 2575              		.cfi_offset 14, -4
 2576 0002 82B0     		sub	sp, sp, #8
 2577              	.LCFI44:
 2578              		.cfi_def_cfa_offset 16
 2579 0004 00AF     		add	r7, sp, #0
 2580              	.LCFI45:
 2581              		.cfi_def_cfa_register 7
 949:../libraries/STM32_USB-FS-Device_Driver/src/usb_core.c ****   uint32_t ControlState = pInformation->ControlState;
 2582              		.loc 1 949 0
 2583 0006 40F20003 		movw	r3, #:lower16:pInformation
 2584 000a C0F20003 		movt	r3, #:upper16:pInformation
 2585 000e 1B68     		ldr	r3, [r3, #0]
 2586 0010 1B7A     		ldrb	r3, [r3, #8]	@ zero_extendqisi2
 2587 0012 7B60     		str	r3, [r7, #4]
 950:../libraries/STM32_USB-FS-Device_Driver/src/usb_core.c **** 
 951:../libraries/STM32_USB-FS-Device_Driver/src/usb_core.c ****   if ((ControlState == IN_DATA) || (ControlState == LAST_IN_DATA))
 2588              		.loc 1 951 0
 2589 0014 7B68     		ldr	r3, [r7, #4]
 2590 0016 022B     		cmp	r3, #2
 2591 0018 02D0     		beq	.L125
 2592              		.loc 1 951 0 is_stmt 0 discriminator 1
 2593 001a 7B68     		ldr	r3, [r7, #4]
 2594 001c 042B     		cmp	r3, #4
 2595 001e 03D1     		bne	.L126
 2596              	.L125:
 952:../libraries/STM32_USB-FS-Device_Driver/src/usb_core.c ****   {
 953:../libraries/STM32_USB-FS-Device_Driver/src/usb_core.c ****     /* host aborts the transfer before finish */
 954:../libraries/STM32_USB-FS-Device_Driver/src/usb_core.c ****     ControlState = STALLED;
 2597              		.loc 1 954 0 is_stmt 1
 2598 0020 4FF00803 		mov	r3, #8
 2599 0024 7B60     		str	r3, [r7, #4]
 2600 0026 20E0     		b	.L127
 2601              	.L126:
 955:../libraries/STM32_USB-FS-Device_Driver/src/usb_core.c ****   }
 956:../libraries/STM32_USB-FS-Device_Driver/src/usb_core.c ****   else if ((ControlState == OUT_DATA) || (ControlState == LAST_OUT_DATA))
 2602              		.loc 1 956 0
 2603 0028 7B68     		ldr	r3, [r7, #4]
 2604 002a 032B     		cmp	r3, #3
 2605 002c 02D0     		beq	.L128
 2606              		.loc 1 956 0 is_stmt 0 discriminator 1
 2607 002e 7B68     		ldr	r3, [r7, #4]
 2608 0030 052B     		cmp	r3, #5
 2609 0032 09D1     		bne	.L129
 2610              	.L128:
 957:../libraries/STM32_USB-FS-Device_Driver/src/usb_core.c ****   {
 958:../libraries/STM32_USB-FS-Device_Driver/src/usb_core.c ****     DataStageOut();
 2611              		.loc 1 958 0 is_stmt 1
 2612 0034 FFF7FEFF 		bl	DataStageOut
 959:../libraries/STM32_USB-FS-Device_Driver/src/usb_core.c ****     ControlState = pInformation->ControlState; /* may be changed outside the function */
 2613              		.loc 1 959 0
 2614 0038 40F20003 		movw	r3, #:lower16:pInformation
 2615 003c C0F20003 		movt	r3, #:upper16:pInformation
 2616 0040 1B68     		ldr	r3, [r3, #0]
 2617 0042 1B7A     		ldrb	r3, [r3, #8]	@ zero_extendqisi2
 2618 0044 7B60     		str	r3, [r7, #4]
 2619 0046 10E0     		b	.L127
 2620              	.L129:
 960:../libraries/STM32_USB-FS-Device_Driver/src/usb_core.c ****   }
 961:../libraries/STM32_USB-FS-Device_Driver/src/usb_core.c **** 
 962:../libraries/STM32_USB-FS-Device_Driver/src/usb_core.c ****   else if (ControlState == WAIT_STATUS_OUT)
 2621              		.loc 1 962 0
 2622 0048 7B68     		ldr	r3, [r7, #4]
 2623 004a 072B     		cmp	r3, #7
 2624 004c 0AD1     		bne	.L130
 963:../libraries/STM32_USB-FS-Device_Driver/src/usb_core.c ****   {
 964:../libraries/STM32_USB-FS-Device_Driver/src/usb_core.c ****     (*pProperty->Process_Status_OUT)();
 2625              		.loc 1 964 0
 2626 004e 40F20003 		movw	r3, #:lower16:pProperty
 2627 0052 C0F20003 		movt	r3, #:upper16:pProperty
 2628 0056 1B68     		ldr	r3, [r3, #0]
 2629 0058 DB68     		ldr	r3, [r3, #12]
 2630 005a 9847     		blx	r3
 965:../libraries/STM32_USB-FS-Device_Driver/src/usb_core.c ****     ControlState = STALLED;
 2631              		.loc 1 965 0
 2632 005c 4FF00803 		mov	r3, #8
 2633 0060 7B60     		str	r3, [r7, #4]
 2634 0062 02E0     		b	.L127
 2635              	.L130:
 966:../libraries/STM32_USB-FS-Device_Driver/src/usb_core.c ****   }
 967:../libraries/STM32_USB-FS-Device_Driver/src/usb_core.c **** 
 968:../libraries/STM32_USB-FS-Device_Driver/src/usb_core.c **** 
 969:../libraries/STM32_USB-FS-Device_Driver/src/usb_core.c ****   /* Unexpect state, STALL the endpoint */
 970:../libraries/STM32_USB-FS-Device_Driver/src/usb_core.c ****   else
 971:../libraries/STM32_USB-FS-Device_Driver/src/usb_core.c ****   {
 972:../libraries/STM32_USB-FS-Device_Driver/src/usb_core.c ****     ControlState = STALLED;
 2636              		.loc 1 972 0
 2637 0064 4FF00803 		mov	r3, #8
 2638 0068 7B60     		str	r3, [r7, #4]
 2639              	.L127:
 973:../libraries/STM32_USB-FS-Device_Driver/src/usb_core.c ****   }
 974:../libraries/STM32_USB-FS-Device_Driver/src/usb_core.c **** 
 975:../libraries/STM32_USB-FS-Device_Driver/src/usb_core.c ****   pInformation->ControlState = ControlState;
 2640              		.loc 1 975 0
 2641 006a 40F20003 		movw	r3, #:lower16:pInformation
 2642 006e C0F20003 		movt	r3, #:upper16:pInformation
 2643 0072 1B68     		ldr	r3, [r3, #0]
 2644 0074 7A68     		ldr	r2, [r7, #4]
 2645 0076 D2B2     		uxtb	r2, r2
 2646 0078 1A72     		strb	r2, [r3, #8]
 976:../libraries/STM32_USB-FS-Device_Driver/src/usb_core.c **** 
 977:../libraries/STM32_USB-FS-Device_Driver/src/usb_core.c ****   return Post0_Process();
 2647              		.loc 1 977 0
 2648 007a FFF7FEFF 		bl	Post0_Process
 2649 007e 0346     		mov	r3, r0
 978:../libraries/STM32_USB-FS-Device_Driver/src/usb_core.c **** }
 2650              		.loc 1 978 0
 2651 0080 1846     		mov	r0, r3
 2652 0082 07F10807 		add	r7, r7, #8
 2653 0086 BD46     		mov	sp, r7
 2654 0088 80BD     		pop	{r7, pc}
 2655              		.cfi_endproc
 2656              	.LFE71:
 2658 008a 00BF     		.section	.text.Post0_Process,"ax",%progbits
 2659              		.align	2
 2660              		.global	Post0_Process
 2661              		.thumb
 2662              		.thumb_func
 2664              	Post0_Process:
 2665              	.LFB72:
 979:../libraries/STM32_USB-FS-Device_Driver/src/usb_core.c **** 
 980:../libraries/STM32_USB-FS-Device_Driver/src/usb_core.c **** /*******************************************************************************
 981:../libraries/STM32_USB-FS-Device_Driver/src/usb_core.c **** * Function Name  : Post0_Process
 982:../libraries/STM32_USB-FS-Device_Driver/src/usb_core.c **** * Description    : Stall the Endpoint 0 in case of error.
 983:../libraries/STM32_USB-FS-Device_Driver/src/usb_core.c **** * Input          : None.
 984:../libraries/STM32_USB-FS-Device_Driver/src/usb_core.c **** * Output         : None.
 985:../libraries/STM32_USB-FS-Device_Driver/src/usb_core.c **** * Return         : - 0 if the control State is in PAUSE
 986:../libraries/STM32_USB-FS-Device_Driver/src/usb_core.c **** *                  - 1 if not.
 987:../libraries/STM32_USB-FS-Device_Driver/src/usb_core.c **** *******************************************************************************/
 988:../libraries/STM32_USB-FS-Device_Driver/src/usb_core.c **** uint8_t Post0_Process(void)
 989:../libraries/STM32_USB-FS-Device_Driver/src/usb_core.c **** {
 2666              		.loc 1 989 0
 2667              		.cfi_startproc
 2668              		@ args = 0, pretend = 0, frame = 0
 2669              		@ frame_needed = 1, uses_anonymous_args = 0
 2670 0000 80B5     		push	{r7, lr}
 2671              	.LCFI46:
 2672              		.cfi_def_cfa_offset 8
 2673              		.cfi_offset 7, -8
 2674              		.cfi_offset 14, -4
 2675 0002 00AF     		add	r7, sp, #0
 2676              	.LCFI47:
 2677              		.cfi_def_cfa_register 7
 990:../libraries/STM32_USB-FS-Device_Driver/src/usb_core.c ****    
 991:../libraries/STM32_USB-FS-Device_Driver/src/usb_core.c ****   SetEPRxCount(ENDP0, Device_Property.MaxPacketSize);
 2678              		.loc 1 991 0
 2679 0004 40F20003 		movw	r3, #:lower16:Device_Property
 2680 0008 C0F20003 		movt	r3, #:upper16:Device_Property
 2681 000c 93F82C30 		ldrb	r3, [r3, #44]	@ zero_extendqisi2
 2682 0010 4FF00000 		mov	r0, #0
 2683 0014 1946     		mov	r1, r3
 2684 0016 FFF7FEFF 		bl	SetEPRxCount
 992:../libraries/STM32_USB-FS-Device_Driver/src/usb_core.c **** 
 993:../libraries/STM32_USB-FS-Device_Driver/src/usb_core.c ****   if (pInformation->ControlState == STALLED)
 2685              		.loc 1 993 0
 2686 001a 40F20003 		movw	r3, #:lower16:pInformation
 2687 001e C0F20003 		movt	r3, #:upper16:pInformation
 2688 0022 1B68     		ldr	r3, [r3, #0]
 2689 0024 1B7A     		ldrb	r3, [r3, #8]	@ zero_extendqisi2
 2690 0026 082B     		cmp	r3, #8
 2691 0028 0DD1     		bne	.L133
 994:../libraries/STM32_USB-FS-Device_Driver/src/usb_core.c ****   {
 995:../libraries/STM32_USB-FS-Device_Driver/src/usb_core.c ****     vSetEPRxStatus(EP_RX_STALL);
 2692              		.loc 1 995 0
 2693 002a 40F20003 		movw	r3, #:lower16:SaveRState
 2694 002e C0F20003 		movt	r3, #:upper16:SaveRState
 2695 0032 4FF48052 		mov	r2, #4096
 2696 0036 1A80     		strh	r2, [r3, #0]	@ movhi
 996:../libraries/STM32_USB-FS-Device_Driver/src/usb_core.c ****     vSetEPTxStatus(EP_TX_STALL);
 2697              		.loc 1 996 0
 2698 0038 40F20003 		movw	r3, #:lower16:SaveTState
 2699 003c C0F20003 		movt	r3, #:upper16:SaveTState
 2700 0040 4FF01002 		mov	r2, #16
 2701 0044 1A80     		strh	r2, [r3, #0]	@ movhi
 2702              	.L133:
 997:../libraries/STM32_USB-FS-Device_Driver/src/usb_core.c ****   }
 998:../libraries/STM32_USB-FS-Device_Driver/src/usb_core.c **** 
 999:../libraries/STM32_USB-FS-Device_Driver/src/usb_core.c ****   return (pInformation->ControlState == PAUSE);
 2703              		.loc 1 999 0
 2704 0046 40F20003 		movw	r3, #:lower16:pInformation
 2705 004a C0F20003 		movt	r3, #:upper16:pInformation
 2706 004e 1B68     		ldr	r3, [r3, #0]
 2707 0050 1B7A     		ldrb	r3, [r3, #8]	@ zero_extendqisi2
 2708 0052 092B     		cmp	r3, #9
 2709 0054 14BF     		ite	ne
 2710 0056 0023     		movne	r3, #0
 2711 0058 0123     		moveq	r3, #1
 2712 005a DBB2     		uxtb	r3, r3
1000:../libraries/STM32_USB-FS-Device_Driver/src/usb_core.c **** }
 2713              		.loc 1 1000 0
 2714 005c 1846     		mov	r0, r3
 2715 005e 80BD     		pop	{r7, pc}
 2716              		.cfi_endproc
 2717              	.LFE72:
 2719              		.section	.text.SetDeviceAddress,"ax",%progbits
 2720              		.align	2
 2721              		.global	SetDeviceAddress
 2722              		.thumb
 2723              		.thumb_func
 2725              	SetDeviceAddress:
 2726              	.LFB73:
1001:../libraries/STM32_USB-FS-Device_Driver/src/usb_core.c **** 
1002:../libraries/STM32_USB-FS-Device_Driver/src/usb_core.c **** /*******************************************************************************
1003:../libraries/STM32_USB-FS-Device_Driver/src/usb_core.c **** * Function Name  : SetDeviceAddress.
1004:../libraries/STM32_USB-FS-Device_Driver/src/usb_core.c **** * Description    : Set the device and all the used Endpoints addresses.
1005:../libraries/STM32_USB-FS-Device_Driver/src/usb_core.c **** * Input          : - Val: device address.
1006:../libraries/STM32_USB-FS-Device_Driver/src/usb_core.c **** * Output         : None.
1007:../libraries/STM32_USB-FS-Device_Driver/src/usb_core.c **** * Return         : None.
1008:../libraries/STM32_USB-FS-Device_Driver/src/usb_core.c **** *******************************************************************************/
1009:../libraries/STM32_USB-FS-Device_Driver/src/usb_core.c **** void SetDeviceAddress(uint8_t Val)
1010:../libraries/STM32_USB-FS-Device_Driver/src/usb_core.c **** {
 2727              		.loc 1 1010 0
 2728              		.cfi_startproc
 2729              		@ args = 0, pretend = 0, frame = 16
 2730              		@ frame_needed = 1, uses_anonymous_args = 0
 2731              		@ link register save eliminated.
 2732 0000 80B4     		push	{r7}
 2733              	.LCFI48:
 2734              		.cfi_def_cfa_offset 4
 2735              		.cfi_offset 7, -4
 2736 0002 85B0     		sub	sp, sp, #20
 2737              	.LCFI49:
 2738              		.cfi_def_cfa_offset 24
 2739 0004 00AF     		add	r7, sp, #0
 2740              	.LCFI50:
 2741              		.cfi_def_cfa_register 7
 2742 0006 0346     		mov	r3, r0
 2743 0008 FB71     		strb	r3, [r7, #7]
1011:../libraries/STM32_USB-FS-Device_Driver/src/usb_core.c ****   uint32_t i;
1012:../libraries/STM32_USB-FS-Device_Driver/src/usb_core.c ****   uint32_t nEP = Device_Table.Total_Endpoint;
 2744              		.loc 1 1012 0
 2745 000a 40F20003 		movw	r3, #:lower16:Device_Table
 2746 000e C0F20003 		movt	r3, #:upper16:Device_Table
 2747 0012 1B78     		ldrb	r3, [r3, #0]	@ zero_extendqisi2
 2748 0014 BB60     		str	r3, [r7, #8]
1013:../libraries/STM32_USB-FS-Device_Driver/src/usb_core.c **** 
1014:../libraries/STM32_USB-FS-Device_Driver/src/usb_core.c ****   /* set address in every used endpoint */
1015:../libraries/STM32_USB-FS-Device_Driver/src/usb_core.c ****   for (i = 0; i < nEP; i++)
 2749              		.loc 1 1015 0
 2750 0016 4FF00003 		mov	r3, #0
 2751 001a FB60     		str	r3, [r7, #12]
 2752 001c 21E0     		b	.L136
 2753              	.L137:
1016:../libraries/STM32_USB-FS-Device_Driver/src/usb_core.c ****   {
1017:../libraries/STM32_USB-FS-Device_Driver/src/usb_core.c ****     _SetEPAddress((uint8_t)i, (uint8_t)i);
 2754              		.loc 1 1017 0 discriminator 2
 2755 001e FB68     		ldr	r3, [r7, #12]
 2756 0020 DBB2     		uxtb	r3, r3
 2757 0022 4FEA8303 		lsl	r3, r3, #2
 2758 0026 03F18043 		add	r3, r3, #1073741824
 2759 002a 03F5B843 		add	r3, r3, #23552
 2760 002e FA68     		ldr	r2, [r7, #12]
 2761 0030 D2B2     		uxtb	r2, r2
 2762 0032 4FEA8202 		lsl	r2, r2, #2
 2763 0036 02F18042 		add	r2, r2, #1073741824
 2764 003a 02F5B842 		add	r2, r2, #23552
 2765 003e 1268     		ldr	r2, [r2, #0]
 2766 0040 92B2     		uxth	r2, r2
 2767 0042 1146     		mov	r1, r2
 2768 0044 40F60F72 		movw	r2, #3855
 2769 0048 0A40     		ands	r2, r2, r1
 2770 004a 42F40042 		orr	r2, r2, #32768
 2771 004e 42F08002 		orr	r2, r2, #128
 2772 0052 F968     		ldr	r1, [r7, #12]
 2773 0054 C9B2     		uxtb	r1, r1
 2774 0056 0A43     		orrs	r2, r2, r1
 2775 0058 1A60     		str	r2, [r3, #0]
1015:../libraries/STM32_USB-FS-Device_Driver/src/usb_core.c ****   for (i = 0; i < nEP; i++)
 2776              		.loc 1 1015 0 discriminator 2
 2777 005a FB68     		ldr	r3, [r7, #12]
 2778 005c 03F10103 		add	r3, r3, #1
 2779 0060 FB60     		str	r3, [r7, #12]
 2780              	.L136:
1015:../libraries/STM32_USB-FS-Device_Driver/src/usb_core.c ****   for (i = 0; i < nEP; i++)
 2781              		.loc 1 1015 0 is_stmt 0 discriminator 1
 2782 0062 FA68     		ldr	r2, [r7, #12]
 2783 0064 BB68     		ldr	r3, [r7, #8]
 2784 0066 9A42     		cmp	r2, r3
 2785 0068 D9D3     		bcc	.L137
1018:../libraries/STM32_USB-FS-Device_Driver/src/usb_core.c ****   } /* for */
1019:../libraries/STM32_USB-FS-Device_Driver/src/usb_core.c ****   _SetDADDR(Val | DADDR_EF); /* set device address and enable function */ 
 2786              		.loc 1 1019 0 is_stmt 1
 2787 006a 45F64C43 		movw	r3, #23628
 2788 006e C4F20003 		movt	r3, 16384
 2789 0072 FA79     		ldrb	r2, [r7, #7]
 2790 0074 62F07F02 		orn	r2, r2, #127
 2791 0078 D2B2     		uxtb	r2, r2
 2792 007a 1A60     		str	r2, [r3, #0]
1020:../libraries/STM32_USB-FS-Device_Driver/src/usb_core.c **** }
 2793              		.loc 1 1020 0
 2794 007c 07F11407 		add	r7, r7, #20
 2795 0080 BD46     		mov	sp, r7
 2796 0082 80BC     		pop	{r7}
 2797 0084 7047     		bx	lr
 2798              		.cfi_endproc
 2799              	.LFE73:
 2801 0086 00BF     		.section	.text.NOP_Process,"ax",%progbits
 2802              		.align	2
 2803              		.global	NOP_Process
 2804              		.thumb
 2805              		.thumb_func
 2807              	NOP_Process:
 2808              	.LFB74:
1021:../libraries/STM32_USB-FS-Device_Driver/src/usb_core.c **** 
1022:../libraries/STM32_USB-FS-Device_Driver/src/usb_core.c **** /*******************************************************************************
1023:../libraries/STM32_USB-FS-Device_Driver/src/usb_core.c **** * Function Name  : NOP_Process
1024:../libraries/STM32_USB-FS-Device_Driver/src/usb_core.c **** * Description    : No operation function.
1025:../libraries/STM32_USB-FS-Device_Driver/src/usb_core.c **** * Input          : None.
1026:../libraries/STM32_USB-FS-Device_Driver/src/usb_core.c **** * Output         : None.
1027:../libraries/STM32_USB-FS-Device_Driver/src/usb_core.c **** * Return         : None.
1028:../libraries/STM32_USB-FS-Device_Driver/src/usb_core.c **** *******************************************************************************/
1029:../libraries/STM32_USB-FS-Device_Driver/src/usb_core.c **** void NOP_Process(void)
1030:../libraries/STM32_USB-FS-Device_Driver/src/usb_core.c **** {
 2809              		.loc 1 1030 0
 2810              		.cfi_startproc
 2811              		@ args = 0, pretend = 0, frame = 0
 2812              		@ frame_needed = 1, uses_anonymous_args = 0
 2813              		@ link register save eliminated.
 2814 0000 80B4     		push	{r7}
 2815              	.LCFI51:
 2816              		.cfi_def_cfa_offset 4
 2817              		.cfi_offset 7, -4
 2818 0002 00AF     		add	r7, sp, #0
 2819              	.LCFI52:
 2820              		.cfi_def_cfa_register 7
1031:../libraries/STM32_USB-FS-Device_Driver/src/usb_core.c **** }
 2821              		.loc 1 1031 0
 2822 0004 BD46     		mov	sp, r7
 2823 0006 80BC     		pop	{r7}
 2824 0008 7047     		bx	lr
 2825              		.cfi_endproc
 2826              	.LFE74:
 2828 000a 00BF     		.text
 2829              	.Letext0:
 2830              		.file 2 "/usr/local/gcc-arm-none-eabi-4_7-2013q1/bin/../lib/gcc/arm-none-eabi/4.7.3/../../../../ar
 2831              		.file 3 "/Users/zac/code/spark/marvin/libraries/STM32_USB-FS-Device_Driver/inc/usb_type.h"
 2832              		.file 4 "/Users/zac/code/spark/marvin/libraries/STM32_USB-FS-Device_Driver/inc/usb_def.h"
 2833              		.file 5 "/Users/zac/code/spark/marvin/libraries/STM32_USB-FS-Device_Driver/inc/usb_core.h"
 2834              		.file 6 "/Users/zac/code/spark/marvin/libraries/CMSIS/Include/core_cm3.h"
 2835              		.file 7 "/Users/zac/code/spark/marvin/libraries/STM32_USB-FS-Device_Driver/inc/usb_init.h"
DEFINED SYMBOLS
                            *ABS*:0000000000000000 usb_core.c
                            *COM*:0000000000000002 StatusInfo
/var/folders/d1/846xqcps64v4wybnmd7kk8540000gn/T//ccHsGPJ4.s:23     .bss:0000000000000000 Data_Mul_MaxPacketSize
/var/folders/d1/846xqcps64v4wybnmd7kk8540000gn/T//ccHsGPJ4.s:24     .bss:0000000000000000 $d
/var/folders/d1/846xqcps64v4wybnmd7kk8540000gn/T//ccHsGPJ4.s:26     .text.Standard_GetConfiguration:0000000000000000 $t
/var/folders/d1/846xqcps64v4wybnmd7kk8540000gn/T//ccHsGPJ4.s:31     .text.Standard_GetConfiguration:0000000000000000 Standard_GetConfiguration
/var/folders/d1/846xqcps64v4wybnmd7kk8540000gn/T//ccHsGPJ4.s:86     .text.Standard_SetConfiguration:0000000000000000 $t
/var/folders/d1/846xqcps64v4wybnmd7kk8540000gn/T//ccHsGPJ4.s:91     .text.Standard_SetConfiguration:0000000000000000 Standard_SetConfiguration
/var/folders/d1/846xqcps64v4wybnmd7kk8540000gn/T//ccHsGPJ4.s:160    .text.Standard_GetInterface:0000000000000000 $t
/var/folders/d1/846xqcps64v4wybnmd7kk8540000gn/T//ccHsGPJ4.s:165    .text.Standard_GetInterface:0000000000000000 Standard_GetInterface
/var/folders/d1/846xqcps64v4wybnmd7kk8540000gn/T//ccHsGPJ4.s:219    .text.Standard_SetInterface:0000000000000000 $t
/var/folders/d1/846xqcps64v4wybnmd7kk8540000gn/T//ccHsGPJ4.s:224    .text.Standard_SetInterface:0000000000000000 Standard_SetInterface
/var/folders/d1/846xqcps64v4wybnmd7kk8540000gn/T//ccHsGPJ4.s:333    .text.Standard_GetStatus:0000000000000000 $t
/var/folders/d1/846xqcps64v4wybnmd7kk8540000gn/T//ccHsGPJ4.s:338    .text.Standard_GetStatus:0000000000000000 Standard_GetStatus
/var/folders/d1/846xqcps64v4wybnmd7kk8540000gn/T//ccHsGPJ4.s:548    .text.Standard_ClearFeature:0000000000000000 $t
/var/folders/d1/846xqcps64v4wybnmd7kk8540000gn/T//ccHsGPJ4.s:553    .text.Standard_ClearFeature:0000000000000000 Standard_ClearFeature
/var/folders/d1/846xqcps64v4wybnmd7kk8540000gn/T//ccHsGPJ4.s:823    .text.Standard_SetEndPointFeature:0000000000000000 $t
/var/folders/d1/846xqcps64v4wybnmd7kk8540000gn/T//ccHsGPJ4.s:828    .text.Standard_SetEndPointFeature:0000000000000000 Standard_SetEndPointFeature
/var/folders/d1/846xqcps64v4wybnmd7kk8540000gn/T//ccHsGPJ4.s:992    .text.Standard_SetDeviceFeature:0000000000000000 $t
/var/folders/d1/846xqcps64v4wybnmd7kk8540000gn/T//ccHsGPJ4.s:997    .text.Standard_SetDeviceFeature:0000000000000000 Standard_SetDeviceFeature
/var/folders/d1/846xqcps64v4wybnmd7kk8540000gn/T//ccHsGPJ4.s:1037   .text.Standard_GetDescriptorData:0000000000000000 $t
/var/folders/d1/846xqcps64v4wybnmd7kk8540000gn/T//ccHsGPJ4.s:1042   .text.Standard_GetDescriptorData:0000000000000000 Standard_GetDescriptorData
/var/folders/d1/846xqcps64v4wybnmd7kk8540000gn/T//ccHsGPJ4.s:1103   .text.DataStageOut:0000000000000000 $t
/var/folders/d1/846xqcps64v4wybnmd7kk8540000gn/T//ccHsGPJ4.s:1107   .text.DataStageOut:0000000000000000 DataStageOut
/var/folders/d1/846xqcps64v4wybnmd7kk8540000gn/T//ccHsGPJ4.s:1280   .text.DataStageIn:0000000000000000 $t
/var/folders/d1/846xqcps64v4wybnmd7kk8540000gn/T//ccHsGPJ4.s:1284   .text.DataStageIn:0000000000000000 DataStageIn
/var/folders/d1/846xqcps64v4wybnmd7kk8540000gn/T//ccHsGPJ4.s:1465   .text.NoData_Setup0:0000000000000000 $t
/var/folders/d1/846xqcps64v4wybnmd7kk8540000gn/T//ccHsGPJ4.s:1469   .text.NoData_Setup0:0000000000000000 NoData_Setup0
/var/folders/d1/846xqcps64v4wybnmd7kk8540000gn/T//ccHsGPJ4.s:1754   .text.Data_Setup0:0000000000000000 $t
/var/folders/d1/846xqcps64v4wybnmd7kk8540000gn/T//ccHsGPJ4.s:1758   .text.Data_Setup0:0000000000000000 Data_Setup0
/var/folders/d1/846xqcps64v4wybnmd7kk8540000gn/T//ccHsGPJ4.s:2296   .text.Setup0_Process:0000000000000000 $t
/var/folders/d1/846xqcps64v4wybnmd7kk8540000gn/T//ccHsGPJ4.s:2301   .text.Setup0_Process:0000000000000000 Setup0_Process
/var/folders/d1/846xqcps64v4wybnmd7kk8540000gn/T//ccHsGPJ4.s:2664   .text.Post0_Process:0000000000000000 Post0_Process
/var/folders/d1/846xqcps64v4wybnmd7kk8540000gn/T//ccHsGPJ4.s:2445   .text.In0_Process:0000000000000000 $t
/var/folders/d1/846xqcps64v4wybnmd7kk8540000gn/T//ccHsGPJ4.s:2450   .text.In0_Process:0000000000000000 In0_Process
/var/folders/d1/846xqcps64v4wybnmd7kk8540000gn/T//ccHsGPJ4.s:2725   .text.SetDeviceAddress:0000000000000000 SetDeviceAddress
/var/folders/d1/846xqcps64v4wybnmd7kk8540000gn/T//ccHsGPJ4.s:2560   .text.Out0_Process:0000000000000000 $t
/var/folders/d1/846xqcps64v4wybnmd7kk8540000gn/T//ccHsGPJ4.s:2565   .text.Out0_Process:0000000000000000 Out0_Process
/var/folders/d1/846xqcps64v4wybnmd7kk8540000gn/T//ccHsGPJ4.s:2659   .text.Post0_Process:0000000000000000 $t
/var/folders/d1/846xqcps64v4wybnmd7kk8540000gn/T//ccHsGPJ4.s:2720   .text.SetDeviceAddress:0000000000000000 $t
/var/folders/d1/846xqcps64v4wybnmd7kk8540000gn/T//ccHsGPJ4.s:2802   .text.NOP_Process:0000000000000000 $t
/var/folders/d1/846xqcps64v4wybnmd7kk8540000gn/T//ccHsGPJ4.s:2807   .text.NOP_Process:0000000000000000 NOP_Process
                     .debug_frame:0000000000000010 $d
                           .group:0000000000000000 wm4.1.8991b0b359e9e91a82acb66692cb6642
                           .group:0000000000000000 wm4.platform_config.h.13.2ca19a62528956b424fb49e2e8f19911
                           .group:0000000000000000 wm4.stm32f10x.h.57.69ab29c83f735418a543aa508b559235
                           .group:0000000000000000 wm4.core_cm3.h.32.8e21fbd14bb96c2b40e026c4d2c8fe1f
                           .group:0000000000000000 wm4.newlib.h.8.a9901dc52d1357e3e94003403d43f8b5
                           .group:0000000000000000 wm4.features.h.22.b72b3baab2bb2eab3661375590100b6b
                           .group:0000000000000000 wm4.config.h.193.5fb8ef056cdff92dec3dee9552839d8c
                           .group:0000000000000000 wm4._ansi.h.23.b5bb84d7ba97d82b5b1dc1826a7ae811
                           .group:0000000000000000 wm4.stdint.h.20.54ad762faa59e3c05491630641c8d8bf
                           .group:0000000000000000 wm4.core_cmInstr.h.25.d8165482ef3061013a2fc83e2d85f3d9
                           .group:0000000000000000 wm4.core_cm3.h.129.e08b7204181ea22e6a9fa84cb9ad0924
                           .group:0000000000000000 wm4.stm32f10x.h.532.91bd57525f6c583f00129a351847d405
                           .group:0000000000000000 wm4.stm32f10x_adc.h.89.9f2b285fa0070185d48a05b61a05798c
                           .group:0000000000000000 wm4.stm32f10x_bkp.h.31.74a586c036c8ee5d9205c6728cc8d6ab
                           .group:0000000000000000 wm4.stm32f10x_dma.h.31.ef16218235edc52b414c0353f44b4bf0
                           .group:0000000000000000 wm4.stm32f10x_exti.h.31.b25bcb4f1a2daad39d2d7dfa4e901646
                           .group:0000000000000000 wm4.stm32f10x_flash.h.31.0203bc95b65c5396b67991e07a675efb
                           .group:0000000000000000 wm4.stm32f10x_gpio.h.31.0a32659dbac1fc1055c7cbdc248963be
                           .group:0000000000000000 wm4.stm32f10x_i2c.h.31.93d7dc2d477856f119d957730d4c6f1c
                           .group:0000000000000000 wm4.stm32f10x_pwr.h.31.9168b6921e0cf03b467c7ed90861c701
                           .group:0000000000000000 wm4.stm32f10x_rcc.h.31.2ee3219a25ef4ced658f2fe9d8cd94aa
                           .group:0000000000000000 wm4.stm32f10x_rtc.h.31.00ba78fc0dbb06b6e6783a1e7fccf5a0
                           .group:0000000000000000 wm4.stm32f10x_spi.h.31.d2f6e4626887cabe8c98f3a185590a36
                           .group:0000000000000000 wm4.stm32f10x_tim.h.31.6c06f7f26e0864f9cd59597f46ca2c7c
                           .group:0000000000000000 wm4.stm32f10x_usart.h.31.28d75d6af05cefbbfa00cf30a7c8a335
                           .group:0000000000000000 wm4.misc.h.31.a89fba2040036f6f8c835a78a213e0cd
                           .group:0000000000000000 wm4.stm32f10x.h.8356.9fd2fa84655112ac7dfc5c88beeb383d
                           .group:0000000000000000 wm4.platform_config.h.311.32de75d5ca6059a48a62b60f7516e681
                           .group:0000000000000000 wm4.stdlib.h.13.603ed7eb09a1561ab06840b7c0fcff58
                           .group:0000000000000000 wm4.stddef.h.187.40b3a084f9bc2c020a9e00b9eabe9c14
                           .group:0000000000000000 wm4._default_types.h.6.5e12cd604db8ce00b62bb2f02708eaf3
                           .group:0000000000000000 wm4.lock.h.2.9bc98482741e5e2a9450b12934a684ea
                           .group:0000000000000000 wm4.stddef.h.349.31f4c5baff3fa2689010b32028da9c47
                           .group:0000000000000000 wm4.reent.h.16.9e42f0e588b85e70b2bf6572af57ce64
                           .group:0000000000000000 wm4.alloca.h.8.dfc0c703c47ec3e69746825b17d9e66d
                           .group:0000000000000000 wm4.stdlib.h.50.f5923f1950ced340a337f4676566f65a
                           .group:0000000000000000 wm4.errno.h.2.ba016d646105af6cad23be83630b6a3f
                           .group:0000000000000000 wm4.errno.h.9.65044c2b5d8494e43f5986ab0a1d770f
                           .group:0000000000000000 wm4.cc3000_common.h.58.2af7f8f8921b8cb4b89883c25878e207
                           .group:0000000000000000 wm4.usb_conf.h.13.ae0ffce2e8d0e4c6b2724f8ae0ada8cf
                           .group:0000000000000000 wm4.hw_config.h.61.9aaf7ecb821816183829c116d76d82b5
                           .group:0000000000000000 wm4.usb_regs.h.31.d9533108f8ac5724467880baa9cb0f26
                           .group:0000000000000000 wm4.usb_def.h.30.73e1a84be93039018a594bacb815cb88
                           .group:0000000000000000 wm4.usb_core.h.31.114a1d0e1de4beb01afdcd243bde9471

UNDEFINED SYMBOLS
pInformation
pUser_Standard_Requests
Device_Table
pProperty
ClearDTOG_TX
SetEPTxStatus
Device_Property
SetEPRxCount
ClearDTOG_RX
GetEPRxAddr
PMAToUserBufferCopy
SaveRState
SetEPTxCount
SaveTState
GetEPTxAddr
UserToPMABufferCopy
ByteSwap
