   1              		.syntax unified
   2              		.cpu cortex-m3
   3              		.fpu softvfp
   4              		.eabi_attribute 20, 1
   5              		.eabi_attribute 21, 1
   6              		.eabi_attribute 23, 3
   7              		.eabi_attribute 24, 1
   8              		.eabi_attribute 25, 1
   9              		.eabi_attribute 26, 1
  10              		.eabi_attribute 30, 6
  11              		.eabi_attribute 34, 1
  12              		.eabi_attribute 18, 4
  13              		.thumb
  14              		.file	"usb_regs.c"
  15              		.text
  16              	.Ltext0:
  17              		.cfi_sections	.debug_frame
  18              		.section	.text.SetCNTR,"ax",%progbits
  19              		.align	2
  20              		.global	SetCNTR
  21              		.thumb
  22              		.thumb_func
  24              	SetCNTR:
  25              	.LFB56:
  26              		.file 1 "../libraries/STM32_USB-FS-Device_Driver/src/usb_regs.c"
   1:../libraries/STM32_USB-FS-Device_Driver/src/usb_regs.c **** /**
   2:../libraries/STM32_USB-FS-Device_Driver/src/usb_regs.c ****   ******************************************************************************
   3:../libraries/STM32_USB-FS-Device_Driver/src/usb_regs.c ****   * @file    usb_regs.c
   4:../libraries/STM32_USB-FS-Device_Driver/src/usb_regs.c ****   * @author  MCD Application Team
   5:../libraries/STM32_USB-FS-Device_Driver/src/usb_regs.c ****   * @version V4.0.0
   6:../libraries/STM32_USB-FS-Device_Driver/src/usb_regs.c ****   * @date    28-August-2012
   7:../libraries/STM32_USB-FS-Device_Driver/src/usb_regs.c ****   * @brief   Interface functions to USB cell registers
   8:../libraries/STM32_USB-FS-Device_Driver/src/usb_regs.c ****   ******************************************************************************
   9:../libraries/STM32_USB-FS-Device_Driver/src/usb_regs.c ****   * @attention
  10:../libraries/STM32_USB-FS-Device_Driver/src/usb_regs.c ****   *
  11:../libraries/STM32_USB-FS-Device_Driver/src/usb_regs.c ****   * <h2><center>&copy; COPYRIGHT 2012 STMicroelectronics</center></h2>
  12:../libraries/STM32_USB-FS-Device_Driver/src/usb_regs.c ****   *
  13:../libraries/STM32_USB-FS-Device_Driver/src/usb_regs.c ****   * Licensed under MCD-ST Liberty SW License Agreement V2, (the "License");
  14:../libraries/STM32_USB-FS-Device_Driver/src/usb_regs.c ****   * You may not use this file except in compliance with the License.
  15:../libraries/STM32_USB-FS-Device_Driver/src/usb_regs.c ****   * You may obtain a copy of the License at:
  16:../libraries/STM32_USB-FS-Device_Driver/src/usb_regs.c ****   *
  17:../libraries/STM32_USB-FS-Device_Driver/src/usb_regs.c ****   *        http://www.st.com/software_license_agreement_liberty_v2
  18:../libraries/STM32_USB-FS-Device_Driver/src/usb_regs.c ****   *
  19:../libraries/STM32_USB-FS-Device_Driver/src/usb_regs.c ****   * Unless required by applicable law or agreed to in writing, software 
  20:../libraries/STM32_USB-FS-Device_Driver/src/usb_regs.c ****   * distributed under the License is distributed on an "AS IS" BASIS, 
  21:../libraries/STM32_USB-FS-Device_Driver/src/usb_regs.c ****   * WITHOUT WARRANTIES OR CONDITIONS OF ANY KIND, either express or implied.
  22:../libraries/STM32_USB-FS-Device_Driver/src/usb_regs.c ****   * See the License for the specific language governing permissions and
  23:../libraries/STM32_USB-FS-Device_Driver/src/usb_regs.c ****   * limitations under the License.
  24:../libraries/STM32_USB-FS-Device_Driver/src/usb_regs.c ****   *
  25:../libraries/STM32_USB-FS-Device_Driver/src/usb_regs.c ****   ******************************************************************************
  26:../libraries/STM32_USB-FS-Device_Driver/src/usb_regs.c ****   */
  27:../libraries/STM32_USB-FS-Device_Driver/src/usb_regs.c **** 
  28:../libraries/STM32_USB-FS-Device_Driver/src/usb_regs.c **** /* Includes ------------------------------------------------------------------*/
  29:../libraries/STM32_USB-FS-Device_Driver/src/usb_regs.c **** #include "usb_lib.h"
  30:../libraries/STM32_USB-FS-Device_Driver/src/usb_regs.c **** 
  31:../libraries/STM32_USB-FS-Device_Driver/src/usb_regs.c **** /* Private typedef -----------------------------------------------------------*/
  32:../libraries/STM32_USB-FS-Device_Driver/src/usb_regs.c **** /* Private define ------------------------------------------------------------*/
  33:../libraries/STM32_USB-FS-Device_Driver/src/usb_regs.c **** /* Private macro -------------------------------------------------------------*/
  34:../libraries/STM32_USB-FS-Device_Driver/src/usb_regs.c **** /* Private variables ---------------------------------------------------------*/
  35:../libraries/STM32_USB-FS-Device_Driver/src/usb_regs.c **** /* Extern variables ----------------------------------------------------------*/
  36:../libraries/STM32_USB-FS-Device_Driver/src/usb_regs.c **** /* Private function prototypes -----------------------------------------------*/
  37:../libraries/STM32_USB-FS-Device_Driver/src/usb_regs.c **** /* Private functions ---------------------------------------------------------*/
  38:../libraries/STM32_USB-FS-Device_Driver/src/usb_regs.c **** 
  39:../libraries/STM32_USB-FS-Device_Driver/src/usb_regs.c **** /*******************************************************************************
  40:../libraries/STM32_USB-FS-Device_Driver/src/usb_regs.c **** * Function Name  : SetCNTR.
  41:../libraries/STM32_USB-FS-Device_Driver/src/usb_regs.c **** * Description    : Set the CNTR register value.
  42:../libraries/STM32_USB-FS-Device_Driver/src/usb_regs.c **** * Input          : wRegValue: new register value.
  43:../libraries/STM32_USB-FS-Device_Driver/src/usb_regs.c **** * Output         : None.
  44:../libraries/STM32_USB-FS-Device_Driver/src/usb_regs.c **** * Return         : None.
  45:../libraries/STM32_USB-FS-Device_Driver/src/usb_regs.c **** *******************************************************************************/
  46:../libraries/STM32_USB-FS-Device_Driver/src/usb_regs.c **** void SetCNTR(uint16_t wRegValue)
  47:../libraries/STM32_USB-FS-Device_Driver/src/usb_regs.c **** {
  27              		.loc 1 47 0
  28              		.cfi_startproc
  29              		@ args = 0, pretend = 0, frame = 8
  30              		@ frame_needed = 1, uses_anonymous_args = 0
  31              		@ link register save eliminated.
  32 0000 80B4     		push	{r7}
  33              	.LCFI0:
  34              		.cfi_def_cfa_offset 4
  35              		.cfi_offset 7, -4
  36 0002 83B0     		sub	sp, sp, #12
  37              	.LCFI1:
  38              		.cfi_def_cfa_offset 16
  39 0004 00AF     		add	r7, sp, #0
  40              	.LCFI2:
  41              		.cfi_def_cfa_register 7
  42 0006 0346     		mov	r3, r0
  43 0008 FB80     		strh	r3, [r7, #6]	@ movhi
  48:../libraries/STM32_USB-FS-Device_Driver/src/usb_regs.c ****   _SetCNTR(wRegValue);
  44              		.loc 1 48 0
  45 000a 45F64043 		movw	r3, #23616
  46 000e C4F20003 		movt	r3, 16384
  47 0012 FA88     		ldrh	r2, [r7, #6]
  48 0014 1A60     		str	r2, [r3, #0]
  49:../libraries/STM32_USB-FS-Device_Driver/src/usb_regs.c **** }
  49              		.loc 1 49 0
  50 0016 07F10C07 		add	r7, r7, #12
  51 001a BD46     		mov	sp, r7
  52 001c 80BC     		pop	{r7}
  53 001e 7047     		bx	lr
  54              		.cfi_endproc
  55              	.LFE56:
  57              		.section	.text.GetCNTR,"ax",%progbits
  58              		.align	2
  59              		.global	GetCNTR
  60              		.thumb
  61              		.thumb_func
  63              	GetCNTR:
  64              	.LFB57:
  50:../libraries/STM32_USB-FS-Device_Driver/src/usb_regs.c **** 
  51:../libraries/STM32_USB-FS-Device_Driver/src/usb_regs.c **** /*******************************************************************************
  52:../libraries/STM32_USB-FS-Device_Driver/src/usb_regs.c **** * Function Name  : GetCNTR.
  53:../libraries/STM32_USB-FS-Device_Driver/src/usb_regs.c **** * Description    : returns the CNTR register value.
  54:../libraries/STM32_USB-FS-Device_Driver/src/usb_regs.c **** * Input          : None.
  55:../libraries/STM32_USB-FS-Device_Driver/src/usb_regs.c **** * Output         : None.
  56:../libraries/STM32_USB-FS-Device_Driver/src/usb_regs.c **** * Return         : CNTR register Value.
  57:../libraries/STM32_USB-FS-Device_Driver/src/usb_regs.c **** *******************************************************************************/
  58:../libraries/STM32_USB-FS-Device_Driver/src/usb_regs.c **** uint16_t GetCNTR(void)
  59:../libraries/STM32_USB-FS-Device_Driver/src/usb_regs.c **** {
  65              		.loc 1 59 0
  66              		.cfi_startproc
  67              		@ args = 0, pretend = 0, frame = 0
  68              		@ frame_needed = 1, uses_anonymous_args = 0
  69              		@ link register save eliminated.
  70 0000 80B4     		push	{r7}
  71              	.LCFI3:
  72              		.cfi_def_cfa_offset 4
  73              		.cfi_offset 7, -4
  74 0002 00AF     		add	r7, sp, #0
  75              	.LCFI4:
  76              		.cfi_def_cfa_register 7
  60:../libraries/STM32_USB-FS-Device_Driver/src/usb_regs.c ****   return(_GetCNTR());
  77              		.loc 1 60 0
  78 0004 45F64043 		movw	r3, #23616
  79 0008 C4F20003 		movt	r3, 16384
  80 000c 1B68     		ldr	r3, [r3, #0]
  81 000e 9BB2     		uxth	r3, r3
  61:../libraries/STM32_USB-FS-Device_Driver/src/usb_regs.c **** }
  82              		.loc 1 61 0
  83 0010 1846     		mov	r0, r3
  84 0012 BD46     		mov	sp, r7
  85 0014 80BC     		pop	{r7}
  86 0016 7047     		bx	lr
  87              		.cfi_endproc
  88              	.LFE57:
  90              		.section	.text.SetISTR,"ax",%progbits
  91              		.align	2
  92              		.global	SetISTR
  93              		.thumb
  94              		.thumb_func
  96              	SetISTR:
  97              	.LFB58:
  62:../libraries/STM32_USB-FS-Device_Driver/src/usb_regs.c **** 
  63:../libraries/STM32_USB-FS-Device_Driver/src/usb_regs.c **** /*******************************************************************************
  64:../libraries/STM32_USB-FS-Device_Driver/src/usb_regs.c **** * Function Name  : SetISTR.
  65:../libraries/STM32_USB-FS-Device_Driver/src/usb_regs.c **** * Description    : Set the ISTR register value.
  66:../libraries/STM32_USB-FS-Device_Driver/src/usb_regs.c **** * Input          : wRegValue: new register value.
  67:../libraries/STM32_USB-FS-Device_Driver/src/usb_regs.c **** * Output         : None.
  68:../libraries/STM32_USB-FS-Device_Driver/src/usb_regs.c **** * Return         : None.
  69:../libraries/STM32_USB-FS-Device_Driver/src/usb_regs.c **** *******************************************************************************/
  70:../libraries/STM32_USB-FS-Device_Driver/src/usb_regs.c **** void SetISTR(uint16_t wRegValue)
  71:../libraries/STM32_USB-FS-Device_Driver/src/usb_regs.c **** {
  98              		.loc 1 71 0
  99              		.cfi_startproc
 100              		@ args = 0, pretend = 0, frame = 8
 101              		@ frame_needed = 1, uses_anonymous_args = 0
 102              		@ link register save eliminated.
 103 0000 80B4     		push	{r7}
 104              	.LCFI5:
 105              		.cfi_def_cfa_offset 4
 106              		.cfi_offset 7, -4
 107 0002 83B0     		sub	sp, sp, #12
 108              	.LCFI6:
 109              		.cfi_def_cfa_offset 16
 110 0004 00AF     		add	r7, sp, #0
 111              	.LCFI7:
 112              		.cfi_def_cfa_register 7
 113 0006 0346     		mov	r3, r0
 114 0008 FB80     		strh	r3, [r7, #6]	@ movhi
  72:../libraries/STM32_USB-FS-Device_Driver/src/usb_regs.c ****   _SetISTR(wRegValue);
 115              		.loc 1 72 0
 116 000a 45F64443 		movw	r3, #23620
 117 000e C4F20003 		movt	r3, 16384
 118 0012 FA88     		ldrh	r2, [r7, #6]
 119 0014 1A60     		str	r2, [r3, #0]
  73:../libraries/STM32_USB-FS-Device_Driver/src/usb_regs.c **** }
 120              		.loc 1 73 0
 121 0016 07F10C07 		add	r7, r7, #12
 122 001a BD46     		mov	sp, r7
 123 001c 80BC     		pop	{r7}
 124 001e 7047     		bx	lr
 125              		.cfi_endproc
 126              	.LFE58:
 128              		.section	.text.GetISTR,"ax",%progbits
 129              		.align	2
 130              		.global	GetISTR
 131              		.thumb
 132              		.thumb_func
 134              	GetISTR:
 135              	.LFB59:
  74:../libraries/STM32_USB-FS-Device_Driver/src/usb_regs.c **** 
  75:../libraries/STM32_USB-FS-Device_Driver/src/usb_regs.c **** /*******************************************************************************
  76:../libraries/STM32_USB-FS-Device_Driver/src/usb_regs.c **** * Function Name  : GetISTR
  77:../libraries/STM32_USB-FS-Device_Driver/src/usb_regs.c **** * Description    : Returns the ISTR register value.
  78:../libraries/STM32_USB-FS-Device_Driver/src/usb_regs.c **** * Input          : None.
  79:../libraries/STM32_USB-FS-Device_Driver/src/usb_regs.c **** * Output         : None.
  80:../libraries/STM32_USB-FS-Device_Driver/src/usb_regs.c **** * Return         : ISTR register Value
  81:../libraries/STM32_USB-FS-Device_Driver/src/usb_regs.c **** *******************************************************************************/
  82:../libraries/STM32_USB-FS-Device_Driver/src/usb_regs.c **** uint16_t GetISTR(void)
  83:../libraries/STM32_USB-FS-Device_Driver/src/usb_regs.c **** {
 136              		.loc 1 83 0
 137              		.cfi_startproc
 138              		@ args = 0, pretend = 0, frame = 0
 139              		@ frame_needed = 1, uses_anonymous_args = 0
 140              		@ link register save eliminated.
 141 0000 80B4     		push	{r7}
 142              	.LCFI8:
 143              		.cfi_def_cfa_offset 4
 144              		.cfi_offset 7, -4
 145 0002 00AF     		add	r7, sp, #0
 146              	.LCFI9:
 147              		.cfi_def_cfa_register 7
  84:../libraries/STM32_USB-FS-Device_Driver/src/usb_regs.c ****   return(_GetISTR());
 148              		.loc 1 84 0
 149 0004 45F64443 		movw	r3, #23620
 150 0008 C4F20003 		movt	r3, 16384
 151 000c 1B68     		ldr	r3, [r3, #0]
 152 000e 9BB2     		uxth	r3, r3
  85:../libraries/STM32_USB-FS-Device_Driver/src/usb_regs.c **** }
 153              		.loc 1 85 0
 154 0010 1846     		mov	r0, r3
 155 0012 BD46     		mov	sp, r7
 156 0014 80BC     		pop	{r7}
 157 0016 7047     		bx	lr
 158              		.cfi_endproc
 159              	.LFE59:
 161              		.section	.text.GetFNR,"ax",%progbits
 162              		.align	2
 163              		.global	GetFNR
 164              		.thumb
 165              		.thumb_func
 167              	GetFNR:
 168              	.LFB60:
  86:../libraries/STM32_USB-FS-Device_Driver/src/usb_regs.c **** 
  87:../libraries/STM32_USB-FS-Device_Driver/src/usb_regs.c **** /*******************************************************************************
  88:../libraries/STM32_USB-FS-Device_Driver/src/usb_regs.c **** * Function Name  : GetFNR
  89:../libraries/STM32_USB-FS-Device_Driver/src/usb_regs.c **** * Description    : Returns the FNR register value.
  90:../libraries/STM32_USB-FS-Device_Driver/src/usb_regs.c **** * Input          : None.
  91:../libraries/STM32_USB-FS-Device_Driver/src/usb_regs.c **** * Output         : None.
  92:../libraries/STM32_USB-FS-Device_Driver/src/usb_regs.c **** * Return         : FNR register Value
  93:../libraries/STM32_USB-FS-Device_Driver/src/usb_regs.c **** *******************************************************************************/
  94:../libraries/STM32_USB-FS-Device_Driver/src/usb_regs.c **** uint16_t GetFNR(void)
  95:../libraries/STM32_USB-FS-Device_Driver/src/usb_regs.c **** {
 169              		.loc 1 95 0
 170              		.cfi_startproc
 171              		@ args = 0, pretend = 0, frame = 0
 172              		@ frame_needed = 1, uses_anonymous_args = 0
 173              		@ link register save eliminated.
 174 0000 80B4     		push	{r7}
 175              	.LCFI10:
 176              		.cfi_def_cfa_offset 4
 177              		.cfi_offset 7, -4
 178 0002 00AF     		add	r7, sp, #0
 179              	.LCFI11:
 180              		.cfi_def_cfa_register 7
  96:../libraries/STM32_USB-FS-Device_Driver/src/usb_regs.c ****   return(_GetFNR());
 181              		.loc 1 96 0
 182 0004 45F64843 		movw	r3, #23624
 183 0008 C4F20003 		movt	r3, 16384
 184 000c 1B68     		ldr	r3, [r3, #0]
 185 000e 9BB2     		uxth	r3, r3
  97:../libraries/STM32_USB-FS-Device_Driver/src/usb_regs.c **** }
 186              		.loc 1 97 0
 187 0010 1846     		mov	r0, r3
 188 0012 BD46     		mov	sp, r7
 189 0014 80BC     		pop	{r7}
 190 0016 7047     		bx	lr
 191              		.cfi_endproc
 192              	.LFE60:
 194              		.section	.text.SetDADDR,"ax",%progbits
 195              		.align	2
 196              		.global	SetDADDR
 197              		.thumb
 198              		.thumb_func
 200              	SetDADDR:
 201              	.LFB61:
  98:../libraries/STM32_USB-FS-Device_Driver/src/usb_regs.c **** 
  99:../libraries/STM32_USB-FS-Device_Driver/src/usb_regs.c **** /*******************************************************************************
 100:../libraries/STM32_USB-FS-Device_Driver/src/usb_regs.c **** * Function Name  : SetDADDR
 101:../libraries/STM32_USB-FS-Device_Driver/src/usb_regs.c **** * Description    : Set the DADDR register value.
 102:../libraries/STM32_USB-FS-Device_Driver/src/usb_regs.c **** * Input          : wRegValue: new register value.
 103:../libraries/STM32_USB-FS-Device_Driver/src/usb_regs.c **** * Output         : None.
 104:../libraries/STM32_USB-FS-Device_Driver/src/usb_regs.c **** * Return         : None.
 105:../libraries/STM32_USB-FS-Device_Driver/src/usb_regs.c **** *******************************************************************************/
 106:../libraries/STM32_USB-FS-Device_Driver/src/usb_regs.c **** void SetDADDR(uint16_t wRegValue)
 107:../libraries/STM32_USB-FS-Device_Driver/src/usb_regs.c **** {
 202              		.loc 1 107 0
 203              		.cfi_startproc
 204              		@ args = 0, pretend = 0, frame = 8
 205              		@ frame_needed = 1, uses_anonymous_args = 0
 206              		@ link register save eliminated.
 207 0000 80B4     		push	{r7}
 208              	.LCFI12:
 209              		.cfi_def_cfa_offset 4
 210              		.cfi_offset 7, -4
 211 0002 83B0     		sub	sp, sp, #12
 212              	.LCFI13:
 213              		.cfi_def_cfa_offset 16
 214 0004 00AF     		add	r7, sp, #0
 215              	.LCFI14:
 216              		.cfi_def_cfa_register 7
 217 0006 0346     		mov	r3, r0
 218 0008 FB80     		strh	r3, [r7, #6]	@ movhi
 108:../libraries/STM32_USB-FS-Device_Driver/src/usb_regs.c ****   _SetDADDR(wRegValue);
 219              		.loc 1 108 0
 220 000a 45F64C43 		movw	r3, #23628
 221 000e C4F20003 		movt	r3, 16384
 222 0012 FA88     		ldrh	r2, [r7, #6]
 223 0014 1A60     		str	r2, [r3, #0]
 109:../libraries/STM32_USB-FS-Device_Driver/src/usb_regs.c **** }
 224              		.loc 1 109 0
 225 0016 07F10C07 		add	r7, r7, #12
 226 001a BD46     		mov	sp, r7
 227 001c 80BC     		pop	{r7}
 228 001e 7047     		bx	lr
 229              		.cfi_endproc
 230              	.LFE61:
 232              		.section	.text.GetDADDR,"ax",%progbits
 233              		.align	2
 234              		.global	GetDADDR
 235              		.thumb
 236              		.thumb_func
 238              	GetDADDR:
 239              	.LFB62:
 110:../libraries/STM32_USB-FS-Device_Driver/src/usb_regs.c **** 
 111:../libraries/STM32_USB-FS-Device_Driver/src/usb_regs.c **** /*******************************************************************************
 112:../libraries/STM32_USB-FS-Device_Driver/src/usb_regs.c **** * Function Name  : GetDADDR
 113:../libraries/STM32_USB-FS-Device_Driver/src/usb_regs.c **** * Description    : Returns the DADDR register value.
 114:../libraries/STM32_USB-FS-Device_Driver/src/usb_regs.c **** * Input          : None.
 115:../libraries/STM32_USB-FS-Device_Driver/src/usb_regs.c **** * Output         : None.
 116:../libraries/STM32_USB-FS-Device_Driver/src/usb_regs.c **** * Return         : DADDR register Value
 117:../libraries/STM32_USB-FS-Device_Driver/src/usb_regs.c **** *******************************************************************************/
 118:../libraries/STM32_USB-FS-Device_Driver/src/usb_regs.c **** uint16_t GetDADDR(void)
 119:../libraries/STM32_USB-FS-Device_Driver/src/usb_regs.c **** {
 240              		.loc 1 119 0
 241              		.cfi_startproc
 242              		@ args = 0, pretend = 0, frame = 0
 243              		@ frame_needed = 1, uses_anonymous_args = 0
 244              		@ link register save eliminated.
 245 0000 80B4     		push	{r7}
 246              	.LCFI15:
 247              		.cfi_def_cfa_offset 4
 248              		.cfi_offset 7, -4
 249 0002 00AF     		add	r7, sp, #0
 250              	.LCFI16:
 251              		.cfi_def_cfa_register 7
 120:../libraries/STM32_USB-FS-Device_Driver/src/usb_regs.c ****   return(_GetDADDR());
 252              		.loc 1 120 0
 253 0004 45F64C43 		movw	r3, #23628
 254 0008 C4F20003 		movt	r3, 16384
 255 000c 1B68     		ldr	r3, [r3, #0]
 256 000e 9BB2     		uxth	r3, r3
 121:../libraries/STM32_USB-FS-Device_Driver/src/usb_regs.c **** }
 257              		.loc 1 121 0
 258 0010 1846     		mov	r0, r3
 259 0012 BD46     		mov	sp, r7
 260 0014 80BC     		pop	{r7}
 261 0016 7047     		bx	lr
 262              		.cfi_endproc
 263              	.LFE62:
 265              		.section	.text.SetBTABLE,"ax",%progbits
 266              		.align	2
 267              		.global	SetBTABLE
 268              		.thumb
 269              		.thumb_func
 271              	SetBTABLE:
 272              	.LFB63:
 122:../libraries/STM32_USB-FS-Device_Driver/src/usb_regs.c **** 
 123:../libraries/STM32_USB-FS-Device_Driver/src/usb_regs.c **** /*******************************************************************************
 124:../libraries/STM32_USB-FS-Device_Driver/src/usb_regs.c **** * Function Name  : SetBTABLE
 125:../libraries/STM32_USB-FS-Device_Driver/src/usb_regs.c **** * Description    : Set the BTABLE.
 126:../libraries/STM32_USB-FS-Device_Driver/src/usb_regs.c **** * Input          : wRegValue: New register value.
 127:../libraries/STM32_USB-FS-Device_Driver/src/usb_regs.c **** * Output         : None.
 128:../libraries/STM32_USB-FS-Device_Driver/src/usb_regs.c **** * Return         : None.
 129:../libraries/STM32_USB-FS-Device_Driver/src/usb_regs.c **** *******************************************************************************/
 130:../libraries/STM32_USB-FS-Device_Driver/src/usb_regs.c **** void SetBTABLE(uint16_t wRegValue)
 131:../libraries/STM32_USB-FS-Device_Driver/src/usb_regs.c **** {
 273              		.loc 1 131 0
 274              		.cfi_startproc
 275              		@ args = 0, pretend = 0, frame = 8
 276              		@ frame_needed = 1, uses_anonymous_args = 0
 277              		@ link register save eliminated.
 278 0000 80B4     		push	{r7}
 279              	.LCFI17:
 280              		.cfi_def_cfa_offset 4
 281              		.cfi_offset 7, -4
 282 0002 83B0     		sub	sp, sp, #12
 283              	.LCFI18:
 284              		.cfi_def_cfa_offset 16
 285 0004 00AF     		add	r7, sp, #0
 286              	.LCFI19:
 287              		.cfi_def_cfa_register 7
 288 0006 0346     		mov	r3, r0
 289 0008 FB80     		strh	r3, [r7, #6]	@ movhi
 132:../libraries/STM32_USB-FS-Device_Driver/src/usb_regs.c ****   _SetBTABLE(wRegValue);
 290              		.loc 1 132 0
 291 000a 45F65043 		movw	r3, #23632
 292 000e C4F20003 		movt	r3, 16384
 293 0012 F988     		ldrh	r1, [r7, #6]
 294 0014 4FF6F872 		movw	r2, #65528
 295 0018 0A40     		ands	r2, r2, r1
 296 001a 1A60     		str	r2, [r3, #0]
 133:../libraries/STM32_USB-FS-Device_Driver/src/usb_regs.c **** }
 297              		.loc 1 133 0
 298 001c 07F10C07 		add	r7, r7, #12
 299 0020 BD46     		mov	sp, r7
 300 0022 80BC     		pop	{r7}
 301 0024 7047     		bx	lr
 302              		.cfi_endproc
 303              	.LFE63:
 305              		.section	.text.GetBTABLE,"ax",%progbits
 306              		.align	2
 307              		.global	GetBTABLE
 308              		.thumb
 309              		.thumb_func
 311              	GetBTABLE:
 312              	.LFB64:
 134:../libraries/STM32_USB-FS-Device_Driver/src/usb_regs.c **** 
 135:../libraries/STM32_USB-FS-Device_Driver/src/usb_regs.c **** /*******************************************************************************
 136:../libraries/STM32_USB-FS-Device_Driver/src/usb_regs.c **** * Function Name  : GetBTABLE.
 137:../libraries/STM32_USB-FS-Device_Driver/src/usb_regs.c **** * Description    : Returns the BTABLE register value.
 138:../libraries/STM32_USB-FS-Device_Driver/src/usb_regs.c **** * Input          : None. 
 139:../libraries/STM32_USB-FS-Device_Driver/src/usb_regs.c **** * Output         : None.
 140:../libraries/STM32_USB-FS-Device_Driver/src/usb_regs.c **** * Return         : BTABLE address.
 141:../libraries/STM32_USB-FS-Device_Driver/src/usb_regs.c **** *******************************************************************************/
 142:../libraries/STM32_USB-FS-Device_Driver/src/usb_regs.c **** uint16_t GetBTABLE(void)
 143:../libraries/STM32_USB-FS-Device_Driver/src/usb_regs.c **** {
 313              		.loc 1 143 0
 314              		.cfi_startproc
 315              		@ args = 0, pretend = 0, frame = 0
 316              		@ frame_needed = 1, uses_anonymous_args = 0
 317              		@ link register save eliminated.
 318 0000 80B4     		push	{r7}
 319              	.LCFI20:
 320              		.cfi_def_cfa_offset 4
 321              		.cfi_offset 7, -4
 322 0002 00AF     		add	r7, sp, #0
 323              	.LCFI21:
 324              		.cfi_def_cfa_register 7
 144:../libraries/STM32_USB-FS-Device_Driver/src/usb_regs.c ****   return(_GetBTABLE());
 325              		.loc 1 144 0
 326 0004 45F65043 		movw	r3, #23632
 327 0008 C4F20003 		movt	r3, 16384
 328 000c 1B68     		ldr	r3, [r3, #0]
 329 000e 9BB2     		uxth	r3, r3
 145:../libraries/STM32_USB-FS-Device_Driver/src/usb_regs.c **** }
 330              		.loc 1 145 0
 331 0010 1846     		mov	r0, r3
 332 0012 BD46     		mov	sp, r7
 333 0014 80BC     		pop	{r7}
 334 0016 7047     		bx	lr
 335              		.cfi_endproc
 336              	.LFE64:
 338              		.section	.text.SetENDPOINT,"ax",%progbits
 339              		.align	2
 340              		.global	SetENDPOINT
 341              		.thumb
 342              		.thumb_func
 344              	SetENDPOINT:
 345              	.LFB65:
 146:../libraries/STM32_USB-FS-Device_Driver/src/usb_regs.c **** 
 147:../libraries/STM32_USB-FS-Device_Driver/src/usb_regs.c **** /*******************************************************************************
 148:../libraries/STM32_USB-FS-Device_Driver/src/usb_regs.c **** * Function Name  : SetENDPOINT
 149:../libraries/STM32_USB-FS-Device_Driver/src/usb_regs.c **** * Description    : Set the Endpoint register value.
 150:../libraries/STM32_USB-FS-Device_Driver/src/usb_regs.c **** * Input          : bEpNum: Endpoint Number. 
 151:../libraries/STM32_USB-FS-Device_Driver/src/usb_regs.c **** *                  wRegValue.
 152:../libraries/STM32_USB-FS-Device_Driver/src/usb_regs.c **** * Output         : None.
 153:../libraries/STM32_USB-FS-Device_Driver/src/usb_regs.c **** * Return         : None.
 154:../libraries/STM32_USB-FS-Device_Driver/src/usb_regs.c **** *******************************************************************************/
 155:../libraries/STM32_USB-FS-Device_Driver/src/usb_regs.c **** void SetENDPOINT(uint8_t bEpNum, uint16_t wRegValue)
 156:../libraries/STM32_USB-FS-Device_Driver/src/usb_regs.c **** {
 346              		.loc 1 156 0
 347              		.cfi_startproc
 348              		@ args = 0, pretend = 0, frame = 8
 349              		@ frame_needed = 1, uses_anonymous_args = 0
 350              		@ link register save eliminated.
 351 0000 80B4     		push	{r7}
 352              	.LCFI22:
 353              		.cfi_def_cfa_offset 4
 354              		.cfi_offset 7, -4
 355 0002 83B0     		sub	sp, sp, #12
 356              	.LCFI23:
 357              		.cfi_def_cfa_offset 16
 358 0004 00AF     		add	r7, sp, #0
 359              	.LCFI24:
 360              		.cfi_def_cfa_register 7
 361 0006 0246     		mov	r2, r0
 362 0008 0B46     		mov	r3, r1
 363 000a FA71     		strb	r2, [r7, #7]
 364 000c BB80     		strh	r3, [r7, #4]	@ movhi
 157:../libraries/STM32_USB-FS-Device_Driver/src/usb_regs.c ****   _SetENDPOINT(bEpNum, wRegValue);
 365              		.loc 1 157 0
 366 000e FB79     		ldrb	r3, [r7, #7]	@ zero_extendqisi2
 367 0010 4FEA8303 		lsl	r3, r3, #2
 368 0014 03F18043 		add	r3, r3, #1073741824
 369 0018 03F5B843 		add	r3, r3, #23552
 370 001c BA88     		ldrh	r2, [r7, #4]
 371 001e 1A60     		str	r2, [r3, #0]
 158:../libraries/STM32_USB-FS-Device_Driver/src/usb_regs.c **** }
 372              		.loc 1 158 0
 373 0020 07F10C07 		add	r7, r7, #12
 374 0024 BD46     		mov	sp, r7
 375 0026 80BC     		pop	{r7}
 376 0028 7047     		bx	lr
 377              		.cfi_endproc
 378              	.LFE65:
 380 002a 00BF     		.section	.text.GetENDPOINT,"ax",%progbits
 381              		.align	2
 382              		.global	GetENDPOINT
 383              		.thumb
 384              		.thumb_func
 386              	GetENDPOINT:
 387              	.LFB66:
 159:../libraries/STM32_USB-FS-Device_Driver/src/usb_regs.c **** 
 160:../libraries/STM32_USB-FS-Device_Driver/src/usb_regs.c **** /*******************************************************************************
 161:../libraries/STM32_USB-FS-Device_Driver/src/usb_regs.c **** * Function Name  : GetENDPOINT
 162:../libraries/STM32_USB-FS-Device_Driver/src/usb_regs.c **** * Description    : Return the Endpoint register value.
 163:../libraries/STM32_USB-FS-Device_Driver/src/usb_regs.c **** * Input          : bEpNum: Endpoint Number. 
 164:../libraries/STM32_USB-FS-Device_Driver/src/usb_regs.c **** * Output         : None.
 165:../libraries/STM32_USB-FS-Device_Driver/src/usb_regs.c **** * Return         : Endpoint register value.
 166:../libraries/STM32_USB-FS-Device_Driver/src/usb_regs.c **** *******************************************************************************/
 167:../libraries/STM32_USB-FS-Device_Driver/src/usb_regs.c **** uint16_t GetENDPOINT(uint8_t bEpNum)
 168:../libraries/STM32_USB-FS-Device_Driver/src/usb_regs.c **** {
 388              		.loc 1 168 0
 389              		.cfi_startproc
 390              		@ args = 0, pretend = 0, frame = 8
 391              		@ frame_needed = 1, uses_anonymous_args = 0
 392              		@ link register save eliminated.
 393 0000 80B4     		push	{r7}
 394              	.LCFI25:
 395              		.cfi_def_cfa_offset 4
 396              		.cfi_offset 7, -4
 397 0002 83B0     		sub	sp, sp, #12
 398              	.LCFI26:
 399              		.cfi_def_cfa_offset 16
 400 0004 00AF     		add	r7, sp, #0
 401              	.LCFI27:
 402              		.cfi_def_cfa_register 7
 403 0006 0346     		mov	r3, r0
 404 0008 FB71     		strb	r3, [r7, #7]
 169:../libraries/STM32_USB-FS-Device_Driver/src/usb_regs.c ****   return(_GetENDPOINT(bEpNum));
 405              		.loc 1 169 0
 406 000a FB79     		ldrb	r3, [r7, #7]	@ zero_extendqisi2
 407 000c 4FEA8303 		lsl	r3, r3, #2
 408 0010 03F18043 		add	r3, r3, #1073741824
 409 0014 03F5B843 		add	r3, r3, #23552
 410 0018 1B68     		ldr	r3, [r3, #0]
 411 001a 9BB2     		uxth	r3, r3
 170:../libraries/STM32_USB-FS-Device_Driver/src/usb_regs.c **** }
 412              		.loc 1 170 0
 413 001c 1846     		mov	r0, r3
 414 001e 07F10C07 		add	r7, r7, #12
 415 0022 BD46     		mov	sp, r7
 416 0024 80BC     		pop	{r7}
 417 0026 7047     		bx	lr
 418              		.cfi_endproc
 419              	.LFE66:
 421              		.section	.text.SetEPType,"ax",%progbits
 422              		.align	2
 423              		.global	SetEPType
 424              		.thumb
 425              		.thumb_func
 427              	SetEPType:
 428              	.LFB67:
 171:../libraries/STM32_USB-FS-Device_Driver/src/usb_regs.c **** 
 172:../libraries/STM32_USB-FS-Device_Driver/src/usb_regs.c **** /*******************************************************************************
 173:../libraries/STM32_USB-FS-Device_Driver/src/usb_regs.c **** * Function Name  : SetEPType
 174:../libraries/STM32_USB-FS-Device_Driver/src/usb_regs.c **** * Description    : sets the type in the endpoint register.
 175:../libraries/STM32_USB-FS-Device_Driver/src/usb_regs.c **** * Input          : bEpNum: Endpoint Number. 
 176:../libraries/STM32_USB-FS-Device_Driver/src/usb_regs.c **** *                  wType: type definition.
 177:../libraries/STM32_USB-FS-Device_Driver/src/usb_regs.c **** * Output         : None.
 178:../libraries/STM32_USB-FS-Device_Driver/src/usb_regs.c **** * Return         : None.
 179:../libraries/STM32_USB-FS-Device_Driver/src/usb_regs.c **** *******************************************************************************/
 180:../libraries/STM32_USB-FS-Device_Driver/src/usb_regs.c **** void SetEPType(uint8_t bEpNum, uint16_t wType)
 181:../libraries/STM32_USB-FS-Device_Driver/src/usb_regs.c **** {
 429              		.loc 1 181 0
 430              		.cfi_startproc
 431              		@ args = 0, pretend = 0, frame = 8
 432              		@ frame_needed = 1, uses_anonymous_args = 0
 433              		@ link register save eliminated.
 434 0000 80B4     		push	{r7}
 435              	.LCFI28:
 436              		.cfi_def_cfa_offset 4
 437              		.cfi_offset 7, -4
 438 0002 83B0     		sub	sp, sp, #12
 439              	.LCFI29:
 440              		.cfi_def_cfa_offset 16
 441 0004 00AF     		add	r7, sp, #0
 442              	.LCFI30:
 443              		.cfi_def_cfa_register 7
 444 0006 0246     		mov	r2, r0
 445 0008 0B46     		mov	r3, r1
 446 000a FA71     		strb	r2, [r7, #7]
 447 000c BB80     		strh	r3, [r7, #4]	@ movhi
 182:../libraries/STM32_USB-FS-Device_Driver/src/usb_regs.c ****   _SetEPType(bEpNum, wType);
 448              		.loc 1 182 0
 449 000e FB79     		ldrb	r3, [r7, #7]	@ zero_extendqisi2
 450 0010 4FEA8303 		lsl	r3, r3, #2
 451 0014 03F18043 		add	r3, r3, #1073741824
 452 0018 03F5B843 		add	r3, r3, #23552
 453 001c FA79     		ldrb	r2, [r7, #7]	@ zero_extendqisi2
 454 001e 4FEA8202 		lsl	r2, r2, #2
 455 0022 02F18042 		add	r2, r2, #1073741824
 456 0026 02F5B842 		add	r2, r2, #23552
 457 002a 1268     		ldr	r2, [r2, #0]
 458 002c 92B2     		uxth	r2, r2
 459 002e 22F4EC42 		bic	r2, r2, #30208
 460 0032 22F07002 		bic	r2, r2, #112
 461 0036 91B2     		uxth	r1, r2
 462 0038 BA88     		ldrh	r2, [r7, #4]
 463 003a 0A43     		orrs	r2, r2, r1
 464 003c 92B2     		uxth	r2, r2
 465 003e 92B2     		uxth	r2, r2
 466 0040 1A60     		str	r2, [r3, #0]
 183:../libraries/STM32_USB-FS-Device_Driver/src/usb_regs.c **** }
 467              		.loc 1 183 0
 468 0042 07F10C07 		add	r7, r7, #12
 469 0046 BD46     		mov	sp, r7
 470 0048 80BC     		pop	{r7}
 471 004a 7047     		bx	lr
 472              		.cfi_endproc
 473              	.LFE67:
 475              		.section	.text.GetEPType,"ax",%progbits
 476              		.align	2
 477              		.global	GetEPType
 478              		.thumb
 479              		.thumb_func
 481              	GetEPType:
 482              	.LFB68:
 184:../libraries/STM32_USB-FS-Device_Driver/src/usb_regs.c **** 
 185:../libraries/STM32_USB-FS-Device_Driver/src/usb_regs.c **** /*******************************************************************************
 186:../libraries/STM32_USB-FS-Device_Driver/src/usb_regs.c **** * Function Name  : GetEPType
 187:../libraries/STM32_USB-FS-Device_Driver/src/usb_regs.c **** * Description    : Returns the endpoint type.
 188:../libraries/STM32_USB-FS-Device_Driver/src/usb_regs.c **** * Input          : bEpNum: Endpoint Number. 
 189:../libraries/STM32_USB-FS-Device_Driver/src/usb_regs.c **** * Output         : None.
 190:../libraries/STM32_USB-FS-Device_Driver/src/usb_regs.c **** * Return         : Endpoint Type
 191:../libraries/STM32_USB-FS-Device_Driver/src/usb_regs.c **** *******************************************************************************/
 192:../libraries/STM32_USB-FS-Device_Driver/src/usb_regs.c **** uint16_t GetEPType(uint8_t bEpNum)
 193:../libraries/STM32_USB-FS-Device_Driver/src/usb_regs.c **** {
 483              		.loc 1 193 0
 484              		.cfi_startproc
 485              		@ args = 0, pretend = 0, frame = 8
 486              		@ frame_needed = 1, uses_anonymous_args = 0
 487              		@ link register save eliminated.
 488 0000 80B4     		push	{r7}
 489              	.LCFI31:
 490              		.cfi_def_cfa_offset 4
 491              		.cfi_offset 7, -4
 492 0002 83B0     		sub	sp, sp, #12
 493              	.LCFI32:
 494              		.cfi_def_cfa_offset 16
 495 0004 00AF     		add	r7, sp, #0
 496              	.LCFI33:
 497              		.cfi_def_cfa_register 7
 498 0006 0346     		mov	r3, r0
 499 0008 FB71     		strb	r3, [r7, #7]
 194:../libraries/STM32_USB-FS-Device_Driver/src/usb_regs.c ****   return(_GetEPType(bEpNum));
 500              		.loc 1 194 0
 501 000a FB79     		ldrb	r3, [r7, #7]	@ zero_extendqisi2
 502 000c 4FEA8303 		lsl	r3, r3, #2
 503 0010 03F18043 		add	r3, r3, #1073741824
 504 0014 03F5B843 		add	r3, r3, #23552
 505 0018 1B68     		ldr	r3, [r3, #0]
 506 001a 9BB2     		uxth	r3, r3
 507 001c 03F4C063 		and	r3, r3, #1536
 508 0020 9BB2     		uxth	r3, r3
 195:../libraries/STM32_USB-FS-Device_Driver/src/usb_regs.c **** }
 509              		.loc 1 195 0
 510 0022 1846     		mov	r0, r3
 511 0024 07F10C07 		add	r7, r7, #12
 512 0028 BD46     		mov	sp, r7
 513 002a 80BC     		pop	{r7}
 514 002c 7047     		bx	lr
 515              		.cfi_endproc
 516              	.LFE68:
 518 002e 00BF     		.section	.text.SetEPTxStatus,"ax",%progbits
 519              		.align	2
 520              		.global	SetEPTxStatus
 521              		.thumb
 522              		.thumb_func
 524              	SetEPTxStatus:
 525              	.LFB69:
 196:../libraries/STM32_USB-FS-Device_Driver/src/usb_regs.c **** 
 197:../libraries/STM32_USB-FS-Device_Driver/src/usb_regs.c **** /*******************************************************************************
 198:../libraries/STM32_USB-FS-Device_Driver/src/usb_regs.c **** * Function Name  : SetEPTxStatus
 199:../libraries/STM32_USB-FS-Device_Driver/src/usb_regs.c **** * Description    : Set the status of Tx endpoint.
 200:../libraries/STM32_USB-FS-Device_Driver/src/usb_regs.c **** * Input          : bEpNum: Endpoint Number. 
 201:../libraries/STM32_USB-FS-Device_Driver/src/usb_regs.c **** *                  wState: new state.
 202:../libraries/STM32_USB-FS-Device_Driver/src/usb_regs.c **** * Output         : None.
 203:../libraries/STM32_USB-FS-Device_Driver/src/usb_regs.c **** * Return         : None.
 204:../libraries/STM32_USB-FS-Device_Driver/src/usb_regs.c **** *******************************************************************************/
 205:../libraries/STM32_USB-FS-Device_Driver/src/usb_regs.c **** void SetEPTxStatus(uint8_t bEpNum, uint16_t wState)
 206:../libraries/STM32_USB-FS-Device_Driver/src/usb_regs.c **** {
 526              		.loc 1 206 0
 527              		.cfi_startproc
 528              		@ args = 0, pretend = 0, frame = 8
 529              		@ frame_needed = 1, uses_anonymous_args = 0
 530              		@ link register save eliminated.
 531 0000 90B4     		push	{r4, r7}
 532              	.LCFI34:
 533              		.cfi_def_cfa_offset 8
 534              		.cfi_offset 4, -8
 535              		.cfi_offset 7, -4
 536 0002 82B0     		sub	sp, sp, #8
 537              	.LCFI35:
 538              		.cfi_def_cfa_offset 16
 539 0004 00AF     		add	r7, sp, #0
 540              	.LCFI36:
 541              		.cfi_def_cfa_register 7
 542 0006 0246     		mov	r2, r0
 543 0008 0B46     		mov	r3, r1
 544 000a FA71     		strb	r2, [r7, #7]
 545 000c BB80     		strh	r3, [r7, #4]	@ movhi
 546              	.LBB2:
 207:../libraries/STM32_USB-FS-Device_Driver/src/usb_regs.c ****   _SetEPTxStatus(bEpNum, wState);
 547              		.loc 1 207 0
 548 000e FB79     		ldrb	r3, [r7, #7]	@ zero_extendqisi2
 549 0010 4FEA8303 		lsl	r3, r3, #2
 550 0014 03F18043 		add	r3, r3, #1073741824
 551 0018 03F5B843 		add	r3, r3, #23552
 552 001c 1B68     		ldr	r3, [r3, #0]
 553 001e 9BB2     		uxth	r3, r3
 554 0020 23F4E043 		bic	r3, r3, #28672
 555 0024 23F04003 		bic	r3, r3, #64
 556 0028 9CB2     		uxth	r4, r3
 557 002a BB88     		ldrh	r3, [r7, #4]	@ movhi
 558 002c 03F01003 		and	r3, r3, #16
 559 0030 9BB2     		uxth	r3, r3
 560 0032 002B     		cmp	r3, #0
 561 0034 02D0     		beq	.L22
 562              		.loc 1 207 0 is_stmt 0 discriminator 1
 563 0036 84F01003 		eor	r3, r4, #16
 564 003a 9CB2     		uxth	r4, r3
 565              	.L22:
 566              		.loc 1 207 0 discriminator 2
 567 003c BB88     		ldrh	r3, [r7, #4]	@ movhi
 568 003e 03F02003 		and	r3, r3, #32
 569 0042 9BB2     		uxth	r3, r3
 570 0044 002B     		cmp	r3, #0
 571 0046 02D0     		beq	.L23
 572              		.loc 1 207 0 discriminator 3
 573 0048 84F02003 		eor	r3, r4, #32
 574 004c 9CB2     		uxth	r4, r3
 575              	.L23:
 576              		.loc 1 207 0 discriminator 4
 577 004e FB79     		ldrb	r3, [r7, #7]	@ zero_extendqisi2
 578 0050 4FEA8303 		lsl	r3, r3, #2
 579 0054 03F18042 		add	r2, r3, #1073741824
 580 0058 02F5B842 		add	r2, r2, #23552
 581 005c 48F28003 		movw	r3, #32896
 582 0060 CFF6FF73 		movt	r3, 65535
 583 0064 2343     		orrs	r3, r3, r4
 584 0066 9BB2     		uxth	r3, r3
 585 0068 1360     		str	r3, [r2, #0]
 586              	.LBE2:
 208:../libraries/STM32_USB-FS-Device_Driver/src/usb_regs.c **** }
 587              		.loc 1 208 0 is_stmt 1 discriminator 4
 588 006a 07F10807 		add	r7, r7, #8
 589 006e BD46     		mov	sp, r7
 590 0070 90BC     		pop	{r4, r7}
 591 0072 7047     		bx	lr
 592              		.cfi_endproc
 593              	.LFE69:
 595              		.section	.text.SetEPRxStatus,"ax",%progbits
 596              		.align	2
 597              		.global	SetEPRxStatus
 598              		.thumb
 599              		.thumb_func
 601              	SetEPRxStatus:
 602              	.LFB70:
 209:../libraries/STM32_USB-FS-Device_Driver/src/usb_regs.c **** 
 210:../libraries/STM32_USB-FS-Device_Driver/src/usb_regs.c **** /*******************************************************************************
 211:../libraries/STM32_USB-FS-Device_Driver/src/usb_regs.c **** * Function Name  : SetEPRxStatus
 212:../libraries/STM32_USB-FS-Device_Driver/src/usb_regs.c **** * Description    : Set the status of Rx endpoint.
 213:../libraries/STM32_USB-FS-Device_Driver/src/usb_regs.c **** * Input          : bEpNum: Endpoint Number. 
 214:../libraries/STM32_USB-FS-Device_Driver/src/usb_regs.c **** *                  wState: new state.
 215:../libraries/STM32_USB-FS-Device_Driver/src/usb_regs.c **** * Output         : None.
 216:../libraries/STM32_USB-FS-Device_Driver/src/usb_regs.c **** * Return         : None.
 217:../libraries/STM32_USB-FS-Device_Driver/src/usb_regs.c **** *******************************************************************************/
 218:../libraries/STM32_USB-FS-Device_Driver/src/usb_regs.c **** void SetEPRxStatus(uint8_t bEpNum, uint16_t wState)
 219:../libraries/STM32_USB-FS-Device_Driver/src/usb_regs.c **** {
 603              		.loc 1 219 0
 604              		.cfi_startproc
 605              		@ args = 0, pretend = 0, frame = 8
 606              		@ frame_needed = 1, uses_anonymous_args = 0
 607              		@ link register save eliminated.
 608 0000 90B4     		push	{r4, r7}
 609              	.LCFI37:
 610              		.cfi_def_cfa_offset 8
 611              		.cfi_offset 4, -8
 612              		.cfi_offset 7, -4
 613 0002 82B0     		sub	sp, sp, #8
 614              	.LCFI38:
 615              		.cfi_def_cfa_offset 16
 616 0004 00AF     		add	r7, sp, #0
 617              	.LCFI39:
 618              		.cfi_def_cfa_register 7
 619 0006 0246     		mov	r2, r0
 620 0008 0B46     		mov	r3, r1
 621 000a FA71     		strb	r2, [r7, #7]
 622 000c BB80     		strh	r3, [r7, #4]	@ movhi
 623              	.LBB3:
 220:../libraries/STM32_USB-FS-Device_Driver/src/usb_regs.c ****   _SetEPRxStatus(bEpNum, wState);
 624              		.loc 1 220 0
 625 000e FB79     		ldrb	r3, [r7, #7]	@ zero_extendqisi2
 626 0010 4FEA8303 		lsl	r3, r3, #2
 627 0014 03F18043 		add	r3, r3, #1073741824
 628 0018 03F5B843 		add	r3, r3, #23552
 629 001c 1B68     		ldr	r3, [r3, #0]
 630 001e 9BB2     		uxth	r3, r3
 631 0020 23F48043 		bic	r3, r3, #16384
 632 0024 23F07003 		bic	r3, r3, #112
 633 0028 9CB2     		uxth	r4, r3
 634 002a BB88     		ldrh	r3, [r7, #4]	@ movhi
 635 002c 03F48053 		and	r3, r3, #4096
 636 0030 9BB2     		uxth	r3, r3
 637 0032 002B     		cmp	r3, #0
 638 0034 02D0     		beq	.L25
 639              		.loc 1 220 0 is_stmt 0 discriminator 1
 640 0036 84F48053 		eor	r3, r4, #4096
 641 003a 9CB2     		uxth	r4, r3
 642              	.L25:
 643              		.loc 1 220 0 discriminator 2
 644 003c BB88     		ldrh	r3, [r7, #4]	@ movhi
 645 003e 03F40053 		and	r3, r3, #8192
 646 0042 9BB2     		uxth	r3, r3
 647 0044 002B     		cmp	r3, #0
 648 0046 02D0     		beq	.L26
 649              		.loc 1 220 0 discriminator 3
 650 0048 84F40053 		eor	r3, r4, #8192
 651 004c 9CB2     		uxth	r4, r3
 652              	.L26:
 653              		.loc 1 220 0 discriminator 4
 654 004e FB79     		ldrb	r3, [r7, #7]	@ zero_extendqisi2
 655 0050 4FEA8303 		lsl	r3, r3, #2
 656 0054 03F18042 		add	r2, r3, #1073741824
 657 0058 02F5B842 		add	r2, r2, #23552
 658 005c 48F28003 		movw	r3, #32896
 659 0060 CFF6FF73 		movt	r3, 65535
 660 0064 2343     		orrs	r3, r3, r4
 661 0066 9BB2     		uxth	r3, r3
 662 0068 1360     		str	r3, [r2, #0]
 663              	.LBE3:
 221:../libraries/STM32_USB-FS-Device_Driver/src/usb_regs.c **** }
 664              		.loc 1 221 0 is_stmt 1 discriminator 4
 665 006a 07F10807 		add	r7, r7, #8
 666 006e BD46     		mov	sp, r7
 667 0070 90BC     		pop	{r4, r7}
 668 0072 7047     		bx	lr
 669              		.cfi_endproc
 670              	.LFE70:
 672              		.section	.text.SetDouBleBuffEPStall,"ax",%progbits
 673              		.align	2
 674              		.global	SetDouBleBuffEPStall
 675              		.thumb
 676              		.thumb_func
 678              	SetDouBleBuffEPStall:
 679              	.LFB71:
 222:../libraries/STM32_USB-FS-Device_Driver/src/usb_regs.c **** 
 223:../libraries/STM32_USB-FS-Device_Driver/src/usb_regs.c **** /*******************************************************************************
 224:../libraries/STM32_USB-FS-Device_Driver/src/usb_regs.c **** * Function Name  : SetDouBleBuffEPStall
 225:../libraries/STM32_USB-FS-Device_Driver/src/usb_regs.c **** * Description    : sets the status for Double Buffer Endpoint to STALL
 226:../libraries/STM32_USB-FS-Device_Driver/src/usb_regs.c **** * Input          : bEpNum: Endpoint Number. 
 227:../libraries/STM32_USB-FS-Device_Driver/src/usb_regs.c **** *                  bDir: Endpoint direction.
 228:../libraries/STM32_USB-FS-Device_Driver/src/usb_regs.c **** * Output         : None.
 229:../libraries/STM32_USB-FS-Device_Driver/src/usb_regs.c **** * Return         : None.
 230:../libraries/STM32_USB-FS-Device_Driver/src/usb_regs.c **** *******************************************************************************/
 231:../libraries/STM32_USB-FS-Device_Driver/src/usb_regs.c **** void SetDouBleBuffEPStall(uint8_t bEpNum, uint8_t bDir)
 232:../libraries/STM32_USB-FS-Device_Driver/src/usb_regs.c **** {
 680              		.loc 1 232 0
 681              		.cfi_startproc
 682              		@ args = 0, pretend = 0, frame = 16
 683              		@ frame_needed = 1, uses_anonymous_args = 0
 684 0000 80B5     		push	{r7, lr}
 685              	.LCFI40:
 686              		.cfi_def_cfa_offset 8
 687              		.cfi_offset 7, -8
 688              		.cfi_offset 14, -4
 689 0002 84B0     		sub	sp, sp, #16
 690              	.LCFI41:
 691              		.cfi_def_cfa_offset 24
 692 0004 00AF     		add	r7, sp, #0
 693              	.LCFI42:
 694              		.cfi_def_cfa_register 7
 695 0006 0246     		mov	r2, r0
 696 0008 0B46     		mov	r3, r1
 697 000a FA71     		strb	r2, [r7, #7]
 698 000c BB71     		strb	r3, [r7, #6]
 233:../libraries/STM32_USB-FS-Device_Driver/src/usb_regs.c ****   uint16_t Endpoint_DTOG_Status;
 234:../libraries/STM32_USB-FS-Device_Driver/src/usb_regs.c ****   Endpoint_DTOG_Status = GetENDPOINT(bEpNum);
 699              		.loc 1 234 0
 700 000e FB79     		ldrb	r3, [r7, #7]	@ zero_extendqisi2
 701 0010 1846     		mov	r0, r3
 702 0012 FFF7FEFF 		bl	GetENDPOINT
 703 0016 0346     		mov	r3, r0
 704 0018 FB81     		strh	r3, [r7, #14]	@ movhi
 235:../libraries/STM32_USB-FS-Device_Driver/src/usb_regs.c ****   if (bDir == EP_DBUF_OUT)
 705              		.loc 1 235 0
 706 001a BB79     		ldrb	r3, [r7, #6]	@ zero_extendqisi2
 707 001c 012B     		cmp	r3, #1
 708 001e 0BD1     		bne	.L28
 236:../libraries/STM32_USB-FS-Device_Driver/src/usb_regs.c ****   { /* OUT double buffered endpoint */
 237:../libraries/STM32_USB-FS-Device_Driver/src/usb_regs.c ****     _SetENDPOINT(bEpNum, Endpoint_DTOG_Status & ~EPRX_DTOG1);
 709              		.loc 1 237 0
 710 0020 FB79     		ldrb	r3, [r7, #7]	@ zero_extendqisi2
 711 0022 4FEA8303 		lsl	r3, r3, #2
 712 0026 03F18043 		add	r3, r3, #1073741824
 713 002a 03F5B843 		add	r3, r3, #23552
 714 002e FA89     		ldrh	r2, [r7, #14]
 715 0030 22F48052 		bic	r2, r2, #4096
 716 0034 1A60     		str	r2, [r3, #0]
 717 0036 0DE0     		b	.L27
 718              	.L28:
 238:../libraries/STM32_USB-FS-Device_Driver/src/usb_regs.c ****   }
 239:../libraries/STM32_USB-FS-Device_Driver/src/usb_regs.c ****   else if (bDir == EP_DBUF_IN)
 719              		.loc 1 239 0
 720 0038 BB79     		ldrb	r3, [r7, #6]	@ zero_extendqisi2
 721 003a 022B     		cmp	r3, #2
 722 003c 0AD1     		bne	.L27
 240:../libraries/STM32_USB-FS-Device_Driver/src/usb_regs.c ****   { /* IN double buffered endpoint */
 241:../libraries/STM32_USB-FS-Device_Driver/src/usb_regs.c ****     _SetENDPOINT(bEpNum, Endpoint_DTOG_Status & ~EPTX_DTOG1);
 723              		.loc 1 241 0
 724 003e FB79     		ldrb	r3, [r7, #7]	@ zero_extendqisi2
 725 0040 4FEA8303 		lsl	r3, r3, #2
 726 0044 03F18043 		add	r3, r3, #1073741824
 727 0048 03F5B843 		add	r3, r3, #23552
 728 004c FA89     		ldrh	r2, [r7, #14]
 729 004e 22F01002 		bic	r2, r2, #16
 730 0052 1A60     		str	r2, [r3, #0]
 731              	.L27:
 242:../libraries/STM32_USB-FS-Device_Driver/src/usb_regs.c ****   }
 243:../libraries/STM32_USB-FS-Device_Driver/src/usb_regs.c **** }
 732              		.loc 1 243 0
 733 0054 07F11007 		add	r7, r7, #16
 734 0058 BD46     		mov	sp, r7
 735 005a 80BD     		pop	{r7, pc}
 736              		.cfi_endproc
 737              	.LFE71:
 739              		.section	.text.GetEPTxStatus,"ax",%progbits
 740              		.align	2
 741              		.global	GetEPTxStatus
 742              		.thumb
 743              		.thumb_func
 745              	GetEPTxStatus:
 746              	.LFB72:
 244:../libraries/STM32_USB-FS-Device_Driver/src/usb_regs.c **** 
 245:../libraries/STM32_USB-FS-Device_Driver/src/usb_regs.c **** /*******************************************************************************
 246:../libraries/STM32_USB-FS-Device_Driver/src/usb_regs.c **** * Function Name  : GetEPTxStatus
 247:../libraries/STM32_USB-FS-Device_Driver/src/usb_regs.c **** * Description    : Returns the endpoint Tx status.
 248:../libraries/STM32_USB-FS-Device_Driver/src/usb_regs.c **** * Input          : bEpNum: Endpoint Number. 
 249:../libraries/STM32_USB-FS-Device_Driver/src/usb_regs.c **** * Output         : None.
 250:../libraries/STM32_USB-FS-Device_Driver/src/usb_regs.c **** * Return         : Endpoint TX Status
 251:../libraries/STM32_USB-FS-Device_Driver/src/usb_regs.c **** *******************************************************************************/
 252:../libraries/STM32_USB-FS-Device_Driver/src/usb_regs.c **** uint16_t GetEPTxStatus(uint8_t bEpNum)
 253:../libraries/STM32_USB-FS-Device_Driver/src/usb_regs.c **** {
 747              		.loc 1 253 0
 748              		.cfi_startproc
 749              		@ args = 0, pretend = 0, frame = 8
 750              		@ frame_needed = 1, uses_anonymous_args = 0
 751              		@ link register save eliminated.
 752 0000 80B4     		push	{r7}
 753              	.LCFI43:
 754              		.cfi_def_cfa_offset 4
 755              		.cfi_offset 7, -4
 756 0002 83B0     		sub	sp, sp, #12
 757              	.LCFI44:
 758              		.cfi_def_cfa_offset 16
 759 0004 00AF     		add	r7, sp, #0
 760              	.LCFI45:
 761              		.cfi_def_cfa_register 7
 762 0006 0346     		mov	r3, r0
 763 0008 FB71     		strb	r3, [r7, #7]
 254:../libraries/STM32_USB-FS-Device_Driver/src/usb_regs.c ****   return(_GetEPTxStatus(bEpNum));
 764              		.loc 1 254 0
 765 000a FB79     		ldrb	r3, [r7, #7]	@ zero_extendqisi2
 766 000c 4FEA8303 		lsl	r3, r3, #2
 767 0010 03F18043 		add	r3, r3, #1073741824
 768 0014 03F5B843 		add	r3, r3, #23552
 769 0018 1B68     		ldr	r3, [r3, #0]
 770 001a 9BB2     		uxth	r3, r3
 771 001c 03F03003 		and	r3, r3, #48
 772 0020 9BB2     		uxth	r3, r3
 255:../libraries/STM32_USB-FS-Device_Driver/src/usb_regs.c **** }
 773              		.loc 1 255 0
 774 0022 1846     		mov	r0, r3
 775 0024 07F10C07 		add	r7, r7, #12
 776 0028 BD46     		mov	sp, r7
 777 002a 80BC     		pop	{r7}
 778 002c 7047     		bx	lr
 779              		.cfi_endproc
 780              	.LFE72:
 782 002e 00BF     		.section	.text.GetEPRxStatus,"ax",%progbits
 783              		.align	2
 784              		.global	GetEPRxStatus
 785              		.thumb
 786              		.thumb_func
 788              	GetEPRxStatus:
 789              	.LFB73:
 256:../libraries/STM32_USB-FS-Device_Driver/src/usb_regs.c **** 
 257:../libraries/STM32_USB-FS-Device_Driver/src/usb_regs.c **** /*******************************************************************************
 258:../libraries/STM32_USB-FS-Device_Driver/src/usb_regs.c **** * Function Name  : GetEPRxStatus
 259:../libraries/STM32_USB-FS-Device_Driver/src/usb_regs.c **** * Description    : Returns the endpoint Rx status.
 260:../libraries/STM32_USB-FS-Device_Driver/src/usb_regs.c **** * Input          : bEpNum: Endpoint Number. 
 261:../libraries/STM32_USB-FS-Device_Driver/src/usb_regs.c **** * Output         : None.
 262:../libraries/STM32_USB-FS-Device_Driver/src/usb_regs.c **** * Return         : Endpoint RX Status
 263:../libraries/STM32_USB-FS-Device_Driver/src/usb_regs.c **** *******************************************************************************/
 264:../libraries/STM32_USB-FS-Device_Driver/src/usb_regs.c **** uint16_t GetEPRxStatus(uint8_t bEpNum)
 265:../libraries/STM32_USB-FS-Device_Driver/src/usb_regs.c **** {
 790              		.loc 1 265 0
 791              		.cfi_startproc
 792              		@ args = 0, pretend = 0, frame = 8
 793              		@ frame_needed = 1, uses_anonymous_args = 0
 794              		@ link register save eliminated.
 795 0000 80B4     		push	{r7}
 796              	.LCFI46:
 797              		.cfi_def_cfa_offset 4
 798              		.cfi_offset 7, -4
 799 0002 83B0     		sub	sp, sp, #12
 800              	.LCFI47:
 801              		.cfi_def_cfa_offset 16
 802 0004 00AF     		add	r7, sp, #0
 803              	.LCFI48:
 804              		.cfi_def_cfa_register 7
 805 0006 0346     		mov	r3, r0
 806 0008 FB71     		strb	r3, [r7, #7]
 266:../libraries/STM32_USB-FS-Device_Driver/src/usb_regs.c ****   return(_GetEPRxStatus(bEpNum));
 807              		.loc 1 266 0
 808 000a FB79     		ldrb	r3, [r7, #7]	@ zero_extendqisi2
 809 000c 4FEA8303 		lsl	r3, r3, #2
 810 0010 03F18043 		add	r3, r3, #1073741824
 811 0014 03F5B843 		add	r3, r3, #23552
 812 0018 1B68     		ldr	r3, [r3, #0]
 813 001a 9BB2     		uxth	r3, r3
 814 001c 03F44053 		and	r3, r3, #12288
 815 0020 9BB2     		uxth	r3, r3
 267:../libraries/STM32_USB-FS-Device_Driver/src/usb_regs.c **** }
 816              		.loc 1 267 0
 817 0022 1846     		mov	r0, r3
 818 0024 07F10C07 		add	r7, r7, #12
 819 0028 BD46     		mov	sp, r7
 820 002a 80BC     		pop	{r7}
 821 002c 7047     		bx	lr
 822              		.cfi_endproc
 823              	.LFE73:
 825 002e 00BF     		.section	.text.SetEPTxValid,"ax",%progbits
 826              		.align	2
 827              		.global	SetEPTxValid
 828              		.thumb
 829              		.thumb_func
 831              	SetEPTxValid:
 832              	.LFB74:
 268:../libraries/STM32_USB-FS-Device_Driver/src/usb_regs.c **** 
 269:../libraries/STM32_USB-FS-Device_Driver/src/usb_regs.c **** /*******************************************************************************
 270:../libraries/STM32_USB-FS-Device_Driver/src/usb_regs.c **** * Function Name  : SetEPTxValid
 271:../libraries/STM32_USB-FS-Device_Driver/src/usb_regs.c **** * Description    : Valid the endpoint Tx Status.
 272:../libraries/STM32_USB-FS-Device_Driver/src/usb_regs.c **** * Input          : bEpNum: Endpoint Number.  
 273:../libraries/STM32_USB-FS-Device_Driver/src/usb_regs.c **** * Output         : None.
 274:../libraries/STM32_USB-FS-Device_Driver/src/usb_regs.c **** * Return         : None.
 275:../libraries/STM32_USB-FS-Device_Driver/src/usb_regs.c **** *******************************************************************************/
 276:../libraries/STM32_USB-FS-Device_Driver/src/usb_regs.c **** void SetEPTxValid(uint8_t bEpNum)
 277:../libraries/STM32_USB-FS-Device_Driver/src/usb_regs.c **** {
 833              		.loc 1 277 0
 834              		.cfi_startproc
 835              		@ args = 0, pretend = 0, frame = 8
 836              		@ frame_needed = 1, uses_anonymous_args = 0
 837              		@ link register save eliminated.
 838 0000 90B4     		push	{r4, r7}
 839              	.LCFI49:
 840              		.cfi_def_cfa_offset 8
 841              		.cfi_offset 4, -8
 842              		.cfi_offset 7, -4
 843 0002 82B0     		sub	sp, sp, #8
 844              	.LCFI50:
 845              		.cfi_def_cfa_offset 16
 846 0004 00AF     		add	r7, sp, #0
 847              	.LCFI51:
 848              		.cfi_def_cfa_register 7
 849 0006 0346     		mov	r3, r0
 850 0008 FB71     		strb	r3, [r7, #7]
 851              	.LBB4:
 278:../libraries/STM32_USB-FS-Device_Driver/src/usb_regs.c ****   _SetEPTxStatus(bEpNum, EP_TX_VALID);
 852              		.loc 1 278 0
 853 000a FB79     		ldrb	r3, [r7, #7]	@ zero_extendqisi2
 854 000c 4FEA8303 		lsl	r3, r3, #2
 855 0010 03F18043 		add	r3, r3, #1073741824
 856 0014 03F5B843 		add	r3, r3, #23552
 857 0018 1B68     		ldr	r3, [r3, #0]
 858 001a 9BB2     		uxth	r3, r3
 859 001c 23F4E043 		bic	r3, r3, #28672
 860 0020 23F04003 		bic	r3, r3, #64
 861 0024 9CB2     		uxth	r4, r3
 862 0026 84F01003 		eor	r3, r4, #16
 863 002a 9CB2     		uxth	r4, r3
 864 002c 84F02003 		eor	r3, r4, #32
 865 0030 9CB2     		uxth	r4, r3
 866 0032 FB79     		ldrb	r3, [r7, #7]	@ zero_extendqisi2
 867 0034 4FEA8303 		lsl	r3, r3, #2
 868 0038 03F18042 		add	r2, r3, #1073741824
 869 003c 02F5B842 		add	r2, r2, #23552
 870 0040 48F28003 		movw	r3, #32896
 871 0044 CFF6FF73 		movt	r3, 65535
 872 0048 2343     		orrs	r3, r3, r4
 873 004a 9BB2     		uxth	r3, r3
 874 004c 1360     		str	r3, [r2, #0]
 875              	.LBE4:
 279:../libraries/STM32_USB-FS-Device_Driver/src/usb_regs.c **** }
 876              		.loc 1 279 0
 877 004e 07F10807 		add	r7, r7, #8
 878 0052 BD46     		mov	sp, r7
 879 0054 90BC     		pop	{r4, r7}
 880 0056 7047     		bx	lr
 881              		.cfi_endproc
 882              	.LFE74:
 884              		.section	.text.SetEPRxValid,"ax",%progbits
 885              		.align	2
 886              		.global	SetEPRxValid
 887              		.thumb
 888              		.thumb_func
 890              	SetEPRxValid:
 891              	.LFB75:
 280:../libraries/STM32_USB-FS-Device_Driver/src/usb_regs.c **** 
 281:../libraries/STM32_USB-FS-Device_Driver/src/usb_regs.c **** /*******************************************************************************
 282:../libraries/STM32_USB-FS-Device_Driver/src/usb_regs.c **** * Function Name  : SetEPRxValid
 283:../libraries/STM32_USB-FS-Device_Driver/src/usb_regs.c **** * Description    : Valid the endpoint Rx Status.
 284:../libraries/STM32_USB-FS-Device_Driver/src/usb_regs.c **** * Input          : bEpNum: Endpoint Number. 
 285:../libraries/STM32_USB-FS-Device_Driver/src/usb_regs.c **** * Output         : None.
 286:../libraries/STM32_USB-FS-Device_Driver/src/usb_regs.c **** * Return         : None.
 287:../libraries/STM32_USB-FS-Device_Driver/src/usb_regs.c **** *******************************************************************************/
 288:../libraries/STM32_USB-FS-Device_Driver/src/usb_regs.c **** void SetEPRxValid(uint8_t bEpNum)
 289:../libraries/STM32_USB-FS-Device_Driver/src/usb_regs.c **** {
 892              		.loc 1 289 0
 893              		.cfi_startproc
 894              		@ args = 0, pretend = 0, frame = 8
 895              		@ frame_needed = 1, uses_anonymous_args = 0
 896              		@ link register save eliminated.
 897 0000 90B4     		push	{r4, r7}
 898              	.LCFI52:
 899              		.cfi_def_cfa_offset 8
 900              		.cfi_offset 4, -8
 901              		.cfi_offset 7, -4
 902 0002 82B0     		sub	sp, sp, #8
 903              	.LCFI53:
 904              		.cfi_def_cfa_offset 16
 905 0004 00AF     		add	r7, sp, #0
 906              	.LCFI54:
 907              		.cfi_def_cfa_register 7
 908 0006 0346     		mov	r3, r0
 909 0008 FB71     		strb	r3, [r7, #7]
 910              	.LBB5:
 290:../libraries/STM32_USB-FS-Device_Driver/src/usb_regs.c ****   _SetEPRxStatus(bEpNum, EP_RX_VALID);
 911              		.loc 1 290 0
 912 000a FB79     		ldrb	r3, [r7, #7]	@ zero_extendqisi2
 913 000c 4FEA8303 		lsl	r3, r3, #2
 914 0010 03F18043 		add	r3, r3, #1073741824
 915 0014 03F5B843 		add	r3, r3, #23552
 916 0018 1B68     		ldr	r3, [r3, #0]
 917 001a 9BB2     		uxth	r3, r3
 918 001c 23F48043 		bic	r3, r3, #16384
 919 0020 23F07003 		bic	r3, r3, #112
 920 0024 9CB2     		uxth	r4, r3
 921 0026 84F48053 		eor	r3, r4, #4096
 922 002a 9CB2     		uxth	r4, r3
 923 002c 84F40053 		eor	r3, r4, #8192
 924 0030 9CB2     		uxth	r4, r3
 925 0032 FB79     		ldrb	r3, [r7, #7]	@ zero_extendqisi2
 926 0034 4FEA8303 		lsl	r3, r3, #2
 927 0038 03F18042 		add	r2, r3, #1073741824
 928 003c 02F5B842 		add	r2, r2, #23552
 929 0040 48F28003 		movw	r3, #32896
 930 0044 CFF6FF73 		movt	r3, 65535
 931 0048 2343     		orrs	r3, r3, r4
 932 004a 9BB2     		uxth	r3, r3
 933 004c 1360     		str	r3, [r2, #0]
 934              	.LBE5:
 291:../libraries/STM32_USB-FS-Device_Driver/src/usb_regs.c **** }
 935              		.loc 1 291 0
 936 004e 07F10807 		add	r7, r7, #8
 937 0052 BD46     		mov	sp, r7
 938 0054 90BC     		pop	{r4, r7}
 939 0056 7047     		bx	lr
 940              		.cfi_endproc
 941              	.LFE75:
 943              		.section	.text.SetEP_KIND,"ax",%progbits
 944              		.align	2
 945              		.global	SetEP_KIND
 946              		.thumb
 947              		.thumb_func
 949              	SetEP_KIND:
 950              	.LFB76:
 292:../libraries/STM32_USB-FS-Device_Driver/src/usb_regs.c **** 
 293:../libraries/STM32_USB-FS-Device_Driver/src/usb_regs.c **** /*******************************************************************************
 294:../libraries/STM32_USB-FS-Device_Driver/src/usb_regs.c **** * Function Name  : SetEP_KIND
 295:../libraries/STM32_USB-FS-Device_Driver/src/usb_regs.c **** * Description    : Clear the EP_KIND bit.
 296:../libraries/STM32_USB-FS-Device_Driver/src/usb_regs.c **** * Input          : bEpNum: Endpoint Number. 
 297:../libraries/STM32_USB-FS-Device_Driver/src/usb_regs.c **** * Output         : None.
 298:../libraries/STM32_USB-FS-Device_Driver/src/usb_regs.c **** * Return         : None.
 299:../libraries/STM32_USB-FS-Device_Driver/src/usb_regs.c **** *******************************************************************************/
 300:../libraries/STM32_USB-FS-Device_Driver/src/usb_regs.c **** void SetEP_KIND(uint8_t bEpNum)
 301:../libraries/STM32_USB-FS-Device_Driver/src/usb_regs.c **** {
 951              		.loc 1 301 0
 952              		.cfi_startproc
 953              		@ args = 0, pretend = 0, frame = 8
 954              		@ frame_needed = 1, uses_anonymous_args = 0
 955              		@ link register save eliminated.
 956 0000 80B4     		push	{r7}
 957              	.LCFI55:
 958              		.cfi_def_cfa_offset 4
 959              		.cfi_offset 7, -4
 960 0002 83B0     		sub	sp, sp, #12
 961              	.LCFI56:
 962              		.cfi_def_cfa_offset 16
 963 0004 00AF     		add	r7, sp, #0
 964              	.LCFI57:
 965              		.cfi_def_cfa_register 7
 966 0006 0346     		mov	r3, r0
 967 0008 FB71     		strb	r3, [r7, #7]
 302:../libraries/STM32_USB-FS-Device_Driver/src/usb_regs.c ****   _SetEP_KIND(bEpNum);
 968              		.loc 1 302 0
 969 000a FB79     		ldrb	r3, [r7, #7]	@ zero_extendqisi2
 970 000c 4FEA8303 		lsl	r3, r3, #2
 971 0010 03F18042 		add	r2, r3, #1073741824
 972 0014 02F5B842 		add	r2, r2, #23552
 973 0018 FB79     		ldrb	r3, [r7, #7]	@ zero_extendqisi2
 974 001a 4FEA8303 		lsl	r3, r3, #2
 975 001e 03F18043 		add	r3, r3, #1073741824
 976 0022 03F5B843 		add	r3, r3, #23552
 977 0026 1B68     		ldr	r3, [r3, #0]
 978 0028 9BB2     		uxth	r3, r3
 979 002a 23F4F873 		bic	r3, r3, #496
 980 002e 4FEA0353 		lsl	r3, r3, #20
 981 0032 4FEA1353 		lsr	r3, r3, #20
 982 0036 9BB2     		uxth	r3, r3
 983 0038 43F07F43 		orr	r3, r3, #-16777216
 984 003c 43F47F03 		orr	r3, r3, #16711680
 985 0040 43F40143 		orr	r3, r3, #33024
 986 0044 43F08003 		orr	r3, r3, #128
 987 0048 9BB2     		uxth	r3, r3
 988 004a 9BB2     		uxth	r3, r3
 989 004c 1360     		str	r3, [r2, #0]
 303:../libraries/STM32_USB-FS-Device_Driver/src/usb_regs.c **** }
 990              		.loc 1 303 0
 991 004e 07F10C07 		add	r7, r7, #12
 992 0052 BD46     		mov	sp, r7
 993 0054 80BC     		pop	{r7}
 994 0056 7047     		bx	lr
 995              		.cfi_endproc
 996              	.LFE76:
 998              		.section	.text.ClearEP_KIND,"ax",%progbits
 999              		.align	2
 1000              		.global	ClearEP_KIND
 1001              		.thumb
 1002              		.thumb_func
 1004              	ClearEP_KIND:
 1005              	.LFB77:
 304:../libraries/STM32_USB-FS-Device_Driver/src/usb_regs.c **** 
 305:../libraries/STM32_USB-FS-Device_Driver/src/usb_regs.c **** /*******************************************************************************
 306:../libraries/STM32_USB-FS-Device_Driver/src/usb_regs.c **** * Function Name  : ClearEP_KIND
 307:../libraries/STM32_USB-FS-Device_Driver/src/usb_regs.c **** * Description    : set the  EP_KIND bit.
 308:../libraries/STM32_USB-FS-Device_Driver/src/usb_regs.c **** * Input          : bEpNum: Endpoint Number. 
 309:../libraries/STM32_USB-FS-Device_Driver/src/usb_regs.c **** * Output         : None.
 310:../libraries/STM32_USB-FS-Device_Driver/src/usb_regs.c **** * Return         : None.
 311:../libraries/STM32_USB-FS-Device_Driver/src/usb_regs.c **** *******************************************************************************/
 312:../libraries/STM32_USB-FS-Device_Driver/src/usb_regs.c **** void ClearEP_KIND(uint8_t bEpNum)
 313:../libraries/STM32_USB-FS-Device_Driver/src/usb_regs.c **** {
 1006              		.loc 1 313 0
 1007              		.cfi_startproc
 1008              		@ args = 0, pretend = 0, frame = 8
 1009              		@ frame_needed = 1, uses_anonymous_args = 0
 1010              		@ link register save eliminated.
 1011 0000 80B4     		push	{r7}
 1012              	.LCFI58:
 1013              		.cfi_def_cfa_offset 4
 1014              		.cfi_offset 7, -4
 1015 0002 83B0     		sub	sp, sp, #12
 1016              	.LCFI59:
 1017              		.cfi_def_cfa_offset 16
 1018 0004 00AF     		add	r7, sp, #0
 1019              	.LCFI60:
 1020              		.cfi_def_cfa_register 7
 1021 0006 0346     		mov	r3, r0
 1022 0008 FB71     		strb	r3, [r7, #7]
 314:../libraries/STM32_USB-FS-Device_Driver/src/usb_regs.c ****   _ClearEP_KIND(bEpNum);
 1023              		.loc 1 314 0
 1024 000a FB79     		ldrb	r3, [r7, #7]	@ zero_extendqisi2
 1025 000c 4FEA8303 		lsl	r3, r3, #2
 1026 0010 03F18042 		add	r2, r3, #1073741824
 1027 0014 02F5B842 		add	r2, r2, #23552
 1028 0018 FB79     		ldrb	r3, [r7, #7]	@ zero_extendqisi2
 1029 001a 4FEA8303 		lsl	r3, r3, #2
 1030 001e 03F18043 		add	r3, r3, #1073741824
 1031 0022 03F5B843 		add	r3, r3, #23552
 1032 0026 1B68     		ldr	r3, [r3, #0]
 1033 0028 9BB2     		uxth	r3, r3
 1034 002a 23F4F873 		bic	r3, r3, #496
 1035 002e 4FEA0353 		lsl	r3, r3, #20
 1036 0032 4FEA1353 		lsr	r3, r3, #20
 1037 0036 9BB2     		uxth	r3, r3
 1038 0038 43F07F43 		orr	r3, r3, #-16777216
 1039 003c 43F47F03 		orr	r3, r3, #16711680
 1040 0040 43F40043 		orr	r3, r3, #32768
 1041 0044 43F08003 		orr	r3, r3, #128
 1042 0048 9BB2     		uxth	r3, r3
 1043 004a 9BB2     		uxth	r3, r3
 1044 004c 1360     		str	r3, [r2, #0]
 315:../libraries/STM32_USB-FS-Device_Driver/src/usb_regs.c **** }
 1045              		.loc 1 315 0
 1046 004e 07F10C07 		add	r7, r7, #12
 1047 0052 BD46     		mov	sp, r7
 1048 0054 80BC     		pop	{r7}
 1049 0056 7047     		bx	lr
 1050              		.cfi_endproc
 1051              	.LFE77:
 1053              		.section	.text.Clear_Status_Out,"ax",%progbits
 1054              		.align	2
 1055              		.global	Clear_Status_Out
 1056              		.thumb
 1057              		.thumb_func
 1059              	Clear_Status_Out:
 1060              	.LFB78:
 316:../libraries/STM32_USB-FS-Device_Driver/src/usb_regs.c **** /*******************************************************************************
 317:../libraries/STM32_USB-FS-Device_Driver/src/usb_regs.c **** * Function Name  : Clear_Status_Out
 318:../libraries/STM32_USB-FS-Device_Driver/src/usb_regs.c **** * Description    : Clear the Status Out of the related Endpoint
 319:../libraries/STM32_USB-FS-Device_Driver/src/usb_regs.c **** * Input          : bEpNum: Endpoint Number. 
 320:../libraries/STM32_USB-FS-Device_Driver/src/usb_regs.c **** * Output         : None.
 321:../libraries/STM32_USB-FS-Device_Driver/src/usb_regs.c **** * Return         : None.
 322:../libraries/STM32_USB-FS-Device_Driver/src/usb_regs.c **** *******************************************************************************/
 323:../libraries/STM32_USB-FS-Device_Driver/src/usb_regs.c **** void Clear_Status_Out(uint8_t bEpNum)
 324:../libraries/STM32_USB-FS-Device_Driver/src/usb_regs.c **** {
 1061              		.loc 1 324 0
 1062              		.cfi_startproc
 1063              		@ args = 0, pretend = 0, frame = 8
 1064              		@ frame_needed = 1, uses_anonymous_args = 0
 1065              		@ link register save eliminated.
 1066 0000 80B4     		push	{r7}
 1067              	.LCFI61:
 1068              		.cfi_def_cfa_offset 4
 1069              		.cfi_offset 7, -4
 1070 0002 83B0     		sub	sp, sp, #12
 1071              	.LCFI62:
 1072              		.cfi_def_cfa_offset 16
 1073 0004 00AF     		add	r7, sp, #0
 1074              	.LCFI63:
 1075              		.cfi_def_cfa_register 7
 1076 0006 0346     		mov	r3, r0
 1077 0008 FB71     		strb	r3, [r7, #7]
 325:../libraries/STM32_USB-FS-Device_Driver/src/usb_regs.c ****   _ClearEP_KIND(bEpNum);
 1078              		.loc 1 325 0
 1079 000a FB79     		ldrb	r3, [r7, #7]	@ zero_extendqisi2
 1080 000c 4FEA8303 		lsl	r3, r3, #2
 1081 0010 03F18042 		add	r2, r3, #1073741824
 1082 0014 02F5B842 		add	r2, r2, #23552
 1083 0018 FB79     		ldrb	r3, [r7, #7]	@ zero_extendqisi2
 1084 001a 4FEA8303 		lsl	r3, r3, #2
 1085 001e 03F18043 		add	r3, r3, #1073741824
 1086 0022 03F5B843 		add	r3, r3, #23552
 1087 0026 1B68     		ldr	r3, [r3, #0]
 1088 0028 9BB2     		uxth	r3, r3
 1089 002a 23F4F873 		bic	r3, r3, #496
 1090 002e 4FEA0353 		lsl	r3, r3, #20
 1091 0032 4FEA1353 		lsr	r3, r3, #20
 1092 0036 9BB2     		uxth	r3, r3
 1093 0038 43F07F43 		orr	r3, r3, #-16777216
 1094 003c 43F47F03 		orr	r3, r3, #16711680
 1095 0040 43F40043 		orr	r3, r3, #32768
 1096 0044 43F08003 		orr	r3, r3, #128
 1097 0048 9BB2     		uxth	r3, r3
 1098 004a 9BB2     		uxth	r3, r3
 1099 004c 1360     		str	r3, [r2, #0]
 326:../libraries/STM32_USB-FS-Device_Driver/src/usb_regs.c **** }
 1100              		.loc 1 326 0
 1101 004e 07F10C07 		add	r7, r7, #12
 1102 0052 BD46     		mov	sp, r7
 1103 0054 80BC     		pop	{r7}
 1104 0056 7047     		bx	lr
 1105              		.cfi_endproc
 1106              	.LFE78:
 1108              		.section	.text.Set_Status_Out,"ax",%progbits
 1109              		.align	2
 1110              		.global	Set_Status_Out
 1111              		.thumb
 1112              		.thumb_func
 1114              	Set_Status_Out:
 1115              	.LFB79:
 327:../libraries/STM32_USB-FS-Device_Driver/src/usb_regs.c **** /*******************************************************************************
 328:../libraries/STM32_USB-FS-Device_Driver/src/usb_regs.c **** * Function Name  : Set_Status_Out
 329:../libraries/STM32_USB-FS-Device_Driver/src/usb_regs.c **** * Description    : Set the Status Out of the related Endpoint
 330:../libraries/STM32_USB-FS-Device_Driver/src/usb_regs.c **** * Input          : bEpNum: Endpoint Number. 
 331:../libraries/STM32_USB-FS-Device_Driver/src/usb_regs.c **** * Output         : None.
 332:../libraries/STM32_USB-FS-Device_Driver/src/usb_regs.c **** * Return         : None.
 333:../libraries/STM32_USB-FS-Device_Driver/src/usb_regs.c **** *******************************************************************************/
 334:../libraries/STM32_USB-FS-Device_Driver/src/usb_regs.c **** void Set_Status_Out(uint8_t bEpNum)
 335:../libraries/STM32_USB-FS-Device_Driver/src/usb_regs.c **** {
 1116              		.loc 1 335 0
 1117              		.cfi_startproc
 1118              		@ args = 0, pretend = 0, frame = 8
 1119              		@ frame_needed = 1, uses_anonymous_args = 0
 1120              		@ link register save eliminated.
 1121 0000 80B4     		push	{r7}
 1122              	.LCFI64:
 1123              		.cfi_def_cfa_offset 4
 1124              		.cfi_offset 7, -4
 1125 0002 83B0     		sub	sp, sp, #12
 1126              	.LCFI65:
 1127              		.cfi_def_cfa_offset 16
 1128 0004 00AF     		add	r7, sp, #0
 1129              	.LCFI66:
 1130              		.cfi_def_cfa_register 7
 1131 0006 0346     		mov	r3, r0
 1132 0008 FB71     		strb	r3, [r7, #7]
 336:../libraries/STM32_USB-FS-Device_Driver/src/usb_regs.c ****   _SetEP_KIND(bEpNum);
 1133              		.loc 1 336 0
 1134 000a FB79     		ldrb	r3, [r7, #7]	@ zero_extendqisi2
 1135 000c 4FEA8303 		lsl	r3, r3, #2
 1136 0010 03F18042 		add	r2, r3, #1073741824
 1137 0014 02F5B842 		add	r2, r2, #23552
 1138 0018 FB79     		ldrb	r3, [r7, #7]	@ zero_extendqisi2
 1139 001a 4FEA8303 		lsl	r3, r3, #2
 1140 001e 03F18043 		add	r3, r3, #1073741824
 1141 0022 03F5B843 		add	r3, r3, #23552
 1142 0026 1B68     		ldr	r3, [r3, #0]
 1143 0028 9BB2     		uxth	r3, r3
 1144 002a 23F4F873 		bic	r3, r3, #496
 1145 002e 4FEA0353 		lsl	r3, r3, #20
 1146 0032 4FEA1353 		lsr	r3, r3, #20
 1147 0036 9BB2     		uxth	r3, r3
 1148 0038 43F07F43 		orr	r3, r3, #-16777216
 1149 003c 43F47F03 		orr	r3, r3, #16711680
 1150 0040 43F40143 		orr	r3, r3, #33024
 1151 0044 43F08003 		orr	r3, r3, #128
 1152 0048 9BB2     		uxth	r3, r3
 1153 004a 9BB2     		uxth	r3, r3
 1154 004c 1360     		str	r3, [r2, #0]
 337:../libraries/STM32_USB-FS-Device_Driver/src/usb_regs.c **** }
 1155              		.loc 1 337 0
 1156 004e 07F10C07 		add	r7, r7, #12
 1157 0052 BD46     		mov	sp, r7
 1158 0054 80BC     		pop	{r7}
 1159 0056 7047     		bx	lr
 1160              		.cfi_endproc
 1161              	.LFE79:
 1163              		.section	.text.SetEPDoubleBuff,"ax",%progbits
 1164              		.align	2
 1165              		.global	SetEPDoubleBuff
 1166              		.thumb
 1167              		.thumb_func
 1169              	SetEPDoubleBuff:
 1170              	.LFB80:
 338:../libraries/STM32_USB-FS-Device_Driver/src/usb_regs.c **** /*******************************************************************************
 339:../libraries/STM32_USB-FS-Device_Driver/src/usb_regs.c **** * Function Name  : SetEPDoubleBuff
 340:../libraries/STM32_USB-FS-Device_Driver/src/usb_regs.c **** * Description    : Enable the double buffer feature for the endpoint. 
 341:../libraries/STM32_USB-FS-Device_Driver/src/usb_regs.c **** * Input          : bEpNum: Endpoint Number. 
 342:../libraries/STM32_USB-FS-Device_Driver/src/usb_regs.c **** * Output         : None.
 343:../libraries/STM32_USB-FS-Device_Driver/src/usb_regs.c **** * Return         : None.
 344:../libraries/STM32_USB-FS-Device_Driver/src/usb_regs.c **** *******************************************************************************/
 345:../libraries/STM32_USB-FS-Device_Driver/src/usb_regs.c **** void SetEPDoubleBuff(uint8_t bEpNum)
 346:../libraries/STM32_USB-FS-Device_Driver/src/usb_regs.c **** {
 1171              		.loc 1 346 0
 1172              		.cfi_startproc
 1173              		@ args = 0, pretend = 0, frame = 8
 1174              		@ frame_needed = 1, uses_anonymous_args = 0
 1175              		@ link register save eliminated.
 1176 0000 80B4     		push	{r7}
 1177              	.LCFI67:
 1178              		.cfi_def_cfa_offset 4
 1179              		.cfi_offset 7, -4
 1180 0002 83B0     		sub	sp, sp, #12
 1181              	.LCFI68:
 1182              		.cfi_def_cfa_offset 16
 1183 0004 00AF     		add	r7, sp, #0
 1184              	.LCFI69:
 1185              		.cfi_def_cfa_register 7
 1186 0006 0346     		mov	r3, r0
 1187 0008 FB71     		strb	r3, [r7, #7]
 347:../libraries/STM32_USB-FS-Device_Driver/src/usb_regs.c ****   _SetEP_KIND(bEpNum);
 1188              		.loc 1 347 0
 1189 000a FB79     		ldrb	r3, [r7, #7]	@ zero_extendqisi2
 1190 000c 4FEA8303 		lsl	r3, r3, #2
 1191 0010 03F18042 		add	r2, r3, #1073741824
 1192 0014 02F5B842 		add	r2, r2, #23552
 1193 0018 FB79     		ldrb	r3, [r7, #7]	@ zero_extendqisi2
 1194 001a 4FEA8303 		lsl	r3, r3, #2
 1195 001e 03F18043 		add	r3, r3, #1073741824
 1196 0022 03F5B843 		add	r3, r3, #23552
 1197 0026 1B68     		ldr	r3, [r3, #0]
 1198 0028 9BB2     		uxth	r3, r3
 1199 002a 23F4F873 		bic	r3, r3, #496
 1200 002e 4FEA0353 		lsl	r3, r3, #20
 1201 0032 4FEA1353 		lsr	r3, r3, #20
 1202 0036 9BB2     		uxth	r3, r3
 1203 0038 43F07F43 		orr	r3, r3, #-16777216
 1204 003c 43F47F03 		orr	r3, r3, #16711680
 1205 0040 43F40143 		orr	r3, r3, #33024
 1206 0044 43F08003 		orr	r3, r3, #128
 1207 0048 9BB2     		uxth	r3, r3
 1208 004a 9BB2     		uxth	r3, r3
 1209 004c 1360     		str	r3, [r2, #0]
 348:../libraries/STM32_USB-FS-Device_Driver/src/usb_regs.c **** }
 1210              		.loc 1 348 0
 1211 004e 07F10C07 		add	r7, r7, #12
 1212 0052 BD46     		mov	sp, r7
 1213 0054 80BC     		pop	{r7}
 1214 0056 7047     		bx	lr
 1215              		.cfi_endproc
 1216              	.LFE80:
 1218              		.section	.text.ClearEPDoubleBuff,"ax",%progbits
 1219              		.align	2
 1220              		.global	ClearEPDoubleBuff
 1221              		.thumb
 1222              		.thumb_func
 1224              	ClearEPDoubleBuff:
 1225              	.LFB81:
 349:../libraries/STM32_USB-FS-Device_Driver/src/usb_regs.c **** /*******************************************************************************
 350:../libraries/STM32_USB-FS-Device_Driver/src/usb_regs.c **** * Function Name  : ClearEPDoubleBuff
 351:../libraries/STM32_USB-FS-Device_Driver/src/usb_regs.c **** * Description    : Disable the double buffer feature for the endpoint. 
 352:../libraries/STM32_USB-FS-Device_Driver/src/usb_regs.c **** * Input          : bEpNum: Endpoint Number. 
 353:../libraries/STM32_USB-FS-Device_Driver/src/usb_regs.c **** * Output         : None.
 354:../libraries/STM32_USB-FS-Device_Driver/src/usb_regs.c **** * Return         : None.
 355:../libraries/STM32_USB-FS-Device_Driver/src/usb_regs.c **** *******************************************************************************/
 356:../libraries/STM32_USB-FS-Device_Driver/src/usb_regs.c **** void ClearEPDoubleBuff(uint8_t bEpNum)
 357:../libraries/STM32_USB-FS-Device_Driver/src/usb_regs.c **** {
 1226              		.loc 1 357 0
 1227              		.cfi_startproc
 1228              		@ args = 0, pretend = 0, frame = 8
 1229              		@ frame_needed = 1, uses_anonymous_args = 0
 1230              		@ link register save eliminated.
 1231 0000 80B4     		push	{r7}
 1232              	.LCFI70:
 1233              		.cfi_def_cfa_offset 4
 1234              		.cfi_offset 7, -4
 1235 0002 83B0     		sub	sp, sp, #12
 1236              	.LCFI71:
 1237              		.cfi_def_cfa_offset 16
 1238 0004 00AF     		add	r7, sp, #0
 1239              	.LCFI72:
 1240              		.cfi_def_cfa_register 7
 1241 0006 0346     		mov	r3, r0
 1242 0008 FB71     		strb	r3, [r7, #7]
 358:../libraries/STM32_USB-FS-Device_Driver/src/usb_regs.c ****   _ClearEP_KIND(bEpNum);
 1243              		.loc 1 358 0
 1244 000a FB79     		ldrb	r3, [r7, #7]	@ zero_extendqisi2
 1245 000c 4FEA8303 		lsl	r3, r3, #2
 1246 0010 03F18042 		add	r2, r3, #1073741824
 1247 0014 02F5B842 		add	r2, r2, #23552
 1248 0018 FB79     		ldrb	r3, [r7, #7]	@ zero_extendqisi2
 1249 001a 4FEA8303 		lsl	r3, r3, #2
 1250 001e 03F18043 		add	r3, r3, #1073741824
 1251 0022 03F5B843 		add	r3, r3, #23552
 1252 0026 1B68     		ldr	r3, [r3, #0]
 1253 0028 9BB2     		uxth	r3, r3
 1254 002a 23F4F873 		bic	r3, r3, #496
 1255 002e 4FEA0353 		lsl	r3, r3, #20
 1256 0032 4FEA1353 		lsr	r3, r3, #20
 1257 0036 9BB2     		uxth	r3, r3
 1258 0038 43F07F43 		orr	r3, r3, #-16777216
 1259 003c 43F47F03 		orr	r3, r3, #16711680
 1260 0040 43F40043 		orr	r3, r3, #32768
 1261 0044 43F08003 		orr	r3, r3, #128
 1262 0048 9BB2     		uxth	r3, r3
 1263 004a 9BB2     		uxth	r3, r3
 1264 004c 1360     		str	r3, [r2, #0]
 359:../libraries/STM32_USB-FS-Device_Driver/src/usb_regs.c **** }
 1265              		.loc 1 359 0
 1266 004e 07F10C07 		add	r7, r7, #12
 1267 0052 BD46     		mov	sp, r7
 1268 0054 80BC     		pop	{r7}
 1269 0056 7047     		bx	lr
 1270              		.cfi_endproc
 1271              	.LFE81:
 1273              		.section	.text.GetTxStallStatus,"ax",%progbits
 1274              		.align	2
 1275              		.global	GetTxStallStatus
 1276              		.thumb
 1277              		.thumb_func
 1279              	GetTxStallStatus:
 1280              	.LFB82:
 360:../libraries/STM32_USB-FS-Device_Driver/src/usb_regs.c **** /*******************************************************************************
 361:../libraries/STM32_USB-FS-Device_Driver/src/usb_regs.c **** * Function Name  : GetTxStallStatus
 362:../libraries/STM32_USB-FS-Device_Driver/src/usb_regs.c **** * Description    : Returns the Stall status of the Tx endpoint.
 363:../libraries/STM32_USB-FS-Device_Driver/src/usb_regs.c **** * Input          : bEpNum: Endpoint Number. 
 364:../libraries/STM32_USB-FS-Device_Driver/src/usb_regs.c **** * Output         : None.
 365:../libraries/STM32_USB-FS-Device_Driver/src/usb_regs.c **** * Return         : Tx Stall status.
 366:../libraries/STM32_USB-FS-Device_Driver/src/usb_regs.c **** *******************************************************************************/
 367:../libraries/STM32_USB-FS-Device_Driver/src/usb_regs.c **** uint16_t GetTxStallStatus(uint8_t bEpNum)
 368:../libraries/STM32_USB-FS-Device_Driver/src/usb_regs.c **** {
 1281              		.loc 1 368 0
 1282              		.cfi_startproc
 1283              		@ args = 0, pretend = 0, frame = 8
 1284              		@ frame_needed = 1, uses_anonymous_args = 0
 1285              		@ link register save eliminated.
 1286 0000 80B4     		push	{r7}
 1287              	.LCFI73:
 1288              		.cfi_def_cfa_offset 4
 1289              		.cfi_offset 7, -4
 1290 0002 83B0     		sub	sp, sp, #12
 1291              	.LCFI74:
 1292              		.cfi_def_cfa_offset 16
 1293 0004 00AF     		add	r7, sp, #0
 1294              	.LCFI75:
 1295              		.cfi_def_cfa_register 7
 1296 0006 0346     		mov	r3, r0
 1297 0008 FB71     		strb	r3, [r7, #7]
 369:../libraries/STM32_USB-FS-Device_Driver/src/usb_regs.c ****   return(_GetTxStallStatus(bEpNum));
 1298              		.loc 1 369 0
 1299 000a FB79     		ldrb	r3, [r7, #7]	@ zero_extendqisi2
 1300 000c 4FEA8303 		lsl	r3, r3, #2
 1301 0010 03F18043 		add	r3, r3, #1073741824
 1302 0014 03F5B843 		add	r3, r3, #23552
 1303 0018 1B68     		ldr	r3, [r3, #0]
 1304 001a 9BB2     		uxth	r3, r3
 1305 001c 03F03003 		and	r3, r3, #48
 1306 0020 102B     		cmp	r3, #16
 1307 0022 14BF     		ite	ne
 1308 0024 0023     		movne	r3, #0
 1309 0026 0123     		moveq	r3, #1
 1310 0028 DBB2     		uxtb	r3, r3
 370:../libraries/STM32_USB-FS-Device_Driver/src/usb_regs.c **** }
 1311              		.loc 1 370 0
 1312 002a 1846     		mov	r0, r3
 1313 002c 07F10C07 		add	r7, r7, #12
 1314 0030 BD46     		mov	sp, r7
 1315 0032 80BC     		pop	{r7}
 1316 0034 7047     		bx	lr
 1317              		.cfi_endproc
 1318              	.LFE82:
 1320 0036 00BF     		.section	.text.GetRxStallStatus,"ax",%progbits
 1321              		.align	2
 1322              		.global	GetRxStallStatus
 1323              		.thumb
 1324              		.thumb_func
 1326              	GetRxStallStatus:
 1327              	.LFB83:
 371:../libraries/STM32_USB-FS-Device_Driver/src/usb_regs.c **** /*******************************************************************************
 372:../libraries/STM32_USB-FS-Device_Driver/src/usb_regs.c **** * Function Name  : GetRxStallStatus
 373:../libraries/STM32_USB-FS-Device_Driver/src/usb_regs.c **** * Description    : Returns the Stall status of the Rx endpoint. 
 374:../libraries/STM32_USB-FS-Device_Driver/src/usb_regs.c **** * Input          : bEpNum: Endpoint Number. 
 375:../libraries/STM32_USB-FS-Device_Driver/src/usb_regs.c **** * Output         : None.
 376:../libraries/STM32_USB-FS-Device_Driver/src/usb_regs.c **** * Return         : Rx Stall status.
 377:../libraries/STM32_USB-FS-Device_Driver/src/usb_regs.c **** *******************************************************************************/
 378:../libraries/STM32_USB-FS-Device_Driver/src/usb_regs.c **** uint16_t GetRxStallStatus(uint8_t bEpNum)
 379:../libraries/STM32_USB-FS-Device_Driver/src/usb_regs.c **** {
 1328              		.loc 1 379 0
 1329              		.cfi_startproc
 1330              		@ args = 0, pretend = 0, frame = 8
 1331              		@ frame_needed = 1, uses_anonymous_args = 0
 1332              		@ link register save eliminated.
 1333 0000 80B4     		push	{r7}
 1334              	.LCFI76:
 1335              		.cfi_def_cfa_offset 4
 1336              		.cfi_offset 7, -4
 1337 0002 83B0     		sub	sp, sp, #12
 1338              	.LCFI77:
 1339              		.cfi_def_cfa_offset 16
 1340 0004 00AF     		add	r7, sp, #0
 1341              	.LCFI78:
 1342              		.cfi_def_cfa_register 7
 1343 0006 0346     		mov	r3, r0
 1344 0008 FB71     		strb	r3, [r7, #7]
 380:../libraries/STM32_USB-FS-Device_Driver/src/usb_regs.c ****   return(_GetRxStallStatus(bEpNum));
 1345              		.loc 1 380 0
 1346 000a FB79     		ldrb	r3, [r7, #7]	@ zero_extendqisi2
 1347 000c 4FEA8303 		lsl	r3, r3, #2
 1348 0010 03F18043 		add	r3, r3, #1073741824
 1349 0014 03F5B843 		add	r3, r3, #23552
 1350 0018 1B68     		ldr	r3, [r3, #0]
 1351 001a 9BB2     		uxth	r3, r3
 1352 001c 03F44053 		and	r3, r3, #12288
 1353 0020 B3F5805F 		cmp	r3, #4096
 1354 0024 14BF     		ite	ne
 1355 0026 0023     		movne	r3, #0
 1356 0028 0123     		moveq	r3, #1
 1357 002a DBB2     		uxtb	r3, r3
 381:../libraries/STM32_USB-FS-Device_Driver/src/usb_regs.c **** }
 1358              		.loc 1 381 0
 1359 002c 1846     		mov	r0, r3
 1360 002e 07F10C07 		add	r7, r7, #12
 1361 0032 BD46     		mov	sp, r7
 1362 0034 80BC     		pop	{r7}
 1363 0036 7047     		bx	lr
 1364              		.cfi_endproc
 1365              	.LFE83:
 1367              		.section	.text.ClearEP_CTR_RX,"ax",%progbits
 1368              		.align	2
 1369              		.global	ClearEP_CTR_RX
 1370              		.thumb
 1371              		.thumb_func
 1373              	ClearEP_CTR_RX:
 1374              	.LFB84:
 382:../libraries/STM32_USB-FS-Device_Driver/src/usb_regs.c **** /*******************************************************************************
 383:../libraries/STM32_USB-FS-Device_Driver/src/usb_regs.c **** * Function Name  : ClearEP_CTR_RX
 384:../libraries/STM32_USB-FS-Device_Driver/src/usb_regs.c **** * Description    : Clear the CTR_RX bit.
 385:../libraries/STM32_USB-FS-Device_Driver/src/usb_regs.c **** * Input          : bEpNum: Endpoint Number. 
 386:../libraries/STM32_USB-FS-Device_Driver/src/usb_regs.c **** * Output         : None.
 387:../libraries/STM32_USB-FS-Device_Driver/src/usb_regs.c **** * Return         : None.
 388:../libraries/STM32_USB-FS-Device_Driver/src/usb_regs.c **** *******************************************************************************/
 389:../libraries/STM32_USB-FS-Device_Driver/src/usb_regs.c **** void ClearEP_CTR_RX(uint8_t bEpNum)
 390:../libraries/STM32_USB-FS-Device_Driver/src/usb_regs.c **** {
 1375              		.loc 1 390 0
 1376              		.cfi_startproc
 1377              		@ args = 0, pretend = 0, frame = 8
 1378              		@ frame_needed = 1, uses_anonymous_args = 0
 1379              		@ link register save eliminated.
 1380 0000 80B4     		push	{r7}
 1381              	.LCFI79:
 1382              		.cfi_def_cfa_offset 4
 1383              		.cfi_offset 7, -4
 1384 0002 83B0     		sub	sp, sp, #12
 1385              	.LCFI80:
 1386              		.cfi_def_cfa_offset 16
 1387 0004 00AF     		add	r7, sp, #0
 1388              	.LCFI81:
 1389              		.cfi_def_cfa_register 7
 1390 0006 0346     		mov	r3, r0
 1391 0008 FB71     		strb	r3, [r7, #7]
 391:../libraries/STM32_USB-FS-Device_Driver/src/usb_regs.c ****   _ClearEP_CTR_RX(bEpNum);
 1392              		.loc 1 391 0
 1393 000a FB79     		ldrb	r3, [r7, #7]	@ zero_extendqisi2
 1394 000c 4FEA8303 		lsl	r3, r3, #2
 1395 0010 03F18043 		add	r3, r3, #1073741824
 1396 0014 03F5B843 		add	r3, r3, #23552
 1397 0018 FA79     		ldrb	r2, [r7, #7]	@ zero_extendqisi2
 1398 001a 4FEA8202 		lsl	r2, r2, #2
 1399 001e 02F18042 		add	r2, r2, #1073741824
 1400 0022 02F5B842 		add	r2, r2, #23552
 1401 0026 1268     		ldr	r2, [r2, #0]
 1402 0028 92B2     		uxth	r2, r2
 1403 002a 1146     		mov	r1, r2
 1404 002c 40F68F72 		movw	r2, #3983
 1405 0030 0A40     		ands	r2, r2, r1
 1406 0032 1A60     		str	r2, [r3, #0]
 392:../libraries/STM32_USB-FS-Device_Driver/src/usb_regs.c **** }
 1407              		.loc 1 392 0
 1408 0034 07F10C07 		add	r7, r7, #12
 1409 0038 BD46     		mov	sp, r7
 1410 003a 80BC     		pop	{r7}
 1411 003c 7047     		bx	lr
 1412              		.cfi_endproc
 1413              	.LFE84:
 1415 003e 00BF     		.section	.text.ClearEP_CTR_TX,"ax",%progbits
 1416              		.align	2
 1417              		.global	ClearEP_CTR_TX
 1418              		.thumb
 1419              		.thumb_func
 1421              	ClearEP_CTR_TX:
 1422              	.LFB85:
 393:../libraries/STM32_USB-FS-Device_Driver/src/usb_regs.c **** /*******************************************************************************
 394:../libraries/STM32_USB-FS-Device_Driver/src/usb_regs.c **** * Function Name  : ClearEP_CTR_TX
 395:../libraries/STM32_USB-FS-Device_Driver/src/usb_regs.c **** * Description    : Clear the CTR_TX bit.
 396:../libraries/STM32_USB-FS-Device_Driver/src/usb_regs.c **** * Input          : bEpNum: Endpoint Number. 
 397:../libraries/STM32_USB-FS-Device_Driver/src/usb_regs.c **** * Output         : None.
 398:../libraries/STM32_USB-FS-Device_Driver/src/usb_regs.c **** * Return         : None.
 399:../libraries/STM32_USB-FS-Device_Driver/src/usb_regs.c **** *******************************************************************************/
 400:../libraries/STM32_USB-FS-Device_Driver/src/usb_regs.c **** void ClearEP_CTR_TX(uint8_t bEpNum)
 401:../libraries/STM32_USB-FS-Device_Driver/src/usb_regs.c **** {
 1423              		.loc 1 401 0
 1424              		.cfi_startproc
 1425              		@ args = 0, pretend = 0, frame = 8
 1426              		@ frame_needed = 1, uses_anonymous_args = 0
 1427              		@ link register save eliminated.
 1428 0000 80B4     		push	{r7}
 1429              	.LCFI82:
 1430              		.cfi_def_cfa_offset 4
 1431              		.cfi_offset 7, -4
 1432 0002 83B0     		sub	sp, sp, #12
 1433              	.LCFI83:
 1434              		.cfi_def_cfa_offset 16
 1435 0004 00AF     		add	r7, sp, #0
 1436              	.LCFI84:
 1437              		.cfi_def_cfa_register 7
 1438 0006 0346     		mov	r3, r0
 1439 0008 FB71     		strb	r3, [r7, #7]
 402:../libraries/STM32_USB-FS-Device_Driver/src/usb_regs.c ****   _ClearEP_CTR_TX(bEpNum);
 1440              		.loc 1 402 0
 1441 000a FB79     		ldrb	r3, [r7, #7]	@ zero_extendqisi2
 1442 000c 4FEA8303 		lsl	r3, r3, #2
 1443 0010 03F18043 		add	r3, r3, #1073741824
 1444 0014 03F5B843 		add	r3, r3, #23552
 1445 0018 FA79     		ldrb	r2, [r7, #7]	@ zero_extendqisi2
 1446 001a 4FEA8202 		lsl	r2, r2, #2
 1447 001e 02F18042 		add	r2, r2, #1073741824
 1448 0022 02F5B842 		add	r2, r2, #23552
 1449 0026 1268     		ldr	r2, [r2, #0]
 1450 0028 92B2     		uxth	r2, r2
 1451 002a 1146     		mov	r1, r2
 1452 002c 48F60F72 		movw	r2, #36623
 1453 0030 0A40     		ands	r2, r2, r1
 1454 0032 1A60     		str	r2, [r3, #0]
 403:../libraries/STM32_USB-FS-Device_Driver/src/usb_regs.c **** }
 1455              		.loc 1 403 0
 1456 0034 07F10C07 		add	r7, r7, #12
 1457 0038 BD46     		mov	sp, r7
 1458 003a 80BC     		pop	{r7}
 1459 003c 7047     		bx	lr
 1460              		.cfi_endproc
 1461              	.LFE85:
 1463 003e 00BF     		.section	.text.ToggleDTOG_RX,"ax",%progbits
 1464              		.align	2
 1465              		.global	ToggleDTOG_RX
 1466              		.thumb
 1467              		.thumb_func
 1469              	ToggleDTOG_RX:
 1470              	.LFB86:
 404:../libraries/STM32_USB-FS-Device_Driver/src/usb_regs.c **** /*******************************************************************************
 405:../libraries/STM32_USB-FS-Device_Driver/src/usb_regs.c **** * Function Name  : ToggleDTOG_RX
 406:../libraries/STM32_USB-FS-Device_Driver/src/usb_regs.c **** * Description    : Toggle the DTOG_RX bit.
 407:../libraries/STM32_USB-FS-Device_Driver/src/usb_regs.c **** * Input          : bEpNum: Endpoint Number. 
 408:../libraries/STM32_USB-FS-Device_Driver/src/usb_regs.c **** * Output         : None.
 409:../libraries/STM32_USB-FS-Device_Driver/src/usb_regs.c **** * Return         : None.
 410:../libraries/STM32_USB-FS-Device_Driver/src/usb_regs.c **** *******************************************************************************/
 411:../libraries/STM32_USB-FS-Device_Driver/src/usb_regs.c **** void ToggleDTOG_RX(uint8_t bEpNum)
 412:../libraries/STM32_USB-FS-Device_Driver/src/usb_regs.c **** {
 1471              		.loc 1 412 0
 1472              		.cfi_startproc
 1473              		@ args = 0, pretend = 0, frame = 8
 1474              		@ frame_needed = 1, uses_anonymous_args = 0
 1475              		@ link register save eliminated.
 1476 0000 80B4     		push	{r7}
 1477              	.LCFI85:
 1478              		.cfi_def_cfa_offset 4
 1479              		.cfi_offset 7, -4
 1480 0002 83B0     		sub	sp, sp, #12
 1481              	.LCFI86:
 1482              		.cfi_def_cfa_offset 16
 1483 0004 00AF     		add	r7, sp, #0
 1484              	.LCFI87:
 1485              		.cfi_def_cfa_register 7
 1486 0006 0346     		mov	r3, r0
 1487 0008 FB71     		strb	r3, [r7, #7]
 413:../libraries/STM32_USB-FS-Device_Driver/src/usb_regs.c ****   _ToggleDTOG_RX(bEpNum);
 1488              		.loc 1 413 0
 1489 000a FB79     		ldrb	r3, [r7, #7]	@ zero_extendqisi2
 1490 000c 4FEA8303 		lsl	r3, r3, #2
 1491 0010 03F18043 		add	r3, r3, #1073741824
 1492 0014 03F5B843 		add	r3, r3, #23552
 1493 0018 FA79     		ldrb	r2, [r7, #7]	@ zero_extendqisi2
 1494 001a 4FEA8202 		lsl	r2, r2, #2
 1495 001e 02F18042 		add	r2, r2, #1073741824
 1496 0022 02F5B842 		add	r2, r2, #23552
 1497 0026 1268     		ldr	r2, [r2, #0]
 1498 0028 92B2     		uxth	r2, r2
 1499 002a 1146     		mov	r1, r2
 1500 002c 40F60F72 		movw	r2, #3855
 1501 0030 0A40     		ands	r2, r2, r1
 1502 0032 42F44042 		orr	r2, r2, #49152
 1503 0036 42F08002 		orr	r2, r2, #128
 1504 003a 1A60     		str	r2, [r3, #0]
 414:../libraries/STM32_USB-FS-Device_Driver/src/usb_regs.c **** }
 1505              		.loc 1 414 0
 1506 003c 07F10C07 		add	r7, r7, #12
 1507 0040 BD46     		mov	sp, r7
 1508 0042 80BC     		pop	{r7}
 1509 0044 7047     		bx	lr
 1510              		.cfi_endproc
 1511              	.LFE86:
 1513 0046 00BF     		.section	.text.ToggleDTOG_TX,"ax",%progbits
 1514              		.align	2
 1515              		.global	ToggleDTOG_TX
 1516              		.thumb
 1517              		.thumb_func
 1519              	ToggleDTOG_TX:
 1520              	.LFB87:
 415:../libraries/STM32_USB-FS-Device_Driver/src/usb_regs.c **** /*******************************************************************************
 416:../libraries/STM32_USB-FS-Device_Driver/src/usb_regs.c **** * Function Name  : ToggleDTOG_TX
 417:../libraries/STM32_USB-FS-Device_Driver/src/usb_regs.c **** * Description    : Toggle the DTOG_TX bit.
 418:../libraries/STM32_USB-FS-Device_Driver/src/usb_regs.c **** * Input          : bEpNum: Endpoint Number. 
 419:../libraries/STM32_USB-FS-Device_Driver/src/usb_regs.c **** * Output         : None.
 420:../libraries/STM32_USB-FS-Device_Driver/src/usb_regs.c **** * Return         : None.
 421:../libraries/STM32_USB-FS-Device_Driver/src/usb_regs.c **** *******************************************************************************/
 422:../libraries/STM32_USB-FS-Device_Driver/src/usb_regs.c **** void ToggleDTOG_TX(uint8_t bEpNum)
 423:../libraries/STM32_USB-FS-Device_Driver/src/usb_regs.c **** {
 1521              		.loc 1 423 0
 1522              		.cfi_startproc
 1523              		@ args = 0, pretend = 0, frame = 8
 1524              		@ frame_needed = 1, uses_anonymous_args = 0
 1525              		@ link register save eliminated.
 1526 0000 80B4     		push	{r7}
 1527              	.LCFI88:
 1528              		.cfi_def_cfa_offset 4
 1529              		.cfi_offset 7, -4
 1530 0002 83B0     		sub	sp, sp, #12
 1531              	.LCFI89:
 1532              		.cfi_def_cfa_offset 16
 1533 0004 00AF     		add	r7, sp, #0
 1534              	.LCFI90:
 1535              		.cfi_def_cfa_register 7
 1536 0006 0346     		mov	r3, r0
 1537 0008 FB71     		strb	r3, [r7, #7]
 424:../libraries/STM32_USB-FS-Device_Driver/src/usb_regs.c ****   _ToggleDTOG_TX(bEpNum);
 1538              		.loc 1 424 0
 1539 000a FB79     		ldrb	r3, [r7, #7]	@ zero_extendqisi2
 1540 000c 4FEA8303 		lsl	r3, r3, #2
 1541 0010 03F18043 		add	r3, r3, #1073741824
 1542 0014 03F5B843 		add	r3, r3, #23552
 1543 0018 FA79     		ldrb	r2, [r7, #7]	@ zero_extendqisi2
 1544 001a 4FEA8202 		lsl	r2, r2, #2
 1545 001e 02F18042 		add	r2, r2, #1073741824
 1546 0022 02F5B842 		add	r2, r2, #23552
 1547 0026 1268     		ldr	r2, [r2, #0]
 1548 0028 92B2     		uxth	r2, r2
 1549 002a 1146     		mov	r1, r2
 1550 002c 40F60F72 		movw	r2, #3855
 1551 0030 0A40     		ands	r2, r2, r1
 1552 0032 42F40042 		orr	r2, r2, #32768
 1553 0036 42F0C002 		orr	r2, r2, #192
 1554 003a 1A60     		str	r2, [r3, #0]
 425:../libraries/STM32_USB-FS-Device_Driver/src/usb_regs.c **** }
 1555              		.loc 1 425 0
 1556 003c 07F10C07 		add	r7, r7, #12
 1557 0040 BD46     		mov	sp, r7
 1558 0042 80BC     		pop	{r7}
 1559 0044 7047     		bx	lr
 1560              		.cfi_endproc
 1561              	.LFE87:
 1563 0046 00BF     		.section	.text.ClearDTOG_RX,"ax",%progbits
 1564              		.align	2
 1565              		.global	ClearDTOG_RX
 1566              		.thumb
 1567              		.thumb_func
 1569              	ClearDTOG_RX:
 1570              	.LFB88:
 426:../libraries/STM32_USB-FS-Device_Driver/src/usb_regs.c **** /*******************************************************************************
 427:../libraries/STM32_USB-FS-Device_Driver/src/usb_regs.c **** * Function Name  : ClearDTOG_RX.
 428:../libraries/STM32_USB-FS-Device_Driver/src/usb_regs.c **** * Description    : Clear the DTOG_RX bit.
 429:../libraries/STM32_USB-FS-Device_Driver/src/usb_regs.c **** * Input          : bEpNum: Endpoint Number. 
 430:../libraries/STM32_USB-FS-Device_Driver/src/usb_regs.c **** * Output         : None.
 431:../libraries/STM32_USB-FS-Device_Driver/src/usb_regs.c **** * Return         : None.
 432:../libraries/STM32_USB-FS-Device_Driver/src/usb_regs.c **** *******************************************************************************/
 433:../libraries/STM32_USB-FS-Device_Driver/src/usb_regs.c **** void ClearDTOG_RX(uint8_t bEpNum)
 434:../libraries/STM32_USB-FS-Device_Driver/src/usb_regs.c **** {
 1571              		.loc 1 434 0
 1572              		.cfi_startproc
 1573              		@ args = 0, pretend = 0, frame = 8
 1574              		@ frame_needed = 1, uses_anonymous_args = 0
 1575              		@ link register save eliminated.
 1576 0000 80B4     		push	{r7}
 1577              	.LCFI91:
 1578              		.cfi_def_cfa_offset 4
 1579              		.cfi_offset 7, -4
 1580 0002 83B0     		sub	sp, sp, #12
 1581              	.LCFI92:
 1582              		.cfi_def_cfa_offset 16
 1583 0004 00AF     		add	r7, sp, #0
 1584              	.LCFI93:
 1585              		.cfi_def_cfa_register 7
 1586 0006 0346     		mov	r3, r0
 1587 0008 FB71     		strb	r3, [r7, #7]
 435:../libraries/STM32_USB-FS-Device_Driver/src/usb_regs.c ****   _ClearDTOG_RX(bEpNum);
 1588              		.loc 1 435 0
 1589 000a FB79     		ldrb	r3, [r7, #7]	@ zero_extendqisi2
 1590 000c 4FEA8303 		lsl	r3, r3, #2
 1591 0010 03F18043 		add	r3, r3, #1073741824
 1592 0014 03F5B843 		add	r3, r3, #23552
 1593 0018 1B68     		ldr	r3, [r3, #0]
 1594 001a 9BB2     		uxth	r3, r3
 1595 001c 03F48043 		and	r3, r3, #16384
 1596 0020 002B     		cmp	r3, #0
 1597 0022 18D0     		beq	.L50
 1598              		.loc 1 435 0 is_stmt 0 discriminator 1
 1599 0024 FB79     		ldrb	r3, [r7, #7]	@ zero_extendqisi2
 1600 0026 4FEA8303 		lsl	r3, r3, #2
 1601 002a 03F18043 		add	r3, r3, #1073741824
 1602 002e 03F5B843 		add	r3, r3, #23552
 1603 0032 FA79     		ldrb	r2, [r7, #7]	@ zero_extendqisi2
 1604 0034 4FEA8202 		lsl	r2, r2, #2
 1605 0038 02F18042 		add	r2, r2, #1073741824
 1606 003c 02F5B842 		add	r2, r2, #23552
 1607 0040 1268     		ldr	r2, [r2, #0]
 1608 0042 92B2     		uxth	r2, r2
 1609 0044 1146     		mov	r1, r2
 1610 0046 40F60F72 		movw	r2, #3855
 1611 004a 0A40     		ands	r2, r2, r1
 1612 004c 42F44042 		orr	r2, r2, #49152
 1613 0050 42F08002 		orr	r2, r2, #128
 1614 0054 1A60     		str	r2, [r3, #0]
 1615              	.L50:
 436:../libraries/STM32_USB-FS-Device_Driver/src/usb_regs.c **** }
 1616              		.loc 1 436 0 is_stmt 1
 1617 0056 07F10C07 		add	r7, r7, #12
 1618 005a BD46     		mov	sp, r7
 1619 005c 80BC     		pop	{r7}
 1620 005e 7047     		bx	lr
 1621              		.cfi_endproc
 1622              	.LFE88:
 1624              		.section	.text.ClearDTOG_TX,"ax",%progbits
 1625              		.align	2
 1626              		.global	ClearDTOG_TX
 1627              		.thumb
 1628              		.thumb_func
 1630              	ClearDTOG_TX:
 1631              	.LFB89:
 437:../libraries/STM32_USB-FS-Device_Driver/src/usb_regs.c **** /*******************************************************************************
 438:../libraries/STM32_USB-FS-Device_Driver/src/usb_regs.c **** * Function Name  : ClearDTOG_TX.
 439:../libraries/STM32_USB-FS-Device_Driver/src/usb_regs.c **** * Description    : Clear the DTOG_TX bit.
 440:../libraries/STM32_USB-FS-Device_Driver/src/usb_regs.c **** * Input          : bEpNum: Endpoint Number. 
 441:../libraries/STM32_USB-FS-Device_Driver/src/usb_regs.c **** * Output         : None.
 442:../libraries/STM32_USB-FS-Device_Driver/src/usb_regs.c **** * Return         : None.
 443:../libraries/STM32_USB-FS-Device_Driver/src/usb_regs.c **** *******************************************************************************/
 444:../libraries/STM32_USB-FS-Device_Driver/src/usb_regs.c **** void ClearDTOG_TX(uint8_t bEpNum)
 445:../libraries/STM32_USB-FS-Device_Driver/src/usb_regs.c **** {
 1632              		.loc 1 445 0
 1633              		.cfi_startproc
 1634              		@ args = 0, pretend = 0, frame = 8
 1635              		@ frame_needed = 1, uses_anonymous_args = 0
 1636              		@ link register save eliminated.
 1637 0000 80B4     		push	{r7}
 1638              	.LCFI94:
 1639              		.cfi_def_cfa_offset 4
 1640              		.cfi_offset 7, -4
 1641 0002 83B0     		sub	sp, sp, #12
 1642              	.LCFI95:
 1643              		.cfi_def_cfa_offset 16
 1644 0004 00AF     		add	r7, sp, #0
 1645              	.LCFI96:
 1646              		.cfi_def_cfa_register 7
 1647 0006 0346     		mov	r3, r0
 1648 0008 FB71     		strb	r3, [r7, #7]
 446:../libraries/STM32_USB-FS-Device_Driver/src/usb_regs.c ****   _ClearDTOG_TX(bEpNum);
 1649              		.loc 1 446 0
 1650 000a FB79     		ldrb	r3, [r7, #7]	@ zero_extendqisi2
 1651 000c 4FEA8303 		lsl	r3, r3, #2
 1652 0010 03F18043 		add	r3, r3, #1073741824
 1653 0014 03F5B843 		add	r3, r3, #23552
 1654 0018 1B68     		ldr	r3, [r3, #0]
 1655 001a 9BB2     		uxth	r3, r3
 1656 001c 03F04003 		and	r3, r3, #64
 1657 0020 002B     		cmp	r3, #0
 1658 0022 18D0     		beq	.L52
 1659              		.loc 1 446 0 is_stmt 0 discriminator 1
 1660 0024 FB79     		ldrb	r3, [r7, #7]	@ zero_extendqisi2
 1661 0026 4FEA8303 		lsl	r3, r3, #2
 1662 002a 03F18043 		add	r3, r3, #1073741824
 1663 002e 03F5B843 		add	r3, r3, #23552
 1664 0032 FA79     		ldrb	r2, [r7, #7]	@ zero_extendqisi2
 1665 0034 4FEA8202 		lsl	r2, r2, #2
 1666 0038 02F18042 		add	r2, r2, #1073741824
 1667 003c 02F5B842 		add	r2, r2, #23552
 1668 0040 1268     		ldr	r2, [r2, #0]
 1669 0042 92B2     		uxth	r2, r2
 1670 0044 1146     		mov	r1, r2
 1671 0046 40F60F72 		movw	r2, #3855
 1672 004a 0A40     		ands	r2, r2, r1
 1673 004c 42F40042 		orr	r2, r2, #32768
 1674 0050 42F0C002 		orr	r2, r2, #192
 1675 0054 1A60     		str	r2, [r3, #0]
 1676              	.L52:
 447:../libraries/STM32_USB-FS-Device_Driver/src/usb_regs.c **** }
 1677              		.loc 1 447 0 is_stmt 1
 1678 0056 07F10C07 		add	r7, r7, #12
 1679 005a BD46     		mov	sp, r7
 1680 005c 80BC     		pop	{r7}
 1681 005e 7047     		bx	lr
 1682              		.cfi_endproc
 1683              	.LFE89:
 1685              		.section	.text.SetEPAddress,"ax",%progbits
 1686              		.align	2
 1687              		.global	SetEPAddress
 1688              		.thumb
 1689              		.thumb_func
 1691              	SetEPAddress:
 1692              	.LFB90:
 448:../libraries/STM32_USB-FS-Device_Driver/src/usb_regs.c **** /*******************************************************************************
 449:../libraries/STM32_USB-FS-Device_Driver/src/usb_regs.c **** * Function Name  : SetEPAddress
 450:../libraries/STM32_USB-FS-Device_Driver/src/usb_regs.c **** * Description    : Set the endpoint address.
 451:../libraries/STM32_USB-FS-Device_Driver/src/usb_regs.c **** * Input          : bEpNum: Endpoint Number.
 452:../libraries/STM32_USB-FS-Device_Driver/src/usb_regs.c **** *                  bAddr: New endpoint address.
 453:../libraries/STM32_USB-FS-Device_Driver/src/usb_regs.c **** * Output         : None.
 454:../libraries/STM32_USB-FS-Device_Driver/src/usb_regs.c **** * Return         : None.
 455:../libraries/STM32_USB-FS-Device_Driver/src/usb_regs.c **** *******************************************************************************/
 456:../libraries/STM32_USB-FS-Device_Driver/src/usb_regs.c **** void SetEPAddress(uint8_t bEpNum, uint8_t bAddr)
 457:../libraries/STM32_USB-FS-Device_Driver/src/usb_regs.c **** {
 1693              		.loc 1 457 0
 1694              		.cfi_startproc
 1695              		@ args = 0, pretend = 0, frame = 8
 1696              		@ frame_needed = 1, uses_anonymous_args = 0
 1697              		@ link register save eliminated.
 1698 0000 80B4     		push	{r7}
 1699              	.LCFI97:
 1700              		.cfi_def_cfa_offset 4
 1701              		.cfi_offset 7, -4
 1702 0002 83B0     		sub	sp, sp, #12
 1703              	.LCFI98:
 1704              		.cfi_def_cfa_offset 16
 1705 0004 00AF     		add	r7, sp, #0
 1706              	.LCFI99:
 1707              		.cfi_def_cfa_register 7
 1708 0006 0246     		mov	r2, r0
 1709 0008 0B46     		mov	r3, r1
 1710 000a FA71     		strb	r2, [r7, #7]
 1711 000c BB71     		strb	r3, [r7, #6]
 458:../libraries/STM32_USB-FS-Device_Driver/src/usb_regs.c ****   _SetEPAddress(bEpNum, bAddr);
 1712              		.loc 1 458 0
 1713 000e FB79     		ldrb	r3, [r7, #7]	@ zero_extendqisi2
 1714 0010 4FEA8303 		lsl	r3, r3, #2
 1715 0014 03F18043 		add	r3, r3, #1073741824
 1716 0018 03F5B843 		add	r3, r3, #23552
 1717 001c FA79     		ldrb	r2, [r7, #7]	@ zero_extendqisi2
 1718 001e 4FEA8202 		lsl	r2, r2, #2
 1719 0022 02F18042 		add	r2, r2, #1073741824
 1720 0026 02F5B842 		add	r2, r2, #23552
 1721 002a 1268     		ldr	r2, [r2, #0]
 1722 002c 92B2     		uxth	r2, r2
 1723 002e 1146     		mov	r1, r2
 1724 0030 40F60F72 		movw	r2, #3855
 1725 0034 0A40     		ands	r2, r2, r1
 1726 0036 42F40042 		orr	r2, r2, #32768
 1727 003a 42F08002 		orr	r2, r2, #128
 1728 003e B979     		ldrb	r1, [r7, #6]	@ zero_extendqisi2
 1729 0040 0A43     		orrs	r2, r2, r1
 1730 0042 1A60     		str	r2, [r3, #0]
 459:../libraries/STM32_USB-FS-Device_Driver/src/usb_regs.c **** }
 1731              		.loc 1 459 0
 1732 0044 07F10C07 		add	r7, r7, #12
 1733 0048 BD46     		mov	sp, r7
 1734 004a 80BC     		pop	{r7}
 1735 004c 7047     		bx	lr
 1736              		.cfi_endproc
 1737              	.LFE90:
 1739 004e 00BF     		.section	.text.GetEPAddress,"ax",%progbits
 1740              		.align	2
 1741              		.global	GetEPAddress
 1742              		.thumb
 1743              		.thumb_func
 1745              	GetEPAddress:
 1746              	.LFB91:
 460:../libraries/STM32_USB-FS-Device_Driver/src/usb_regs.c **** /*******************************************************************************
 461:../libraries/STM32_USB-FS-Device_Driver/src/usb_regs.c **** * Function Name  : GetEPAddress
 462:../libraries/STM32_USB-FS-Device_Driver/src/usb_regs.c **** * Description    : Get the endpoint address.
 463:../libraries/STM32_USB-FS-Device_Driver/src/usb_regs.c **** * Input          : bEpNum: Endpoint Number. 
 464:../libraries/STM32_USB-FS-Device_Driver/src/usb_regs.c **** * Output         : None.
 465:../libraries/STM32_USB-FS-Device_Driver/src/usb_regs.c **** * Return         : Endpoint address.
 466:../libraries/STM32_USB-FS-Device_Driver/src/usb_regs.c **** *******************************************************************************/
 467:../libraries/STM32_USB-FS-Device_Driver/src/usb_regs.c **** uint8_t GetEPAddress(uint8_t bEpNum)
 468:../libraries/STM32_USB-FS-Device_Driver/src/usb_regs.c **** {
 1747              		.loc 1 468 0
 1748              		.cfi_startproc
 1749              		@ args = 0, pretend = 0, frame = 8
 1750              		@ frame_needed = 1, uses_anonymous_args = 0
 1751              		@ link register save eliminated.
 1752 0000 80B4     		push	{r7}
 1753              	.LCFI100:
 1754              		.cfi_def_cfa_offset 4
 1755              		.cfi_offset 7, -4
 1756 0002 83B0     		sub	sp, sp, #12
 1757              	.LCFI101:
 1758              		.cfi_def_cfa_offset 16
 1759 0004 00AF     		add	r7, sp, #0
 1760              	.LCFI102:
 1761              		.cfi_def_cfa_register 7
 1762 0006 0346     		mov	r3, r0
 1763 0008 FB71     		strb	r3, [r7, #7]
 469:../libraries/STM32_USB-FS-Device_Driver/src/usb_regs.c ****   return(_GetEPAddress(bEpNum));
 1764              		.loc 1 469 0
 1765 000a FB79     		ldrb	r3, [r7, #7]	@ zero_extendqisi2
 1766 000c 4FEA8303 		lsl	r3, r3, #2
 1767 0010 03F18043 		add	r3, r3, #1073741824
 1768 0014 03F5B843 		add	r3, r3, #23552
 1769 0018 1B68     		ldr	r3, [r3, #0]
 1770 001a DBB2     		uxtb	r3, r3
 1771 001c 03F00F03 		and	r3, r3, #15
 1772 0020 DBB2     		uxtb	r3, r3
 470:../libraries/STM32_USB-FS-Device_Driver/src/usb_regs.c **** }
 1773              		.loc 1 470 0
 1774 0022 1846     		mov	r0, r3
 1775 0024 07F10C07 		add	r7, r7, #12
 1776 0028 BD46     		mov	sp, r7
 1777 002a 80BC     		pop	{r7}
 1778 002c 7047     		bx	lr
 1779              		.cfi_endproc
 1780              	.LFE91:
 1782 002e 00BF     		.section	.text.SetEPTxAddr,"ax",%progbits
 1783              		.align	2
 1784              		.global	SetEPTxAddr
 1785              		.thumb
 1786              		.thumb_func
 1788              	SetEPTxAddr:
 1789              	.LFB92:
 471:../libraries/STM32_USB-FS-Device_Driver/src/usb_regs.c **** /*******************************************************************************
 472:../libraries/STM32_USB-FS-Device_Driver/src/usb_regs.c **** * Function Name  : SetEPTxAddr
 473:../libraries/STM32_USB-FS-Device_Driver/src/usb_regs.c **** * Description    : Set the endpoint Tx buffer address.
 474:../libraries/STM32_USB-FS-Device_Driver/src/usb_regs.c **** * Input          : bEpNum: Endpoint Number.
 475:../libraries/STM32_USB-FS-Device_Driver/src/usb_regs.c **** *                  wAddr: new address. 
 476:../libraries/STM32_USB-FS-Device_Driver/src/usb_regs.c **** * Output         : None.
 477:../libraries/STM32_USB-FS-Device_Driver/src/usb_regs.c **** * Return         : None.
 478:../libraries/STM32_USB-FS-Device_Driver/src/usb_regs.c **** *******************************************************************************/
 479:../libraries/STM32_USB-FS-Device_Driver/src/usb_regs.c **** void SetEPTxAddr(uint8_t bEpNum, uint16_t wAddr)
 480:../libraries/STM32_USB-FS-Device_Driver/src/usb_regs.c **** {
 1790              		.loc 1 480 0
 1791              		.cfi_startproc
 1792              		@ args = 0, pretend = 0, frame = 8
 1793              		@ frame_needed = 1, uses_anonymous_args = 0
 1794              		@ link register save eliminated.
 1795 0000 80B4     		push	{r7}
 1796              	.LCFI103:
 1797              		.cfi_def_cfa_offset 4
 1798              		.cfi_offset 7, -4
 1799 0002 83B0     		sub	sp, sp, #12
 1800              	.LCFI104:
 1801              		.cfi_def_cfa_offset 16
 1802 0004 00AF     		add	r7, sp, #0
 1803              	.LCFI105:
 1804              		.cfi_def_cfa_register 7
 1805 0006 0246     		mov	r2, r0
 1806 0008 0B46     		mov	r3, r1
 1807 000a FA71     		strb	r2, [r7, #7]
 1808 000c BB80     		strh	r3, [r7, #4]	@ movhi
 481:../libraries/STM32_USB-FS-Device_Driver/src/usb_regs.c ****   _SetEPTxAddr(bEpNum, wAddr);
 1809              		.loc 1 481 0
 1810 000e 45F65043 		movw	r3, #23632
 1811 0012 C4F20003 		movt	r3, 16384
 1812 0016 1B68     		ldr	r3, [r3, #0]
 1813 0018 9BB2     		uxth	r3, r3
 1814 001a 1A46     		mov	r2, r3
 1815 001c FB79     		ldrb	r3, [r7, #7]	@ zero_extendqisi2
 1816 001e 4FEAC303 		lsl	r3, r3, #3
 1817 0022 D318     		adds	r3, r2, r3
 1818 0024 03F10053 		add	r3, r3, #536870912
 1819 0028 03F54053 		add	r3, r3, #12288
 1820 002c 4FEA4303 		lsl	r3, r3, #1
 1821 0030 BA88     		ldrh	r2, [r7, #4]
 1822 0032 4FEA5202 		lsr	r2, r2, #1
 1823 0036 92B2     		uxth	r2, r2
 1824 0038 4FEA4202 		lsl	r2, r2, #1
 1825 003c 1A60     		str	r2, [r3, #0]
 482:../libraries/STM32_USB-FS-Device_Driver/src/usb_regs.c **** }
 1826              		.loc 1 482 0
 1827 003e 07F10C07 		add	r7, r7, #12
 1828 0042 BD46     		mov	sp, r7
 1829 0044 80BC     		pop	{r7}
 1830 0046 7047     		bx	lr
 1831              		.cfi_endproc
 1832              	.LFE92:
 1834              		.section	.text.SetEPRxAddr,"ax",%progbits
 1835              		.align	2
 1836              		.global	SetEPRxAddr
 1837              		.thumb
 1838              		.thumb_func
 1840              	SetEPRxAddr:
 1841              	.LFB93:
 483:../libraries/STM32_USB-FS-Device_Driver/src/usb_regs.c **** /*******************************************************************************
 484:../libraries/STM32_USB-FS-Device_Driver/src/usb_regs.c **** * Function Name  : SetEPRxAddr
 485:../libraries/STM32_USB-FS-Device_Driver/src/usb_regs.c **** * Description    : Set the endpoint Rx buffer address.
 486:../libraries/STM32_USB-FS-Device_Driver/src/usb_regs.c **** * Input          : bEpNum: Endpoint Number.
 487:../libraries/STM32_USB-FS-Device_Driver/src/usb_regs.c **** *                  wAddr: new address.
 488:../libraries/STM32_USB-FS-Device_Driver/src/usb_regs.c **** * Output         : None.
 489:../libraries/STM32_USB-FS-Device_Driver/src/usb_regs.c **** * Return         : None.
 490:../libraries/STM32_USB-FS-Device_Driver/src/usb_regs.c **** *******************************************************************************/
 491:../libraries/STM32_USB-FS-Device_Driver/src/usb_regs.c **** void SetEPRxAddr(uint8_t bEpNum, uint16_t wAddr)
 492:../libraries/STM32_USB-FS-Device_Driver/src/usb_regs.c **** {
 1842              		.loc 1 492 0
 1843              		.cfi_startproc
 1844              		@ args = 0, pretend = 0, frame = 8
 1845              		@ frame_needed = 1, uses_anonymous_args = 0
 1846              		@ link register save eliminated.
 1847 0000 80B4     		push	{r7}
 1848              	.LCFI106:
 1849              		.cfi_def_cfa_offset 4
 1850              		.cfi_offset 7, -4
 1851 0002 83B0     		sub	sp, sp, #12
 1852              	.LCFI107:
 1853              		.cfi_def_cfa_offset 16
 1854 0004 00AF     		add	r7, sp, #0
 1855              	.LCFI108:
 1856              		.cfi_def_cfa_register 7
 1857 0006 0246     		mov	r2, r0
 1858 0008 0B46     		mov	r3, r1
 1859 000a FA71     		strb	r2, [r7, #7]
 1860 000c BB80     		strh	r3, [r7, #4]	@ movhi
 493:../libraries/STM32_USB-FS-Device_Driver/src/usb_regs.c ****   _SetEPRxAddr(bEpNum, wAddr);
 1861              		.loc 1 493 0
 1862 000e 45F65043 		movw	r3, #23632
 1863 0012 C4F20003 		movt	r3, 16384
 1864 0016 1B68     		ldr	r3, [r3, #0]
 1865 0018 9BB2     		uxth	r3, r3
 1866 001a 1A46     		mov	r2, r3
 1867 001c FB79     		ldrb	r3, [r7, #7]	@ zero_extendqisi2
 1868 001e 4FEAC303 		lsl	r3, r3, #3
 1869 0022 D218     		adds	r2, r2, r3
 1870 0024 43F20403 		movw	r3, #12292
 1871 0028 C2F20003 		movt	r3, 8192
 1872 002c D318     		adds	r3, r2, r3
 1873 002e 4FEA4303 		lsl	r3, r3, #1
 1874 0032 BA88     		ldrh	r2, [r7, #4]
 1875 0034 4FEA5202 		lsr	r2, r2, #1
 1876 0038 92B2     		uxth	r2, r2
 1877 003a 4FEA4202 		lsl	r2, r2, #1
 1878 003e 1A60     		str	r2, [r3, #0]
 494:../libraries/STM32_USB-FS-Device_Driver/src/usb_regs.c **** }
 1879              		.loc 1 494 0
 1880 0040 07F10C07 		add	r7, r7, #12
 1881 0044 BD46     		mov	sp, r7
 1882 0046 80BC     		pop	{r7}
 1883 0048 7047     		bx	lr
 1884              		.cfi_endproc
 1885              	.LFE93:
 1887 004a 00BF     		.section	.text.GetEPTxAddr,"ax",%progbits
 1888              		.align	2
 1889              		.global	GetEPTxAddr
 1890              		.thumb
 1891              		.thumb_func
 1893              	GetEPTxAddr:
 1894              	.LFB94:
 495:../libraries/STM32_USB-FS-Device_Driver/src/usb_regs.c **** /*******************************************************************************
 496:../libraries/STM32_USB-FS-Device_Driver/src/usb_regs.c **** * Function Name  : GetEPTxAddr
 497:../libraries/STM32_USB-FS-Device_Driver/src/usb_regs.c **** * Description    : Returns the endpoint Tx buffer address.
 498:../libraries/STM32_USB-FS-Device_Driver/src/usb_regs.c **** * Input          : bEpNum: Endpoint Number. 
 499:../libraries/STM32_USB-FS-Device_Driver/src/usb_regs.c **** * Output         : None.
 500:../libraries/STM32_USB-FS-Device_Driver/src/usb_regs.c **** * Return         : Rx buffer address. 
 501:../libraries/STM32_USB-FS-Device_Driver/src/usb_regs.c **** *******************************************************************************/
 502:../libraries/STM32_USB-FS-Device_Driver/src/usb_regs.c **** uint16_t GetEPTxAddr(uint8_t bEpNum)
 503:../libraries/STM32_USB-FS-Device_Driver/src/usb_regs.c **** {
 1895              		.loc 1 503 0
 1896              		.cfi_startproc
 1897              		@ args = 0, pretend = 0, frame = 8
 1898              		@ frame_needed = 1, uses_anonymous_args = 0
 1899              		@ link register save eliminated.
 1900 0000 80B4     		push	{r7}
 1901              	.LCFI109:
 1902              		.cfi_def_cfa_offset 4
 1903              		.cfi_offset 7, -4
 1904 0002 83B0     		sub	sp, sp, #12
 1905              	.LCFI110:
 1906              		.cfi_def_cfa_offset 16
 1907 0004 00AF     		add	r7, sp, #0
 1908              	.LCFI111:
 1909              		.cfi_def_cfa_register 7
 1910 0006 0346     		mov	r3, r0
 1911 0008 FB71     		strb	r3, [r7, #7]
 504:../libraries/STM32_USB-FS-Device_Driver/src/usb_regs.c ****   return(_GetEPTxAddr(bEpNum));
 1912              		.loc 1 504 0
 1913 000a 45F65043 		movw	r3, #23632
 1914 000e C4F20003 		movt	r3, 16384
 1915 0012 1B68     		ldr	r3, [r3, #0]
 1916 0014 9BB2     		uxth	r3, r3
 1917 0016 1A46     		mov	r2, r3
 1918 0018 FB79     		ldrb	r3, [r7, #7]	@ zero_extendqisi2
 1919 001a 4FEAC303 		lsl	r3, r3, #3
 1920 001e D318     		adds	r3, r2, r3
 1921 0020 03F10053 		add	r3, r3, #536870912
 1922 0024 03F54053 		add	r3, r3, #12288
 1923 0028 4FEA4303 		lsl	r3, r3, #1
 1924 002c 1B68     		ldr	r3, [r3, #0]
 1925 002e 9BB2     		uxth	r3, r3
 505:../libraries/STM32_USB-FS-Device_Driver/src/usb_regs.c **** }
 1926              		.loc 1 505 0
 1927 0030 1846     		mov	r0, r3
 1928 0032 07F10C07 		add	r7, r7, #12
 1929 0036 BD46     		mov	sp, r7
 1930 0038 80BC     		pop	{r7}
 1931 003a 7047     		bx	lr
 1932              		.cfi_endproc
 1933              	.LFE94:
 1935              		.section	.text.GetEPRxAddr,"ax",%progbits
 1936              		.align	2
 1937              		.global	GetEPRxAddr
 1938              		.thumb
 1939              		.thumb_func
 1941              	GetEPRxAddr:
 1942              	.LFB95:
 506:../libraries/STM32_USB-FS-Device_Driver/src/usb_regs.c **** /*******************************************************************************
 507:../libraries/STM32_USB-FS-Device_Driver/src/usb_regs.c **** * Function Name  : GetEPRxAddr.
 508:../libraries/STM32_USB-FS-Device_Driver/src/usb_regs.c **** * Description    : Returns the endpoint Rx buffer address.
 509:../libraries/STM32_USB-FS-Device_Driver/src/usb_regs.c **** * Input          : bEpNum: Endpoint Number. 
 510:../libraries/STM32_USB-FS-Device_Driver/src/usb_regs.c **** * Output         : None.
 511:../libraries/STM32_USB-FS-Device_Driver/src/usb_regs.c **** * Return         : Rx buffer address.
 512:../libraries/STM32_USB-FS-Device_Driver/src/usb_regs.c **** *******************************************************************************/
 513:../libraries/STM32_USB-FS-Device_Driver/src/usb_regs.c **** uint16_t GetEPRxAddr(uint8_t bEpNum)
 514:../libraries/STM32_USB-FS-Device_Driver/src/usb_regs.c **** {
 1943              		.loc 1 514 0
 1944              		.cfi_startproc
 1945              		@ args = 0, pretend = 0, frame = 8
 1946              		@ frame_needed = 1, uses_anonymous_args = 0
 1947              		@ link register save eliminated.
 1948 0000 80B4     		push	{r7}
 1949              	.LCFI112:
 1950              		.cfi_def_cfa_offset 4
 1951              		.cfi_offset 7, -4
 1952 0002 83B0     		sub	sp, sp, #12
 1953              	.LCFI113:
 1954              		.cfi_def_cfa_offset 16
 1955 0004 00AF     		add	r7, sp, #0
 1956              	.LCFI114:
 1957              		.cfi_def_cfa_register 7
 1958 0006 0346     		mov	r3, r0
 1959 0008 FB71     		strb	r3, [r7, #7]
 515:../libraries/STM32_USB-FS-Device_Driver/src/usb_regs.c ****   return(_GetEPRxAddr(bEpNum));
 1960              		.loc 1 515 0
 1961 000a 45F65043 		movw	r3, #23632
 1962 000e C4F20003 		movt	r3, 16384
 1963 0012 1B68     		ldr	r3, [r3, #0]
 1964 0014 9BB2     		uxth	r3, r3
 1965 0016 1A46     		mov	r2, r3
 1966 0018 FB79     		ldrb	r3, [r7, #7]	@ zero_extendqisi2
 1967 001a 4FEAC303 		lsl	r3, r3, #3
 1968 001e D218     		adds	r2, r2, r3
 1969 0020 43F20403 		movw	r3, #12292
 1970 0024 C2F20003 		movt	r3, 8192
 1971 0028 D318     		adds	r3, r2, r3
 1972 002a 4FEA4303 		lsl	r3, r3, #1
 1973 002e 1B68     		ldr	r3, [r3, #0]
 1974 0030 9BB2     		uxth	r3, r3
 516:../libraries/STM32_USB-FS-Device_Driver/src/usb_regs.c **** }
 1975              		.loc 1 516 0
 1976 0032 1846     		mov	r0, r3
 1977 0034 07F10C07 		add	r7, r7, #12
 1978 0038 BD46     		mov	sp, r7
 1979 003a 80BC     		pop	{r7}
 1980 003c 7047     		bx	lr
 1981              		.cfi_endproc
 1982              	.LFE95:
 1984 003e 00BF     		.section	.text.SetEPTxCount,"ax",%progbits
 1985              		.align	2
 1986              		.global	SetEPTxCount
 1987              		.thumb
 1988              		.thumb_func
 1990              	SetEPTxCount:
 1991              	.LFB96:
 517:../libraries/STM32_USB-FS-Device_Driver/src/usb_regs.c **** /*******************************************************************************
 518:../libraries/STM32_USB-FS-Device_Driver/src/usb_regs.c **** * Function Name  : SetEPTxCount.
 519:../libraries/STM32_USB-FS-Device_Driver/src/usb_regs.c **** * Description    : Set the Tx count.
 520:../libraries/STM32_USB-FS-Device_Driver/src/usb_regs.c **** * Input          : bEpNum: Endpoint Number.
 521:../libraries/STM32_USB-FS-Device_Driver/src/usb_regs.c **** *                  wCount: new count value.
 522:../libraries/STM32_USB-FS-Device_Driver/src/usb_regs.c **** * Output         : None.
 523:../libraries/STM32_USB-FS-Device_Driver/src/usb_regs.c **** * Return         : None.
 524:../libraries/STM32_USB-FS-Device_Driver/src/usb_regs.c **** *******************************************************************************/
 525:../libraries/STM32_USB-FS-Device_Driver/src/usb_regs.c **** void SetEPTxCount(uint8_t bEpNum, uint16_t wCount)
 526:../libraries/STM32_USB-FS-Device_Driver/src/usb_regs.c **** {
 1992              		.loc 1 526 0
 1993              		.cfi_startproc
 1994              		@ args = 0, pretend = 0, frame = 8
 1995              		@ frame_needed = 1, uses_anonymous_args = 0
 1996              		@ link register save eliminated.
 1997 0000 80B4     		push	{r7}
 1998              	.LCFI115:
 1999              		.cfi_def_cfa_offset 4
 2000              		.cfi_offset 7, -4
 2001 0002 83B0     		sub	sp, sp, #12
 2002              	.LCFI116:
 2003              		.cfi_def_cfa_offset 16
 2004 0004 00AF     		add	r7, sp, #0
 2005              	.LCFI117:
 2006              		.cfi_def_cfa_register 7
 2007 0006 0246     		mov	r2, r0
 2008 0008 0B46     		mov	r3, r1
 2009 000a FA71     		strb	r2, [r7, #7]
 2010 000c BB80     		strh	r3, [r7, #4]	@ movhi
 527:../libraries/STM32_USB-FS-Device_Driver/src/usb_regs.c ****   _SetEPTxCount(bEpNum, wCount);
 2011              		.loc 1 527 0
 2012 000e 45F65043 		movw	r3, #23632
 2013 0012 C4F20003 		movt	r3, 16384
 2014 0016 1B68     		ldr	r3, [r3, #0]
 2015 0018 9BB2     		uxth	r3, r3
 2016 001a 1A46     		mov	r2, r3
 2017 001c FB79     		ldrb	r3, [r7, #7]	@ zero_extendqisi2
 2018 001e 4FEAC303 		lsl	r3, r3, #3
 2019 0022 D218     		adds	r2, r2, r3
 2020 0024 43F20203 		movw	r3, #12290
 2021 0028 C2F20003 		movt	r3, 8192
 2022 002c D318     		adds	r3, r2, r3
 2023 002e 4FEA4303 		lsl	r3, r3, #1
 2024 0032 BA88     		ldrh	r2, [r7, #4]
 2025 0034 1A60     		str	r2, [r3, #0]
 528:../libraries/STM32_USB-FS-Device_Driver/src/usb_regs.c **** }
 2026              		.loc 1 528 0
 2027 0036 07F10C07 		add	r7, r7, #12
 2028 003a BD46     		mov	sp, r7
 2029 003c 80BC     		pop	{r7}
 2030 003e 7047     		bx	lr
 2031              		.cfi_endproc
 2032              	.LFE96:
 2034              		.section	.text.SetEPCountRxReg,"ax",%progbits
 2035              		.align	2
 2036              		.global	SetEPCountRxReg
 2037              		.thumb
 2038              		.thumb_func
 2040              	SetEPCountRxReg:
 2041              	.LFB97:
 529:../libraries/STM32_USB-FS-Device_Driver/src/usb_regs.c **** /*******************************************************************************
 530:../libraries/STM32_USB-FS-Device_Driver/src/usb_regs.c **** * Function Name  : SetEPCountRxReg.
 531:../libraries/STM32_USB-FS-Device_Driver/src/usb_regs.c **** * Description    : Set the Count Rx Register value.
 532:../libraries/STM32_USB-FS-Device_Driver/src/usb_regs.c **** * Input          : *pdwReg: point to the register.
 533:../libraries/STM32_USB-FS-Device_Driver/src/usb_regs.c **** *                  wCount: the new register value.
 534:../libraries/STM32_USB-FS-Device_Driver/src/usb_regs.c **** * Output         : None.
 535:../libraries/STM32_USB-FS-Device_Driver/src/usb_regs.c **** * Return         : None.
 536:../libraries/STM32_USB-FS-Device_Driver/src/usb_regs.c **** *******************************************************************************/
 537:../libraries/STM32_USB-FS-Device_Driver/src/usb_regs.c **** void SetEPCountRxReg(uint32_t *pdwReg, uint16_t wCount)
 538:../libraries/STM32_USB-FS-Device_Driver/src/usb_regs.c **** {
 2042              		.loc 1 538 0
 2043              		.cfi_startproc
 2044              		@ args = 0, pretend = 0, frame = 16
 2045              		@ frame_needed = 1, uses_anonymous_args = 0
 2046              		@ link register save eliminated.
 2047 0000 80B4     		push	{r7}
 2048              	.LCFI118:
 2049              		.cfi_def_cfa_offset 4
 2050              		.cfi_offset 7, -4
 2051 0002 85B0     		sub	sp, sp, #20
 2052              	.LCFI119:
 2053              		.cfi_def_cfa_offset 24
 2054 0004 00AF     		add	r7, sp, #0
 2055              	.LCFI120:
 2056              		.cfi_def_cfa_register 7
 2057 0006 7860     		str	r0, [r7, #4]
 2058 0008 0B46     		mov	r3, r1
 2059 000a 7B80     		strh	r3, [r7, #2]	@ movhi
 2060              	.LBB6:
 539:../libraries/STM32_USB-FS-Device_Driver/src/usb_regs.c ****   _SetEPCountRxReg(dwReg, wCount);
 2061              		.loc 1 539 0
 2062 000c 7B88     		ldrh	r3, [r7, #2]
 2063 000e 3E2B     		cmp	r3, #62
 2064 0010 15D9     		bls	.L65
 2065              		.loc 1 539 0 is_stmt 0 discriminator 1
 2066 0012 7B88     		ldrh	r3, [r7, #2]
 2067 0014 4FEA5313 		lsr	r3, r3, #5
 2068 0018 FB81     		strh	r3, [r7, #14]	@ movhi
 2069 001a 7B88     		ldrh	r3, [r7, #2]
 2070 001c 03F01F03 		and	r3, r3, #31
 2071 0020 002B     		cmp	r3, #0
 2072 0022 03D1     		bne	.L66
 2073              		.loc 1 539 0 discriminator 3
 2074 0024 FB89     		ldrh	r3, [r7, #14]	@ movhi
 2075 0026 03F1FF33 		add	r3, r3, #-1
 2076 002a FB81     		strh	r3, [r7, #14]	@ movhi
 2077              	.L66:
 2078              		.loc 1 539 0 discriminator 4
 2079 002c FB89     		ldrh	r3, [r7, #14]
 2080 002e 4FEA8323 		lsl	r3, r3, #10
 2081 0032 43F40043 		orr	r3, r3, #32768
 2082 0036 1A46     		mov	r2, r3
 2083 0038 7B68     		ldr	r3, [r7, #4]
 2084 003a 1A60     		str	r2, [r3, #0]
 2085 003c 12E0     		b	.L64
 2086              	.L65:
 2087              		.loc 1 539 0 discriminator 2
 2088 003e 7B88     		ldrh	r3, [r7, #2]
 2089 0040 4FEA5303 		lsr	r3, r3, #1
 2090 0044 FB81     		strh	r3, [r7, #14]	@ movhi
 2091 0046 7B88     		ldrh	r3, [r7, #2]
 2092 0048 03F00103 		and	r3, r3, #1
 2093 004c 002B     		cmp	r3, #0
 2094 004e 03D0     		beq	.L68
 2095              		.loc 1 539 0 discriminator 5
 2096 0050 FB89     		ldrh	r3, [r7, #14]	@ movhi
 2097 0052 03F10103 		add	r3, r3, #1
 2098 0056 FB81     		strh	r3, [r7, #14]	@ movhi
 2099              	.L68:
 2100              		.loc 1 539 0 discriminator 6
 2101 0058 FB89     		ldrh	r3, [r7, #14]
 2102 005a 4FEA8323 		lsl	r3, r3, #10
 2103 005e 1A46     		mov	r2, r3
 2104 0060 7B68     		ldr	r3, [r7, #4]
 2105 0062 1A60     		str	r2, [r3, #0]
 2106              	.L64:
 2107              	.LBE6:
 540:../libraries/STM32_USB-FS-Device_Driver/src/usb_regs.c **** }
 2108              		.loc 1 540 0 is_stmt 1
 2109 0064 07F11407 		add	r7, r7, #20
 2110 0068 BD46     		mov	sp, r7
 2111 006a 80BC     		pop	{r7}
 2112 006c 7047     		bx	lr
 2113              		.cfi_endproc
 2114              	.LFE97:
 2116 006e 00BF     		.section	.text.SetEPRxCount,"ax",%progbits
 2117              		.align	2
 2118              		.global	SetEPRxCount
 2119              		.thumb
 2120              		.thumb_func
 2122              	SetEPRxCount:
 2123              	.LFB98:
 541:../libraries/STM32_USB-FS-Device_Driver/src/usb_regs.c **** /*******************************************************************************
 542:../libraries/STM32_USB-FS-Device_Driver/src/usb_regs.c **** * Function Name  : SetEPRxCount
 543:../libraries/STM32_USB-FS-Device_Driver/src/usb_regs.c **** * Description    : Set the Rx count.
 544:../libraries/STM32_USB-FS-Device_Driver/src/usb_regs.c **** * Input          : bEpNum: Endpoint Number. 
 545:../libraries/STM32_USB-FS-Device_Driver/src/usb_regs.c **** *                  wCount: the new count value.
 546:../libraries/STM32_USB-FS-Device_Driver/src/usb_regs.c **** * Output         : None.
 547:../libraries/STM32_USB-FS-Device_Driver/src/usb_regs.c **** * Return         : None.
 548:../libraries/STM32_USB-FS-Device_Driver/src/usb_regs.c **** *******************************************************************************/
 549:../libraries/STM32_USB-FS-Device_Driver/src/usb_regs.c **** void SetEPRxCount(uint8_t bEpNum, uint16_t wCount)
 550:../libraries/STM32_USB-FS-Device_Driver/src/usb_regs.c **** {
 2124              		.loc 1 550 0
 2125              		.cfi_startproc
 2126              		@ args = 0, pretend = 0, frame = 16
 2127              		@ frame_needed = 1, uses_anonymous_args = 0
 2128              		@ link register save eliminated.
 2129 0000 80B4     		push	{r7}
 2130              	.LCFI121:
 2131              		.cfi_def_cfa_offset 4
 2132              		.cfi_offset 7, -4
 2133 0002 85B0     		sub	sp, sp, #20
 2134              	.LCFI122:
 2135              		.cfi_def_cfa_offset 24
 2136 0004 00AF     		add	r7, sp, #0
 2137              	.LCFI123:
 2138              		.cfi_def_cfa_register 7
 2139 0006 0246     		mov	r2, r0
 2140 0008 0B46     		mov	r3, r1
 2141 000a FA71     		strb	r2, [r7, #7]
 2142 000c BB80     		strh	r3, [r7, #4]	@ movhi
 2143              	.LBB7:
 551:../libraries/STM32_USB-FS-Device_Driver/src/usb_regs.c ****   _SetEPRxCount(bEpNum, wCount);
 2144              		.loc 1 551 0
 2145 000e 45F65043 		movw	r3, #23632
 2146 0012 C4F20003 		movt	r3, 16384
 2147 0016 1B68     		ldr	r3, [r3, #0]
 2148 0018 9BB2     		uxth	r3, r3
 2149 001a 1A46     		mov	r2, r3
 2150 001c FB79     		ldrb	r3, [r7, #7]	@ zero_extendqisi2
 2151 001e 4FEAC303 		lsl	r3, r3, #3
 2152 0022 D218     		adds	r2, r2, r3
 2153 0024 43F20603 		movw	r3, #12294
 2154 0028 C2F20003 		movt	r3, 8192
 2155 002c D318     		adds	r3, r2, r3
 2156 002e 4FEA4303 		lsl	r3, r3, #1
 2157 0032 BB60     		str	r3, [r7, #8]
 2158              	.LBB8:
 2159 0034 BB88     		ldrh	r3, [r7, #4]
 2160 0036 3E2B     		cmp	r3, #62
 2161 0038 15D9     		bls	.L70
 2162              		.loc 1 551 0 is_stmt 0 discriminator 1
 2163 003a BB88     		ldrh	r3, [r7, #4]
 2164 003c 4FEA5313 		lsr	r3, r3, #5
 2165 0040 FB81     		strh	r3, [r7, #14]	@ movhi
 2166 0042 BB88     		ldrh	r3, [r7, #4]
 2167 0044 03F01F03 		and	r3, r3, #31
 2168 0048 002B     		cmp	r3, #0
 2169 004a 03D1     		bne	.L71
 2170              		.loc 1 551 0 discriminator 3
 2171 004c FB89     		ldrh	r3, [r7, #14]	@ movhi
 2172 004e 03F1FF33 		add	r3, r3, #-1
 2173 0052 FB81     		strh	r3, [r7, #14]	@ movhi
 2174              	.L71:
 2175              		.loc 1 551 0 discriminator 4
 2176 0054 FB89     		ldrh	r3, [r7, #14]
 2177 0056 4FEA8323 		lsl	r3, r3, #10
 2178 005a 43F40043 		orr	r3, r3, #32768
 2179 005e 1A46     		mov	r2, r3
 2180 0060 BB68     		ldr	r3, [r7, #8]
 2181 0062 1A60     		str	r2, [r3, #0]
 2182 0064 12E0     		b	.L69
 2183              	.L70:
 2184              		.loc 1 551 0 discriminator 2
 2185 0066 BB88     		ldrh	r3, [r7, #4]
 2186 0068 4FEA5303 		lsr	r3, r3, #1
 2187 006c FB81     		strh	r3, [r7, #14]	@ movhi
 2188 006e BB88     		ldrh	r3, [r7, #4]
 2189 0070 03F00103 		and	r3, r3, #1
 2190 0074 002B     		cmp	r3, #0
 2191 0076 03D0     		beq	.L73
 2192              		.loc 1 551 0 discriminator 5
 2193 0078 FB89     		ldrh	r3, [r7, #14]	@ movhi
 2194 007a 03F10103 		add	r3, r3, #1
 2195 007e FB81     		strh	r3, [r7, #14]	@ movhi
 2196              	.L73:
 2197              		.loc 1 551 0 discriminator 6
 2198 0080 FB89     		ldrh	r3, [r7, #14]
 2199 0082 4FEA8323 		lsl	r3, r3, #10
 2200 0086 1A46     		mov	r2, r3
 2201 0088 BB68     		ldr	r3, [r7, #8]
 2202 008a 1A60     		str	r2, [r3, #0]
 2203              	.L69:
 2204              	.LBE8:
 2205              	.LBE7:
 552:../libraries/STM32_USB-FS-Device_Driver/src/usb_regs.c **** }
 2206              		.loc 1 552 0 is_stmt 1
 2207 008c 07F11407 		add	r7, r7, #20
 2208 0090 BD46     		mov	sp, r7
 2209 0092 80BC     		pop	{r7}
 2210 0094 7047     		bx	lr
 2211              		.cfi_endproc
 2212              	.LFE98:
 2214              		.section	.text.GetEPTxCount,"ax",%progbits
 2215              		.align	2
 2216              		.global	GetEPTxCount
 2217              		.thumb
 2218              		.thumb_func
 2220              	GetEPTxCount:
 2221              	.LFB99:
 553:../libraries/STM32_USB-FS-Device_Driver/src/usb_regs.c **** /*******************************************************************************
 554:../libraries/STM32_USB-FS-Device_Driver/src/usb_regs.c **** * Function Name  : GetEPTxCount
 555:../libraries/STM32_USB-FS-Device_Driver/src/usb_regs.c **** * Description    : Get the Tx count.
 556:../libraries/STM32_USB-FS-Device_Driver/src/usb_regs.c **** * Input          : bEpNum: Endpoint Number. 
 557:../libraries/STM32_USB-FS-Device_Driver/src/usb_regs.c **** * Output         : None
 558:../libraries/STM32_USB-FS-Device_Driver/src/usb_regs.c **** * Return         : Tx count value.
 559:../libraries/STM32_USB-FS-Device_Driver/src/usb_regs.c **** *******************************************************************************/
 560:../libraries/STM32_USB-FS-Device_Driver/src/usb_regs.c **** uint16_t GetEPTxCount(uint8_t bEpNum)
 561:../libraries/STM32_USB-FS-Device_Driver/src/usb_regs.c **** {
 2222              		.loc 1 561 0
 2223              		.cfi_startproc
 2224              		@ args = 0, pretend = 0, frame = 8
 2225              		@ frame_needed = 1, uses_anonymous_args = 0
 2226              		@ link register save eliminated.
 2227 0000 80B4     		push	{r7}
 2228              	.LCFI124:
 2229              		.cfi_def_cfa_offset 4
 2230              		.cfi_offset 7, -4
 2231 0002 83B0     		sub	sp, sp, #12
 2232              	.LCFI125:
 2233              		.cfi_def_cfa_offset 16
 2234 0004 00AF     		add	r7, sp, #0
 2235              	.LCFI126:
 2236              		.cfi_def_cfa_register 7
 2237 0006 0346     		mov	r3, r0
 2238 0008 FB71     		strb	r3, [r7, #7]
 562:../libraries/STM32_USB-FS-Device_Driver/src/usb_regs.c ****   return(_GetEPTxCount(bEpNum));
 2239              		.loc 1 562 0
 2240 000a 45F65043 		movw	r3, #23632
 2241 000e C4F20003 		movt	r3, 16384
 2242 0012 1B68     		ldr	r3, [r3, #0]
 2243 0014 9BB2     		uxth	r3, r3
 2244 0016 1A46     		mov	r2, r3
 2245 0018 FB79     		ldrb	r3, [r7, #7]	@ zero_extendqisi2
 2246 001a 4FEAC303 		lsl	r3, r3, #3
 2247 001e D218     		adds	r2, r2, r3
 2248 0020 43F20203 		movw	r3, #12290
 2249 0024 C2F20003 		movt	r3, 8192
 2250 0028 D318     		adds	r3, r2, r3
 2251 002a 4FEA4303 		lsl	r3, r3, #1
 2252 002e 1B68     		ldr	r3, [r3, #0]
 2253 0030 9BB2     		uxth	r3, r3
 2254 0032 4FEA8353 		lsl	r3, r3, #22
 2255 0036 4FEA9353 		lsr	r3, r3, #22
 2256 003a 9BB2     		uxth	r3, r3
 563:../libraries/STM32_USB-FS-Device_Driver/src/usb_regs.c **** }
 2257              		.loc 1 563 0
 2258 003c 1846     		mov	r0, r3
 2259 003e 07F10C07 		add	r7, r7, #12
 2260 0042 BD46     		mov	sp, r7
 2261 0044 80BC     		pop	{r7}
 2262 0046 7047     		bx	lr
 2263              		.cfi_endproc
 2264              	.LFE99:
 2266              		.section	.text.GetEPRxCount,"ax",%progbits
 2267              		.align	2
 2268              		.global	GetEPRxCount
 2269              		.thumb
 2270              		.thumb_func
 2272              	GetEPRxCount:
 2273              	.LFB100:
 564:../libraries/STM32_USB-FS-Device_Driver/src/usb_regs.c **** /*******************************************************************************
 565:../libraries/STM32_USB-FS-Device_Driver/src/usb_regs.c **** * Function Name  : GetEPRxCount
 566:../libraries/STM32_USB-FS-Device_Driver/src/usb_regs.c **** * Description    : Get the Rx count.
 567:../libraries/STM32_USB-FS-Device_Driver/src/usb_regs.c **** * Input          : bEpNum: Endpoint Number. 
 568:../libraries/STM32_USB-FS-Device_Driver/src/usb_regs.c **** * Output         : None.
 569:../libraries/STM32_USB-FS-Device_Driver/src/usb_regs.c **** * Return         : Rx count value.
 570:../libraries/STM32_USB-FS-Device_Driver/src/usb_regs.c **** *******************************************************************************/
 571:../libraries/STM32_USB-FS-Device_Driver/src/usb_regs.c **** uint16_t GetEPRxCount(uint8_t bEpNum)
 572:../libraries/STM32_USB-FS-Device_Driver/src/usb_regs.c **** {
 2274              		.loc 1 572 0
 2275              		.cfi_startproc
 2276              		@ args = 0, pretend = 0, frame = 8
 2277              		@ frame_needed = 1, uses_anonymous_args = 0
 2278              		@ link register save eliminated.
 2279 0000 80B4     		push	{r7}
 2280              	.LCFI127:
 2281              		.cfi_def_cfa_offset 4
 2282              		.cfi_offset 7, -4
 2283 0002 83B0     		sub	sp, sp, #12
 2284              	.LCFI128:
 2285              		.cfi_def_cfa_offset 16
 2286 0004 00AF     		add	r7, sp, #0
 2287              	.LCFI129:
 2288              		.cfi_def_cfa_register 7
 2289 0006 0346     		mov	r3, r0
 2290 0008 FB71     		strb	r3, [r7, #7]
 573:../libraries/STM32_USB-FS-Device_Driver/src/usb_regs.c ****   return(_GetEPRxCount(bEpNum));
 2291              		.loc 1 573 0
 2292 000a 45F65043 		movw	r3, #23632
 2293 000e C4F20003 		movt	r3, 16384
 2294 0012 1B68     		ldr	r3, [r3, #0]
 2295 0014 9BB2     		uxth	r3, r3
 2296 0016 1A46     		mov	r2, r3
 2297 0018 FB79     		ldrb	r3, [r7, #7]	@ zero_extendqisi2
 2298 001a 4FEAC303 		lsl	r3, r3, #3
 2299 001e D218     		adds	r2, r2, r3
 2300 0020 43F20603 		movw	r3, #12294
 2301 0024 C2F20003 		movt	r3, 8192
 2302 0028 D318     		adds	r3, r2, r3
 2303 002a 4FEA4303 		lsl	r3, r3, #1
 2304 002e 1B68     		ldr	r3, [r3, #0]
 2305 0030 9BB2     		uxth	r3, r3
 2306 0032 4FEA8353 		lsl	r3, r3, #22
 2307 0036 4FEA9353 		lsr	r3, r3, #22
 2308 003a 9BB2     		uxth	r3, r3
 574:../libraries/STM32_USB-FS-Device_Driver/src/usb_regs.c **** }
 2309              		.loc 1 574 0
 2310 003c 1846     		mov	r0, r3
 2311 003e 07F10C07 		add	r7, r7, #12
 2312 0042 BD46     		mov	sp, r7
 2313 0044 80BC     		pop	{r7}
 2314 0046 7047     		bx	lr
 2315              		.cfi_endproc
 2316              	.LFE100:
 2318              		.section	.text.SetEPDblBuffAddr,"ax",%progbits
 2319              		.align	2
 2320              		.global	SetEPDblBuffAddr
 2321              		.thumb
 2322              		.thumb_func
 2324              	SetEPDblBuffAddr:
 2325              	.LFB101:
 575:../libraries/STM32_USB-FS-Device_Driver/src/usb_regs.c **** /*******************************************************************************
 576:../libraries/STM32_USB-FS-Device_Driver/src/usb_regs.c **** * Function Name  : SetEPDblBuffAddr
 577:../libraries/STM32_USB-FS-Device_Driver/src/usb_regs.c **** * Description    : Set the addresses of the buffer 0 and 1.
 578:../libraries/STM32_USB-FS-Device_Driver/src/usb_regs.c **** * Input          : bEpNum: Endpoint Number.  
 579:../libraries/STM32_USB-FS-Device_Driver/src/usb_regs.c **** *                  wBuf0Addr: new address of buffer 0. 
 580:../libraries/STM32_USB-FS-Device_Driver/src/usb_regs.c **** *                  wBuf1Addr: new address of buffer 1.
 581:../libraries/STM32_USB-FS-Device_Driver/src/usb_regs.c **** * Output         : None.
 582:../libraries/STM32_USB-FS-Device_Driver/src/usb_regs.c **** * Return         : None.
 583:../libraries/STM32_USB-FS-Device_Driver/src/usb_regs.c **** *******************************************************************************/
 584:../libraries/STM32_USB-FS-Device_Driver/src/usb_regs.c **** void SetEPDblBuffAddr(uint8_t bEpNum, uint16_t wBuf0Addr, uint16_t wBuf1Addr)
 585:../libraries/STM32_USB-FS-Device_Driver/src/usb_regs.c **** {
 2326              		.loc 1 585 0
 2327              		.cfi_startproc
 2328              		@ args = 0, pretend = 0, frame = 8
 2329              		@ frame_needed = 1, uses_anonymous_args = 0
 2330              		@ link register save eliminated.
 2331 0000 80B4     		push	{r7}
 2332              	.LCFI130:
 2333              		.cfi_def_cfa_offset 4
 2334              		.cfi_offset 7, -4
 2335 0002 83B0     		sub	sp, sp, #12
 2336              	.LCFI131:
 2337              		.cfi_def_cfa_offset 16
 2338 0004 00AF     		add	r7, sp, #0
 2339              	.LCFI132:
 2340              		.cfi_def_cfa_register 7
 2341 0006 1346     		mov	r3, r2
 2342 0008 0246     		mov	r2, r0
 2343 000a FA71     		strb	r2, [r7, #7]
 2344 000c 0A46     		mov	r2, r1	@ movhi
 2345 000e BA80     		strh	r2, [r7, #4]	@ movhi
 2346 0010 7B80     		strh	r3, [r7, #2]	@ movhi
 586:../libraries/STM32_USB-FS-Device_Driver/src/usb_regs.c ****   _SetEPDblBuffAddr(bEpNum, wBuf0Addr, wBuf1Addr);
 2347              		.loc 1 586 0
 2348 0012 45F65043 		movw	r3, #23632
 2349 0016 C4F20003 		movt	r3, 16384
 2350 001a 1B68     		ldr	r3, [r3, #0]
 2351 001c 9BB2     		uxth	r3, r3
 2352 001e 1A46     		mov	r2, r3
 2353 0020 FB79     		ldrb	r3, [r7, #7]	@ zero_extendqisi2
 2354 0022 4FEAC303 		lsl	r3, r3, #3
 2355 0026 D318     		adds	r3, r2, r3
 2356 0028 03F10053 		add	r3, r3, #536870912
 2357 002c 03F54053 		add	r3, r3, #12288
 2358 0030 4FEA4303 		lsl	r3, r3, #1
 2359 0034 BA88     		ldrh	r2, [r7, #4]
 2360 0036 4FEA5202 		lsr	r2, r2, #1
 2361 003a 92B2     		uxth	r2, r2
 2362 003c 4FEA4202 		lsl	r2, r2, #1
 2363 0040 1A60     		str	r2, [r3, #0]
 2364 0042 45F65043 		movw	r3, #23632
 2365 0046 C4F20003 		movt	r3, 16384
 2366 004a 1B68     		ldr	r3, [r3, #0]
 2367 004c 9BB2     		uxth	r3, r3
 2368 004e 1A46     		mov	r2, r3
 2369 0050 FB79     		ldrb	r3, [r7, #7]	@ zero_extendqisi2
 2370 0052 4FEAC303 		lsl	r3, r3, #3
 2371 0056 D218     		adds	r2, r2, r3
 2372 0058 43F20403 		movw	r3, #12292
 2373 005c C2F20003 		movt	r3, 8192
 2374 0060 D318     		adds	r3, r2, r3
 2375 0062 4FEA4303 		lsl	r3, r3, #1
 2376 0066 7A88     		ldrh	r2, [r7, #2]
 2377 0068 4FEA5202 		lsr	r2, r2, #1
 2378 006c 92B2     		uxth	r2, r2
 2379 006e 4FEA4202 		lsl	r2, r2, #1
 2380 0072 1A60     		str	r2, [r3, #0]
 587:../libraries/STM32_USB-FS-Device_Driver/src/usb_regs.c **** }
 2381              		.loc 1 587 0
 2382 0074 07F10C07 		add	r7, r7, #12
 2383 0078 BD46     		mov	sp, r7
 2384 007a 80BC     		pop	{r7}
 2385 007c 7047     		bx	lr
 2386              		.cfi_endproc
 2387              	.LFE101:
 2389 007e 00BF     		.section	.text.SetEPDblBuf0Addr,"ax",%progbits
 2390              		.align	2
 2391              		.global	SetEPDblBuf0Addr
 2392              		.thumb
 2393              		.thumb_func
 2395              	SetEPDblBuf0Addr:
 2396              	.LFB102:
 588:../libraries/STM32_USB-FS-Device_Driver/src/usb_regs.c **** /*******************************************************************************
 589:../libraries/STM32_USB-FS-Device_Driver/src/usb_regs.c **** * Function Name  : SetEPDblBuf0Addr
 590:../libraries/STM32_USB-FS-Device_Driver/src/usb_regs.c **** * Description    : Set the Buffer 1 address.
 591:../libraries/STM32_USB-FS-Device_Driver/src/usb_regs.c **** * Input          : bEpNum: Endpoint Number
 592:../libraries/STM32_USB-FS-Device_Driver/src/usb_regs.c **** *                  wBuf0Addr: new address.
 593:../libraries/STM32_USB-FS-Device_Driver/src/usb_regs.c **** * Output         : None.
 594:../libraries/STM32_USB-FS-Device_Driver/src/usb_regs.c **** * Return         : None.
 595:../libraries/STM32_USB-FS-Device_Driver/src/usb_regs.c **** *******************************************************************************/
 596:../libraries/STM32_USB-FS-Device_Driver/src/usb_regs.c **** void SetEPDblBuf0Addr(uint8_t bEpNum, uint16_t wBuf0Addr)
 597:../libraries/STM32_USB-FS-Device_Driver/src/usb_regs.c **** {
 2397              		.loc 1 597 0
 2398              		.cfi_startproc
 2399              		@ args = 0, pretend = 0, frame = 8
 2400              		@ frame_needed = 1, uses_anonymous_args = 0
 2401              		@ link register save eliminated.
 2402 0000 80B4     		push	{r7}
 2403              	.LCFI133:
 2404              		.cfi_def_cfa_offset 4
 2405              		.cfi_offset 7, -4
 2406 0002 83B0     		sub	sp, sp, #12
 2407              	.LCFI134:
 2408              		.cfi_def_cfa_offset 16
 2409 0004 00AF     		add	r7, sp, #0
 2410              	.LCFI135:
 2411              		.cfi_def_cfa_register 7
 2412 0006 0246     		mov	r2, r0
 2413 0008 0B46     		mov	r3, r1
 2414 000a FA71     		strb	r2, [r7, #7]
 2415 000c BB80     		strh	r3, [r7, #4]	@ movhi
 598:../libraries/STM32_USB-FS-Device_Driver/src/usb_regs.c ****   _SetEPDblBuf0Addr(bEpNum, wBuf0Addr);
 2416              		.loc 1 598 0
 2417 000e 45F65043 		movw	r3, #23632
 2418 0012 C4F20003 		movt	r3, 16384
 2419 0016 1B68     		ldr	r3, [r3, #0]
 2420 0018 9BB2     		uxth	r3, r3
 2421 001a 1A46     		mov	r2, r3
 2422 001c FB79     		ldrb	r3, [r7, #7]	@ zero_extendqisi2
 2423 001e 4FEAC303 		lsl	r3, r3, #3
 2424 0022 D318     		adds	r3, r2, r3
 2425 0024 03F10053 		add	r3, r3, #536870912
 2426 0028 03F54053 		add	r3, r3, #12288
 2427 002c 4FEA4303 		lsl	r3, r3, #1
 2428 0030 BA88     		ldrh	r2, [r7, #4]
 2429 0032 4FEA5202 		lsr	r2, r2, #1
 2430 0036 92B2     		uxth	r2, r2
 2431 0038 4FEA4202 		lsl	r2, r2, #1
 2432 003c 1A60     		str	r2, [r3, #0]
 599:../libraries/STM32_USB-FS-Device_Driver/src/usb_regs.c **** }
 2433              		.loc 1 599 0
 2434 003e 07F10C07 		add	r7, r7, #12
 2435 0042 BD46     		mov	sp, r7
 2436 0044 80BC     		pop	{r7}
 2437 0046 7047     		bx	lr
 2438              		.cfi_endproc
 2439              	.LFE102:
 2441              		.section	.text.SetEPDblBuf1Addr,"ax",%progbits
 2442              		.align	2
 2443              		.global	SetEPDblBuf1Addr
 2444              		.thumb
 2445              		.thumb_func
 2447              	SetEPDblBuf1Addr:
 2448              	.LFB103:
 600:../libraries/STM32_USB-FS-Device_Driver/src/usb_regs.c **** /*******************************************************************************
 601:../libraries/STM32_USB-FS-Device_Driver/src/usb_regs.c **** * Function Name  : SetEPDblBuf1Addr
 602:../libraries/STM32_USB-FS-Device_Driver/src/usb_regs.c **** * Description    : Set the Buffer 1 address.
 603:../libraries/STM32_USB-FS-Device_Driver/src/usb_regs.c **** * Input          : bEpNum: Endpoint Number
 604:../libraries/STM32_USB-FS-Device_Driver/src/usb_regs.c **** *                  wBuf1Addr: new address.
 605:../libraries/STM32_USB-FS-Device_Driver/src/usb_regs.c **** * Output         : None.
 606:../libraries/STM32_USB-FS-Device_Driver/src/usb_regs.c **** * Return         : None.
 607:../libraries/STM32_USB-FS-Device_Driver/src/usb_regs.c **** *******************************************************************************/
 608:../libraries/STM32_USB-FS-Device_Driver/src/usb_regs.c **** void SetEPDblBuf1Addr(uint8_t bEpNum, uint16_t wBuf1Addr)
 609:../libraries/STM32_USB-FS-Device_Driver/src/usb_regs.c **** {
 2449              		.loc 1 609 0
 2450              		.cfi_startproc
 2451              		@ args = 0, pretend = 0, frame = 8
 2452              		@ frame_needed = 1, uses_anonymous_args = 0
 2453              		@ link register save eliminated.
 2454 0000 80B4     		push	{r7}
 2455              	.LCFI136:
 2456              		.cfi_def_cfa_offset 4
 2457              		.cfi_offset 7, -4
 2458 0002 83B0     		sub	sp, sp, #12
 2459              	.LCFI137:
 2460              		.cfi_def_cfa_offset 16
 2461 0004 00AF     		add	r7, sp, #0
 2462              	.LCFI138:
 2463              		.cfi_def_cfa_register 7
 2464 0006 0246     		mov	r2, r0
 2465 0008 0B46     		mov	r3, r1
 2466 000a FA71     		strb	r2, [r7, #7]
 2467 000c BB80     		strh	r3, [r7, #4]	@ movhi
 610:../libraries/STM32_USB-FS-Device_Driver/src/usb_regs.c ****   _SetEPDblBuf1Addr(bEpNum, wBuf1Addr);
 2468              		.loc 1 610 0
 2469 000e 45F65043 		movw	r3, #23632
 2470 0012 C4F20003 		movt	r3, 16384
 2471 0016 1B68     		ldr	r3, [r3, #0]
 2472 0018 9BB2     		uxth	r3, r3
 2473 001a 1A46     		mov	r2, r3
 2474 001c FB79     		ldrb	r3, [r7, #7]	@ zero_extendqisi2
 2475 001e 4FEAC303 		lsl	r3, r3, #3
 2476 0022 D218     		adds	r2, r2, r3
 2477 0024 43F20403 		movw	r3, #12292
 2478 0028 C2F20003 		movt	r3, 8192
 2479 002c D318     		adds	r3, r2, r3
 2480 002e 4FEA4303 		lsl	r3, r3, #1
 2481 0032 BA88     		ldrh	r2, [r7, #4]
 2482 0034 4FEA5202 		lsr	r2, r2, #1
 2483 0038 92B2     		uxth	r2, r2
 2484 003a 4FEA4202 		lsl	r2, r2, #1
 2485 003e 1A60     		str	r2, [r3, #0]
 611:../libraries/STM32_USB-FS-Device_Driver/src/usb_regs.c **** }
 2486              		.loc 1 611 0
 2487 0040 07F10C07 		add	r7, r7, #12
 2488 0044 BD46     		mov	sp, r7
 2489 0046 80BC     		pop	{r7}
 2490 0048 7047     		bx	lr
 2491              		.cfi_endproc
 2492              	.LFE103:
 2494 004a 00BF     		.section	.text.GetEPDblBuf0Addr,"ax",%progbits
 2495              		.align	2
 2496              		.global	GetEPDblBuf0Addr
 2497              		.thumb
 2498              		.thumb_func
 2500              	GetEPDblBuf0Addr:
 2501              	.LFB104:
 612:../libraries/STM32_USB-FS-Device_Driver/src/usb_regs.c **** /*******************************************************************************
 613:../libraries/STM32_USB-FS-Device_Driver/src/usb_regs.c **** * Function Name  : GetEPDblBuf0Addr
 614:../libraries/STM32_USB-FS-Device_Driver/src/usb_regs.c **** * Description    : Returns the address of the Buffer 0.
 615:../libraries/STM32_USB-FS-Device_Driver/src/usb_regs.c **** * Input          : bEpNum: Endpoint Number.
 616:../libraries/STM32_USB-FS-Device_Driver/src/usb_regs.c **** * Output         : None.
 617:../libraries/STM32_USB-FS-Device_Driver/src/usb_regs.c **** * Return         : None.
 618:../libraries/STM32_USB-FS-Device_Driver/src/usb_regs.c **** *******************************************************************************/
 619:../libraries/STM32_USB-FS-Device_Driver/src/usb_regs.c **** uint16_t GetEPDblBuf0Addr(uint8_t bEpNum)
 620:../libraries/STM32_USB-FS-Device_Driver/src/usb_regs.c **** {
 2502              		.loc 1 620 0
 2503              		.cfi_startproc
 2504              		@ args = 0, pretend = 0, frame = 8
 2505              		@ frame_needed = 1, uses_anonymous_args = 0
 2506              		@ link register save eliminated.
 2507 0000 80B4     		push	{r7}
 2508              	.LCFI139:
 2509              		.cfi_def_cfa_offset 4
 2510              		.cfi_offset 7, -4
 2511 0002 83B0     		sub	sp, sp, #12
 2512              	.LCFI140:
 2513              		.cfi_def_cfa_offset 16
 2514 0004 00AF     		add	r7, sp, #0
 2515              	.LCFI141:
 2516              		.cfi_def_cfa_register 7
 2517 0006 0346     		mov	r3, r0
 2518 0008 FB71     		strb	r3, [r7, #7]
 621:../libraries/STM32_USB-FS-Device_Driver/src/usb_regs.c ****   return(_GetEPDblBuf0Addr(bEpNum));
 2519              		.loc 1 621 0
 2520 000a 45F65043 		movw	r3, #23632
 2521 000e C4F20003 		movt	r3, 16384
 2522 0012 1B68     		ldr	r3, [r3, #0]
 2523 0014 9BB2     		uxth	r3, r3
 2524 0016 1A46     		mov	r2, r3
 2525 0018 FB79     		ldrb	r3, [r7, #7]	@ zero_extendqisi2
 2526 001a 4FEAC303 		lsl	r3, r3, #3
 2527 001e D318     		adds	r3, r2, r3
 2528 0020 03F10053 		add	r3, r3, #536870912
 2529 0024 03F54053 		add	r3, r3, #12288
 2530 0028 4FEA4303 		lsl	r3, r3, #1
 2531 002c 1B68     		ldr	r3, [r3, #0]
 2532 002e 9BB2     		uxth	r3, r3
 622:../libraries/STM32_USB-FS-Device_Driver/src/usb_regs.c **** }
 2533              		.loc 1 622 0
 2534 0030 1846     		mov	r0, r3
 2535 0032 07F10C07 		add	r7, r7, #12
 2536 0036 BD46     		mov	sp, r7
 2537 0038 80BC     		pop	{r7}
 2538 003a 7047     		bx	lr
 2539              		.cfi_endproc
 2540              	.LFE104:
 2542              		.section	.text.GetEPDblBuf1Addr,"ax",%progbits
 2543              		.align	2
 2544              		.global	GetEPDblBuf1Addr
 2545              		.thumb
 2546              		.thumb_func
 2548              	GetEPDblBuf1Addr:
 2549              	.LFB105:
 623:../libraries/STM32_USB-FS-Device_Driver/src/usb_regs.c **** /*******************************************************************************
 624:../libraries/STM32_USB-FS-Device_Driver/src/usb_regs.c **** * Function Name  : GetEPDblBuf1Addr
 625:../libraries/STM32_USB-FS-Device_Driver/src/usb_regs.c **** * Description    : Returns the address of the Buffer 1.
 626:../libraries/STM32_USB-FS-Device_Driver/src/usb_regs.c **** * Input          : bEpNum: Endpoint Number.
 627:../libraries/STM32_USB-FS-Device_Driver/src/usb_regs.c **** * Output         : None.
 628:../libraries/STM32_USB-FS-Device_Driver/src/usb_regs.c **** * Return         : Address of the Buffer 1.
 629:../libraries/STM32_USB-FS-Device_Driver/src/usb_regs.c **** *******************************************************************************/
 630:../libraries/STM32_USB-FS-Device_Driver/src/usb_regs.c **** uint16_t GetEPDblBuf1Addr(uint8_t bEpNum)
 631:../libraries/STM32_USB-FS-Device_Driver/src/usb_regs.c **** {
 2550              		.loc 1 631 0
 2551              		.cfi_startproc
 2552              		@ args = 0, pretend = 0, frame = 8
 2553              		@ frame_needed = 1, uses_anonymous_args = 0
 2554              		@ link register save eliminated.
 2555 0000 80B4     		push	{r7}
 2556              	.LCFI142:
 2557              		.cfi_def_cfa_offset 4
 2558              		.cfi_offset 7, -4
 2559 0002 83B0     		sub	sp, sp, #12
 2560              	.LCFI143:
 2561              		.cfi_def_cfa_offset 16
 2562 0004 00AF     		add	r7, sp, #0
 2563              	.LCFI144:
 2564              		.cfi_def_cfa_register 7
 2565 0006 0346     		mov	r3, r0
 2566 0008 FB71     		strb	r3, [r7, #7]
 632:../libraries/STM32_USB-FS-Device_Driver/src/usb_regs.c ****   return(_GetEPDblBuf1Addr(bEpNum));
 2567              		.loc 1 632 0
 2568 000a 45F65043 		movw	r3, #23632
 2569 000e C4F20003 		movt	r3, 16384
 2570 0012 1B68     		ldr	r3, [r3, #0]
 2571 0014 9BB2     		uxth	r3, r3
 2572 0016 1A46     		mov	r2, r3
 2573 0018 FB79     		ldrb	r3, [r7, #7]	@ zero_extendqisi2
 2574 001a 4FEAC303 		lsl	r3, r3, #3
 2575 001e D218     		adds	r2, r2, r3
 2576 0020 43F20403 		movw	r3, #12292
 2577 0024 C2F20003 		movt	r3, 8192
 2578 0028 D318     		adds	r3, r2, r3
 2579 002a 4FEA4303 		lsl	r3, r3, #1
 2580 002e 1B68     		ldr	r3, [r3, #0]
 2581 0030 9BB2     		uxth	r3, r3
 633:../libraries/STM32_USB-FS-Device_Driver/src/usb_regs.c **** }
 2582              		.loc 1 633 0
 2583 0032 1846     		mov	r0, r3
 2584 0034 07F10C07 		add	r7, r7, #12
 2585 0038 BD46     		mov	sp, r7
 2586 003a 80BC     		pop	{r7}
 2587 003c 7047     		bx	lr
 2588              		.cfi_endproc
 2589              	.LFE105:
 2591 003e 00BF     		.section	.text.SetEPDblBuffCount,"ax",%progbits
 2592              		.align	2
 2593              		.global	SetEPDblBuffCount
 2594              		.thumb
 2595              		.thumb_func
 2597              	SetEPDblBuffCount:
 2598              	.LFB106:
 634:../libraries/STM32_USB-FS-Device_Driver/src/usb_regs.c **** /*******************************************************************************
 635:../libraries/STM32_USB-FS-Device_Driver/src/usb_regs.c **** * Function Name  : SetEPDblBuffCount
 636:../libraries/STM32_USB-FS-Device_Driver/src/usb_regs.c **** * Description    : Set the number of bytes for a double Buffer 
 637:../libraries/STM32_USB-FS-Device_Driver/src/usb_regs.c **** *                  endpoint.
 638:../libraries/STM32_USB-FS-Device_Driver/src/usb_regs.c **** * Input          : bEpNum,bDir, wCount
 639:../libraries/STM32_USB-FS-Device_Driver/src/usb_regs.c **** * Output         : None.
 640:../libraries/STM32_USB-FS-Device_Driver/src/usb_regs.c **** * Return         : None.
 641:../libraries/STM32_USB-FS-Device_Driver/src/usb_regs.c **** *******************************************************************************/
 642:../libraries/STM32_USB-FS-Device_Driver/src/usb_regs.c **** void SetEPDblBuffCount(uint8_t bEpNum, uint8_t bDir, uint16_t wCount)
 643:../libraries/STM32_USB-FS-Device_Driver/src/usb_regs.c **** {
 2599              		.loc 1 643 0
 2600              		.cfi_startproc
 2601              		@ args = 0, pretend = 0, frame = 24
 2602              		@ frame_needed = 1, uses_anonymous_args = 0
 2603              		@ link register save eliminated.
 2604 0000 80B4     		push	{r7}
 2605              	.LCFI145:
 2606              		.cfi_def_cfa_offset 4
 2607              		.cfi_offset 7, -4
 2608 0002 87B0     		sub	sp, sp, #28
 2609              	.LCFI146:
 2610              		.cfi_def_cfa_offset 32
 2611 0004 00AF     		add	r7, sp, #0
 2612              	.LCFI147:
 2613              		.cfi_def_cfa_register 7
 2614 0006 1346     		mov	r3, r2
 2615 0008 0246     		mov	r2, r0
 2616 000a FA71     		strb	r2, [r7, #7]
 2617 000c 0A46     		mov	r2, r1
 2618 000e BA71     		strb	r2, [r7, #6]
 2619 0010 BB80     		strh	r3, [r7, #4]	@ movhi
 644:../libraries/STM32_USB-FS-Device_Driver/src/usb_regs.c ****   _SetEPDblBuffCount(bEpNum, bDir, wCount);
 2620              		.loc 1 644 0
 2621 0012 BB79     		ldrb	r3, [r7, #6]	@ zero_extendqisi2
 2622 0014 012B     		cmp	r3, #1
 2623 0016 3FD1     		bne	.L86
 2624              	.LBB9:
 2625              		.loc 1 644 0 is_stmt 0 discriminator 1
 2626 0018 45F65043 		movw	r3, #23632
 2627 001c C4F20003 		movt	r3, 16384
 2628 0020 1B68     		ldr	r3, [r3, #0]
 2629 0022 9BB2     		uxth	r3, r3
 2630 0024 1A46     		mov	r2, r3
 2631 0026 FB79     		ldrb	r3, [r7, #7]	@ zero_extendqisi2
 2632 0028 4FEAC303 		lsl	r3, r3, #3
 2633 002c D218     		adds	r2, r2, r3
 2634 002e 43F20203 		movw	r3, #12290
 2635 0032 C2F20003 		movt	r3, 8192
 2636 0036 D318     		adds	r3, r2, r3
 2637 0038 4FEA4303 		lsl	r3, r3, #1
 2638 003c 3B61     		str	r3, [r7, #16]
 2639              	.LBB10:
 2640 003e BB88     		ldrh	r3, [r7, #4]
 2641 0040 3E2B     		cmp	r3, #62
 2642 0042 15D9     		bls	.L87
 2643              		.loc 1 644 0 discriminator 3
 2644 0044 BB88     		ldrh	r3, [r7, #4]
 2645 0046 4FEA5313 		lsr	r3, r3, #5
 2646 004a FB82     		strh	r3, [r7, #22]	@ movhi
 2647 004c BB88     		ldrh	r3, [r7, #4]
 2648 004e 03F01F03 		and	r3, r3, #31
 2649 0052 002B     		cmp	r3, #0
 2650 0054 03D1     		bne	.L88
 2651              		.loc 1 644 0 discriminator 5
 2652 0056 FB8A     		ldrh	r3, [r7, #22]	@ movhi
 2653 0058 03F1FF33 		add	r3, r3, #-1
 2654 005c FB82     		strh	r3, [r7, #22]	@ movhi
 2655              	.L88:
 2656              		.loc 1 644 0 discriminator 6
 2657 005e FB8A     		ldrh	r3, [r7, #22]
 2658 0060 4FEA8323 		lsl	r3, r3, #10
 2659 0064 43F40043 		orr	r3, r3, #32768
 2660 0068 1A46     		mov	r2, r3
 2661 006a 3B69     		ldr	r3, [r7, #16]
 2662 006c 1A60     		str	r2, [r3, #0]
 2663 006e 2AE0     		b	.L89
 2664              	.L87:
 2665              		.loc 1 644 0 discriminator 4
 2666 0070 BB88     		ldrh	r3, [r7, #4]
 2667 0072 4FEA5303 		lsr	r3, r3, #1
 2668 0076 FB82     		strh	r3, [r7, #22]	@ movhi
 2669 0078 BB88     		ldrh	r3, [r7, #4]
 2670 007a 03F00103 		and	r3, r3, #1
 2671 007e 002B     		cmp	r3, #0
 2672 0080 03D0     		beq	.L90
 2673              		.loc 1 644 0 discriminator 7
 2674 0082 FB8A     		ldrh	r3, [r7, #22]	@ movhi
 2675 0084 03F10103 		add	r3, r3, #1
 2676 0088 FB82     		strh	r3, [r7, #22]	@ movhi
 2677              	.L90:
 2678              		.loc 1 644 0 discriminator 8
 2679 008a FB8A     		ldrh	r3, [r7, #22]
 2680 008c 4FEA8323 		lsl	r3, r3, #10
 2681 0090 1A46     		mov	r2, r3
 2682 0092 3B69     		ldr	r3, [r7, #16]
 2683 0094 1A60     		str	r2, [r3, #0]
 2684 0096 16E0     		b	.L89
 2685              	.L86:
 2686              	.LBE10:
 2687              	.LBE9:
 2688              		.loc 1 644 0 discriminator 2
 2689 0098 BB79     		ldrb	r3, [r7, #6]	@ zero_extendqisi2
 2690 009a 022B     		cmp	r3, #2
 2691 009c 13D1     		bne	.L89
 2692              		.loc 1 644 0 discriminator 9
 2693 009e 45F65043 		movw	r3, #23632
 2694 00a2 C4F20003 		movt	r3, 16384
 2695 00a6 1B68     		ldr	r3, [r3, #0]
 2696 00a8 9BB2     		uxth	r3, r3
 2697 00aa 1A46     		mov	r2, r3
 2698 00ac FB79     		ldrb	r3, [r7, #7]	@ zero_extendqisi2
 2699 00ae 4FEAC303 		lsl	r3, r3, #3
 2700 00b2 D218     		adds	r2, r2, r3
 2701 00b4 43F20203 		movw	r3, #12290
 2702 00b8 C2F20003 		movt	r3, 8192
 2703 00bc D318     		adds	r3, r2, r3
 2704 00be 4FEA4303 		lsl	r3, r3, #1
 2705 00c2 BA88     		ldrh	r2, [r7, #4]
 2706 00c4 1A60     		str	r2, [r3, #0]
 2707              	.L89:
 2708              		.loc 1 644 0 discriminator 10
 2709 00c6 BB79     		ldrb	r3, [r7, #6]	@ zero_extendqisi2
 2710 00c8 012B     		cmp	r3, #1
 2711 00ca 3FD1     		bne	.L91
 2712              	.LBB11:
 2713              		.loc 1 644 0 discriminator 11
 2714 00cc 45F65043 		movw	r3, #23632
 2715 00d0 C4F20003 		movt	r3, 16384
 2716 00d4 1B68     		ldr	r3, [r3, #0]
 2717 00d6 9BB2     		uxth	r3, r3
 2718 00d8 1A46     		mov	r2, r3
 2719 00da FB79     		ldrb	r3, [r7, #7]	@ zero_extendqisi2
 2720 00dc 4FEAC303 		lsl	r3, r3, #3
 2721 00e0 D218     		adds	r2, r2, r3
 2722 00e2 43F20603 		movw	r3, #12294
 2723 00e6 C2F20003 		movt	r3, 8192
 2724 00ea D318     		adds	r3, r2, r3
 2725 00ec 4FEA4303 		lsl	r3, r3, #1
 2726 00f0 FB60     		str	r3, [r7, #12]
 2727              	.LBB12:
 2728 00f2 BB88     		ldrh	r3, [r7, #4]
 2729 00f4 3E2B     		cmp	r3, #62
 2730 00f6 15D9     		bls	.L92
 2731              		.loc 1 644 0 discriminator 13
 2732 00f8 BB88     		ldrh	r3, [r7, #4]
 2733 00fa 4FEA5313 		lsr	r3, r3, #5
 2734 00fe BB82     		strh	r3, [r7, #20]	@ movhi
 2735 0100 BB88     		ldrh	r3, [r7, #4]
 2736 0102 03F01F03 		and	r3, r3, #31
 2737 0106 002B     		cmp	r3, #0
 2738 0108 03D1     		bne	.L93
 2739              		.loc 1 644 0 discriminator 15
 2740 010a BB8A     		ldrh	r3, [r7, #20]	@ movhi
 2741 010c 03F1FF33 		add	r3, r3, #-1
 2742 0110 BB82     		strh	r3, [r7, #20]	@ movhi
 2743              	.L93:
 2744              		.loc 1 644 0 discriminator 16
 2745 0112 BB8A     		ldrh	r3, [r7, #20]
 2746 0114 4FEA8323 		lsl	r3, r3, #10
 2747 0118 43F40043 		orr	r3, r3, #32768
 2748 011c 1A46     		mov	r2, r3
 2749 011e FB68     		ldr	r3, [r7, #12]
 2750 0120 1A60     		str	r2, [r3, #0]
 2751 0122 2AE0     		b	.L85
 2752              	.L92:
 2753              		.loc 1 644 0 discriminator 14
 2754 0124 BB88     		ldrh	r3, [r7, #4]
 2755 0126 4FEA5303 		lsr	r3, r3, #1
 2756 012a BB82     		strh	r3, [r7, #20]	@ movhi
 2757 012c BB88     		ldrh	r3, [r7, #4]
 2758 012e 03F00103 		and	r3, r3, #1
 2759 0132 002B     		cmp	r3, #0
 2760 0134 03D0     		beq	.L95
 2761              		.loc 1 644 0 discriminator 17
 2762 0136 BB8A     		ldrh	r3, [r7, #20]	@ movhi
 2763 0138 03F10103 		add	r3, r3, #1
 2764 013c BB82     		strh	r3, [r7, #20]	@ movhi
 2765              	.L95:
 2766              		.loc 1 644 0 discriminator 18
 2767 013e BB8A     		ldrh	r3, [r7, #20]
 2768 0140 4FEA8323 		lsl	r3, r3, #10
 2769 0144 1A46     		mov	r2, r3
 2770 0146 FB68     		ldr	r3, [r7, #12]
 2771 0148 1A60     		str	r2, [r3, #0]
 2772 014a 16E0     		b	.L85
 2773              	.L91:
 2774              	.LBE12:
 2775              	.LBE11:
 2776              		.loc 1 644 0 discriminator 12
 2777 014c BB79     		ldrb	r3, [r7, #6]	@ zero_extendqisi2
 2778 014e 022B     		cmp	r3, #2
 2779 0150 13D1     		bne	.L85
 2780              		.loc 1 644 0 discriminator 19
 2781 0152 45F65043 		movw	r3, #23632
 2782 0156 C4F20003 		movt	r3, 16384
 2783 015a 1B68     		ldr	r3, [r3, #0]
 2784 015c 9BB2     		uxth	r3, r3
 2785 015e 1A46     		mov	r2, r3
 2786 0160 FB79     		ldrb	r3, [r7, #7]	@ zero_extendqisi2
 2787 0162 4FEAC303 		lsl	r3, r3, #3
 2788 0166 D218     		adds	r2, r2, r3
 2789 0168 43F20603 		movw	r3, #12294
 2790 016c C2F20003 		movt	r3, 8192
 2791 0170 D318     		adds	r3, r2, r3
 2792 0172 4FEA4303 		lsl	r3, r3, #1
 2793 0176 BA88     		ldrh	r2, [r7, #4]
 2794 0178 1A60     		str	r2, [r3, #0]
 2795              	.L85:
 645:../libraries/STM32_USB-FS-Device_Driver/src/usb_regs.c **** }
 2796              		.loc 1 645 0 is_stmt 1
 2797 017a 07F11C07 		add	r7, r7, #28
 2798 017e BD46     		mov	sp, r7
 2799 0180 80BC     		pop	{r7}
 2800 0182 7047     		bx	lr
 2801              		.cfi_endproc
 2802              	.LFE106:
 2804              		.section	.text.SetEPDblBuf0Count,"ax",%progbits
 2805              		.align	2
 2806              		.global	SetEPDblBuf0Count
 2807              		.thumb
 2808              		.thumb_func
 2810              	SetEPDblBuf0Count:
 2811              	.LFB107:
 646:../libraries/STM32_USB-FS-Device_Driver/src/usb_regs.c **** /*******************************************************************************
 647:../libraries/STM32_USB-FS-Device_Driver/src/usb_regs.c **** * Function Name  : SetEPDblBuf0Count
 648:../libraries/STM32_USB-FS-Device_Driver/src/usb_regs.c **** * Description    : Set the number of bytes in the buffer 0 of a double Buffer 
 649:../libraries/STM32_USB-FS-Device_Driver/src/usb_regs.c **** *                  endpoint.
 650:../libraries/STM32_USB-FS-Device_Driver/src/usb_regs.c **** * Input          : bEpNum, bDir,  wCount
 651:../libraries/STM32_USB-FS-Device_Driver/src/usb_regs.c **** * Output         : None.
 652:../libraries/STM32_USB-FS-Device_Driver/src/usb_regs.c **** * Return         : None.
 653:../libraries/STM32_USB-FS-Device_Driver/src/usb_regs.c **** *******************************************************************************/
 654:../libraries/STM32_USB-FS-Device_Driver/src/usb_regs.c **** void SetEPDblBuf0Count(uint8_t bEpNum, uint8_t bDir, uint16_t wCount)
 655:../libraries/STM32_USB-FS-Device_Driver/src/usb_regs.c **** {
 2812              		.loc 1 655 0
 2813              		.cfi_startproc
 2814              		@ args = 0, pretend = 0, frame = 16
 2815              		@ frame_needed = 1, uses_anonymous_args = 0
 2816              		@ link register save eliminated.
 2817 0000 80B4     		push	{r7}
 2818              	.LCFI148:
 2819              		.cfi_def_cfa_offset 4
 2820              		.cfi_offset 7, -4
 2821 0002 85B0     		sub	sp, sp, #20
 2822              	.LCFI149:
 2823              		.cfi_def_cfa_offset 24
 2824 0004 00AF     		add	r7, sp, #0
 2825              	.LCFI150:
 2826              		.cfi_def_cfa_register 7
 2827 0006 1346     		mov	r3, r2
 2828 0008 0246     		mov	r2, r0
 2829 000a FA71     		strb	r2, [r7, #7]
 2830 000c 0A46     		mov	r2, r1
 2831 000e BA71     		strb	r2, [r7, #6]
 2832 0010 BB80     		strh	r3, [r7, #4]	@ movhi
 656:../libraries/STM32_USB-FS-Device_Driver/src/usb_regs.c ****   _SetEPDblBuf0Count(bEpNum, bDir, wCount);
 2833              		.loc 1 656 0
 2834 0012 BB79     		ldrb	r3, [r7, #6]	@ zero_extendqisi2
 2835 0014 012B     		cmp	r3, #1
 2836 0016 3FD1     		bne	.L97
 2837              	.LBB13:
 2838              		.loc 1 656 0 is_stmt 0 discriminator 1
 2839 0018 45F65043 		movw	r3, #23632
 2840 001c C4F20003 		movt	r3, 16384
 2841 0020 1B68     		ldr	r3, [r3, #0]
 2842 0022 9BB2     		uxth	r3, r3
 2843 0024 1A46     		mov	r2, r3
 2844 0026 FB79     		ldrb	r3, [r7, #7]	@ zero_extendqisi2
 2845 0028 4FEAC303 		lsl	r3, r3, #3
 2846 002c D218     		adds	r2, r2, r3
 2847 002e 43F20203 		movw	r3, #12290
 2848 0032 C2F20003 		movt	r3, 8192
 2849 0036 D318     		adds	r3, r2, r3
 2850 0038 4FEA4303 		lsl	r3, r3, #1
 2851 003c BB60     		str	r3, [r7, #8]
 2852              	.LBB14:
 2853 003e BB88     		ldrh	r3, [r7, #4]
 2854 0040 3E2B     		cmp	r3, #62
 2855 0042 15D9     		bls	.L98
 2856              		.loc 1 656 0 discriminator 3
 2857 0044 BB88     		ldrh	r3, [r7, #4]
 2858 0046 4FEA5313 		lsr	r3, r3, #5
 2859 004a FB81     		strh	r3, [r7, #14]	@ movhi
 2860 004c BB88     		ldrh	r3, [r7, #4]
 2861 004e 03F01F03 		and	r3, r3, #31
 2862 0052 002B     		cmp	r3, #0
 2863 0054 03D1     		bne	.L99
 2864              		.loc 1 656 0 discriminator 5
 2865 0056 FB89     		ldrh	r3, [r7, #14]	@ movhi
 2866 0058 03F1FF33 		add	r3, r3, #-1
 2867 005c FB81     		strh	r3, [r7, #14]	@ movhi
 2868              	.L99:
 2869              		.loc 1 656 0 discriminator 6
 2870 005e FB89     		ldrh	r3, [r7, #14]
 2871 0060 4FEA8323 		lsl	r3, r3, #10
 2872 0064 43F40043 		orr	r3, r3, #32768
 2873 0068 1A46     		mov	r2, r3
 2874 006a BB68     		ldr	r3, [r7, #8]
 2875 006c 1A60     		str	r2, [r3, #0]
 2876 006e 2AE0     		b	.L96
 2877              	.L98:
 2878              		.loc 1 656 0 discriminator 4
 2879 0070 BB88     		ldrh	r3, [r7, #4]
 2880 0072 4FEA5303 		lsr	r3, r3, #1
 2881 0076 FB81     		strh	r3, [r7, #14]	@ movhi
 2882 0078 BB88     		ldrh	r3, [r7, #4]
 2883 007a 03F00103 		and	r3, r3, #1
 2884 007e 002B     		cmp	r3, #0
 2885 0080 03D0     		beq	.L101
 2886              		.loc 1 656 0 discriminator 7
 2887 0082 FB89     		ldrh	r3, [r7, #14]	@ movhi
 2888 0084 03F10103 		add	r3, r3, #1
 2889 0088 FB81     		strh	r3, [r7, #14]	@ movhi
 2890              	.L101:
 2891              		.loc 1 656 0 discriminator 8
 2892 008a FB89     		ldrh	r3, [r7, #14]
 2893 008c 4FEA8323 		lsl	r3, r3, #10
 2894 0090 1A46     		mov	r2, r3
 2895 0092 BB68     		ldr	r3, [r7, #8]
 2896 0094 1A60     		str	r2, [r3, #0]
 2897 0096 16E0     		b	.L96
 2898              	.L97:
 2899              	.LBE14:
 2900              	.LBE13:
 2901              		.loc 1 656 0 discriminator 2
 2902 0098 BB79     		ldrb	r3, [r7, #6]	@ zero_extendqisi2
 2903 009a 022B     		cmp	r3, #2
 2904 009c 13D1     		bne	.L96
 2905              		.loc 1 656 0 discriminator 9
 2906 009e 45F65043 		movw	r3, #23632
 2907 00a2 C4F20003 		movt	r3, 16384
 2908 00a6 1B68     		ldr	r3, [r3, #0]
 2909 00a8 9BB2     		uxth	r3, r3
 2910 00aa 1A46     		mov	r2, r3
 2911 00ac FB79     		ldrb	r3, [r7, #7]	@ zero_extendqisi2
 2912 00ae 4FEAC303 		lsl	r3, r3, #3
 2913 00b2 D218     		adds	r2, r2, r3
 2914 00b4 43F20203 		movw	r3, #12290
 2915 00b8 C2F20003 		movt	r3, 8192
 2916 00bc D318     		adds	r3, r2, r3
 2917 00be 4FEA4303 		lsl	r3, r3, #1
 2918 00c2 BA88     		ldrh	r2, [r7, #4]
 2919 00c4 1A60     		str	r2, [r3, #0]
 2920              	.L96:
 657:../libraries/STM32_USB-FS-Device_Driver/src/usb_regs.c **** }
 2921              		.loc 1 657 0 is_stmt 1
 2922 00c6 07F11407 		add	r7, r7, #20
 2923 00ca BD46     		mov	sp, r7
 2924 00cc 80BC     		pop	{r7}
 2925 00ce 7047     		bx	lr
 2926              		.cfi_endproc
 2927              	.LFE107:
 2929              		.section	.text.SetEPDblBuf1Count,"ax",%progbits
 2930              		.align	2
 2931              		.global	SetEPDblBuf1Count
 2932              		.thumb
 2933              		.thumb_func
 2935              	SetEPDblBuf1Count:
 2936              	.LFB108:
 658:../libraries/STM32_USB-FS-Device_Driver/src/usb_regs.c **** /*******************************************************************************
 659:../libraries/STM32_USB-FS-Device_Driver/src/usb_regs.c **** * Function Name  : SetEPDblBuf1Count
 660:../libraries/STM32_USB-FS-Device_Driver/src/usb_regs.c **** * Description    : Set the number of bytes in the buffer 0 of a double Buffer 
 661:../libraries/STM32_USB-FS-Device_Driver/src/usb_regs.c **** *                  endpoint.
 662:../libraries/STM32_USB-FS-Device_Driver/src/usb_regs.c **** * Input          : bEpNum,  bDir,  wCount
 663:../libraries/STM32_USB-FS-Device_Driver/src/usb_regs.c **** * Output         : None.
 664:../libraries/STM32_USB-FS-Device_Driver/src/usb_regs.c **** * Return         : None.
 665:../libraries/STM32_USB-FS-Device_Driver/src/usb_regs.c **** *******************************************************************************/
 666:../libraries/STM32_USB-FS-Device_Driver/src/usb_regs.c **** void SetEPDblBuf1Count(uint8_t bEpNum, uint8_t bDir, uint16_t wCount)
 667:../libraries/STM32_USB-FS-Device_Driver/src/usb_regs.c **** {
 2937              		.loc 1 667 0
 2938              		.cfi_startproc
 2939              		@ args = 0, pretend = 0, frame = 16
 2940              		@ frame_needed = 1, uses_anonymous_args = 0
 2941              		@ link register save eliminated.
 2942 0000 80B4     		push	{r7}
 2943              	.LCFI151:
 2944              		.cfi_def_cfa_offset 4
 2945              		.cfi_offset 7, -4
 2946 0002 85B0     		sub	sp, sp, #20
 2947              	.LCFI152:
 2948              		.cfi_def_cfa_offset 24
 2949 0004 00AF     		add	r7, sp, #0
 2950              	.LCFI153:
 2951              		.cfi_def_cfa_register 7
 2952 0006 1346     		mov	r3, r2
 2953 0008 0246     		mov	r2, r0
 2954 000a FA71     		strb	r2, [r7, #7]
 2955 000c 0A46     		mov	r2, r1
 2956 000e BA71     		strb	r2, [r7, #6]
 2957 0010 BB80     		strh	r3, [r7, #4]	@ movhi
 668:../libraries/STM32_USB-FS-Device_Driver/src/usb_regs.c ****   _SetEPDblBuf1Count(bEpNum, bDir, wCount);
 2958              		.loc 1 668 0
 2959 0012 BB79     		ldrb	r3, [r7, #6]	@ zero_extendqisi2
 2960 0014 012B     		cmp	r3, #1
 2961 0016 3FD1     		bne	.L103
 2962              	.LBB15:
 2963              		.loc 1 668 0 is_stmt 0 discriminator 1
 2964 0018 45F65043 		movw	r3, #23632
 2965 001c C4F20003 		movt	r3, 16384
 2966 0020 1B68     		ldr	r3, [r3, #0]
 2967 0022 9BB2     		uxth	r3, r3
 2968 0024 1A46     		mov	r2, r3
 2969 0026 FB79     		ldrb	r3, [r7, #7]	@ zero_extendqisi2
 2970 0028 4FEAC303 		lsl	r3, r3, #3
 2971 002c D218     		adds	r2, r2, r3
 2972 002e 43F20603 		movw	r3, #12294
 2973 0032 C2F20003 		movt	r3, 8192
 2974 0036 D318     		adds	r3, r2, r3
 2975 0038 4FEA4303 		lsl	r3, r3, #1
 2976 003c BB60     		str	r3, [r7, #8]
 2977              	.LBB16:
 2978 003e BB88     		ldrh	r3, [r7, #4]
 2979 0040 3E2B     		cmp	r3, #62
 2980 0042 15D9     		bls	.L104
 2981              		.loc 1 668 0 discriminator 3
 2982 0044 BB88     		ldrh	r3, [r7, #4]
 2983 0046 4FEA5313 		lsr	r3, r3, #5
 2984 004a FB81     		strh	r3, [r7, #14]	@ movhi
 2985 004c BB88     		ldrh	r3, [r7, #4]
 2986 004e 03F01F03 		and	r3, r3, #31
 2987 0052 002B     		cmp	r3, #0
 2988 0054 03D1     		bne	.L105
 2989              		.loc 1 668 0 discriminator 5
 2990 0056 FB89     		ldrh	r3, [r7, #14]	@ movhi
 2991 0058 03F1FF33 		add	r3, r3, #-1
 2992 005c FB81     		strh	r3, [r7, #14]	@ movhi
 2993              	.L105:
 2994              		.loc 1 668 0 discriminator 6
 2995 005e FB89     		ldrh	r3, [r7, #14]
 2996 0060 4FEA8323 		lsl	r3, r3, #10
 2997 0064 43F40043 		orr	r3, r3, #32768
 2998 0068 1A46     		mov	r2, r3
 2999 006a BB68     		ldr	r3, [r7, #8]
 3000 006c 1A60     		str	r2, [r3, #0]
 3001 006e 2AE0     		b	.L102
 3002              	.L104:
 3003              		.loc 1 668 0 discriminator 4
 3004 0070 BB88     		ldrh	r3, [r7, #4]
 3005 0072 4FEA5303 		lsr	r3, r3, #1
 3006 0076 FB81     		strh	r3, [r7, #14]	@ movhi
 3007 0078 BB88     		ldrh	r3, [r7, #4]
 3008 007a 03F00103 		and	r3, r3, #1
 3009 007e 002B     		cmp	r3, #0
 3010 0080 03D0     		beq	.L107
 3011              		.loc 1 668 0 discriminator 7
 3012 0082 FB89     		ldrh	r3, [r7, #14]	@ movhi
 3013 0084 03F10103 		add	r3, r3, #1
 3014 0088 FB81     		strh	r3, [r7, #14]	@ movhi
 3015              	.L107:
 3016              		.loc 1 668 0 discriminator 8
 3017 008a FB89     		ldrh	r3, [r7, #14]
 3018 008c 4FEA8323 		lsl	r3, r3, #10
 3019 0090 1A46     		mov	r2, r3
 3020 0092 BB68     		ldr	r3, [r7, #8]
 3021 0094 1A60     		str	r2, [r3, #0]
 3022 0096 16E0     		b	.L102
 3023              	.L103:
 3024              	.LBE16:
 3025              	.LBE15:
 3026              		.loc 1 668 0 discriminator 2
 3027 0098 BB79     		ldrb	r3, [r7, #6]	@ zero_extendqisi2
 3028 009a 022B     		cmp	r3, #2
 3029 009c 13D1     		bne	.L102
 3030              		.loc 1 668 0 discriminator 9
 3031 009e 45F65043 		movw	r3, #23632
 3032 00a2 C4F20003 		movt	r3, 16384
 3033 00a6 1B68     		ldr	r3, [r3, #0]
 3034 00a8 9BB2     		uxth	r3, r3
 3035 00aa 1A46     		mov	r2, r3
 3036 00ac FB79     		ldrb	r3, [r7, #7]	@ zero_extendqisi2
 3037 00ae 4FEAC303 		lsl	r3, r3, #3
 3038 00b2 D218     		adds	r2, r2, r3
 3039 00b4 43F20603 		movw	r3, #12294
 3040 00b8 C2F20003 		movt	r3, 8192
 3041 00bc D318     		adds	r3, r2, r3
 3042 00be 4FEA4303 		lsl	r3, r3, #1
 3043 00c2 BA88     		ldrh	r2, [r7, #4]
 3044 00c4 1A60     		str	r2, [r3, #0]
 3045              	.L102:
 669:../libraries/STM32_USB-FS-Device_Driver/src/usb_regs.c **** }
 3046              		.loc 1 669 0 is_stmt 1
 3047 00c6 07F11407 		add	r7, r7, #20
 3048 00ca BD46     		mov	sp, r7
 3049 00cc 80BC     		pop	{r7}
 3050 00ce 7047     		bx	lr
 3051              		.cfi_endproc
 3052              	.LFE108:
 3054              		.section	.text.GetEPDblBuf0Count,"ax",%progbits
 3055              		.align	2
 3056              		.global	GetEPDblBuf0Count
 3057              		.thumb
 3058              		.thumb_func
 3060              	GetEPDblBuf0Count:
 3061              	.LFB109:
 670:../libraries/STM32_USB-FS-Device_Driver/src/usb_regs.c **** /*******************************************************************************
 671:../libraries/STM32_USB-FS-Device_Driver/src/usb_regs.c **** * Function Name  : GetEPDblBuf0Count
 672:../libraries/STM32_USB-FS-Device_Driver/src/usb_regs.c **** * Description    : Returns the number of byte received in the buffer 0 of a double
 673:../libraries/STM32_USB-FS-Device_Driver/src/usb_regs.c **** *                  Buffer endpoint.
 674:../libraries/STM32_USB-FS-Device_Driver/src/usb_regs.c **** * Input          : bEpNum: Endpoint Number.
 675:../libraries/STM32_USB-FS-Device_Driver/src/usb_regs.c **** * Output         : None.
 676:../libraries/STM32_USB-FS-Device_Driver/src/usb_regs.c **** * Return         : Endpoint Buffer 0 count
 677:../libraries/STM32_USB-FS-Device_Driver/src/usb_regs.c **** *******************************************************************************/
 678:../libraries/STM32_USB-FS-Device_Driver/src/usb_regs.c **** uint16_t GetEPDblBuf0Count(uint8_t bEpNum)
 679:../libraries/STM32_USB-FS-Device_Driver/src/usb_regs.c **** {
 3062              		.loc 1 679 0
 3063              		.cfi_startproc
 3064              		@ args = 0, pretend = 0, frame = 8
 3065              		@ frame_needed = 1, uses_anonymous_args = 0
 3066              		@ link register save eliminated.
 3067 0000 80B4     		push	{r7}
 3068              	.LCFI154:
 3069              		.cfi_def_cfa_offset 4
 3070              		.cfi_offset 7, -4
 3071 0002 83B0     		sub	sp, sp, #12
 3072              	.LCFI155:
 3073              		.cfi_def_cfa_offset 16
 3074 0004 00AF     		add	r7, sp, #0
 3075              	.LCFI156:
 3076              		.cfi_def_cfa_register 7
 3077 0006 0346     		mov	r3, r0
 3078 0008 FB71     		strb	r3, [r7, #7]
 680:../libraries/STM32_USB-FS-Device_Driver/src/usb_regs.c ****   return(_GetEPDblBuf0Count(bEpNum));
 3079              		.loc 1 680 0
 3080 000a 45F65043 		movw	r3, #23632
 3081 000e C4F20003 		movt	r3, 16384
 3082 0012 1B68     		ldr	r3, [r3, #0]
 3083 0014 9BB2     		uxth	r3, r3
 3084 0016 1A46     		mov	r2, r3
 3085 0018 FB79     		ldrb	r3, [r7, #7]	@ zero_extendqisi2
 3086 001a 4FEAC303 		lsl	r3, r3, #3
 3087 001e D218     		adds	r2, r2, r3
 3088 0020 43F20203 		movw	r3, #12290
 3089 0024 C2F20003 		movt	r3, 8192
 3090 0028 D318     		adds	r3, r2, r3
 3091 002a 4FEA4303 		lsl	r3, r3, #1
 3092 002e 1B68     		ldr	r3, [r3, #0]
 3093 0030 9BB2     		uxth	r3, r3
 3094 0032 4FEA8353 		lsl	r3, r3, #22
 3095 0036 4FEA9353 		lsr	r3, r3, #22
 3096 003a 9BB2     		uxth	r3, r3
 681:../libraries/STM32_USB-FS-Device_Driver/src/usb_regs.c **** }
 3097              		.loc 1 681 0
 3098 003c 1846     		mov	r0, r3
 3099 003e 07F10C07 		add	r7, r7, #12
 3100 0042 BD46     		mov	sp, r7
 3101 0044 80BC     		pop	{r7}
 3102 0046 7047     		bx	lr
 3103              		.cfi_endproc
 3104              	.LFE109:
 3106              		.section	.text.GetEPDblBuf1Count,"ax",%progbits
 3107              		.align	2
 3108              		.global	GetEPDblBuf1Count
 3109              		.thumb
 3110              		.thumb_func
 3112              	GetEPDblBuf1Count:
 3113              	.LFB110:
 682:../libraries/STM32_USB-FS-Device_Driver/src/usb_regs.c **** /*******************************************************************************
 683:../libraries/STM32_USB-FS-Device_Driver/src/usb_regs.c **** * Function Name  : GetEPDblBuf1Count
 684:../libraries/STM32_USB-FS-Device_Driver/src/usb_regs.c **** * Description    : Returns the number of data received in the buffer 1 of a double
 685:../libraries/STM32_USB-FS-Device_Driver/src/usb_regs.c **** *                  Buffer endpoint.
 686:../libraries/STM32_USB-FS-Device_Driver/src/usb_regs.c **** * Input          : bEpNum: Endpoint Number.
 687:../libraries/STM32_USB-FS-Device_Driver/src/usb_regs.c **** * Output         : None.
 688:../libraries/STM32_USB-FS-Device_Driver/src/usb_regs.c **** * Return         : Endpoint Buffer 1 count.
 689:../libraries/STM32_USB-FS-Device_Driver/src/usb_regs.c **** *******************************************************************************/
 690:../libraries/STM32_USB-FS-Device_Driver/src/usb_regs.c **** uint16_t GetEPDblBuf1Count(uint8_t bEpNum)
 691:../libraries/STM32_USB-FS-Device_Driver/src/usb_regs.c **** {
 3114              		.loc 1 691 0
 3115              		.cfi_startproc
 3116              		@ args = 0, pretend = 0, frame = 8
 3117              		@ frame_needed = 1, uses_anonymous_args = 0
 3118              		@ link register save eliminated.
 3119 0000 80B4     		push	{r7}
 3120              	.LCFI157:
 3121              		.cfi_def_cfa_offset 4
 3122              		.cfi_offset 7, -4
 3123 0002 83B0     		sub	sp, sp, #12
 3124              	.LCFI158:
 3125              		.cfi_def_cfa_offset 16
 3126 0004 00AF     		add	r7, sp, #0
 3127              	.LCFI159:
 3128              		.cfi_def_cfa_register 7
 3129 0006 0346     		mov	r3, r0
 3130 0008 FB71     		strb	r3, [r7, #7]
 692:../libraries/STM32_USB-FS-Device_Driver/src/usb_regs.c ****   return(_GetEPDblBuf1Count(bEpNum));
 3131              		.loc 1 692 0
 3132 000a 45F65043 		movw	r3, #23632
 3133 000e C4F20003 		movt	r3, 16384
 3134 0012 1B68     		ldr	r3, [r3, #0]
 3135 0014 9BB2     		uxth	r3, r3
 3136 0016 1A46     		mov	r2, r3
 3137 0018 FB79     		ldrb	r3, [r7, #7]	@ zero_extendqisi2
 3138 001a 4FEAC303 		lsl	r3, r3, #3
 3139 001e D218     		adds	r2, r2, r3
 3140 0020 43F20603 		movw	r3, #12294
 3141 0024 C2F20003 		movt	r3, 8192
 3142 0028 D318     		adds	r3, r2, r3
 3143 002a 4FEA4303 		lsl	r3, r3, #1
 3144 002e 1B68     		ldr	r3, [r3, #0]
 3145 0030 9BB2     		uxth	r3, r3
 3146 0032 4FEA8353 		lsl	r3, r3, #22
 3147 0036 4FEA9353 		lsr	r3, r3, #22
 3148 003a 9BB2     		uxth	r3, r3
 693:../libraries/STM32_USB-FS-Device_Driver/src/usb_regs.c **** }
 3149              		.loc 1 693 0
 3150 003c 1846     		mov	r0, r3
 3151 003e 07F10C07 		add	r7, r7, #12
 3152 0042 BD46     		mov	sp, r7
 3153 0044 80BC     		pop	{r7}
 3154 0046 7047     		bx	lr
 3155              		.cfi_endproc
 3156              	.LFE110:
 3158              		.section	.text.GetEPDblBufDir,"ax",%progbits
 3159              		.align	2
 3160              		.global	GetEPDblBufDir
 3161              		.thumb
 3162              		.thumb_func
 3164              	GetEPDblBufDir:
 3165              	.LFB111:
 694:../libraries/STM32_USB-FS-Device_Driver/src/usb_regs.c **** /*******************************************************************************
 695:../libraries/STM32_USB-FS-Device_Driver/src/usb_regs.c **** * Function Name  : GetEPDblBufDir
 696:../libraries/STM32_USB-FS-Device_Driver/src/usb_regs.c **** * Description    : gets direction of the double buffered endpoint
 697:../libraries/STM32_USB-FS-Device_Driver/src/usb_regs.c **** * Input          : bEpNum: Endpoint Number. 
 698:../libraries/STM32_USB-FS-Device_Driver/src/usb_regs.c **** * Output         : None.
 699:../libraries/STM32_USB-FS-Device_Driver/src/usb_regs.c **** * Return         : EP_DBUF_OUT, EP_DBUF_IN,
 700:../libraries/STM32_USB-FS-Device_Driver/src/usb_regs.c **** *                  EP_DBUF_ERR if the endpoint counter not yet programmed.
 701:../libraries/STM32_USB-FS-Device_Driver/src/usb_regs.c **** *******************************************************************************/
 702:../libraries/STM32_USB-FS-Device_Driver/src/usb_regs.c **** EP_DBUF_DIR GetEPDblBufDir(uint8_t bEpNum)
 703:../libraries/STM32_USB-FS-Device_Driver/src/usb_regs.c **** {
 3166              		.loc 1 703 0
 3167              		.cfi_startproc
 3168              		@ args = 0, pretend = 0, frame = 8
 3169              		@ frame_needed = 1, uses_anonymous_args = 0
 3170              		@ link register save eliminated.
 3171 0000 80B4     		push	{r7}
 3172              	.LCFI160:
 3173              		.cfi_def_cfa_offset 4
 3174              		.cfi_offset 7, -4
 3175 0002 83B0     		sub	sp, sp, #12
 3176              	.LCFI161:
 3177              		.cfi_def_cfa_offset 16
 3178 0004 00AF     		add	r7, sp, #0
 3179              	.LCFI162:
 3180              		.cfi_def_cfa_register 7
 3181 0006 0346     		mov	r3, r0
 3182 0008 FB71     		strb	r3, [r7, #7]
 704:../libraries/STM32_USB-FS-Device_Driver/src/usb_regs.c ****   if ((uint16_t)(*_pEPRxCount(bEpNum) & 0xFC00) != 0)
 3183              		.loc 1 704 0
 3184 000a 45F65043 		movw	r3, #23632
 3185 000e C4F20003 		movt	r3, 16384
 3186 0012 1B68     		ldr	r3, [r3, #0]
 3187 0014 9BB2     		uxth	r3, r3
 3188 0016 1A46     		mov	r2, r3
 3189 0018 FB79     		ldrb	r3, [r7, #7]	@ zero_extendqisi2
 3190 001a 4FEAC303 		lsl	r3, r3, #3
 3191 001e D218     		adds	r2, r2, r3
 3192 0020 43F20603 		movw	r3, #12294
 3193 0024 C2F20003 		movt	r3, 8192
 3194 0028 D318     		adds	r3, r2, r3
 3195 002a 4FEA4303 		lsl	r3, r3, #1
 3196 002e 1B68     		ldr	r3, [r3, #0]
 3197 0030 9BB2     		uxth	r3, r3
 3198 0032 03F47C43 		and	r3, r3, #64512
 3199 0036 002B     		cmp	r3, #0
 3200 0038 02D0     		beq	.L113
 705:../libraries/STM32_USB-FS-Device_Driver/src/usb_regs.c ****     return(EP_DBUF_OUT);
 3201              		.loc 1 705 0
 3202 003a 4FF00103 		mov	r3, #1
 3203 003e 1EE0     		b	.L114
 3204              	.L113:
 706:../libraries/STM32_USB-FS-Device_Driver/src/usb_regs.c ****   else if (((uint16_t)(*_pEPTxCount(bEpNum)) & 0x03FF) != 0)
 3205              		.loc 1 706 0
 3206 0040 45F65043 		movw	r3, #23632
 3207 0044 C4F20003 		movt	r3, 16384
 3208 0048 1B68     		ldr	r3, [r3, #0]
 3209 004a 9BB2     		uxth	r3, r3
 3210 004c 1A46     		mov	r2, r3
 3211 004e FB79     		ldrb	r3, [r7, #7]	@ zero_extendqisi2
 3212 0050 4FEAC303 		lsl	r3, r3, #3
 3213 0054 D218     		adds	r2, r2, r3
 3214 0056 43F20203 		movw	r3, #12290
 3215 005a C2F20003 		movt	r3, 8192
 3216 005e D318     		adds	r3, r2, r3
 3217 0060 4FEA4303 		lsl	r3, r3, #1
 3218 0064 1B68     		ldr	r3, [r3, #0]
 3219 0066 9BB2     		uxth	r3, r3
 3220 0068 4FEA8353 		lsl	r3, r3, #22
 3221 006c 4FEA9353 		lsr	r3, r3, #22
 3222 0070 002B     		cmp	r3, #0
 3223 0072 02D0     		beq	.L115
 707:../libraries/STM32_USB-FS-Device_Driver/src/usb_regs.c ****     return(EP_DBUF_IN);
 3224              		.loc 1 707 0
 3225 0074 4FF00203 		mov	r3, #2
 3226 0078 01E0     		b	.L114
 3227              	.L115:
 708:../libraries/STM32_USB-FS-Device_Driver/src/usb_regs.c ****   else
 709:../libraries/STM32_USB-FS-Device_Driver/src/usb_regs.c ****     return(EP_DBUF_ERR);
 3228              		.loc 1 709 0
 3229 007a 4FF00003 		mov	r3, #0
 3230              	.L114:
 710:../libraries/STM32_USB-FS-Device_Driver/src/usb_regs.c **** }
 3231              		.loc 1 710 0
 3232 007e 1846     		mov	r0, r3
 3233 0080 07F10C07 		add	r7, r7, #12
 3234 0084 BD46     		mov	sp, r7
 3235 0086 80BC     		pop	{r7}
 3236 0088 7047     		bx	lr
 3237              		.cfi_endproc
 3238              	.LFE111:
 3240 008a 00BF     		.section	.text.FreeUserBuffer,"ax",%progbits
 3241              		.align	2
 3242              		.global	FreeUserBuffer
 3243              		.thumb
 3244              		.thumb_func
 3246              	FreeUserBuffer:
 3247              	.LFB112:
 711:../libraries/STM32_USB-FS-Device_Driver/src/usb_regs.c **** /*******************************************************************************
 712:../libraries/STM32_USB-FS-Device_Driver/src/usb_regs.c **** * Function Name  : FreeUserBuffer
 713:../libraries/STM32_USB-FS-Device_Driver/src/usb_regs.c **** * Description    : free buffer used from the application realizing it to the line
 714:../libraries/STM32_USB-FS-Device_Driver/src/usb_regs.c ****                    toggles bit SW_BUF in the double buffered endpoint register
 715:../libraries/STM32_USB-FS-Device_Driver/src/usb_regs.c **** * Input          : bEpNum, bDir
 716:../libraries/STM32_USB-FS-Device_Driver/src/usb_regs.c **** * Output         : None.
 717:../libraries/STM32_USB-FS-Device_Driver/src/usb_regs.c **** * Return         : None.
 718:../libraries/STM32_USB-FS-Device_Driver/src/usb_regs.c **** *******************************************************************************/
 719:../libraries/STM32_USB-FS-Device_Driver/src/usb_regs.c **** void FreeUserBuffer(uint8_t bEpNum, uint8_t bDir)
 720:../libraries/STM32_USB-FS-Device_Driver/src/usb_regs.c **** {
 3248              		.loc 1 720 0
 3249              		.cfi_startproc
 3250              		@ args = 0, pretend = 0, frame = 8
 3251              		@ frame_needed = 1, uses_anonymous_args = 0
 3252              		@ link register save eliminated.
 3253 0000 80B4     		push	{r7}
 3254              	.LCFI163:
 3255              		.cfi_def_cfa_offset 4
 3256              		.cfi_offset 7, -4
 3257 0002 83B0     		sub	sp, sp, #12
 3258              	.LCFI164:
 3259              		.cfi_def_cfa_offset 16
 3260 0004 00AF     		add	r7, sp, #0
 3261              	.LCFI165:
 3262              		.cfi_def_cfa_register 7
 3263 0006 0246     		mov	r2, r0
 3264 0008 0B46     		mov	r3, r1
 3265 000a FA71     		strb	r2, [r7, #7]
 3266 000c BB71     		strb	r3, [r7, #6]
 721:../libraries/STM32_USB-FS-Device_Driver/src/usb_regs.c ****   if (bDir == EP_DBUF_OUT)
 3267              		.loc 1 721 0
 3268 000e BB79     		ldrb	r3, [r7, #6]	@ zero_extendqisi2
 3269 0010 012B     		cmp	r3, #1
 3270 0012 19D1     		bne	.L117
 722:../libraries/STM32_USB-FS-Device_Driver/src/usb_regs.c ****   { /* OUT double buffered endpoint */
 723:../libraries/STM32_USB-FS-Device_Driver/src/usb_regs.c ****     _ToggleDTOG_TX(bEpNum);
 3271              		.loc 1 723 0
 3272 0014 FB79     		ldrb	r3, [r7, #7]	@ zero_extendqisi2
 3273 0016 4FEA8303 		lsl	r3, r3, #2
 3274 001a 03F18043 		add	r3, r3, #1073741824
 3275 001e 03F5B843 		add	r3, r3, #23552
 3276 0022 FA79     		ldrb	r2, [r7, #7]	@ zero_extendqisi2
 3277 0024 4FEA8202 		lsl	r2, r2, #2
 3278 0028 02F18042 		add	r2, r2, #1073741824
 3279 002c 02F5B842 		add	r2, r2, #23552
 3280 0030 1268     		ldr	r2, [r2, #0]
 3281 0032 92B2     		uxth	r2, r2
 3282 0034 1146     		mov	r1, r2
 3283 0036 40F60F72 		movw	r2, #3855
 3284 003a 0A40     		ands	r2, r2, r1
 3285 003c 42F40042 		orr	r2, r2, #32768
 3286 0040 42F0C002 		orr	r2, r2, #192
 3287 0044 1A60     		str	r2, [r3, #0]
 3288 0046 1BE0     		b	.L116
 3289              	.L117:
 724:../libraries/STM32_USB-FS-Device_Driver/src/usb_regs.c ****   }
 725:../libraries/STM32_USB-FS-Device_Driver/src/usb_regs.c ****   else if (bDir == EP_DBUF_IN)
 3290              		.loc 1 725 0
 3291 0048 BB79     		ldrb	r3, [r7, #6]	@ zero_extendqisi2
 3292 004a 022B     		cmp	r3, #2
 3293 004c 18D1     		bne	.L116
 726:../libraries/STM32_USB-FS-Device_Driver/src/usb_regs.c ****   { /* IN double buffered endpoint */
 727:../libraries/STM32_USB-FS-Device_Driver/src/usb_regs.c ****     _ToggleDTOG_RX(bEpNum);
 3294              		.loc 1 727 0
 3295 004e FB79     		ldrb	r3, [r7, #7]	@ zero_extendqisi2
 3296 0050 4FEA8303 		lsl	r3, r3, #2
 3297 0054 03F18043 		add	r3, r3, #1073741824
 3298 0058 03F5B843 		add	r3, r3, #23552
 3299 005c FA79     		ldrb	r2, [r7, #7]	@ zero_extendqisi2
 3300 005e 4FEA8202 		lsl	r2, r2, #2
 3301 0062 02F18042 		add	r2, r2, #1073741824
 3302 0066 02F5B842 		add	r2, r2, #23552
 3303 006a 1268     		ldr	r2, [r2, #0]
 3304 006c 92B2     		uxth	r2, r2
 3305 006e 1146     		mov	r1, r2
 3306 0070 40F60F72 		movw	r2, #3855
 3307 0074 0A40     		ands	r2, r2, r1
 3308 0076 42F44042 		orr	r2, r2, #49152
 3309 007a 42F08002 		orr	r2, r2, #128
 3310 007e 1A60     		str	r2, [r3, #0]
 3311              	.L116:
 728:../libraries/STM32_USB-FS-Device_Driver/src/usb_regs.c ****   }
 729:../libraries/STM32_USB-FS-Device_Driver/src/usb_regs.c **** }
 3312              		.loc 1 729 0
 3313 0080 07F10C07 		add	r7, r7, #12
 3314 0084 BD46     		mov	sp, r7
 3315 0086 80BC     		pop	{r7}
 3316 0088 7047     		bx	lr
 3317              		.cfi_endproc
 3318              	.LFE112:
 3320 008a 00BF     		.section	.text.ToWord,"ax",%progbits
 3321              		.align	2
 3322              		.global	ToWord
 3323              		.thumb
 3324              		.thumb_func
 3326              	ToWord:
 3327              	.LFB113:
 730:../libraries/STM32_USB-FS-Device_Driver/src/usb_regs.c **** 
 731:../libraries/STM32_USB-FS-Device_Driver/src/usb_regs.c **** /*******************************************************************************
 732:../libraries/STM32_USB-FS-Device_Driver/src/usb_regs.c **** * Function Name  : ToWord
 733:../libraries/STM32_USB-FS-Device_Driver/src/usb_regs.c **** * Description    : merge two byte in a word.
 734:../libraries/STM32_USB-FS-Device_Driver/src/usb_regs.c **** * Input          : bh: byte high, bl: bytes low.
 735:../libraries/STM32_USB-FS-Device_Driver/src/usb_regs.c **** * Output         : None.
 736:../libraries/STM32_USB-FS-Device_Driver/src/usb_regs.c **** * Return         : resulted word.
 737:../libraries/STM32_USB-FS-Device_Driver/src/usb_regs.c **** *******************************************************************************/
 738:../libraries/STM32_USB-FS-Device_Driver/src/usb_regs.c **** uint16_t ToWord(uint8_t bh, uint8_t bl)
 739:../libraries/STM32_USB-FS-Device_Driver/src/usb_regs.c **** {
 3328              		.loc 1 739 0
 3329              		.cfi_startproc
 3330              		@ args = 0, pretend = 0, frame = 16
 3331              		@ frame_needed = 1, uses_anonymous_args = 0
 3332              		@ link register save eliminated.
 3333 0000 80B4     		push	{r7}
 3334              	.LCFI166:
 3335              		.cfi_def_cfa_offset 4
 3336              		.cfi_offset 7, -4
 3337 0002 85B0     		sub	sp, sp, #20
 3338              	.LCFI167:
 3339              		.cfi_def_cfa_offset 24
 3340 0004 00AF     		add	r7, sp, #0
 3341              	.LCFI168:
 3342              		.cfi_def_cfa_register 7
 3343 0006 0246     		mov	r2, r0
 3344 0008 0B46     		mov	r3, r1
 3345 000a FA71     		strb	r2, [r7, #7]
 3346 000c BB71     		strb	r3, [r7, #6]
 740:../libraries/STM32_USB-FS-Device_Driver/src/usb_regs.c ****   uint16_t wRet;
 741:../libraries/STM32_USB-FS-Device_Driver/src/usb_regs.c ****   wRet = (uint16_t)bl | ((uint16_t)bh << 8);
 3347              		.loc 1 741 0
 3348 000e BB79     		ldrb	r3, [r7, #6]	@ zero_extendqisi2
 3349 0010 9AB2     		uxth	r2, r3
 3350 0012 FB79     		ldrb	r3, [r7, #7]	@ zero_extendqisi2
 3351 0014 4FEA0323 		lsl	r3, r3, #8
 3352 0018 9BB2     		uxth	r3, r3
 3353 001a 1343     		orrs	r3, r3, r2
 3354 001c 9BB2     		uxth	r3, r3
 3355 001e FB81     		strh	r3, [r7, #14]	@ movhi
 742:../libraries/STM32_USB-FS-Device_Driver/src/usb_regs.c ****   return(wRet);
 3356              		.loc 1 742 0
 3357 0020 FB89     		ldrh	r3, [r7, #14]
 743:../libraries/STM32_USB-FS-Device_Driver/src/usb_regs.c **** }
 3358              		.loc 1 743 0
 3359 0022 1846     		mov	r0, r3
 3360 0024 07F11407 		add	r7, r7, #20
 3361 0028 BD46     		mov	sp, r7
 3362 002a 80BC     		pop	{r7}
 3363 002c 7047     		bx	lr
 3364              		.cfi_endproc
 3365              	.LFE113:
 3367 002e 00BF     		.section	.text.ByteSwap,"ax",%progbits
 3368              		.align	2
 3369              		.global	ByteSwap
 3370              		.thumb
 3371              		.thumb_func
 3373              	ByteSwap:
 3374              	.LFB114:
 744:../libraries/STM32_USB-FS-Device_Driver/src/usb_regs.c **** /*******************************************************************************
 745:../libraries/STM32_USB-FS-Device_Driver/src/usb_regs.c **** * Function Name  : ByteSwap
 746:../libraries/STM32_USB-FS-Device_Driver/src/usb_regs.c **** * Description    : Swap two byte in a word.
 747:../libraries/STM32_USB-FS-Device_Driver/src/usb_regs.c **** * Input          : wSwW: word to Swap.
 748:../libraries/STM32_USB-FS-Device_Driver/src/usb_regs.c **** * Output         : None.
 749:../libraries/STM32_USB-FS-Device_Driver/src/usb_regs.c **** * Return         : resulted word.
 750:../libraries/STM32_USB-FS-Device_Driver/src/usb_regs.c **** *******************************************************************************/
 751:../libraries/STM32_USB-FS-Device_Driver/src/usb_regs.c **** uint16_t ByteSwap(uint16_t wSwW)
 752:../libraries/STM32_USB-FS-Device_Driver/src/usb_regs.c **** {
 3375              		.loc 1 752 0
 3376              		.cfi_startproc
 3377              		@ args = 0, pretend = 0, frame = 16
 3378              		@ frame_needed = 1, uses_anonymous_args = 0
 3379              		@ link register save eliminated.
 3380 0000 80B4     		push	{r7}
 3381              	.LCFI169:
 3382              		.cfi_def_cfa_offset 4
 3383              		.cfi_offset 7, -4
 3384 0002 85B0     		sub	sp, sp, #20
 3385              	.LCFI170:
 3386              		.cfi_def_cfa_offset 24
 3387 0004 00AF     		add	r7, sp, #0
 3388              	.LCFI171:
 3389              		.cfi_def_cfa_register 7
 3390 0006 0346     		mov	r3, r0
 3391 0008 FB80     		strh	r3, [r7, #6]	@ movhi
 753:../libraries/STM32_USB-FS-Device_Driver/src/usb_regs.c ****   uint8_t bTemp;
 754:../libraries/STM32_USB-FS-Device_Driver/src/usb_regs.c ****   uint16_t wRet;
 755:../libraries/STM32_USB-FS-Device_Driver/src/usb_regs.c ****   bTemp = (uint8_t)(wSwW & 0xff);
 3392              		.loc 1 755 0
 3393 000a FB88     		ldrh	r3, [r7, #6]	@ movhi
 3394 000c FB73     		strb	r3, [r7, #15]
 756:../libraries/STM32_USB-FS-Device_Driver/src/usb_regs.c ****   wRet =  (wSwW >> 8) | ((uint16_t)bTemp << 8);
 3395              		.loc 1 756 0
 3396 000e FB88     		ldrh	r3, [r7, #6]
 3397 0010 4FEA1323 		lsr	r3, r3, #8
 3398 0014 9BB2     		uxth	r3, r3
 3399 0016 9AB2     		uxth	r2, r3
 3400 0018 FB7B     		ldrb	r3, [r7, #15]	@ zero_extendqisi2
 3401 001a 4FEA0323 		lsl	r3, r3, #8
 3402 001e 9BB2     		uxth	r3, r3
 3403 0020 1343     		orrs	r3, r3, r2
 3404 0022 9BB2     		uxth	r3, r3
 3405 0024 BB81     		strh	r3, [r7, #12]	@ movhi
 757:../libraries/STM32_USB-FS-Device_Driver/src/usb_regs.c ****   return(wRet);
 3406              		.loc 1 757 0
 3407 0026 BB89     		ldrh	r3, [r7, #12]
 758:../libraries/STM32_USB-FS-Device_Driver/src/usb_regs.c **** }
 3408              		.loc 1 758 0
 3409 0028 1846     		mov	r0, r3
 3410 002a 07F11407 		add	r7, r7, #20
 3411 002e BD46     		mov	sp, r7
 3412 0030 80BC     		pop	{r7}
 3413 0032 7047     		bx	lr
 3414              		.cfi_endproc
 3415              	.LFE114:
 3417              		.text
 3418              	.Letext0:
 3419              		.file 2 "/usr/local/gcc-arm-none-eabi-4_7-2013q1/bin/../lib/gcc/arm-none-eabi/4.7.3/../../../../ar
 3420              		.file 3 "/Users/zac/code/spark/marvin/libraries/STM32_USB-FS-Device_Driver/inc/usb_regs.h"
 3421              		.file 4 "/Users/zac/code/spark/marvin/libraries/CMSIS/Include/core_cm3.h"
DEFINED SYMBOLS
                            *ABS*:0000000000000000 usb_regs.c
/var/folders/d1/846xqcps64v4wybnmd7kk8540000gn/T//ccF7HqRV.s:19     .text.SetCNTR:0000000000000000 $t
/var/folders/d1/846xqcps64v4wybnmd7kk8540000gn/T//ccF7HqRV.s:24     .text.SetCNTR:0000000000000000 SetCNTR
/var/folders/d1/846xqcps64v4wybnmd7kk8540000gn/T//ccF7HqRV.s:58     .text.GetCNTR:0000000000000000 $t
/var/folders/d1/846xqcps64v4wybnmd7kk8540000gn/T//ccF7HqRV.s:63     .text.GetCNTR:0000000000000000 GetCNTR
/var/folders/d1/846xqcps64v4wybnmd7kk8540000gn/T//ccF7HqRV.s:91     .text.SetISTR:0000000000000000 $t
/var/folders/d1/846xqcps64v4wybnmd7kk8540000gn/T//ccF7HqRV.s:96     .text.SetISTR:0000000000000000 SetISTR
/var/folders/d1/846xqcps64v4wybnmd7kk8540000gn/T//ccF7HqRV.s:129    .text.GetISTR:0000000000000000 $t
/var/folders/d1/846xqcps64v4wybnmd7kk8540000gn/T//ccF7HqRV.s:134    .text.GetISTR:0000000000000000 GetISTR
/var/folders/d1/846xqcps64v4wybnmd7kk8540000gn/T//ccF7HqRV.s:162    .text.GetFNR:0000000000000000 $t
/var/folders/d1/846xqcps64v4wybnmd7kk8540000gn/T//ccF7HqRV.s:167    .text.GetFNR:0000000000000000 GetFNR
/var/folders/d1/846xqcps64v4wybnmd7kk8540000gn/T//ccF7HqRV.s:195    .text.SetDADDR:0000000000000000 $t
/var/folders/d1/846xqcps64v4wybnmd7kk8540000gn/T//ccF7HqRV.s:200    .text.SetDADDR:0000000000000000 SetDADDR
/var/folders/d1/846xqcps64v4wybnmd7kk8540000gn/T//ccF7HqRV.s:233    .text.GetDADDR:0000000000000000 $t
/var/folders/d1/846xqcps64v4wybnmd7kk8540000gn/T//ccF7HqRV.s:238    .text.GetDADDR:0000000000000000 GetDADDR
/var/folders/d1/846xqcps64v4wybnmd7kk8540000gn/T//ccF7HqRV.s:266    .text.SetBTABLE:0000000000000000 $t
/var/folders/d1/846xqcps64v4wybnmd7kk8540000gn/T//ccF7HqRV.s:271    .text.SetBTABLE:0000000000000000 SetBTABLE
/var/folders/d1/846xqcps64v4wybnmd7kk8540000gn/T//ccF7HqRV.s:306    .text.GetBTABLE:0000000000000000 $t
/var/folders/d1/846xqcps64v4wybnmd7kk8540000gn/T//ccF7HqRV.s:311    .text.GetBTABLE:0000000000000000 GetBTABLE
/var/folders/d1/846xqcps64v4wybnmd7kk8540000gn/T//ccF7HqRV.s:339    .text.SetENDPOINT:0000000000000000 $t
/var/folders/d1/846xqcps64v4wybnmd7kk8540000gn/T//ccF7HqRV.s:344    .text.SetENDPOINT:0000000000000000 SetENDPOINT
/var/folders/d1/846xqcps64v4wybnmd7kk8540000gn/T//ccF7HqRV.s:381    .text.GetENDPOINT:0000000000000000 $t
/var/folders/d1/846xqcps64v4wybnmd7kk8540000gn/T//ccF7HqRV.s:386    .text.GetENDPOINT:0000000000000000 GetENDPOINT
/var/folders/d1/846xqcps64v4wybnmd7kk8540000gn/T//ccF7HqRV.s:422    .text.SetEPType:0000000000000000 $t
/var/folders/d1/846xqcps64v4wybnmd7kk8540000gn/T//ccF7HqRV.s:427    .text.SetEPType:0000000000000000 SetEPType
/var/folders/d1/846xqcps64v4wybnmd7kk8540000gn/T//ccF7HqRV.s:476    .text.GetEPType:0000000000000000 $t
/var/folders/d1/846xqcps64v4wybnmd7kk8540000gn/T//ccF7HqRV.s:481    .text.GetEPType:0000000000000000 GetEPType
/var/folders/d1/846xqcps64v4wybnmd7kk8540000gn/T//ccF7HqRV.s:519    .text.SetEPTxStatus:0000000000000000 $t
/var/folders/d1/846xqcps64v4wybnmd7kk8540000gn/T//ccF7HqRV.s:524    .text.SetEPTxStatus:0000000000000000 SetEPTxStatus
/var/folders/d1/846xqcps64v4wybnmd7kk8540000gn/T//ccF7HqRV.s:596    .text.SetEPRxStatus:0000000000000000 $t
/var/folders/d1/846xqcps64v4wybnmd7kk8540000gn/T//ccF7HqRV.s:601    .text.SetEPRxStatus:0000000000000000 SetEPRxStatus
/var/folders/d1/846xqcps64v4wybnmd7kk8540000gn/T//ccF7HqRV.s:673    .text.SetDouBleBuffEPStall:0000000000000000 $t
/var/folders/d1/846xqcps64v4wybnmd7kk8540000gn/T//ccF7HqRV.s:678    .text.SetDouBleBuffEPStall:0000000000000000 SetDouBleBuffEPStall
/var/folders/d1/846xqcps64v4wybnmd7kk8540000gn/T//ccF7HqRV.s:740    .text.GetEPTxStatus:0000000000000000 $t
/var/folders/d1/846xqcps64v4wybnmd7kk8540000gn/T//ccF7HqRV.s:745    .text.GetEPTxStatus:0000000000000000 GetEPTxStatus
/var/folders/d1/846xqcps64v4wybnmd7kk8540000gn/T//ccF7HqRV.s:783    .text.GetEPRxStatus:0000000000000000 $t
/var/folders/d1/846xqcps64v4wybnmd7kk8540000gn/T//ccF7HqRV.s:788    .text.GetEPRxStatus:0000000000000000 GetEPRxStatus
/var/folders/d1/846xqcps64v4wybnmd7kk8540000gn/T//ccF7HqRV.s:826    .text.SetEPTxValid:0000000000000000 $t
/var/folders/d1/846xqcps64v4wybnmd7kk8540000gn/T//ccF7HqRV.s:831    .text.SetEPTxValid:0000000000000000 SetEPTxValid
/var/folders/d1/846xqcps64v4wybnmd7kk8540000gn/T//ccF7HqRV.s:885    .text.SetEPRxValid:0000000000000000 $t
/var/folders/d1/846xqcps64v4wybnmd7kk8540000gn/T//ccF7HqRV.s:890    .text.SetEPRxValid:0000000000000000 SetEPRxValid
/var/folders/d1/846xqcps64v4wybnmd7kk8540000gn/T//ccF7HqRV.s:944    .text.SetEP_KIND:0000000000000000 $t
/var/folders/d1/846xqcps64v4wybnmd7kk8540000gn/T//ccF7HqRV.s:949    .text.SetEP_KIND:0000000000000000 SetEP_KIND
/var/folders/d1/846xqcps64v4wybnmd7kk8540000gn/T//ccF7HqRV.s:999    .text.ClearEP_KIND:0000000000000000 $t
/var/folders/d1/846xqcps64v4wybnmd7kk8540000gn/T//ccF7HqRV.s:1004   .text.ClearEP_KIND:0000000000000000 ClearEP_KIND
/var/folders/d1/846xqcps64v4wybnmd7kk8540000gn/T//ccF7HqRV.s:1054   .text.Clear_Status_Out:0000000000000000 $t
/var/folders/d1/846xqcps64v4wybnmd7kk8540000gn/T//ccF7HqRV.s:1059   .text.Clear_Status_Out:0000000000000000 Clear_Status_Out
/var/folders/d1/846xqcps64v4wybnmd7kk8540000gn/T//ccF7HqRV.s:1109   .text.Set_Status_Out:0000000000000000 $t
/var/folders/d1/846xqcps64v4wybnmd7kk8540000gn/T//ccF7HqRV.s:1114   .text.Set_Status_Out:0000000000000000 Set_Status_Out
/var/folders/d1/846xqcps64v4wybnmd7kk8540000gn/T//ccF7HqRV.s:1164   .text.SetEPDoubleBuff:0000000000000000 $t
/var/folders/d1/846xqcps64v4wybnmd7kk8540000gn/T//ccF7HqRV.s:1169   .text.SetEPDoubleBuff:0000000000000000 SetEPDoubleBuff
/var/folders/d1/846xqcps64v4wybnmd7kk8540000gn/T//ccF7HqRV.s:1219   .text.ClearEPDoubleBuff:0000000000000000 $t
/var/folders/d1/846xqcps64v4wybnmd7kk8540000gn/T//ccF7HqRV.s:1224   .text.ClearEPDoubleBuff:0000000000000000 ClearEPDoubleBuff
/var/folders/d1/846xqcps64v4wybnmd7kk8540000gn/T//ccF7HqRV.s:1274   .text.GetTxStallStatus:0000000000000000 $t
/var/folders/d1/846xqcps64v4wybnmd7kk8540000gn/T//ccF7HqRV.s:1279   .text.GetTxStallStatus:0000000000000000 GetTxStallStatus
/var/folders/d1/846xqcps64v4wybnmd7kk8540000gn/T//ccF7HqRV.s:1321   .text.GetRxStallStatus:0000000000000000 $t
/var/folders/d1/846xqcps64v4wybnmd7kk8540000gn/T//ccF7HqRV.s:1326   .text.GetRxStallStatus:0000000000000000 GetRxStallStatus
/var/folders/d1/846xqcps64v4wybnmd7kk8540000gn/T//ccF7HqRV.s:1368   .text.ClearEP_CTR_RX:0000000000000000 $t
/var/folders/d1/846xqcps64v4wybnmd7kk8540000gn/T//ccF7HqRV.s:1373   .text.ClearEP_CTR_RX:0000000000000000 ClearEP_CTR_RX
/var/folders/d1/846xqcps64v4wybnmd7kk8540000gn/T//ccF7HqRV.s:1416   .text.ClearEP_CTR_TX:0000000000000000 $t
/var/folders/d1/846xqcps64v4wybnmd7kk8540000gn/T//ccF7HqRV.s:1421   .text.ClearEP_CTR_TX:0000000000000000 ClearEP_CTR_TX
/var/folders/d1/846xqcps64v4wybnmd7kk8540000gn/T//ccF7HqRV.s:1464   .text.ToggleDTOG_RX:0000000000000000 $t
/var/folders/d1/846xqcps64v4wybnmd7kk8540000gn/T//ccF7HqRV.s:1469   .text.ToggleDTOG_RX:0000000000000000 ToggleDTOG_RX
/var/folders/d1/846xqcps64v4wybnmd7kk8540000gn/T//ccF7HqRV.s:1514   .text.ToggleDTOG_TX:0000000000000000 $t
/var/folders/d1/846xqcps64v4wybnmd7kk8540000gn/T//ccF7HqRV.s:1519   .text.ToggleDTOG_TX:0000000000000000 ToggleDTOG_TX
/var/folders/d1/846xqcps64v4wybnmd7kk8540000gn/T//ccF7HqRV.s:1564   .text.ClearDTOG_RX:0000000000000000 $t
/var/folders/d1/846xqcps64v4wybnmd7kk8540000gn/T//ccF7HqRV.s:1569   .text.ClearDTOG_RX:0000000000000000 ClearDTOG_RX
/var/folders/d1/846xqcps64v4wybnmd7kk8540000gn/T//ccF7HqRV.s:1625   .text.ClearDTOG_TX:0000000000000000 $t
/var/folders/d1/846xqcps64v4wybnmd7kk8540000gn/T//ccF7HqRV.s:1630   .text.ClearDTOG_TX:0000000000000000 ClearDTOG_TX
/var/folders/d1/846xqcps64v4wybnmd7kk8540000gn/T//ccF7HqRV.s:1686   .text.SetEPAddress:0000000000000000 $t
/var/folders/d1/846xqcps64v4wybnmd7kk8540000gn/T//ccF7HqRV.s:1691   .text.SetEPAddress:0000000000000000 SetEPAddress
/var/folders/d1/846xqcps64v4wybnmd7kk8540000gn/T//ccF7HqRV.s:1740   .text.GetEPAddress:0000000000000000 $t
/var/folders/d1/846xqcps64v4wybnmd7kk8540000gn/T//ccF7HqRV.s:1745   .text.GetEPAddress:0000000000000000 GetEPAddress
/var/folders/d1/846xqcps64v4wybnmd7kk8540000gn/T//ccF7HqRV.s:1783   .text.SetEPTxAddr:0000000000000000 $t
/var/folders/d1/846xqcps64v4wybnmd7kk8540000gn/T//ccF7HqRV.s:1788   .text.SetEPTxAddr:0000000000000000 SetEPTxAddr
/var/folders/d1/846xqcps64v4wybnmd7kk8540000gn/T//ccF7HqRV.s:1835   .text.SetEPRxAddr:0000000000000000 $t
/var/folders/d1/846xqcps64v4wybnmd7kk8540000gn/T//ccF7HqRV.s:1840   .text.SetEPRxAddr:0000000000000000 SetEPRxAddr
/var/folders/d1/846xqcps64v4wybnmd7kk8540000gn/T//ccF7HqRV.s:1888   .text.GetEPTxAddr:0000000000000000 $t
/var/folders/d1/846xqcps64v4wybnmd7kk8540000gn/T//ccF7HqRV.s:1893   .text.GetEPTxAddr:0000000000000000 GetEPTxAddr
/var/folders/d1/846xqcps64v4wybnmd7kk8540000gn/T//ccF7HqRV.s:1936   .text.GetEPRxAddr:0000000000000000 $t
/var/folders/d1/846xqcps64v4wybnmd7kk8540000gn/T//ccF7HqRV.s:1941   .text.GetEPRxAddr:0000000000000000 GetEPRxAddr
/var/folders/d1/846xqcps64v4wybnmd7kk8540000gn/T//ccF7HqRV.s:1985   .text.SetEPTxCount:0000000000000000 $t
/var/folders/d1/846xqcps64v4wybnmd7kk8540000gn/T//ccF7HqRV.s:1990   .text.SetEPTxCount:0000000000000000 SetEPTxCount
/var/folders/d1/846xqcps64v4wybnmd7kk8540000gn/T//ccF7HqRV.s:2035   .text.SetEPCountRxReg:0000000000000000 $t
/var/folders/d1/846xqcps64v4wybnmd7kk8540000gn/T//ccF7HqRV.s:2040   .text.SetEPCountRxReg:0000000000000000 SetEPCountRxReg
/var/folders/d1/846xqcps64v4wybnmd7kk8540000gn/T//ccF7HqRV.s:2117   .text.SetEPRxCount:0000000000000000 $t
/var/folders/d1/846xqcps64v4wybnmd7kk8540000gn/T//ccF7HqRV.s:2122   .text.SetEPRxCount:0000000000000000 SetEPRxCount
/var/folders/d1/846xqcps64v4wybnmd7kk8540000gn/T//ccF7HqRV.s:2215   .text.GetEPTxCount:0000000000000000 $t
/var/folders/d1/846xqcps64v4wybnmd7kk8540000gn/T//ccF7HqRV.s:2220   .text.GetEPTxCount:0000000000000000 GetEPTxCount
/var/folders/d1/846xqcps64v4wybnmd7kk8540000gn/T//ccF7HqRV.s:2267   .text.GetEPRxCount:0000000000000000 $t
/var/folders/d1/846xqcps64v4wybnmd7kk8540000gn/T//ccF7HqRV.s:2272   .text.GetEPRxCount:0000000000000000 GetEPRxCount
/var/folders/d1/846xqcps64v4wybnmd7kk8540000gn/T//ccF7HqRV.s:2319   .text.SetEPDblBuffAddr:0000000000000000 $t
/var/folders/d1/846xqcps64v4wybnmd7kk8540000gn/T//ccF7HqRV.s:2324   .text.SetEPDblBuffAddr:0000000000000000 SetEPDblBuffAddr
/var/folders/d1/846xqcps64v4wybnmd7kk8540000gn/T//ccF7HqRV.s:2390   .text.SetEPDblBuf0Addr:0000000000000000 $t
/var/folders/d1/846xqcps64v4wybnmd7kk8540000gn/T//ccF7HqRV.s:2395   .text.SetEPDblBuf0Addr:0000000000000000 SetEPDblBuf0Addr
/var/folders/d1/846xqcps64v4wybnmd7kk8540000gn/T//ccF7HqRV.s:2442   .text.SetEPDblBuf1Addr:0000000000000000 $t
/var/folders/d1/846xqcps64v4wybnmd7kk8540000gn/T//ccF7HqRV.s:2447   .text.SetEPDblBuf1Addr:0000000000000000 SetEPDblBuf1Addr
/var/folders/d1/846xqcps64v4wybnmd7kk8540000gn/T//ccF7HqRV.s:2495   .text.GetEPDblBuf0Addr:0000000000000000 $t
/var/folders/d1/846xqcps64v4wybnmd7kk8540000gn/T//ccF7HqRV.s:2500   .text.GetEPDblBuf0Addr:0000000000000000 GetEPDblBuf0Addr
/var/folders/d1/846xqcps64v4wybnmd7kk8540000gn/T//ccF7HqRV.s:2543   .text.GetEPDblBuf1Addr:0000000000000000 $t
/var/folders/d1/846xqcps64v4wybnmd7kk8540000gn/T//ccF7HqRV.s:2548   .text.GetEPDblBuf1Addr:0000000000000000 GetEPDblBuf1Addr
/var/folders/d1/846xqcps64v4wybnmd7kk8540000gn/T//ccF7HqRV.s:2592   .text.SetEPDblBuffCount:0000000000000000 $t
/var/folders/d1/846xqcps64v4wybnmd7kk8540000gn/T//ccF7HqRV.s:2597   .text.SetEPDblBuffCount:0000000000000000 SetEPDblBuffCount
/var/folders/d1/846xqcps64v4wybnmd7kk8540000gn/T//ccF7HqRV.s:2805   .text.SetEPDblBuf0Count:0000000000000000 $t
/var/folders/d1/846xqcps64v4wybnmd7kk8540000gn/T//ccF7HqRV.s:2810   .text.SetEPDblBuf0Count:0000000000000000 SetEPDblBuf0Count
/var/folders/d1/846xqcps64v4wybnmd7kk8540000gn/T//ccF7HqRV.s:2930   .text.SetEPDblBuf1Count:0000000000000000 $t
/var/folders/d1/846xqcps64v4wybnmd7kk8540000gn/T//ccF7HqRV.s:2935   .text.SetEPDblBuf1Count:0000000000000000 SetEPDblBuf1Count
/var/folders/d1/846xqcps64v4wybnmd7kk8540000gn/T//ccF7HqRV.s:3055   .text.GetEPDblBuf0Count:0000000000000000 $t
/var/folders/d1/846xqcps64v4wybnmd7kk8540000gn/T//ccF7HqRV.s:3060   .text.GetEPDblBuf0Count:0000000000000000 GetEPDblBuf0Count
/var/folders/d1/846xqcps64v4wybnmd7kk8540000gn/T//ccF7HqRV.s:3107   .text.GetEPDblBuf1Count:0000000000000000 $t
/var/folders/d1/846xqcps64v4wybnmd7kk8540000gn/T//ccF7HqRV.s:3112   .text.GetEPDblBuf1Count:0000000000000000 GetEPDblBuf1Count
/var/folders/d1/846xqcps64v4wybnmd7kk8540000gn/T//ccF7HqRV.s:3159   .text.GetEPDblBufDir:0000000000000000 $t
/var/folders/d1/846xqcps64v4wybnmd7kk8540000gn/T//ccF7HqRV.s:3164   .text.GetEPDblBufDir:0000000000000000 GetEPDblBufDir
/var/folders/d1/846xqcps64v4wybnmd7kk8540000gn/T//ccF7HqRV.s:3241   .text.FreeUserBuffer:0000000000000000 $t
/var/folders/d1/846xqcps64v4wybnmd7kk8540000gn/T//ccF7HqRV.s:3246   .text.FreeUserBuffer:0000000000000000 FreeUserBuffer
/var/folders/d1/846xqcps64v4wybnmd7kk8540000gn/T//ccF7HqRV.s:3321   .text.ToWord:0000000000000000 $t
/var/folders/d1/846xqcps64v4wybnmd7kk8540000gn/T//ccF7HqRV.s:3326   .text.ToWord:0000000000000000 ToWord
/var/folders/d1/846xqcps64v4wybnmd7kk8540000gn/T//ccF7HqRV.s:3368   .text.ByteSwap:0000000000000000 $t
/var/folders/d1/846xqcps64v4wybnmd7kk8540000gn/T//ccF7HqRV.s:3373   .text.ByteSwap:0000000000000000 ByteSwap
                     .debug_frame:0000000000000010 $d
                           .group:0000000000000000 wm4.1.8991b0b359e9e91a82acb66692cb6642
                           .group:0000000000000000 wm4.platform_config.h.13.2ca19a62528956b424fb49e2e8f19911
                           .group:0000000000000000 wm4.stm32f10x.h.57.69ab29c83f735418a543aa508b559235
                           .group:0000000000000000 wm4.core_cm3.h.32.8e21fbd14bb96c2b40e026c4d2c8fe1f
                           .group:0000000000000000 wm4.newlib.h.8.a9901dc52d1357e3e94003403d43f8b5
                           .group:0000000000000000 wm4.features.h.22.b72b3baab2bb2eab3661375590100b6b
                           .group:0000000000000000 wm4.config.h.193.5fb8ef056cdff92dec3dee9552839d8c
                           .group:0000000000000000 wm4._ansi.h.23.b5bb84d7ba97d82b5b1dc1826a7ae811
                           .group:0000000000000000 wm4.stdint.h.20.54ad762faa59e3c05491630641c8d8bf
                           .group:0000000000000000 wm4.core_cmInstr.h.25.d8165482ef3061013a2fc83e2d85f3d9
                           .group:0000000000000000 wm4.core_cm3.h.129.e08b7204181ea22e6a9fa84cb9ad0924
                           .group:0000000000000000 wm4.stm32f10x.h.532.91bd57525f6c583f00129a351847d405
                           .group:0000000000000000 wm4.stm32f10x_adc.h.89.9f2b285fa0070185d48a05b61a05798c
                           .group:0000000000000000 wm4.stm32f10x_bkp.h.31.74a586c036c8ee5d9205c6728cc8d6ab
                           .group:0000000000000000 wm4.stm32f10x_dma.h.31.ef16218235edc52b414c0353f44b4bf0
                           .group:0000000000000000 wm4.stm32f10x_exti.h.31.b25bcb4f1a2daad39d2d7dfa4e901646
                           .group:0000000000000000 wm4.stm32f10x_flash.h.31.0203bc95b65c5396b67991e07a675efb
                           .group:0000000000000000 wm4.stm32f10x_gpio.h.31.0a32659dbac1fc1055c7cbdc248963be
                           .group:0000000000000000 wm4.stm32f10x_i2c.h.31.93d7dc2d477856f119d957730d4c6f1c
                           .group:0000000000000000 wm4.stm32f10x_pwr.h.31.9168b6921e0cf03b467c7ed90861c701
                           .group:0000000000000000 wm4.stm32f10x_rcc.h.31.2ee3219a25ef4ced658f2fe9d8cd94aa
                           .group:0000000000000000 wm4.stm32f10x_rtc.h.31.00ba78fc0dbb06b6e6783a1e7fccf5a0
                           .group:0000000000000000 wm4.stm32f10x_spi.h.31.d2f6e4626887cabe8c98f3a185590a36
                           .group:0000000000000000 wm4.stm32f10x_tim.h.31.6c06f7f26e0864f9cd59597f46ca2c7c
                           .group:0000000000000000 wm4.stm32f10x_usart.h.31.28d75d6af05cefbbfa00cf30a7c8a335
                           .group:0000000000000000 wm4.misc.h.31.a89fba2040036f6f8c835a78a213e0cd
                           .group:0000000000000000 wm4.stm32f10x.h.8356.9fd2fa84655112ac7dfc5c88beeb383d
                           .group:0000000000000000 wm4.platform_config.h.311.32de75d5ca6059a48a62b60f7516e681
                           .group:0000000000000000 wm4.stdlib.h.13.603ed7eb09a1561ab06840b7c0fcff58
                           .group:0000000000000000 wm4.stddef.h.187.40b3a084f9bc2c020a9e00b9eabe9c14
                           .group:0000000000000000 wm4._default_types.h.6.5e12cd604db8ce00b62bb2f02708eaf3
                           .group:0000000000000000 wm4.lock.h.2.9bc98482741e5e2a9450b12934a684ea
                           .group:0000000000000000 wm4.stddef.h.349.31f4c5baff3fa2689010b32028da9c47
                           .group:0000000000000000 wm4.reent.h.16.9e42f0e588b85e70b2bf6572af57ce64
                           .group:0000000000000000 wm4.alloca.h.8.dfc0c703c47ec3e69746825b17d9e66d
                           .group:0000000000000000 wm4.stdlib.h.50.f5923f1950ced340a337f4676566f65a
                           .group:0000000000000000 wm4.errno.h.2.ba016d646105af6cad23be83630b6a3f
                           .group:0000000000000000 wm4.errno.h.9.65044c2b5d8494e43f5986ab0a1d770f
                           .group:0000000000000000 wm4.cc3000_common.h.58.2af7f8f8921b8cb4b89883c25878e207
                           .group:0000000000000000 wm4.usb_conf.h.13.ae0ffce2e8d0e4c6b2724f8ae0ada8cf
                           .group:0000000000000000 wm4.hw_config.h.61.9aaf7ecb821816183829c116d76d82b5
                           .group:0000000000000000 wm4.usb_regs.h.31.d9533108f8ac5724467880baa9cb0f26
                           .group:0000000000000000 wm4.usb_def.h.30.73e1a84be93039018a594bacb815cb88
                           .group:0000000000000000 wm4.usb_core.h.31.114a1d0e1de4beb01afdcd243bde9471

NO UNDEFINED SYMBOLS
