   1              		.syntax unified
   2              		.cpu cortex-m3
   3              		.fpu softvfp
   4              		.eabi_attribute 20, 1
   5              		.eabi_attribute 21, 1
   6              		.eabi_attribute 23, 3
   7              		.eabi_attribute 24, 1
   8              		.eabi_attribute 25, 1
   9              		.eabi_attribute 26, 1
  10              		.eabi_attribute 30, 4
  11              		.eabi_attribute 34, 1
  12              		.eabi_attribute 18, 4
  13              		.thumb
  14              		.file	"usb_core.c"
  15              		.text
  16              	.Ltext0:
  17              		.cfi_sections	.debug_frame
  18              		.section	.text.Standard_GetConfiguration,"ax",%progbits
  19              		.align	1
  20              		.global	Standard_GetConfiguration
  21              		.thumb
  22              		.thumb_func
  24              	Standard_GetConfiguration:
  25              	.LFB56:
  26              		.file 1 "../libraries/STM32_USB-FS-Device_Driver/src/usb_core.c"
   1:../libraries/STM32_USB-FS-Device_Driver/src/usb_core.c **** /**
   2:../libraries/STM32_USB-FS-Device_Driver/src/usb_core.c ****   ******************************************************************************
   3:../libraries/STM32_USB-FS-Device_Driver/src/usb_core.c ****   * @file    usb_core.c
   4:../libraries/STM32_USB-FS-Device_Driver/src/usb_core.c ****   * @author  MCD Application Team
   5:../libraries/STM32_USB-FS-Device_Driver/src/usb_core.c ****   * @version V4.0.0
   6:../libraries/STM32_USB-FS-Device_Driver/src/usb_core.c ****   * @date    28-August-2012
   7:../libraries/STM32_USB-FS-Device_Driver/src/usb_core.c ****   * @brief   Standard protocol processing (USB v2.0)
   8:../libraries/STM32_USB-FS-Device_Driver/src/usb_core.c ****   ******************************************************************************
   9:../libraries/STM32_USB-FS-Device_Driver/src/usb_core.c ****   * @attention
  10:../libraries/STM32_USB-FS-Device_Driver/src/usb_core.c ****   *
  11:../libraries/STM32_USB-FS-Device_Driver/src/usb_core.c ****   * <h2><center>&copy; COPYRIGHT 2012 STMicroelectronics</center></h2>
  12:../libraries/STM32_USB-FS-Device_Driver/src/usb_core.c ****   *
  13:../libraries/STM32_USB-FS-Device_Driver/src/usb_core.c ****   * Licensed under MCD-ST Liberty SW License Agreement V2, (the "License");
  14:../libraries/STM32_USB-FS-Device_Driver/src/usb_core.c ****   * You may not use this file except in compliance with the License.
  15:../libraries/STM32_USB-FS-Device_Driver/src/usb_core.c ****   * You may obtain a copy of the License at:
  16:../libraries/STM32_USB-FS-Device_Driver/src/usb_core.c ****   *
  17:../libraries/STM32_USB-FS-Device_Driver/src/usb_core.c ****   *        http://www.st.com/software_license_agreement_liberty_v2
  18:../libraries/STM32_USB-FS-Device_Driver/src/usb_core.c ****   *
  19:../libraries/STM32_USB-FS-Device_Driver/src/usb_core.c ****   * Unless required by applicable law or agreed to in writing, software 
  20:../libraries/STM32_USB-FS-Device_Driver/src/usb_core.c ****   * distributed under the License is distributed on an "AS IS" BASIS, 
  21:../libraries/STM32_USB-FS-Device_Driver/src/usb_core.c ****   * WITHOUT WARRANTIES OR CONDITIONS OF ANY KIND, either express or implied.
  22:../libraries/STM32_USB-FS-Device_Driver/src/usb_core.c ****   * See the License for the specific language governing permissions and
  23:../libraries/STM32_USB-FS-Device_Driver/src/usb_core.c ****   * limitations under the License.
  24:../libraries/STM32_USB-FS-Device_Driver/src/usb_core.c ****   *
  25:../libraries/STM32_USB-FS-Device_Driver/src/usb_core.c ****   ******************************************************************************
  26:../libraries/STM32_USB-FS-Device_Driver/src/usb_core.c ****   */
  27:../libraries/STM32_USB-FS-Device_Driver/src/usb_core.c **** 
  28:../libraries/STM32_USB-FS-Device_Driver/src/usb_core.c **** 
  29:../libraries/STM32_USB-FS-Device_Driver/src/usb_core.c **** /* Includes ------------------------------------------------------------------*/
  30:../libraries/STM32_USB-FS-Device_Driver/src/usb_core.c **** #include "usb_lib.h"
  31:../libraries/STM32_USB-FS-Device_Driver/src/usb_core.c **** /* Private typedef -----------------------------------------------------------*/
  32:../libraries/STM32_USB-FS-Device_Driver/src/usb_core.c **** /* Private define ------------------------------------------------------------*/
  33:../libraries/STM32_USB-FS-Device_Driver/src/usb_core.c **** #define ValBit(VAR,Place)    (VAR & (1 << Place))
  34:../libraries/STM32_USB-FS-Device_Driver/src/usb_core.c **** #define SetBit(VAR,Place)    (VAR |= (1 << Place))
  35:../libraries/STM32_USB-FS-Device_Driver/src/usb_core.c **** #define ClrBit(VAR,Place)    (VAR &= ((1 << Place) ^ 255))
  36:../libraries/STM32_USB-FS-Device_Driver/src/usb_core.c **** #define Send0LengthData() { _SetEPTxCount(ENDP0, 0); \
  37:../libraries/STM32_USB-FS-Device_Driver/src/usb_core.c ****     vSetEPTxStatus(EP_TX_VALID); \
  38:../libraries/STM32_USB-FS-Device_Driver/src/usb_core.c ****   }
  39:../libraries/STM32_USB-FS-Device_Driver/src/usb_core.c **** 
  40:../libraries/STM32_USB-FS-Device_Driver/src/usb_core.c **** #define vSetEPRxStatus(st) (SaveRState = st)
  41:../libraries/STM32_USB-FS-Device_Driver/src/usb_core.c **** #define vSetEPTxStatus(st) (SaveTState = st)
  42:../libraries/STM32_USB-FS-Device_Driver/src/usb_core.c **** 
  43:../libraries/STM32_USB-FS-Device_Driver/src/usb_core.c **** #define USB_StatusIn() Send0LengthData()
  44:../libraries/STM32_USB-FS-Device_Driver/src/usb_core.c **** #define USB_StatusOut() vSetEPRxStatus(EP_RX_VALID)
  45:../libraries/STM32_USB-FS-Device_Driver/src/usb_core.c **** 
  46:../libraries/STM32_USB-FS-Device_Driver/src/usb_core.c **** #define StatusInfo0 StatusInfo.bw.bb1 /* Reverse bb0 & bb1 */
  47:../libraries/STM32_USB-FS-Device_Driver/src/usb_core.c **** #define StatusInfo1 StatusInfo.bw.bb0
  48:../libraries/STM32_USB-FS-Device_Driver/src/usb_core.c **** 
  49:../libraries/STM32_USB-FS-Device_Driver/src/usb_core.c **** /* Private macro -------------------------------------------------------------*/
  50:../libraries/STM32_USB-FS-Device_Driver/src/usb_core.c **** /* Private variables ---------------------------------------------------------*/
  51:../libraries/STM32_USB-FS-Device_Driver/src/usb_core.c **** uint16_t_uint8_t StatusInfo;
  52:../libraries/STM32_USB-FS-Device_Driver/src/usb_core.c **** 
  53:../libraries/STM32_USB-FS-Device_Driver/src/usb_core.c **** bool Data_Mul_MaxPacketSize = FALSE;
  54:../libraries/STM32_USB-FS-Device_Driver/src/usb_core.c **** /* Private function prototypes -----------------------------------------------*/
  55:../libraries/STM32_USB-FS-Device_Driver/src/usb_core.c **** static void DataStageOut(void);
  56:../libraries/STM32_USB-FS-Device_Driver/src/usb_core.c **** static void DataStageIn(void);
  57:../libraries/STM32_USB-FS-Device_Driver/src/usb_core.c **** static void NoData_Setup0(void);
  58:../libraries/STM32_USB-FS-Device_Driver/src/usb_core.c **** static void Data_Setup0(void);
  59:../libraries/STM32_USB-FS-Device_Driver/src/usb_core.c **** /* Private functions ---------------------------------------------------------*/
  60:../libraries/STM32_USB-FS-Device_Driver/src/usb_core.c **** 
  61:../libraries/STM32_USB-FS-Device_Driver/src/usb_core.c **** /*******************************************************************************
  62:../libraries/STM32_USB-FS-Device_Driver/src/usb_core.c **** * Function Name  : Standard_GetConfiguration.
  63:../libraries/STM32_USB-FS-Device_Driver/src/usb_core.c **** * Description    : Return the current configuration variable address.
  64:../libraries/STM32_USB-FS-Device_Driver/src/usb_core.c **** * Input          : Length - How many bytes are needed.
  65:../libraries/STM32_USB-FS-Device_Driver/src/usb_core.c **** * Output         : None.
  66:../libraries/STM32_USB-FS-Device_Driver/src/usb_core.c **** * Return         : Return 1 , if the request is invalid when "Length" is 0.
  67:../libraries/STM32_USB-FS-Device_Driver/src/usb_core.c **** *                  Return "Buffer" if the "Length" is not 0.
  68:../libraries/STM32_USB-FS-Device_Driver/src/usb_core.c **** *******************************************************************************/
  69:../libraries/STM32_USB-FS-Device_Driver/src/usb_core.c **** uint8_t *Standard_GetConfiguration(uint16_t Length)
  70:../libraries/STM32_USB-FS-Device_Driver/src/usb_core.c **** {
  27              		.loc 1 70 0
  28              		.cfi_startproc
  29              		@ args = 0, pretend = 0, frame = 0
  30              		@ frame_needed = 0, uses_anonymous_args = 0
  31              	.LVL0:
  32 0000 10B5     		push	{r4, lr}
  33              	.LCFI0:
  34              		.cfi_def_cfa_offset 8
  35              		.cfi_offset 4, -8
  36              		.cfi_offset 14, -4
  37 0002 064C     		ldr	r4, .L5
  71:../libraries/STM32_USB-FS-Device_Driver/src/usb_core.c ****   if (Length == 0)
  38              		.loc 1 71 0
  39 0004 18B9     		cbnz	r0, .L2
  72:../libraries/STM32_USB-FS-Device_Driver/src/usb_core.c ****   {
  73:../libraries/STM32_USB-FS-Device_Driver/src/usb_core.c ****     pInformation->Ctrl_Info.Usb_wLength =
  40              		.loc 1 73 0
  41 0006 2368     		ldr	r3, [r4, #0]
  42 0008 0122     		movs	r2, #1
  43 000a 1A82     		strh	r2, [r3, #16]	@ movhi
  74:../libraries/STM32_USB-FS-Device_Driver/src/usb_core.c ****       sizeof(pInformation->Current_Configuration);
  75:../libraries/STM32_USB-FS-Device_Driver/src/usb_core.c ****     return 0;
  44              		.loc 1 75 0
  45 000c 10BD     		pop	{r4, pc}
  46              	.L2:
  76:../libraries/STM32_USB-FS-Device_Driver/src/usb_core.c ****   }
  77:../libraries/STM32_USB-FS-Device_Driver/src/usb_core.c ****   pUser_Standard_Requests->User_GetConfiguration();
  47              		.loc 1 77 0
  48 000e 044B     		ldr	r3, .L5+4
  49 0010 1868     		ldr	r0, [r3, #0]
  50              	.LVL1:
  51 0012 0168     		ldr	r1, [r0, #0]
  52 0014 8847     		blx	r1
  53              	.LVL2:
  78:../libraries/STM32_USB-FS-Device_Driver/src/usb_core.c ****   return (uint8_t *)&pInformation->Current_Configuration;
  54              		.loc 1 78 0
  55 0016 2068     		ldr	r0, [r4, #0]
  56 0018 0A30     		adds	r0, r0, #10
  79:../libraries/STM32_USB-FS-Device_Driver/src/usb_core.c **** }
  57              		.loc 1 79 0
  58 001a 10BD     		pop	{r4, pc}
  59              	.L6:
  60              		.align	2
  61              	.L5:
  62 001c 00000000 		.word	pInformation
  63 0020 00000000 		.word	pUser_Standard_Requests
  64              		.cfi_endproc
  65              	.LFE56:
  67              		.section	.text.Standard_GetInterface,"ax",%progbits
  68              		.align	1
  69              		.global	Standard_GetInterface
  70              		.thumb
  71              		.thumb_func
  73              	Standard_GetInterface:
  74              	.LFB58:
  80:../libraries/STM32_USB-FS-Device_Driver/src/usb_core.c **** 
  81:../libraries/STM32_USB-FS-Device_Driver/src/usb_core.c **** /*******************************************************************************
  82:../libraries/STM32_USB-FS-Device_Driver/src/usb_core.c **** * Function Name  : Standard_SetConfiguration.
  83:../libraries/STM32_USB-FS-Device_Driver/src/usb_core.c **** * Description    : This routine is called to set the configuration value
  84:../libraries/STM32_USB-FS-Device_Driver/src/usb_core.c **** *                  Then each class should configure device itself.
  85:../libraries/STM32_USB-FS-Device_Driver/src/usb_core.c **** * Input          : None.
  86:../libraries/STM32_USB-FS-Device_Driver/src/usb_core.c **** * Output         : None.
  87:../libraries/STM32_USB-FS-Device_Driver/src/usb_core.c **** * Return         : Return USB_SUCCESS, if the request is performed.
  88:../libraries/STM32_USB-FS-Device_Driver/src/usb_core.c **** *                  Return USB_UNSUPPORT, if the request is invalid.
  89:../libraries/STM32_USB-FS-Device_Driver/src/usb_core.c **** *******************************************************************************/
  90:../libraries/STM32_USB-FS-Device_Driver/src/usb_core.c **** RESULT Standard_SetConfiguration(void)
  91:../libraries/STM32_USB-FS-Device_Driver/src/usb_core.c **** {
  92:../libraries/STM32_USB-FS-Device_Driver/src/usb_core.c **** 
  93:../libraries/STM32_USB-FS-Device_Driver/src/usb_core.c ****   if ((pInformation->USBwValue0 <=
  94:../libraries/STM32_USB-FS-Device_Driver/src/usb_core.c ****       Device_Table.Total_Configuration) && (pInformation->USBwValue1 == 0)
  95:../libraries/STM32_USB-FS-Device_Driver/src/usb_core.c ****       && (pInformation->USBwIndex == 0)) /*call Back usb spec 2.0*/
  96:../libraries/STM32_USB-FS-Device_Driver/src/usb_core.c ****   {
  97:../libraries/STM32_USB-FS-Device_Driver/src/usb_core.c ****     pInformation->Current_Configuration = pInformation->USBwValue0;
  98:../libraries/STM32_USB-FS-Device_Driver/src/usb_core.c ****     pUser_Standard_Requests->User_SetConfiguration();
  99:../libraries/STM32_USB-FS-Device_Driver/src/usb_core.c ****     return USB_SUCCESS;
 100:../libraries/STM32_USB-FS-Device_Driver/src/usb_core.c ****   }
 101:../libraries/STM32_USB-FS-Device_Driver/src/usb_core.c ****   else
 102:../libraries/STM32_USB-FS-Device_Driver/src/usb_core.c ****   {
 103:../libraries/STM32_USB-FS-Device_Driver/src/usb_core.c ****     return USB_UNSUPPORT;
 104:../libraries/STM32_USB-FS-Device_Driver/src/usb_core.c ****   }
 105:../libraries/STM32_USB-FS-Device_Driver/src/usb_core.c **** }
 106:../libraries/STM32_USB-FS-Device_Driver/src/usb_core.c **** 
 107:../libraries/STM32_USB-FS-Device_Driver/src/usb_core.c **** /*******************************************************************************
 108:../libraries/STM32_USB-FS-Device_Driver/src/usb_core.c **** * Function Name  : Standard_GetInterface.
 109:../libraries/STM32_USB-FS-Device_Driver/src/usb_core.c **** * Description    : Return the Alternate Setting of the current interface.
 110:../libraries/STM32_USB-FS-Device_Driver/src/usb_core.c **** * Input          : Length - How many bytes are needed.
 111:../libraries/STM32_USB-FS-Device_Driver/src/usb_core.c **** * Output         : None.
 112:../libraries/STM32_USB-FS-Device_Driver/src/usb_core.c **** * Return         : Return 0, if the request is invalid when "Length" is 0.
 113:../libraries/STM32_USB-FS-Device_Driver/src/usb_core.c **** *                  Return "Buffer" if the "Length" is not 0.
 114:../libraries/STM32_USB-FS-Device_Driver/src/usb_core.c **** *******************************************************************************/
 115:../libraries/STM32_USB-FS-Device_Driver/src/usb_core.c **** uint8_t *Standard_GetInterface(uint16_t Length)
 116:../libraries/STM32_USB-FS-Device_Driver/src/usb_core.c **** {
  75              		.loc 1 116 0
  76              		.cfi_startproc
  77              		@ args = 0, pretend = 0, frame = 0
  78              		@ frame_needed = 0, uses_anonymous_args = 0
  79              	.LVL3:
  80 0000 10B5     		push	{r4, lr}
  81              	.LCFI1:
  82              		.cfi_def_cfa_offset 8
  83              		.cfi_offset 4, -8
  84              		.cfi_offset 14, -4
  85 0002 064C     		ldr	r4, .L10
 117:../libraries/STM32_USB-FS-Device_Driver/src/usb_core.c ****   if (Length == 0)
  86              		.loc 1 117 0
  87 0004 18B9     		cbnz	r0, .L8
 118:../libraries/STM32_USB-FS-Device_Driver/src/usb_core.c ****   {
 119:../libraries/STM32_USB-FS-Device_Driver/src/usb_core.c ****     pInformation->Ctrl_Info.Usb_wLength =
  88              		.loc 1 119 0
  89 0006 2368     		ldr	r3, [r4, #0]
  90 0008 0122     		movs	r2, #1
  91 000a 1A82     		strh	r2, [r3, #16]	@ movhi
 120:../libraries/STM32_USB-FS-Device_Driver/src/usb_core.c ****       sizeof(pInformation->Current_AlternateSetting);
 121:../libraries/STM32_USB-FS-Device_Driver/src/usb_core.c ****     return 0;
  92              		.loc 1 121 0
  93 000c 10BD     		pop	{r4, pc}
  94              	.L8:
 122:../libraries/STM32_USB-FS-Device_Driver/src/usb_core.c ****   }
 123:../libraries/STM32_USB-FS-Device_Driver/src/usb_core.c ****   pUser_Standard_Requests->User_GetInterface();
  95              		.loc 1 123 0
  96 000e 044B     		ldr	r3, .L10+4
  97 0010 1868     		ldr	r0, [r3, #0]
  98              	.LVL4:
  99 0012 8168     		ldr	r1, [r0, #8]
 100 0014 8847     		blx	r1
 101              	.LVL5:
 124:../libraries/STM32_USB-FS-Device_Driver/src/usb_core.c ****   return (uint8_t *)&pInformation->Current_AlternateSetting;
 102              		.loc 1 124 0
 103 0016 2068     		ldr	r0, [r4, #0]
 104 0018 0C30     		adds	r0, r0, #12
 125:../libraries/STM32_USB-FS-Device_Driver/src/usb_core.c **** }
 105              		.loc 1 125 0
 106 001a 10BD     		pop	{r4, pc}
 107              	.L11:
 108              		.align	2
 109              	.L10:
 110 001c 00000000 		.word	pInformation
 111 0020 00000000 		.word	pUser_Standard_Requests
 112              		.cfi_endproc
 113              	.LFE58:
 115              		.section	.text.Standard_GetStatus,"ax",%progbits
 116              		.align	1
 117              		.global	Standard_GetStatus
 118              		.thumb
 119              		.thumb_func
 121              	Standard_GetStatus:
 122              	.LFB60:
 126:../libraries/STM32_USB-FS-Device_Driver/src/usb_core.c **** 
 127:../libraries/STM32_USB-FS-Device_Driver/src/usb_core.c **** /*******************************************************************************
 128:../libraries/STM32_USB-FS-Device_Driver/src/usb_core.c **** * Function Name  : Standard_SetInterface.
 129:../libraries/STM32_USB-FS-Device_Driver/src/usb_core.c **** * Description    : This routine is called to set the interface.
 130:../libraries/STM32_USB-FS-Device_Driver/src/usb_core.c **** *                  Then each class should configure the interface them self.
 131:../libraries/STM32_USB-FS-Device_Driver/src/usb_core.c **** * Input          : None.
 132:../libraries/STM32_USB-FS-Device_Driver/src/usb_core.c **** * Output         : None.
 133:../libraries/STM32_USB-FS-Device_Driver/src/usb_core.c **** * Return         : - Return USB_SUCCESS, if the request is performed.
 134:../libraries/STM32_USB-FS-Device_Driver/src/usb_core.c **** *                  - Return USB_UNSUPPORT, if the request is invalid.
 135:../libraries/STM32_USB-FS-Device_Driver/src/usb_core.c **** *******************************************************************************/
 136:../libraries/STM32_USB-FS-Device_Driver/src/usb_core.c **** RESULT Standard_SetInterface(void)
 137:../libraries/STM32_USB-FS-Device_Driver/src/usb_core.c **** {
 138:../libraries/STM32_USB-FS-Device_Driver/src/usb_core.c ****   RESULT Re;
 139:../libraries/STM32_USB-FS-Device_Driver/src/usb_core.c ****   /*Test if the specified Interface and Alternate Setting are supported by
 140:../libraries/STM32_USB-FS-Device_Driver/src/usb_core.c ****     the application Firmware*/
 141:../libraries/STM32_USB-FS-Device_Driver/src/usb_core.c ****   Re = (*pProperty->Class_Get_Interface_Setting)(pInformation->USBwIndex0, pInformation->USBwValue0
 142:../libraries/STM32_USB-FS-Device_Driver/src/usb_core.c **** 
 143:../libraries/STM32_USB-FS-Device_Driver/src/usb_core.c ****   if (pInformation->Current_Configuration != 0)
 144:../libraries/STM32_USB-FS-Device_Driver/src/usb_core.c ****   {
 145:../libraries/STM32_USB-FS-Device_Driver/src/usb_core.c ****     if ((Re != USB_SUCCESS) || (pInformation->USBwIndex1 != 0)
 146:../libraries/STM32_USB-FS-Device_Driver/src/usb_core.c ****         || (pInformation->USBwValue1 != 0))
 147:../libraries/STM32_USB-FS-Device_Driver/src/usb_core.c ****     {
 148:../libraries/STM32_USB-FS-Device_Driver/src/usb_core.c ****       return  USB_UNSUPPORT;
 149:../libraries/STM32_USB-FS-Device_Driver/src/usb_core.c ****     }
 150:../libraries/STM32_USB-FS-Device_Driver/src/usb_core.c ****     else if (Re == USB_SUCCESS)
 151:../libraries/STM32_USB-FS-Device_Driver/src/usb_core.c ****     {
 152:../libraries/STM32_USB-FS-Device_Driver/src/usb_core.c ****       pUser_Standard_Requests->User_SetInterface();
 153:../libraries/STM32_USB-FS-Device_Driver/src/usb_core.c ****       pInformation->Current_Interface = pInformation->USBwIndex0;
 154:../libraries/STM32_USB-FS-Device_Driver/src/usb_core.c ****       pInformation->Current_AlternateSetting = pInformation->USBwValue0;
 155:../libraries/STM32_USB-FS-Device_Driver/src/usb_core.c ****       return USB_SUCCESS;
 156:../libraries/STM32_USB-FS-Device_Driver/src/usb_core.c ****     }
 157:../libraries/STM32_USB-FS-Device_Driver/src/usb_core.c **** 
 158:../libraries/STM32_USB-FS-Device_Driver/src/usb_core.c ****   }
 159:../libraries/STM32_USB-FS-Device_Driver/src/usb_core.c **** 
 160:../libraries/STM32_USB-FS-Device_Driver/src/usb_core.c ****   return USB_UNSUPPORT;
 161:../libraries/STM32_USB-FS-Device_Driver/src/usb_core.c **** }
 162:../libraries/STM32_USB-FS-Device_Driver/src/usb_core.c **** 
 163:../libraries/STM32_USB-FS-Device_Driver/src/usb_core.c **** /*******************************************************************************
 164:../libraries/STM32_USB-FS-Device_Driver/src/usb_core.c **** * Function Name  : Standard_GetStatus.
 165:../libraries/STM32_USB-FS-Device_Driver/src/usb_core.c **** * Description    : Copy the device request data to "StatusInfo buffer".
 166:../libraries/STM32_USB-FS-Device_Driver/src/usb_core.c **** * Input          : - Length - How many bytes are needed.
 167:../libraries/STM32_USB-FS-Device_Driver/src/usb_core.c **** * Output         : None.
 168:../libraries/STM32_USB-FS-Device_Driver/src/usb_core.c **** * Return         : Return 0, if the request is at end of data block,
 169:../libraries/STM32_USB-FS-Device_Driver/src/usb_core.c **** *                  or is invalid when "Length" is 0.
 170:../libraries/STM32_USB-FS-Device_Driver/src/usb_core.c **** *******************************************************************************/
 171:../libraries/STM32_USB-FS-Device_Driver/src/usb_core.c **** uint8_t *Standard_GetStatus(uint16_t Length)
 172:../libraries/STM32_USB-FS-Device_Driver/src/usb_core.c **** {
 123              		.loc 1 172 0
 124              		.cfi_startproc
 125              		@ args = 0, pretend = 0, frame = 0
 126              		@ frame_needed = 0, uses_anonymous_args = 0
 127              	.LVL6:
 128 0000 08B5     		push	{r3, lr}
 129              	.LCFI2:
 130              		.cfi_def_cfa_offset 8
 131              		.cfi_offset 3, -8
 132              		.cfi_offset 14, -4
 133 0002 234A     		ldr	r2, .L29
 173:../libraries/STM32_USB-FS-Device_Driver/src/usb_core.c ****   if (Length == 0)
 134              		.loc 1 173 0
 135 0004 18B9     		cbnz	r0, .L13
 174:../libraries/STM32_USB-FS-Device_Driver/src/usb_core.c ****   {
 175:../libraries/STM32_USB-FS-Device_Driver/src/usb_core.c ****     pInformation->Ctrl_Info.Usb_wLength = 2;
 136              		.loc 1 175 0
 137 0006 1368     		ldr	r3, [r2, #0]
 138 0008 0222     		movs	r2, #2
 139 000a 1A82     		strh	r2, [r3, #16]	@ movhi
 176:../libraries/STM32_USB-FS-Device_Driver/src/usb_core.c ****     return 0;
 140              		.loc 1 176 0
 141 000c 08BD     		pop	{r3, pc}
 142              	.L13:
 177:../libraries/STM32_USB-FS-Device_Driver/src/usb_core.c ****   }
 178:../libraries/STM32_USB-FS-Device_Driver/src/usb_core.c **** 
 179:../libraries/STM32_USB-FS-Device_Driver/src/usb_core.c ****   /* Reset Status Information */
 180:../libraries/STM32_USB-FS-Device_Driver/src/usb_core.c ****   StatusInfo.w = 0;
 143              		.loc 1 180 0
 144 000e 214B     		ldr	r3, .L29+4
 145 0010 0020     		movs	r0, #0
 146              	.LVL7:
 181:../libraries/STM32_USB-FS-Device_Driver/src/usb_core.c **** 
 182:../libraries/STM32_USB-FS-Device_Driver/src/usb_core.c ****   if (Type_Recipient == (STANDARD_REQUEST | DEVICE_RECIPIENT))
 147              		.loc 1 182 0
 148 0012 1268     		ldr	r2, [r2, #0]
 180:../libraries/STM32_USB-FS-Device_Driver/src/usb_core.c ****   StatusInfo.w = 0;
 149              		.loc 1 180 0
 150 0014 1880     		strh	r0, [r3, #0]	@ movhi
 151              		.loc 1 182 0
 152 0016 1178     		ldrb	r1, [r2, #0]	@ zero_extendqisi2
 153 0018 11F07F01 		ands	r1, r1, #127
 154 001c 13D1     		bne	.L15
 155              	.LBB2:
 183:../libraries/STM32_USB-FS-Device_Driver/src/usb_core.c ****   {
 184:../libraries/STM32_USB-FS-Device_Driver/src/usb_core.c ****     /*Get Device Status */
 185:../libraries/STM32_USB-FS-Device_Driver/src/usb_core.c ****     uint8_t Feature = pInformation->Current_Feature;
 156              		.loc 1 185 0
 157 001e 507A     		ldrb	r0, [r2, #9]	@ zero_extendqisi2
 158              	.LVL8:
 186:../libraries/STM32_USB-FS-Device_Driver/src/usb_core.c **** 
 187:../libraries/STM32_USB-FS-Device_Driver/src/usb_core.c ****     /* Remote Wakeup enabled */
 188:../libraries/STM32_USB-FS-Device_Driver/src/usb_core.c ****     if (ValBit(Feature, 5))
 159              		.loc 1 188 0
 160 0020 00F02002 		and	r2, r0, #32
 161              	.LVL9:
 162 0024 D1B2     		uxtb	r1, r2
 163 0026 09B1     		cbz	r1, .L16
 189:../libraries/STM32_USB-FS-Device_Driver/src/usb_core.c ****     {
 190:../libraries/STM32_USB-FS-Device_Driver/src/usb_core.c ****       SetBit(StatusInfo0, 1);
 164              		.loc 1 190 0
 165 0028 0222     		movs	r2, #2
 166 002a 1A70     		strb	r2, [r3, #0]
 167              	.L16:
 191:../libraries/STM32_USB-FS-Device_Driver/src/usb_core.c ****     }
 192:../libraries/STM32_USB-FS-Device_Driver/src/usb_core.c ****     else
 193:../libraries/STM32_USB-FS-Device_Driver/src/usb_core.c ****     {
 194:../libraries/STM32_USB-FS-Device_Driver/src/usb_core.c ****       ClrBit(StatusInfo0, 1);
 195:../libraries/STM32_USB-FS-Device_Driver/src/usb_core.c ****     }      
 196:../libraries/STM32_USB-FS-Device_Driver/src/usb_core.c **** 
 197:../libraries/STM32_USB-FS-Device_Driver/src/usb_core.c ****     /* Bus-powered */
 198:../libraries/STM32_USB-FS-Device_Driver/src/usb_core.c ****     if (ValBit(Feature, 6))
 168              		.loc 1 198 0
 169 002c 00F04003 		and	r3, r0, #64
 170 0030 D8B2     		uxtb	r0, r3
 171 0032 184B     		ldr	r3, .L29+4
 172 0034 18B1     		cbz	r0, .L17
 199:../libraries/STM32_USB-FS-Device_Driver/src/usb_core.c ****     {
 200:../libraries/STM32_USB-FS-Device_Driver/src/usb_core.c ****       SetBit(StatusInfo0, 0);
 173              		.loc 1 200 0
 174 0036 1A78     		ldrb	r2, [r3, #0]	@ zero_extendqisi2
 175 0038 42F00101 		orr	r1, r2, #1
 176 003c 1EE0     		b	.L25
 177              	.L17:
 201:../libraries/STM32_USB-FS-Device_Driver/src/usb_core.c ****     }
 202:../libraries/STM32_USB-FS-Device_Driver/src/usb_core.c ****     else /* Self-powered */
 203:../libraries/STM32_USB-FS-Device_Driver/src/usb_core.c ****     {
 204:../libraries/STM32_USB-FS-Device_Driver/src/usb_core.c ****       ClrBit(StatusInfo0, 0);
 178              		.loc 1 204 0
 179 003e 1978     		ldrb	r1, [r3, #0]	@ zero_extendqisi2
 180 0040 21F00101 		bic	r1, r1, #1
 181 0044 1AE0     		b	.L25
 182              	.LVL10:
 183              	.L15:
 184              	.LBE2:
 205:../libraries/STM32_USB-FS-Device_Driver/src/usb_core.c ****     }
 206:../libraries/STM32_USB-FS-Device_Driver/src/usb_core.c ****   }
 207:../libraries/STM32_USB-FS-Device_Driver/src/usb_core.c ****   /*Interface Status*/
 208:../libraries/STM32_USB-FS-Device_Driver/src/usb_core.c ****   else if (Type_Recipient == (STANDARD_REQUEST | INTERFACE_RECIPIENT))
 185              		.loc 1 208 0
 186 0046 0129     		cmp	r1, #1
 187 0048 1FD0     		beq	.L20
 209:../libraries/STM32_USB-FS-Device_Driver/src/usb_core.c ****   {
 210:../libraries/STM32_USB-FS-Device_Driver/src/usb_core.c ****     return (uint8_t *)&StatusInfo;
 211:../libraries/STM32_USB-FS-Device_Driver/src/usb_core.c ****   }
 212:../libraries/STM32_USB-FS-Device_Driver/src/usb_core.c ****   /*Get EndPoint Status*/
 213:../libraries/STM32_USB-FS-Device_Driver/src/usb_core.c ****   else if (Type_Recipient == (STANDARD_REQUEST | ENDPOINT_RECIPIENT))
 188              		.loc 1 213 0
 189 004a 0229     		cmp	r1, #2
 190 004c 1ED1     		bne	.L14
 191              	.LBB3:
 214:../libraries/STM32_USB-FS-Device_Driver/src/usb_core.c ****   {
 215:../libraries/STM32_USB-FS-Device_Driver/src/usb_core.c ****     uint8_t Related_Endpoint;
 216:../libraries/STM32_USB-FS-Device_Driver/src/usb_core.c ****     uint8_t wIndex0 = pInformation->USBwIndex0;
 192              		.loc 1 216 0
 193 004e 5079     		ldrb	r0, [r2, #5]	@ zero_extendqisi2
 194              	.LVL11:
 217:../libraries/STM32_USB-FS-Device_Driver/src/usb_core.c **** 
 218:../libraries/STM32_USB-FS-Device_Driver/src/usb_core.c ****     Related_Endpoint = (wIndex0 & 0x0f);
 195              		.loc 1 218 0
 196 0050 00F00F02 		and	r2, r0, #15
 197              	.LVL12:
 198 0054 4FEA8201 		lsl	r1, r2, #2
 219:../libraries/STM32_USB-FS-Device_Driver/src/usb_core.c ****     if (ValBit(wIndex0, 7))
 199              		.loc 1 219 0
 200 0058 10F0800F 		tst	r0, #128
 220:../libraries/STM32_USB-FS-Device_Driver/src/usb_core.c ****     {
 221:../libraries/STM32_USB-FS-Device_Driver/src/usb_core.c ****       /* IN endpoint */
 222:../libraries/STM32_USB-FS-Device_Driver/src/usb_core.c ****       if (_GetTxStallStatus(Related_Endpoint))
 201              		.loc 1 222 0
 202 005c 01F18040 		add	r0, r1, #1073741824
 203 0060 00F5B842 		add	r2, r0, #23552
 204              	.LVL13:
 205 0064 1168     		ldr	r1, [r2, #0]
 219:../libraries/STM32_USB-FS-Device_Driver/src/usb_core.c ****     if (ValBit(wIndex0, 7))
 206              		.loc 1 219 0
 207 0066 03D0     		beq	.L19
 208              		.loc 1 222 0
 209 0068 01F03002 		and	r2, r1, #48
 210 006c 102A     		cmp	r2, #16
 211 006e 03E0     		b	.L28
 212              	.L19:
 223:../libraries/STM32_USB-FS-Device_Driver/src/usb_core.c ****       {
 224:../libraries/STM32_USB-FS-Device_Driver/src/usb_core.c ****         SetBit(StatusInfo0, 0); /* IN Endpoint stalled */
 225:../libraries/STM32_USB-FS-Device_Driver/src/usb_core.c ****       }
 226:../libraries/STM32_USB-FS-Device_Driver/src/usb_core.c ****     }
 227:../libraries/STM32_USB-FS-Device_Driver/src/usb_core.c ****     else
 228:../libraries/STM32_USB-FS-Device_Driver/src/usb_core.c ****     {
 229:../libraries/STM32_USB-FS-Device_Driver/src/usb_core.c ****       /* OUT endpoint */
 230:../libraries/STM32_USB-FS-Device_Driver/src/usb_core.c ****       if (_GetRxStallStatus(Related_Endpoint))
 213              		.loc 1 230 0
 214 0070 01F44050 		and	r0, r1, #12288
 215 0074 B0F5805F 		cmp	r0, #4096
 216              	.L28:
 217 0078 01D1     		bne	.L18
 231:../libraries/STM32_USB-FS-Device_Driver/src/usb_core.c ****       {
 232:../libraries/STM32_USB-FS-Device_Driver/src/usb_core.c ****         SetBit(StatusInfo0, 0); /* OUT Endpoint stalled */
 218              		.loc 1 232 0
 219 007a 0121     		movs	r1, #1
 220              	.LVL14:
 221              	.L25:
 222 007c 1970     		strb	r1, [r3, #0]
 223              	.L18:
 224              	.LBE3:
 233:../libraries/STM32_USB-FS-Device_Driver/src/usb_core.c ****       }
 234:../libraries/STM32_USB-FS-Device_Driver/src/usb_core.c ****     }
 235:../libraries/STM32_USB-FS-Device_Driver/src/usb_core.c **** 
 236:../libraries/STM32_USB-FS-Device_Driver/src/usb_core.c ****   }
 237:../libraries/STM32_USB-FS-Device_Driver/src/usb_core.c ****   else
 238:../libraries/STM32_USB-FS-Device_Driver/src/usb_core.c ****   {
 239:../libraries/STM32_USB-FS-Device_Driver/src/usb_core.c ****     return NULL;
 240:../libraries/STM32_USB-FS-Device_Driver/src/usb_core.c ****   }
 241:../libraries/STM32_USB-FS-Device_Driver/src/usb_core.c ****   pUser_Standard_Requests->User_GetStatus();
 225              		.loc 1 241 0
 226 007e 064B     		ldr	r3, .L29+8
 227 0080 1868     		ldr	r0, [r3, #0]
 228 0082 0169     		ldr	r1, [r0, #16]
 229 0084 8847     		blx	r1
 230              	.LVL15:
 242:../libraries/STM32_USB-FS-Device_Driver/src/usb_core.c ****   return (uint8_t *)&StatusInfo;
 231              		.loc 1 242 0
 232 0086 0348     		ldr	r0, .L29+4
 233 0088 08BD     		pop	{r3, pc}
 234              	.L20:
 210:../libraries/STM32_USB-FS-Device_Driver/src/usb_core.c ****     return (uint8_t *)&StatusInfo;
 235              		.loc 1 210 0
 236 008a 1846     		mov	r0, r3
 237              	.L14:
 243:../libraries/STM32_USB-FS-Device_Driver/src/usb_core.c **** }
 238              		.loc 1 243 0
 239 008c 08BD     		pop	{r3, pc}
 240              	.L30:
 241 008e 00BF     		.align	2
 242              	.L29:
 243 0090 00000000 		.word	pInformation
 244 0094 00000000 		.word	StatusInfo
 245 0098 00000000 		.word	pUser_Standard_Requests
 246              		.cfi_endproc
 247              	.LFE60:
 249              		.section	.text.DataStageIn,"ax",%progbits
 250              		.align	1
 251              		.thumb
 252              		.thumb_func
 254              	DataStageIn:
 255              	.LFB66:
 244:../libraries/STM32_USB-FS-Device_Driver/src/usb_core.c **** 
 245:../libraries/STM32_USB-FS-Device_Driver/src/usb_core.c **** /*******************************************************************************
 246:../libraries/STM32_USB-FS-Device_Driver/src/usb_core.c **** * Function Name  : Standard_ClearFeature.
 247:../libraries/STM32_USB-FS-Device_Driver/src/usb_core.c **** * Description    : Clear or disable a specific feature.
 248:../libraries/STM32_USB-FS-Device_Driver/src/usb_core.c **** * Input          : None.
 249:../libraries/STM32_USB-FS-Device_Driver/src/usb_core.c **** * Output         : None.
 250:../libraries/STM32_USB-FS-Device_Driver/src/usb_core.c **** * Return         : - Return USB_SUCCESS, if the request is performed.
 251:../libraries/STM32_USB-FS-Device_Driver/src/usb_core.c **** *                  - Return USB_UNSUPPORT, if the request is invalid.
 252:../libraries/STM32_USB-FS-Device_Driver/src/usb_core.c **** *******************************************************************************/
 253:../libraries/STM32_USB-FS-Device_Driver/src/usb_core.c **** RESULT Standard_ClearFeature(void)
 254:../libraries/STM32_USB-FS-Device_Driver/src/usb_core.c **** {
 255:../libraries/STM32_USB-FS-Device_Driver/src/usb_core.c ****   uint32_t     Type_Rec = Type_Recipient;
 256:../libraries/STM32_USB-FS-Device_Driver/src/usb_core.c ****   uint32_t     Status;
 257:../libraries/STM32_USB-FS-Device_Driver/src/usb_core.c **** 
 258:../libraries/STM32_USB-FS-Device_Driver/src/usb_core.c **** 
 259:../libraries/STM32_USB-FS-Device_Driver/src/usb_core.c ****   if (Type_Rec == (STANDARD_REQUEST | DEVICE_RECIPIENT))
 260:../libraries/STM32_USB-FS-Device_Driver/src/usb_core.c ****   {/*Device Clear Feature*/
 261:../libraries/STM32_USB-FS-Device_Driver/src/usb_core.c ****     ClrBit(pInformation->Current_Feature, 5);
 262:../libraries/STM32_USB-FS-Device_Driver/src/usb_core.c ****     return USB_SUCCESS;
 263:../libraries/STM32_USB-FS-Device_Driver/src/usb_core.c ****   }
 264:../libraries/STM32_USB-FS-Device_Driver/src/usb_core.c ****   else if (Type_Rec == (STANDARD_REQUEST | ENDPOINT_RECIPIENT))
 265:../libraries/STM32_USB-FS-Device_Driver/src/usb_core.c ****   {/*EndPoint Clear Feature*/
 266:../libraries/STM32_USB-FS-Device_Driver/src/usb_core.c ****     DEVICE* pDev;
 267:../libraries/STM32_USB-FS-Device_Driver/src/usb_core.c ****     uint32_t Related_Endpoint;
 268:../libraries/STM32_USB-FS-Device_Driver/src/usb_core.c ****     uint32_t wIndex0;
 269:../libraries/STM32_USB-FS-Device_Driver/src/usb_core.c ****     uint32_t rEP;
 270:../libraries/STM32_USB-FS-Device_Driver/src/usb_core.c **** 
 271:../libraries/STM32_USB-FS-Device_Driver/src/usb_core.c ****     if ((pInformation->USBwValue != ENDPOINT_STALL)
 272:../libraries/STM32_USB-FS-Device_Driver/src/usb_core.c ****         || (pInformation->USBwIndex1 != 0))
 273:../libraries/STM32_USB-FS-Device_Driver/src/usb_core.c ****     {
 274:../libraries/STM32_USB-FS-Device_Driver/src/usb_core.c ****       return USB_UNSUPPORT;
 275:../libraries/STM32_USB-FS-Device_Driver/src/usb_core.c ****     }
 276:../libraries/STM32_USB-FS-Device_Driver/src/usb_core.c **** 
 277:../libraries/STM32_USB-FS-Device_Driver/src/usb_core.c ****     pDev = &Device_Table;
 278:../libraries/STM32_USB-FS-Device_Driver/src/usb_core.c ****     wIndex0 = pInformation->USBwIndex0;
 279:../libraries/STM32_USB-FS-Device_Driver/src/usb_core.c ****     rEP = wIndex0 & ~0x80;
 280:../libraries/STM32_USB-FS-Device_Driver/src/usb_core.c ****     Related_Endpoint = ENDP0 + rEP;
 281:../libraries/STM32_USB-FS-Device_Driver/src/usb_core.c **** 
 282:../libraries/STM32_USB-FS-Device_Driver/src/usb_core.c ****     if (ValBit(pInformation->USBwIndex0, 7))
 283:../libraries/STM32_USB-FS-Device_Driver/src/usb_core.c ****     {
 284:../libraries/STM32_USB-FS-Device_Driver/src/usb_core.c ****       /*Get Status of endpoint & stall the request if the related_ENdpoint
 285:../libraries/STM32_USB-FS-Device_Driver/src/usb_core.c ****       is Disabled*/
 286:../libraries/STM32_USB-FS-Device_Driver/src/usb_core.c ****       Status = _GetEPTxStatus(Related_Endpoint);
 287:../libraries/STM32_USB-FS-Device_Driver/src/usb_core.c ****     }
 288:../libraries/STM32_USB-FS-Device_Driver/src/usb_core.c ****     else
 289:../libraries/STM32_USB-FS-Device_Driver/src/usb_core.c ****     {
 290:../libraries/STM32_USB-FS-Device_Driver/src/usb_core.c ****       Status = _GetEPRxStatus(Related_Endpoint);
 291:../libraries/STM32_USB-FS-Device_Driver/src/usb_core.c ****     }
 292:../libraries/STM32_USB-FS-Device_Driver/src/usb_core.c **** 
 293:../libraries/STM32_USB-FS-Device_Driver/src/usb_core.c ****     if ((rEP >= pDev->Total_Endpoint) || (Status == 0)
 294:../libraries/STM32_USB-FS-Device_Driver/src/usb_core.c ****         || (pInformation->Current_Configuration == 0))
 295:../libraries/STM32_USB-FS-Device_Driver/src/usb_core.c ****     {
 296:../libraries/STM32_USB-FS-Device_Driver/src/usb_core.c ****       return USB_UNSUPPORT;
 297:../libraries/STM32_USB-FS-Device_Driver/src/usb_core.c ****     }
 298:../libraries/STM32_USB-FS-Device_Driver/src/usb_core.c **** 
 299:../libraries/STM32_USB-FS-Device_Driver/src/usb_core.c **** 
 300:../libraries/STM32_USB-FS-Device_Driver/src/usb_core.c ****     if (wIndex0 & 0x80)
 301:../libraries/STM32_USB-FS-Device_Driver/src/usb_core.c ****     {
 302:../libraries/STM32_USB-FS-Device_Driver/src/usb_core.c ****       /* IN endpoint */
 303:../libraries/STM32_USB-FS-Device_Driver/src/usb_core.c ****       if (_GetTxStallStatus(Related_Endpoint ))
 304:../libraries/STM32_USB-FS-Device_Driver/src/usb_core.c ****       {
 305:../libraries/STM32_USB-FS-Device_Driver/src/usb_core.c ****         ClearDTOG_TX(Related_Endpoint);
 306:../libraries/STM32_USB-FS-Device_Driver/src/usb_core.c ****         SetEPTxStatus(Related_Endpoint, EP_TX_VALID);
 307:../libraries/STM32_USB-FS-Device_Driver/src/usb_core.c ****       }
 308:../libraries/STM32_USB-FS-Device_Driver/src/usb_core.c ****     }
 309:../libraries/STM32_USB-FS-Device_Driver/src/usb_core.c ****     else
 310:../libraries/STM32_USB-FS-Device_Driver/src/usb_core.c ****     {
 311:../libraries/STM32_USB-FS-Device_Driver/src/usb_core.c ****       /* OUT endpoint */
 312:../libraries/STM32_USB-FS-Device_Driver/src/usb_core.c ****       if (_GetRxStallStatus(Related_Endpoint))
 313:../libraries/STM32_USB-FS-Device_Driver/src/usb_core.c ****       {
 314:../libraries/STM32_USB-FS-Device_Driver/src/usb_core.c ****         if (Related_Endpoint == ENDP0)
 315:../libraries/STM32_USB-FS-Device_Driver/src/usb_core.c ****         {
 316:../libraries/STM32_USB-FS-Device_Driver/src/usb_core.c ****           /* After clear the STALL, enable the default endpoint receiver */
 317:../libraries/STM32_USB-FS-Device_Driver/src/usb_core.c ****           SetEPRxCount(Related_Endpoint, Device_Property.MaxPacketSize);
 318:../libraries/STM32_USB-FS-Device_Driver/src/usb_core.c ****           _SetEPRxStatus(Related_Endpoint, EP_RX_VALID);
 319:../libraries/STM32_USB-FS-Device_Driver/src/usb_core.c ****         }
 320:../libraries/STM32_USB-FS-Device_Driver/src/usb_core.c ****         else
 321:../libraries/STM32_USB-FS-Device_Driver/src/usb_core.c ****         {
 322:../libraries/STM32_USB-FS-Device_Driver/src/usb_core.c ****           ClearDTOG_RX(Related_Endpoint);
 323:../libraries/STM32_USB-FS-Device_Driver/src/usb_core.c ****           _SetEPRxStatus(Related_Endpoint, EP_RX_VALID);
 324:../libraries/STM32_USB-FS-Device_Driver/src/usb_core.c ****         }
 325:../libraries/STM32_USB-FS-Device_Driver/src/usb_core.c ****       }
 326:../libraries/STM32_USB-FS-Device_Driver/src/usb_core.c ****     }
 327:../libraries/STM32_USB-FS-Device_Driver/src/usb_core.c ****     pUser_Standard_Requests->User_ClearFeature();
 328:../libraries/STM32_USB-FS-Device_Driver/src/usb_core.c ****     return USB_SUCCESS;
 329:../libraries/STM32_USB-FS-Device_Driver/src/usb_core.c ****   }
 330:../libraries/STM32_USB-FS-Device_Driver/src/usb_core.c **** 
 331:../libraries/STM32_USB-FS-Device_Driver/src/usb_core.c ****   return USB_UNSUPPORT;
 332:../libraries/STM32_USB-FS-Device_Driver/src/usb_core.c **** }
 333:../libraries/STM32_USB-FS-Device_Driver/src/usb_core.c **** 
 334:../libraries/STM32_USB-FS-Device_Driver/src/usb_core.c **** /*******************************************************************************
 335:../libraries/STM32_USB-FS-Device_Driver/src/usb_core.c **** * Function Name  : Standard_SetEndPointFeature
 336:../libraries/STM32_USB-FS-Device_Driver/src/usb_core.c **** * Description    : Set or enable a specific feature of EndPoint
 337:../libraries/STM32_USB-FS-Device_Driver/src/usb_core.c **** * Input          : None.
 338:../libraries/STM32_USB-FS-Device_Driver/src/usb_core.c **** * Output         : None.
 339:../libraries/STM32_USB-FS-Device_Driver/src/usb_core.c **** * Return         : - Return USB_SUCCESS, if the request is performed.
 340:../libraries/STM32_USB-FS-Device_Driver/src/usb_core.c **** *                  - Return USB_UNSUPPORT, if the request is invalid.
 341:../libraries/STM32_USB-FS-Device_Driver/src/usb_core.c **** *******************************************************************************/
 342:../libraries/STM32_USB-FS-Device_Driver/src/usb_core.c **** RESULT Standard_SetEndPointFeature(void)
 343:../libraries/STM32_USB-FS-Device_Driver/src/usb_core.c **** {
 344:../libraries/STM32_USB-FS-Device_Driver/src/usb_core.c ****   uint32_t    wIndex0;
 345:../libraries/STM32_USB-FS-Device_Driver/src/usb_core.c ****   uint32_t    Related_Endpoint;
 346:../libraries/STM32_USB-FS-Device_Driver/src/usb_core.c ****   uint32_t    rEP;
 347:../libraries/STM32_USB-FS-Device_Driver/src/usb_core.c ****   uint32_t    Status;
 348:../libraries/STM32_USB-FS-Device_Driver/src/usb_core.c **** 
 349:../libraries/STM32_USB-FS-Device_Driver/src/usb_core.c ****   wIndex0 = pInformation->USBwIndex0;
 350:../libraries/STM32_USB-FS-Device_Driver/src/usb_core.c ****   rEP = wIndex0 & ~0x80;
 351:../libraries/STM32_USB-FS-Device_Driver/src/usb_core.c ****   Related_Endpoint = ENDP0 + rEP;
 352:../libraries/STM32_USB-FS-Device_Driver/src/usb_core.c **** 
 353:../libraries/STM32_USB-FS-Device_Driver/src/usb_core.c ****   if (ValBit(pInformation->USBwIndex0, 7))
 354:../libraries/STM32_USB-FS-Device_Driver/src/usb_core.c ****   {
 355:../libraries/STM32_USB-FS-Device_Driver/src/usb_core.c ****     /* get Status of endpoint & stall the request if the related_ENdpoint
 356:../libraries/STM32_USB-FS-Device_Driver/src/usb_core.c ****     is Disabled*/
 357:../libraries/STM32_USB-FS-Device_Driver/src/usb_core.c ****     Status = _GetEPTxStatus(Related_Endpoint);
 358:../libraries/STM32_USB-FS-Device_Driver/src/usb_core.c ****   }
 359:../libraries/STM32_USB-FS-Device_Driver/src/usb_core.c ****   else
 360:../libraries/STM32_USB-FS-Device_Driver/src/usb_core.c ****   {
 361:../libraries/STM32_USB-FS-Device_Driver/src/usb_core.c ****     Status = _GetEPRxStatus(Related_Endpoint);
 362:../libraries/STM32_USB-FS-Device_Driver/src/usb_core.c ****   }
 363:../libraries/STM32_USB-FS-Device_Driver/src/usb_core.c **** 
 364:../libraries/STM32_USB-FS-Device_Driver/src/usb_core.c ****   if (Related_Endpoint >= Device_Table.Total_Endpoint
 365:../libraries/STM32_USB-FS-Device_Driver/src/usb_core.c ****       || pInformation->USBwValue != 0 || Status == 0
 366:../libraries/STM32_USB-FS-Device_Driver/src/usb_core.c ****       || pInformation->Current_Configuration == 0)
 367:../libraries/STM32_USB-FS-Device_Driver/src/usb_core.c ****   {
 368:../libraries/STM32_USB-FS-Device_Driver/src/usb_core.c ****     return USB_UNSUPPORT;
 369:../libraries/STM32_USB-FS-Device_Driver/src/usb_core.c ****   }
 370:../libraries/STM32_USB-FS-Device_Driver/src/usb_core.c ****   else
 371:../libraries/STM32_USB-FS-Device_Driver/src/usb_core.c ****   {
 372:../libraries/STM32_USB-FS-Device_Driver/src/usb_core.c ****     if (wIndex0 & 0x80)
 373:../libraries/STM32_USB-FS-Device_Driver/src/usb_core.c ****     {
 374:../libraries/STM32_USB-FS-Device_Driver/src/usb_core.c ****       /* IN endpoint */
 375:../libraries/STM32_USB-FS-Device_Driver/src/usb_core.c ****       _SetEPTxStatus(Related_Endpoint, EP_TX_STALL);
 376:../libraries/STM32_USB-FS-Device_Driver/src/usb_core.c ****     }
 377:../libraries/STM32_USB-FS-Device_Driver/src/usb_core.c **** 
 378:../libraries/STM32_USB-FS-Device_Driver/src/usb_core.c ****     else
 379:../libraries/STM32_USB-FS-Device_Driver/src/usb_core.c ****     {
 380:../libraries/STM32_USB-FS-Device_Driver/src/usb_core.c ****       /* OUT endpoint */
 381:../libraries/STM32_USB-FS-Device_Driver/src/usb_core.c ****       _SetEPRxStatus(Related_Endpoint, EP_RX_STALL);
 382:../libraries/STM32_USB-FS-Device_Driver/src/usb_core.c ****     }
 383:../libraries/STM32_USB-FS-Device_Driver/src/usb_core.c ****   }
 384:../libraries/STM32_USB-FS-Device_Driver/src/usb_core.c ****   pUser_Standard_Requests->User_SetEndPointFeature();
 385:../libraries/STM32_USB-FS-Device_Driver/src/usb_core.c ****   return USB_SUCCESS;
 386:../libraries/STM32_USB-FS-Device_Driver/src/usb_core.c **** }
 387:../libraries/STM32_USB-FS-Device_Driver/src/usb_core.c **** 
 388:../libraries/STM32_USB-FS-Device_Driver/src/usb_core.c **** /*******************************************************************************
 389:../libraries/STM32_USB-FS-Device_Driver/src/usb_core.c **** * Function Name  : Standard_SetDeviceFeature.
 390:../libraries/STM32_USB-FS-Device_Driver/src/usb_core.c **** * Description    : Set or enable a specific feature of Device.
 391:../libraries/STM32_USB-FS-Device_Driver/src/usb_core.c **** * Input          : None.
 392:../libraries/STM32_USB-FS-Device_Driver/src/usb_core.c **** * Output         : None.
 393:../libraries/STM32_USB-FS-Device_Driver/src/usb_core.c **** * Return         : - Return USB_SUCCESS, if the request is performed.
 394:../libraries/STM32_USB-FS-Device_Driver/src/usb_core.c **** *                  - Return USB_UNSUPPORT, if the request is invalid.
 395:../libraries/STM32_USB-FS-Device_Driver/src/usb_core.c **** *******************************************************************************/
 396:../libraries/STM32_USB-FS-Device_Driver/src/usb_core.c **** RESULT Standard_SetDeviceFeature(void)
 397:../libraries/STM32_USB-FS-Device_Driver/src/usb_core.c **** {
 398:../libraries/STM32_USB-FS-Device_Driver/src/usb_core.c ****   SetBit(pInformation->Current_Feature, 5);
 399:../libraries/STM32_USB-FS-Device_Driver/src/usb_core.c ****   pUser_Standard_Requests->User_SetDeviceFeature();
 400:../libraries/STM32_USB-FS-Device_Driver/src/usb_core.c ****   return USB_SUCCESS;
 401:../libraries/STM32_USB-FS-Device_Driver/src/usb_core.c **** }
 402:../libraries/STM32_USB-FS-Device_Driver/src/usb_core.c **** 
 403:../libraries/STM32_USB-FS-Device_Driver/src/usb_core.c **** /*******************************************************************************
 404:../libraries/STM32_USB-FS-Device_Driver/src/usb_core.c **** * Function Name  : Standard_GetDescriptorData.
 405:../libraries/STM32_USB-FS-Device_Driver/src/usb_core.c **** * Description    : Standard_GetDescriptorData is used for descriptors transfer.
 406:../libraries/STM32_USB-FS-Device_Driver/src/usb_core.c **** *                : This routine is used for the descriptors resident in Flash
 407:../libraries/STM32_USB-FS-Device_Driver/src/usb_core.c **** *                  or RAM
 408:../libraries/STM32_USB-FS-Device_Driver/src/usb_core.c **** *                  pDesc can be in either Flash or RAM
 409:../libraries/STM32_USB-FS-Device_Driver/src/usb_core.c **** *                  The purpose of this routine is to have a versatile way to
 410:../libraries/STM32_USB-FS-Device_Driver/src/usb_core.c **** *                  response descriptors request. It allows user to generate
 411:../libraries/STM32_USB-FS-Device_Driver/src/usb_core.c **** *                  certain descriptors with software or read descriptors from
 412:../libraries/STM32_USB-FS-Device_Driver/src/usb_core.c **** *                  external storage part by part.
 413:../libraries/STM32_USB-FS-Device_Driver/src/usb_core.c **** * Input          : - Length - Length of the data in this transfer.
 414:../libraries/STM32_USB-FS-Device_Driver/src/usb_core.c **** *                  - pDesc - A pointer points to descriptor struct.
 415:../libraries/STM32_USB-FS-Device_Driver/src/usb_core.c **** *                  The structure gives the initial address of the descriptor and
 416:../libraries/STM32_USB-FS-Device_Driver/src/usb_core.c **** *                  its original size.
 417:../libraries/STM32_USB-FS-Device_Driver/src/usb_core.c **** * Output         : None.
 418:../libraries/STM32_USB-FS-Device_Driver/src/usb_core.c **** * Return         : Address of a part of the descriptor pointed by the Usb_
 419:../libraries/STM32_USB-FS-Device_Driver/src/usb_core.c **** *                  wOffset The buffer pointed by this address contains at least
 420:../libraries/STM32_USB-FS-Device_Driver/src/usb_core.c **** *                  Length bytes.
 421:../libraries/STM32_USB-FS-Device_Driver/src/usb_core.c **** *******************************************************************************/
 422:../libraries/STM32_USB-FS-Device_Driver/src/usb_core.c **** uint8_t *Standard_GetDescriptorData(uint16_t Length, ONE_DESCRIPTOR *pDesc)
 423:../libraries/STM32_USB-FS-Device_Driver/src/usb_core.c **** {
 424:../libraries/STM32_USB-FS-Device_Driver/src/usb_core.c ****   uint32_t  wOffset;
 425:../libraries/STM32_USB-FS-Device_Driver/src/usb_core.c **** 
 426:../libraries/STM32_USB-FS-Device_Driver/src/usb_core.c ****   wOffset = pInformation->Ctrl_Info.Usb_wOffset;
 427:../libraries/STM32_USB-FS-Device_Driver/src/usb_core.c ****   if (Length == 0)
 428:../libraries/STM32_USB-FS-Device_Driver/src/usb_core.c ****   {
 429:../libraries/STM32_USB-FS-Device_Driver/src/usb_core.c ****     pInformation->Ctrl_Info.Usb_wLength = pDesc->Descriptor_Size - wOffset;
 430:../libraries/STM32_USB-FS-Device_Driver/src/usb_core.c ****     return 0;
 431:../libraries/STM32_USB-FS-Device_Driver/src/usb_core.c ****   }
 432:../libraries/STM32_USB-FS-Device_Driver/src/usb_core.c **** 
 433:../libraries/STM32_USB-FS-Device_Driver/src/usb_core.c ****   return pDesc->Descriptor + wOffset;
 434:../libraries/STM32_USB-FS-Device_Driver/src/usb_core.c **** }
 435:../libraries/STM32_USB-FS-Device_Driver/src/usb_core.c **** 
 436:../libraries/STM32_USB-FS-Device_Driver/src/usb_core.c **** /*******************************************************************************
 437:../libraries/STM32_USB-FS-Device_Driver/src/usb_core.c **** * Function Name  : DataStageOut.
 438:../libraries/STM32_USB-FS-Device_Driver/src/usb_core.c **** * Description    : Data stage of a Control Write Transfer.
 439:../libraries/STM32_USB-FS-Device_Driver/src/usb_core.c **** * Input          : None.
 440:../libraries/STM32_USB-FS-Device_Driver/src/usb_core.c **** * Output         : None.
 441:../libraries/STM32_USB-FS-Device_Driver/src/usb_core.c **** * Return         : None.
 442:../libraries/STM32_USB-FS-Device_Driver/src/usb_core.c **** *******************************************************************************/
 443:../libraries/STM32_USB-FS-Device_Driver/src/usb_core.c **** void DataStageOut(void)
 444:../libraries/STM32_USB-FS-Device_Driver/src/usb_core.c **** {
 445:../libraries/STM32_USB-FS-Device_Driver/src/usb_core.c ****   ENDPOINT_INFO *pEPinfo = &pInformation->Ctrl_Info;
 446:../libraries/STM32_USB-FS-Device_Driver/src/usb_core.c ****   uint32_t save_rLength;
 447:../libraries/STM32_USB-FS-Device_Driver/src/usb_core.c **** 
 448:../libraries/STM32_USB-FS-Device_Driver/src/usb_core.c ****   save_rLength = pEPinfo->Usb_rLength;
 449:../libraries/STM32_USB-FS-Device_Driver/src/usb_core.c **** 
 450:../libraries/STM32_USB-FS-Device_Driver/src/usb_core.c ****   if (pEPinfo->CopyData && save_rLength)
 451:../libraries/STM32_USB-FS-Device_Driver/src/usb_core.c ****   {
 452:../libraries/STM32_USB-FS-Device_Driver/src/usb_core.c ****     uint8_t *Buffer;
 453:../libraries/STM32_USB-FS-Device_Driver/src/usb_core.c ****     uint32_t Length;
 454:../libraries/STM32_USB-FS-Device_Driver/src/usb_core.c **** 
 455:../libraries/STM32_USB-FS-Device_Driver/src/usb_core.c ****     Length = pEPinfo->PacketSize;
 456:../libraries/STM32_USB-FS-Device_Driver/src/usb_core.c ****     if (Length > save_rLength)
 457:../libraries/STM32_USB-FS-Device_Driver/src/usb_core.c ****     {
 458:../libraries/STM32_USB-FS-Device_Driver/src/usb_core.c ****       Length = save_rLength;
 459:../libraries/STM32_USB-FS-Device_Driver/src/usb_core.c ****     }
 460:../libraries/STM32_USB-FS-Device_Driver/src/usb_core.c **** 
 461:../libraries/STM32_USB-FS-Device_Driver/src/usb_core.c ****     Buffer = (*pEPinfo->CopyData)(Length);
 462:../libraries/STM32_USB-FS-Device_Driver/src/usb_core.c ****     pEPinfo->Usb_rLength -= Length;
 463:../libraries/STM32_USB-FS-Device_Driver/src/usb_core.c ****     pEPinfo->Usb_rOffset += Length;
 464:../libraries/STM32_USB-FS-Device_Driver/src/usb_core.c ****     PMAToUserBufferCopy(Buffer, GetEPRxAddr(ENDP0), Length);
 465:../libraries/STM32_USB-FS-Device_Driver/src/usb_core.c **** 
 466:../libraries/STM32_USB-FS-Device_Driver/src/usb_core.c ****   }
 467:../libraries/STM32_USB-FS-Device_Driver/src/usb_core.c **** 
 468:../libraries/STM32_USB-FS-Device_Driver/src/usb_core.c ****   if (pEPinfo->Usb_rLength != 0)
 469:../libraries/STM32_USB-FS-Device_Driver/src/usb_core.c ****   {
 470:../libraries/STM32_USB-FS-Device_Driver/src/usb_core.c ****     vSetEPRxStatus(EP_RX_VALID);/* re-enable for next data reception */
 471:../libraries/STM32_USB-FS-Device_Driver/src/usb_core.c ****     SetEPTxCount(ENDP0, 0);
 472:../libraries/STM32_USB-FS-Device_Driver/src/usb_core.c ****     vSetEPTxStatus(EP_TX_VALID);/* Expect the host to abort the data OUT stage */
 473:../libraries/STM32_USB-FS-Device_Driver/src/usb_core.c ****   }
 474:../libraries/STM32_USB-FS-Device_Driver/src/usb_core.c ****   /* Set the next State*/
 475:../libraries/STM32_USB-FS-Device_Driver/src/usb_core.c ****   if (pEPinfo->Usb_rLength >= pEPinfo->PacketSize)
 476:../libraries/STM32_USB-FS-Device_Driver/src/usb_core.c ****   {
 477:../libraries/STM32_USB-FS-Device_Driver/src/usb_core.c ****     pInformation->ControlState = OUT_DATA;
 478:../libraries/STM32_USB-FS-Device_Driver/src/usb_core.c ****   }
 479:../libraries/STM32_USB-FS-Device_Driver/src/usb_core.c ****   else
 480:../libraries/STM32_USB-FS-Device_Driver/src/usb_core.c ****   {
 481:../libraries/STM32_USB-FS-Device_Driver/src/usb_core.c ****     if (pEPinfo->Usb_rLength > 0)
 482:../libraries/STM32_USB-FS-Device_Driver/src/usb_core.c ****     {
 483:../libraries/STM32_USB-FS-Device_Driver/src/usb_core.c ****       pInformation->ControlState = LAST_OUT_DATA;
 484:../libraries/STM32_USB-FS-Device_Driver/src/usb_core.c ****     }
 485:../libraries/STM32_USB-FS-Device_Driver/src/usb_core.c ****     else if (pEPinfo->Usb_rLength == 0)
 486:../libraries/STM32_USB-FS-Device_Driver/src/usb_core.c ****     {
 487:../libraries/STM32_USB-FS-Device_Driver/src/usb_core.c ****       pInformation->ControlState = WAIT_STATUS_IN;
 488:../libraries/STM32_USB-FS-Device_Driver/src/usb_core.c ****       USB_StatusIn();
 489:../libraries/STM32_USB-FS-Device_Driver/src/usb_core.c ****     }
 490:../libraries/STM32_USB-FS-Device_Driver/src/usb_core.c ****   }
 491:../libraries/STM32_USB-FS-Device_Driver/src/usb_core.c **** }
 492:../libraries/STM32_USB-FS-Device_Driver/src/usb_core.c **** 
 493:../libraries/STM32_USB-FS-Device_Driver/src/usb_core.c **** /*******************************************************************************
 494:../libraries/STM32_USB-FS-Device_Driver/src/usb_core.c **** * Function Name  : DataStageIn.
 495:../libraries/STM32_USB-FS-Device_Driver/src/usb_core.c **** * Description    : Data stage of a Control Read Transfer.
 496:../libraries/STM32_USB-FS-Device_Driver/src/usb_core.c **** * Input          : None.
 497:../libraries/STM32_USB-FS-Device_Driver/src/usb_core.c **** * Output         : None.
 498:../libraries/STM32_USB-FS-Device_Driver/src/usb_core.c **** * Return         : None.
 499:../libraries/STM32_USB-FS-Device_Driver/src/usb_core.c **** *******************************************************************************/
 500:../libraries/STM32_USB-FS-Device_Driver/src/usb_core.c **** void DataStageIn(void)
 501:../libraries/STM32_USB-FS-Device_Driver/src/usb_core.c **** {
 256              		.loc 1 501 0
 257              		.cfi_startproc
 258              		@ args = 0, pretend = 0, frame = 0
 259              		@ frame_needed = 0, uses_anonymous_args = 0
 260 0000 F8B5     		push	{r3, r4, r5, r6, r7, lr}
 261              	.LCFI3:
 262              		.cfi_def_cfa_offset 24
 263              		.cfi_offset 3, -24
 264              		.cfi_offset 4, -20
 265              		.cfi_offset 5, -16
 266              		.cfi_offset 6, -12
 267              		.cfi_offset 7, -8
 268              		.cfi_offset 14, -4
 502:../libraries/STM32_USB-FS-Device_Driver/src/usb_core.c ****   ENDPOINT_INFO *pEPinfo = &pInformation->Ctrl_Info;
 269              		.loc 1 502 0
 270 0002 224B     		ldr	r3, .L37
 271 0004 1C68     		ldr	r4, [r3, #0]
 272              	.LVL16:
 503:../libraries/STM32_USB-FS-Device_Driver/src/usb_core.c ****   uint32_t save_wLength = pEPinfo->Usb_wLength;
 273              		.loc 1 503 0
 274 0006 238A     		ldrh	r3, [r4, #16]
 275              	.LVL17:
 504:../libraries/STM32_USB-FS-Device_Driver/src/usb_core.c ****   uint32_t ControlState = pInformation->ControlState;
 276              		.loc 1 504 0
 277 0008 267A     		ldrb	r6, [r4, #8]	@ zero_extendqisi2
 278              	.LVL18:
 505:../libraries/STM32_USB-FS-Device_Driver/src/usb_core.c **** 
 506:../libraries/STM32_USB-FS-Device_Driver/src/usb_core.c ****   uint8_t *DataBuffer;
 507:../libraries/STM32_USB-FS-Device_Driver/src/usb_core.c ****   uint32_t Length;
 508:../libraries/STM32_USB-FS-Device_Driver/src/usb_core.c **** 
 509:../libraries/STM32_USB-FS-Device_Driver/src/usb_core.c ****   if ((save_wLength == 0) && (ControlState == LAST_IN_DATA))
 279              		.loc 1 509 0
 280 000a ABB9     		cbnz	r3, .L32
 281              		.loc 1 509 0 is_stmt 0 discriminator 1
 282 000c 042E     		cmp	r6, #4
 283 000e 13D1     		bne	.L32
 510:../libraries/STM32_USB-FS-Device_Driver/src/usb_core.c ****   {
 511:../libraries/STM32_USB-FS-Device_Driver/src/usb_core.c ****     if(Data_Mul_MaxPacketSize == TRUE)
 284              		.loc 1 511 0 is_stmt 1
 285 0010 1F48     		ldr	r0, .L37+4
 286 0012 0178     		ldrb	r1, [r0, #0]	@ zero_extendqisi2
 287 0014 0129     		cmp	r1, #1
 288 0016 1F49     		ldr	r1, .L37+8
 289 0018 0AD1     		bne	.L33
 512:../libraries/STM32_USB-FS-Device_Driver/src/usb_core.c ****     {
 513:../libraries/STM32_USB-FS-Device_Driver/src/usb_core.c ****       /* No more data to send and empty packet */
 514:../libraries/STM32_USB-FS-Device_Driver/src/usb_core.c ****       Send0LengthData();
 290              		.loc 1 514 0
 291 001a 1F4C     		ldr	r4, .L37+12
 292              	.LVL19:
 293 001c 2268     		ldr	r2, [r4, #0]
 515:../libraries/STM32_USB-FS-Device_Driver/src/usb_core.c ****       ControlState = LAST_IN_DATA;
 516:../libraries/STM32_USB-FS-Device_Driver/src/usb_core.c ****       Data_Mul_MaxPacketSize = FALSE;
 517:../libraries/STM32_USB-FS-Device_Driver/src/usb_core.c ****     }
 518:../libraries/STM32_USB-FS-Device_Driver/src/usb_core.c ****     else 
 519:../libraries/STM32_USB-FS-Device_Driver/src/usb_core.c ****     {
 520:../libraries/STM32_USB-FS-Device_Driver/src/usb_core.c ****       /* No more data to send so STALL the TX Status*/
 521:../libraries/STM32_USB-FS-Device_Driver/src/usb_core.c ****       ControlState = WAIT_STATUS_OUT;
 522:../libraries/STM32_USB-FS-Device_Driver/src/usb_core.c ****       vSetEPTxStatus(EP_TX_STALL);
 523:../libraries/STM32_USB-FS-Device_Driver/src/usb_core.c ****  
 524:../libraries/STM32_USB-FS-Device_Driver/src/usb_core.c ****     }
 525:../libraries/STM32_USB-FS-Device_Driver/src/usb_core.c ****     
 526:../libraries/STM32_USB-FS-Device_Driver/src/usb_core.c ****     goto Expect_Status_Out;
 527:../libraries/STM32_USB-FS-Device_Driver/src/usb_core.c ****   }
 528:../libraries/STM32_USB-FS-Device_Driver/src/usb_core.c **** 
 529:../libraries/STM32_USB-FS-Device_Driver/src/usb_core.c ****   Length = pEPinfo->PacketSize;
 530:../libraries/STM32_USB-FS-Device_Driver/src/usb_core.c ****   ControlState = (save_wLength <= Length) ? LAST_IN_DATA : IN_DATA;
 531:../libraries/STM32_USB-FS-Device_Driver/src/usb_core.c **** 
 532:../libraries/STM32_USB-FS-Device_Driver/src/usb_core.c ****   if (Length > save_wLength)
 533:../libraries/STM32_USB-FS-Device_Driver/src/usb_core.c ****   {
 534:../libraries/STM32_USB-FS-Device_Driver/src/usb_core.c ****     Length = save_wLength;
 535:../libraries/STM32_USB-FS-Device_Driver/src/usb_core.c ****   }
 536:../libraries/STM32_USB-FS-Device_Driver/src/usb_core.c **** 
 537:../libraries/STM32_USB-FS-Device_Driver/src/usb_core.c ****   DataBuffer = (*pEPinfo->CopyData)(Length);
 538:../libraries/STM32_USB-FS-Device_Driver/src/usb_core.c ****   
 539:../libraries/STM32_USB-FS-Device_Driver/src/usb_core.c ****   UserToPMABufferCopy(DataBuffer, GetEPTxAddr(ENDP0), Length);
 540:../libraries/STM32_USB-FS-Device_Driver/src/usb_core.c **** 
 541:../libraries/STM32_USB-FS-Device_Driver/src/usb_core.c ****   SetEPTxCount(ENDP0, Length);
 542:../libraries/STM32_USB-FS-Device_Driver/src/usb_core.c **** 
 543:../libraries/STM32_USB-FS-Device_Driver/src/usb_core.c ****   pEPinfo->Usb_wLength -= Length;
 544:../libraries/STM32_USB-FS-Device_Driver/src/usb_core.c ****   pEPinfo->Usb_wOffset += Length;
 545:../libraries/STM32_USB-FS-Device_Driver/src/usb_core.c ****   vSetEPTxStatus(EP_TX_VALID);
 546:../libraries/STM32_USB-FS-Device_Driver/src/usb_core.c **** 
 547:../libraries/STM32_USB-FS-Device_Driver/src/usb_core.c ****   USB_StatusOut();/* Expect the host to abort the data IN stage */
 548:../libraries/STM32_USB-FS-Device_Driver/src/usb_core.c **** 
 549:../libraries/STM32_USB-FS-Device_Driver/src/usb_core.c **** Expect_Status_Out:
 550:../libraries/STM32_USB-FS-Device_Driver/src/usb_core.c ****   pInformation->ControlState = ControlState;
 551:../libraries/STM32_USB-FS-Device_Driver/src/usb_core.c **** }
 552:../libraries/STM32_USB-FS-Device_Driver/src/usb_core.c **** 
 553:../libraries/STM32_USB-FS-Device_Driver/src/usb_core.c **** /*******************************************************************************
 554:../libraries/STM32_USB-FS-Device_Driver/src/usb_core.c **** * Function Name  : NoData_Setup0.
 555:../libraries/STM32_USB-FS-Device_Driver/src/usb_core.c **** * Description    : Proceed the processing of setup request without data stage.
 556:../libraries/STM32_USB-FS-Device_Driver/src/usb_core.c **** * Input          : None.
 557:../libraries/STM32_USB-FS-Device_Driver/src/usb_core.c **** * Output         : None.
 558:../libraries/STM32_USB-FS-Device_Driver/src/usb_core.c **** * Return         : None.
 559:../libraries/STM32_USB-FS-Device_Driver/src/usb_core.c **** *******************************************************************************/
 560:../libraries/STM32_USB-FS-Device_Driver/src/usb_core.c **** void NoData_Setup0(void)
 561:../libraries/STM32_USB-FS-Device_Driver/src/usb_core.c **** {
 562:../libraries/STM32_USB-FS-Device_Driver/src/usb_core.c ****   RESULT Result = USB_UNSUPPORT;
 563:../libraries/STM32_USB-FS-Device_Driver/src/usb_core.c ****   uint32_t RequestNo = pInformation->USBbRequest;
 564:../libraries/STM32_USB-FS-Device_Driver/src/usb_core.c ****   uint32_t ControlState;
 565:../libraries/STM32_USB-FS-Device_Driver/src/usb_core.c **** 
 566:../libraries/STM32_USB-FS-Device_Driver/src/usb_core.c ****   if (Type_Recipient == (STANDARD_REQUEST | DEVICE_RECIPIENT))
 567:../libraries/STM32_USB-FS-Device_Driver/src/usb_core.c ****   {
 568:../libraries/STM32_USB-FS-Device_Driver/src/usb_core.c ****     /* Device Request*/
 569:../libraries/STM32_USB-FS-Device_Driver/src/usb_core.c ****     /* SET_CONFIGURATION*/
 570:../libraries/STM32_USB-FS-Device_Driver/src/usb_core.c ****     if (RequestNo == SET_CONFIGURATION)
 571:../libraries/STM32_USB-FS-Device_Driver/src/usb_core.c ****     {
 572:../libraries/STM32_USB-FS-Device_Driver/src/usb_core.c ****       Result = Standard_SetConfiguration();
 573:../libraries/STM32_USB-FS-Device_Driver/src/usb_core.c ****     }
 574:../libraries/STM32_USB-FS-Device_Driver/src/usb_core.c **** 
 575:../libraries/STM32_USB-FS-Device_Driver/src/usb_core.c ****     /*SET ADDRESS*/
 576:../libraries/STM32_USB-FS-Device_Driver/src/usb_core.c ****     else if (RequestNo == SET_ADDRESS)
 577:../libraries/STM32_USB-FS-Device_Driver/src/usb_core.c ****     {
 578:../libraries/STM32_USB-FS-Device_Driver/src/usb_core.c ****       if ((pInformation->USBwValue0 > 127) || (pInformation->USBwValue1 != 0)
 579:../libraries/STM32_USB-FS-Device_Driver/src/usb_core.c ****           || (pInformation->USBwIndex != 0)
 580:../libraries/STM32_USB-FS-Device_Driver/src/usb_core.c ****           || (pInformation->Current_Configuration != 0))
 581:../libraries/STM32_USB-FS-Device_Driver/src/usb_core.c ****         /* Device Address should be 127 or less*/
 582:../libraries/STM32_USB-FS-Device_Driver/src/usb_core.c ****       {
 583:../libraries/STM32_USB-FS-Device_Driver/src/usb_core.c ****         ControlState = STALLED;
 584:../libraries/STM32_USB-FS-Device_Driver/src/usb_core.c ****         goto exit_NoData_Setup0;
 585:../libraries/STM32_USB-FS-Device_Driver/src/usb_core.c ****       }
 586:../libraries/STM32_USB-FS-Device_Driver/src/usb_core.c ****       else
 587:../libraries/STM32_USB-FS-Device_Driver/src/usb_core.c ****       {
 588:../libraries/STM32_USB-FS-Device_Driver/src/usb_core.c ****         Result = USB_SUCCESS;
 589:../libraries/STM32_USB-FS-Device_Driver/src/usb_core.c ****       }
 590:../libraries/STM32_USB-FS-Device_Driver/src/usb_core.c ****     }
 591:../libraries/STM32_USB-FS-Device_Driver/src/usb_core.c ****     /*SET FEATURE for Device*/
 592:../libraries/STM32_USB-FS-Device_Driver/src/usb_core.c ****     else if (RequestNo == SET_FEATURE)
 593:../libraries/STM32_USB-FS-Device_Driver/src/usb_core.c ****     {
 594:../libraries/STM32_USB-FS-Device_Driver/src/usb_core.c ****       if ((pInformation->USBwValue0 == DEVICE_REMOTE_WAKEUP) \
 595:../libraries/STM32_USB-FS-Device_Driver/src/usb_core.c ****           && (pInformation->USBwIndex == 0))
 596:../libraries/STM32_USB-FS-Device_Driver/src/usb_core.c ****       {
 597:../libraries/STM32_USB-FS-Device_Driver/src/usb_core.c ****         Result = Standard_SetDeviceFeature();
 598:../libraries/STM32_USB-FS-Device_Driver/src/usb_core.c ****       }
 599:../libraries/STM32_USB-FS-Device_Driver/src/usb_core.c ****       else
 600:../libraries/STM32_USB-FS-Device_Driver/src/usb_core.c ****       {
 601:../libraries/STM32_USB-FS-Device_Driver/src/usb_core.c ****         Result = USB_UNSUPPORT;
 602:../libraries/STM32_USB-FS-Device_Driver/src/usb_core.c ****       }
 603:../libraries/STM32_USB-FS-Device_Driver/src/usb_core.c ****     }
 604:../libraries/STM32_USB-FS-Device_Driver/src/usb_core.c ****     /*Clear FEATURE for Device */
 605:../libraries/STM32_USB-FS-Device_Driver/src/usb_core.c ****     else if (RequestNo == CLEAR_FEATURE)
 606:../libraries/STM32_USB-FS-Device_Driver/src/usb_core.c ****     {
 607:../libraries/STM32_USB-FS-Device_Driver/src/usb_core.c ****       if (pInformation->USBwValue0 == DEVICE_REMOTE_WAKEUP
 608:../libraries/STM32_USB-FS-Device_Driver/src/usb_core.c ****           && pInformation->USBwIndex == 0
 609:../libraries/STM32_USB-FS-Device_Driver/src/usb_core.c ****           && ValBit(pInformation->Current_Feature, 5))
 610:../libraries/STM32_USB-FS-Device_Driver/src/usb_core.c ****       {
 611:../libraries/STM32_USB-FS-Device_Driver/src/usb_core.c ****         Result = Standard_ClearFeature();
 612:../libraries/STM32_USB-FS-Device_Driver/src/usb_core.c ****       }
 613:../libraries/STM32_USB-FS-Device_Driver/src/usb_core.c ****       else
 614:../libraries/STM32_USB-FS-Device_Driver/src/usb_core.c ****       {
 615:../libraries/STM32_USB-FS-Device_Driver/src/usb_core.c ****         Result = USB_UNSUPPORT;
 616:../libraries/STM32_USB-FS-Device_Driver/src/usb_core.c ****       }
 617:../libraries/STM32_USB-FS-Device_Driver/src/usb_core.c ****     }
 618:../libraries/STM32_USB-FS-Device_Driver/src/usb_core.c **** 
 619:../libraries/STM32_USB-FS-Device_Driver/src/usb_core.c ****   }
 620:../libraries/STM32_USB-FS-Device_Driver/src/usb_core.c **** 
 621:../libraries/STM32_USB-FS-Device_Driver/src/usb_core.c ****   /* Interface Request*/
 622:../libraries/STM32_USB-FS-Device_Driver/src/usb_core.c ****   else if (Type_Recipient == (STANDARD_REQUEST | INTERFACE_RECIPIENT))
 623:../libraries/STM32_USB-FS-Device_Driver/src/usb_core.c ****   {
 624:../libraries/STM32_USB-FS-Device_Driver/src/usb_core.c ****     /*SET INTERFACE*/
 625:../libraries/STM32_USB-FS-Device_Driver/src/usb_core.c ****     if (RequestNo == SET_INTERFACE)
 626:../libraries/STM32_USB-FS-Device_Driver/src/usb_core.c ****     {
 627:../libraries/STM32_USB-FS-Device_Driver/src/usb_core.c ****       Result = Standard_SetInterface();
 628:../libraries/STM32_USB-FS-Device_Driver/src/usb_core.c ****     }
 629:../libraries/STM32_USB-FS-Device_Driver/src/usb_core.c ****   }
 630:../libraries/STM32_USB-FS-Device_Driver/src/usb_core.c **** 
 631:../libraries/STM32_USB-FS-Device_Driver/src/usb_core.c ****   /* EndPoint Request*/
 632:../libraries/STM32_USB-FS-Device_Driver/src/usb_core.c ****   else if (Type_Recipient == (STANDARD_REQUEST | ENDPOINT_RECIPIENT))
 633:../libraries/STM32_USB-FS-Device_Driver/src/usb_core.c ****   {
 634:../libraries/STM32_USB-FS-Device_Driver/src/usb_core.c ****     /*CLEAR FEATURE for EndPoint*/
 635:../libraries/STM32_USB-FS-Device_Driver/src/usb_core.c ****     if (RequestNo == CLEAR_FEATURE)
 636:../libraries/STM32_USB-FS-Device_Driver/src/usb_core.c ****     {
 637:../libraries/STM32_USB-FS-Device_Driver/src/usb_core.c ****       Result = Standard_ClearFeature();
 638:../libraries/STM32_USB-FS-Device_Driver/src/usb_core.c ****     }
 639:../libraries/STM32_USB-FS-Device_Driver/src/usb_core.c ****     /* SET FEATURE for EndPoint*/
 640:../libraries/STM32_USB-FS-Device_Driver/src/usb_core.c ****     else if (RequestNo == SET_FEATURE)
 641:../libraries/STM32_USB-FS-Device_Driver/src/usb_core.c ****     {
 642:../libraries/STM32_USB-FS-Device_Driver/src/usb_core.c ****       Result = Standard_SetEndPointFeature();
 643:../libraries/STM32_USB-FS-Device_Driver/src/usb_core.c ****     }
 644:../libraries/STM32_USB-FS-Device_Driver/src/usb_core.c ****   }
 645:../libraries/STM32_USB-FS-Device_Driver/src/usb_core.c ****   else
 646:../libraries/STM32_USB-FS-Device_Driver/src/usb_core.c ****   {
 647:../libraries/STM32_USB-FS-Device_Driver/src/usb_core.c ****     Result = USB_UNSUPPORT;
 648:../libraries/STM32_USB-FS-Device_Driver/src/usb_core.c ****   }
 649:../libraries/STM32_USB-FS-Device_Driver/src/usb_core.c **** 
 650:../libraries/STM32_USB-FS-Device_Driver/src/usb_core.c **** 
 651:../libraries/STM32_USB-FS-Device_Driver/src/usb_core.c ****   if (Result != USB_SUCCESS)
 652:../libraries/STM32_USB-FS-Device_Driver/src/usb_core.c ****   {
 653:../libraries/STM32_USB-FS-Device_Driver/src/usb_core.c ****     Result = (*pProperty->Class_NoData_Setup)(RequestNo);
 654:../libraries/STM32_USB-FS-Device_Driver/src/usb_core.c ****     if (Result == USB_NOT_READY)
 655:../libraries/STM32_USB-FS-Device_Driver/src/usb_core.c ****     {
 656:../libraries/STM32_USB-FS-Device_Driver/src/usb_core.c ****       ControlState = PAUSE;
 657:../libraries/STM32_USB-FS-Device_Driver/src/usb_core.c ****       goto exit_NoData_Setup0;
 658:../libraries/STM32_USB-FS-Device_Driver/src/usb_core.c ****     }
 659:../libraries/STM32_USB-FS-Device_Driver/src/usb_core.c ****   }
 660:../libraries/STM32_USB-FS-Device_Driver/src/usb_core.c **** 
 661:../libraries/STM32_USB-FS-Device_Driver/src/usb_core.c ****   if (Result != USB_SUCCESS)
 662:../libraries/STM32_USB-FS-Device_Driver/src/usb_core.c ****   {
 663:../libraries/STM32_USB-FS-Device_Driver/src/usb_core.c ****     ControlState = STALLED;
 664:../libraries/STM32_USB-FS-Device_Driver/src/usb_core.c ****     goto exit_NoData_Setup0;
 665:../libraries/STM32_USB-FS-Device_Driver/src/usb_core.c ****   }
 666:../libraries/STM32_USB-FS-Device_Driver/src/usb_core.c **** 
 667:../libraries/STM32_USB-FS-Device_Driver/src/usb_core.c ****   ControlState = WAIT_STATUS_IN;/* After no data stage SETUP */
 668:../libraries/STM32_USB-FS-Device_Driver/src/usb_core.c **** 
 669:../libraries/STM32_USB-FS-Device_Driver/src/usb_core.c ****   USB_StatusIn();
 670:../libraries/STM32_USB-FS-Device_Driver/src/usb_core.c **** 
 671:../libraries/STM32_USB-FS-Device_Driver/src/usb_core.c **** exit_NoData_Setup0:
 672:../libraries/STM32_USB-FS-Device_Driver/src/usb_core.c ****   pInformation->ControlState = ControlState;
 673:../libraries/STM32_USB-FS-Device_Driver/src/usb_core.c ****   return;
 674:../libraries/STM32_USB-FS-Device_Driver/src/usb_core.c **** }
 675:../libraries/STM32_USB-FS-Device_Driver/src/usb_core.c **** 
 676:../libraries/STM32_USB-FS-Device_Driver/src/usb_core.c **** /*******************************************************************************
 677:../libraries/STM32_USB-FS-Device_Driver/src/usb_core.c **** * Function Name  : Data_Setup0.
 678:../libraries/STM32_USB-FS-Device_Driver/src/usb_core.c **** * Description    : Proceed the processing of setup request with data stage.
 679:../libraries/STM32_USB-FS-Device_Driver/src/usb_core.c **** * Input          : None.
 680:../libraries/STM32_USB-FS-Device_Driver/src/usb_core.c **** * Output         : None.
 681:../libraries/STM32_USB-FS-Device_Driver/src/usb_core.c **** * Return         : None.
 682:../libraries/STM32_USB-FS-Device_Driver/src/usb_core.c **** *******************************************************************************/
 683:../libraries/STM32_USB-FS-Device_Driver/src/usb_core.c **** void Data_Setup0(void)
 684:../libraries/STM32_USB-FS-Device_Driver/src/usb_core.c **** {
 685:../libraries/STM32_USB-FS-Device_Driver/src/usb_core.c ****   uint8_t *(*CopyRoutine)(uint16_t);
 686:../libraries/STM32_USB-FS-Device_Driver/src/usb_core.c ****   RESULT Result;
 687:../libraries/STM32_USB-FS-Device_Driver/src/usb_core.c ****   uint32_t Request_No = pInformation->USBbRequest;
 688:../libraries/STM32_USB-FS-Device_Driver/src/usb_core.c **** 
 689:../libraries/STM32_USB-FS-Device_Driver/src/usb_core.c ****   uint32_t Related_Endpoint, Reserved;
 690:../libraries/STM32_USB-FS-Device_Driver/src/usb_core.c ****   uint32_t wOffset, Status;
 691:../libraries/STM32_USB-FS-Device_Driver/src/usb_core.c **** 
 692:../libraries/STM32_USB-FS-Device_Driver/src/usb_core.c **** 
 693:../libraries/STM32_USB-FS-Device_Driver/src/usb_core.c **** 
 694:../libraries/STM32_USB-FS-Device_Driver/src/usb_core.c ****   CopyRoutine = NULL;
 695:../libraries/STM32_USB-FS-Device_Driver/src/usb_core.c ****   wOffset = 0;
 696:../libraries/STM32_USB-FS-Device_Driver/src/usb_core.c **** 
 697:../libraries/STM32_USB-FS-Device_Driver/src/usb_core.c ****   /*GET DESCRIPTOR*/
 698:../libraries/STM32_USB-FS-Device_Driver/src/usb_core.c ****   if (Request_No == GET_DESCRIPTOR)
 699:../libraries/STM32_USB-FS-Device_Driver/src/usb_core.c ****   {
 700:../libraries/STM32_USB-FS-Device_Driver/src/usb_core.c ****     if (Type_Recipient == (STANDARD_REQUEST | DEVICE_RECIPIENT))
 701:../libraries/STM32_USB-FS-Device_Driver/src/usb_core.c ****     {
 702:../libraries/STM32_USB-FS-Device_Driver/src/usb_core.c ****       uint8_t wValue1 = pInformation->USBwValue1;
 703:../libraries/STM32_USB-FS-Device_Driver/src/usb_core.c ****       if (wValue1 == DEVICE_DESCRIPTOR)
 704:../libraries/STM32_USB-FS-Device_Driver/src/usb_core.c ****       {
 705:../libraries/STM32_USB-FS-Device_Driver/src/usb_core.c ****         CopyRoutine = pProperty->GetDeviceDescriptor;
 706:../libraries/STM32_USB-FS-Device_Driver/src/usb_core.c ****       }
 707:../libraries/STM32_USB-FS-Device_Driver/src/usb_core.c ****       else if (wValue1 == CONFIG_DESCRIPTOR)
 708:../libraries/STM32_USB-FS-Device_Driver/src/usb_core.c ****       {
 709:../libraries/STM32_USB-FS-Device_Driver/src/usb_core.c ****         CopyRoutine = pProperty->GetConfigDescriptor;
 710:../libraries/STM32_USB-FS-Device_Driver/src/usb_core.c ****       }
 711:../libraries/STM32_USB-FS-Device_Driver/src/usb_core.c ****       else if (wValue1 == STRING_DESCRIPTOR)
 712:../libraries/STM32_USB-FS-Device_Driver/src/usb_core.c ****       {
 713:../libraries/STM32_USB-FS-Device_Driver/src/usb_core.c ****         CopyRoutine = pProperty->GetStringDescriptor;
 714:../libraries/STM32_USB-FS-Device_Driver/src/usb_core.c ****       }  /* End of GET_DESCRIPTOR */
 715:../libraries/STM32_USB-FS-Device_Driver/src/usb_core.c ****     }
 716:../libraries/STM32_USB-FS-Device_Driver/src/usb_core.c ****   }
 717:../libraries/STM32_USB-FS-Device_Driver/src/usb_core.c **** 
 718:../libraries/STM32_USB-FS-Device_Driver/src/usb_core.c ****   /*GET STATUS*/
 719:../libraries/STM32_USB-FS-Device_Driver/src/usb_core.c ****   else if ((Request_No == GET_STATUS) && (pInformation->USBwValue == 0)
 720:../libraries/STM32_USB-FS-Device_Driver/src/usb_core.c ****            && (pInformation->USBwLength == 0x0002)
 721:../libraries/STM32_USB-FS-Device_Driver/src/usb_core.c ****            && (pInformation->USBwIndex1 == 0))
 722:../libraries/STM32_USB-FS-Device_Driver/src/usb_core.c ****   {
 723:../libraries/STM32_USB-FS-Device_Driver/src/usb_core.c ****     /* GET STATUS for Device*/
 724:../libraries/STM32_USB-FS-Device_Driver/src/usb_core.c ****     if ((Type_Recipient == (STANDARD_REQUEST | DEVICE_RECIPIENT))
 725:../libraries/STM32_USB-FS-Device_Driver/src/usb_core.c ****         && (pInformation->USBwIndex == 0))
 726:../libraries/STM32_USB-FS-Device_Driver/src/usb_core.c ****     {
 727:../libraries/STM32_USB-FS-Device_Driver/src/usb_core.c ****       CopyRoutine = Standard_GetStatus;
 728:../libraries/STM32_USB-FS-Device_Driver/src/usb_core.c ****     }
 729:../libraries/STM32_USB-FS-Device_Driver/src/usb_core.c **** 
 730:../libraries/STM32_USB-FS-Device_Driver/src/usb_core.c ****     /* GET STATUS for Interface*/
 731:../libraries/STM32_USB-FS-Device_Driver/src/usb_core.c ****     else if (Type_Recipient == (STANDARD_REQUEST | INTERFACE_RECIPIENT))
 732:../libraries/STM32_USB-FS-Device_Driver/src/usb_core.c ****     {
 733:../libraries/STM32_USB-FS-Device_Driver/src/usb_core.c ****       if (((*pProperty->Class_Get_Interface_Setting)(pInformation->USBwIndex0, 0) == USB_SUCCESS)
 734:../libraries/STM32_USB-FS-Device_Driver/src/usb_core.c ****           && (pInformation->Current_Configuration != 0))
 735:../libraries/STM32_USB-FS-Device_Driver/src/usb_core.c ****       {
 736:../libraries/STM32_USB-FS-Device_Driver/src/usb_core.c ****         CopyRoutine = Standard_GetStatus;
 737:../libraries/STM32_USB-FS-Device_Driver/src/usb_core.c ****       }
 738:../libraries/STM32_USB-FS-Device_Driver/src/usb_core.c ****     }
 739:../libraries/STM32_USB-FS-Device_Driver/src/usb_core.c **** 
 740:../libraries/STM32_USB-FS-Device_Driver/src/usb_core.c ****     /* GET STATUS for EndPoint*/
 741:../libraries/STM32_USB-FS-Device_Driver/src/usb_core.c ****     else if (Type_Recipient == (STANDARD_REQUEST | ENDPOINT_RECIPIENT))
 742:../libraries/STM32_USB-FS-Device_Driver/src/usb_core.c ****     {
 743:../libraries/STM32_USB-FS-Device_Driver/src/usb_core.c ****       Related_Endpoint = (pInformation->USBwIndex0 & 0x0f);
 744:../libraries/STM32_USB-FS-Device_Driver/src/usb_core.c ****       Reserved = pInformation->USBwIndex0 & 0x70;
 745:../libraries/STM32_USB-FS-Device_Driver/src/usb_core.c **** 
 746:../libraries/STM32_USB-FS-Device_Driver/src/usb_core.c ****       if (ValBit(pInformation->USBwIndex0, 7))
 747:../libraries/STM32_USB-FS-Device_Driver/src/usb_core.c ****       {
 748:../libraries/STM32_USB-FS-Device_Driver/src/usb_core.c ****         /*Get Status of endpoint & stall the request if the related_ENdpoint
 749:../libraries/STM32_USB-FS-Device_Driver/src/usb_core.c ****         is Disabled*/
 750:../libraries/STM32_USB-FS-Device_Driver/src/usb_core.c ****         Status = _GetEPTxStatus(Related_Endpoint);
 751:../libraries/STM32_USB-FS-Device_Driver/src/usb_core.c ****       }
 752:../libraries/STM32_USB-FS-Device_Driver/src/usb_core.c ****       else
 753:../libraries/STM32_USB-FS-Device_Driver/src/usb_core.c ****       {
 754:../libraries/STM32_USB-FS-Device_Driver/src/usb_core.c ****         Status = _GetEPRxStatus(Related_Endpoint);
 755:../libraries/STM32_USB-FS-Device_Driver/src/usb_core.c ****       }
 756:../libraries/STM32_USB-FS-Device_Driver/src/usb_core.c **** 
 757:../libraries/STM32_USB-FS-Device_Driver/src/usb_core.c ****       if ((Related_Endpoint < Device_Table.Total_Endpoint) && (Reserved == 0)
 758:../libraries/STM32_USB-FS-Device_Driver/src/usb_core.c ****           && (Status != 0))
 759:../libraries/STM32_USB-FS-Device_Driver/src/usb_core.c ****       {
 760:../libraries/STM32_USB-FS-Device_Driver/src/usb_core.c ****         CopyRoutine = Standard_GetStatus;
 761:../libraries/STM32_USB-FS-Device_Driver/src/usb_core.c ****       }
 762:../libraries/STM32_USB-FS-Device_Driver/src/usb_core.c ****     }
 763:../libraries/STM32_USB-FS-Device_Driver/src/usb_core.c **** 
 764:../libraries/STM32_USB-FS-Device_Driver/src/usb_core.c ****   }
 765:../libraries/STM32_USB-FS-Device_Driver/src/usb_core.c **** 
 766:../libraries/STM32_USB-FS-Device_Driver/src/usb_core.c ****   /*GET CONFIGURATION*/
 767:../libraries/STM32_USB-FS-Device_Driver/src/usb_core.c ****   else if (Request_No == GET_CONFIGURATION)
 768:../libraries/STM32_USB-FS-Device_Driver/src/usb_core.c ****   {
 769:../libraries/STM32_USB-FS-Device_Driver/src/usb_core.c ****     if (Type_Recipient == (STANDARD_REQUEST | DEVICE_RECIPIENT))
 770:../libraries/STM32_USB-FS-Device_Driver/src/usb_core.c ****     {
 771:../libraries/STM32_USB-FS-Device_Driver/src/usb_core.c ****       CopyRoutine = Standard_GetConfiguration;
 772:../libraries/STM32_USB-FS-Device_Driver/src/usb_core.c ****     }
 773:../libraries/STM32_USB-FS-Device_Driver/src/usb_core.c ****   }
 774:../libraries/STM32_USB-FS-Device_Driver/src/usb_core.c ****   /*GET INTERFACE*/
 775:../libraries/STM32_USB-FS-Device_Driver/src/usb_core.c ****   else if (Request_No == GET_INTERFACE)
 776:../libraries/STM32_USB-FS-Device_Driver/src/usb_core.c ****   {
 777:../libraries/STM32_USB-FS-Device_Driver/src/usb_core.c ****     if ((Type_Recipient == (STANDARD_REQUEST | INTERFACE_RECIPIENT))
 778:../libraries/STM32_USB-FS-Device_Driver/src/usb_core.c ****         && (pInformation->Current_Configuration != 0) && (pInformation->USBwValue == 0)
 779:../libraries/STM32_USB-FS-Device_Driver/src/usb_core.c ****         && (pInformation->USBwIndex1 == 0) && (pInformation->USBwLength == 0x0001)
 780:../libraries/STM32_USB-FS-Device_Driver/src/usb_core.c ****         && ((*pProperty->Class_Get_Interface_Setting)(pInformation->USBwIndex0, 0) == USB_SUCCESS))
 781:../libraries/STM32_USB-FS-Device_Driver/src/usb_core.c ****     {
 782:../libraries/STM32_USB-FS-Device_Driver/src/usb_core.c ****       CopyRoutine = Standard_GetInterface;
 783:../libraries/STM32_USB-FS-Device_Driver/src/usb_core.c ****     }
 784:../libraries/STM32_USB-FS-Device_Driver/src/usb_core.c **** 
 785:../libraries/STM32_USB-FS-Device_Driver/src/usb_core.c ****   }
 786:../libraries/STM32_USB-FS-Device_Driver/src/usb_core.c ****   
 787:../libraries/STM32_USB-FS-Device_Driver/src/usb_core.c ****   if (CopyRoutine)
 788:../libraries/STM32_USB-FS-Device_Driver/src/usb_core.c ****   {
 789:../libraries/STM32_USB-FS-Device_Driver/src/usb_core.c ****     pInformation->Ctrl_Info.Usb_wOffset = wOffset;
 790:../libraries/STM32_USB-FS-Device_Driver/src/usb_core.c ****     pInformation->Ctrl_Info.CopyData = CopyRoutine;
 791:../libraries/STM32_USB-FS-Device_Driver/src/usb_core.c ****     /* sb in the original the cast to word was directly */
 792:../libraries/STM32_USB-FS-Device_Driver/src/usb_core.c ****     /* now the cast is made step by step */
 793:../libraries/STM32_USB-FS-Device_Driver/src/usb_core.c ****     (*CopyRoutine)(0);
 794:../libraries/STM32_USB-FS-Device_Driver/src/usb_core.c ****     Result = USB_SUCCESS;
 795:../libraries/STM32_USB-FS-Device_Driver/src/usb_core.c ****   }
 796:../libraries/STM32_USB-FS-Device_Driver/src/usb_core.c ****   else
 797:../libraries/STM32_USB-FS-Device_Driver/src/usb_core.c ****   {
 798:../libraries/STM32_USB-FS-Device_Driver/src/usb_core.c ****     Result = (*pProperty->Class_Data_Setup)(pInformation->USBbRequest);
 799:../libraries/STM32_USB-FS-Device_Driver/src/usb_core.c ****     if (Result == USB_NOT_READY)
 800:../libraries/STM32_USB-FS-Device_Driver/src/usb_core.c ****     {
 801:../libraries/STM32_USB-FS-Device_Driver/src/usb_core.c ****       pInformation->ControlState = PAUSE;
 802:../libraries/STM32_USB-FS-Device_Driver/src/usb_core.c ****       return;
 803:../libraries/STM32_USB-FS-Device_Driver/src/usb_core.c ****     }
 804:../libraries/STM32_USB-FS-Device_Driver/src/usb_core.c ****   }
 805:../libraries/STM32_USB-FS-Device_Driver/src/usb_core.c **** 
 806:../libraries/STM32_USB-FS-Device_Driver/src/usb_core.c ****   if (pInformation->Ctrl_Info.Usb_wLength == 0xFFFF)
 807:../libraries/STM32_USB-FS-Device_Driver/src/usb_core.c ****   {
 808:../libraries/STM32_USB-FS-Device_Driver/src/usb_core.c ****     /* Data is not ready, wait it */
 809:../libraries/STM32_USB-FS-Device_Driver/src/usb_core.c ****     pInformation->ControlState = PAUSE;
 810:../libraries/STM32_USB-FS-Device_Driver/src/usb_core.c ****     return;
 811:../libraries/STM32_USB-FS-Device_Driver/src/usb_core.c ****   }
 812:../libraries/STM32_USB-FS-Device_Driver/src/usb_core.c ****   if ((Result == USB_UNSUPPORT) || (pInformation->Ctrl_Info.Usb_wLength == 0))
 813:../libraries/STM32_USB-FS-Device_Driver/src/usb_core.c ****   {
 814:../libraries/STM32_USB-FS-Device_Driver/src/usb_core.c ****     /* Unsupported request */
 815:../libraries/STM32_USB-FS-Device_Driver/src/usb_core.c ****     pInformation->ControlState = STALLED;
 816:../libraries/STM32_USB-FS-Device_Driver/src/usb_core.c ****     return;
 817:../libraries/STM32_USB-FS-Device_Driver/src/usb_core.c ****   }
 818:../libraries/STM32_USB-FS-Device_Driver/src/usb_core.c **** 
 819:../libraries/STM32_USB-FS-Device_Driver/src/usb_core.c **** 
 820:../libraries/STM32_USB-FS-Device_Driver/src/usb_core.c ****   if (ValBit(pInformation->USBbmRequestType, 7))
 821:../libraries/STM32_USB-FS-Device_Driver/src/usb_core.c ****   {
 822:../libraries/STM32_USB-FS-Device_Driver/src/usb_core.c ****     /* Device ==> Host */
 823:../libraries/STM32_USB-FS-Device_Driver/src/usb_core.c ****     __IO uint32_t wLength = pInformation->USBwLength;
 824:../libraries/STM32_USB-FS-Device_Driver/src/usb_core.c ****      
 825:../libraries/STM32_USB-FS-Device_Driver/src/usb_core.c ****     /* Restrict the data length to be the one host asks for */
 826:../libraries/STM32_USB-FS-Device_Driver/src/usb_core.c ****     if (pInformation->Ctrl_Info.Usb_wLength > wLength)
 827:../libraries/STM32_USB-FS-Device_Driver/src/usb_core.c ****     {
 828:../libraries/STM32_USB-FS-Device_Driver/src/usb_core.c ****       pInformation->Ctrl_Info.Usb_wLength = wLength;
 829:../libraries/STM32_USB-FS-Device_Driver/src/usb_core.c ****     }
 830:../libraries/STM32_USB-FS-Device_Driver/src/usb_core.c ****     
 831:../libraries/STM32_USB-FS-Device_Driver/src/usb_core.c ****     else if (pInformation->Ctrl_Info.Usb_wLength < pInformation->USBwLength)
 832:../libraries/STM32_USB-FS-Device_Driver/src/usb_core.c ****     {
 833:../libraries/STM32_USB-FS-Device_Driver/src/usb_core.c ****       if (pInformation->Ctrl_Info.Usb_wLength < pProperty->MaxPacketSize)
 834:../libraries/STM32_USB-FS-Device_Driver/src/usb_core.c ****       {
 835:../libraries/STM32_USB-FS-Device_Driver/src/usb_core.c ****         Data_Mul_MaxPacketSize = FALSE;
 836:../libraries/STM32_USB-FS-Device_Driver/src/usb_core.c ****       }
 837:../libraries/STM32_USB-FS-Device_Driver/src/usb_core.c ****       else if ((pInformation->Ctrl_Info.Usb_wLength % pProperty->MaxPacketSize) == 0)
 838:../libraries/STM32_USB-FS-Device_Driver/src/usb_core.c ****       {
 839:../libraries/STM32_USB-FS-Device_Driver/src/usb_core.c ****         Data_Mul_MaxPacketSize = TRUE;
 840:../libraries/STM32_USB-FS-Device_Driver/src/usb_core.c ****       }
 841:../libraries/STM32_USB-FS-Device_Driver/src/usb_core.c ****     }   
 842:../libraries/STM32_USB-FS-Device_Driver/src/usb_core.c **** 
 843:../libraries/STM32_USB-FS-Device_Driver/src/usb_core.c ****     pInformation->Ctrl_Info.PacketSize = pProperty->MaxPacketSize;
 844:../libraries/STM32_USB-FS-Device_Driver/src/usb_core.c ****     DataStageIn();
 845:../libraries/STM32_USB-FS-Device_Driver/src/usb_core.c ****   }
 846:../libraries/STM32_USB-FS-Device_Driver/src/usb_core.c ****   else
 847:../libraries/STM32_USB-FS-Device_Driver/src/usb_core.c ****   {
 848:../libraries/STM32_USB-FS-Device_Driver/src/usb_core.c ****     pInformation->ControlState = OUT_DATA;
 849:../libraries/STM32_USB-FS-Device_Driver/src/usb_core.c ****     vSetEPRxStatus(EP_RX_VALID); /* enable for next data reception */
 850:../libraries/STM32_USB-FS-Device_Driver/src/usb_core.c ****   }
 851:../libraries/STM32_USB-FS-Device_Driver/src/usb_core.c **** 
 852:../libraries/STM32_USB-FS-Device_Driver/src/usb_core.c ****   return;
 853:../libraries/STM32_USB-FS-Device_Driver/src/usb_core.c **** }
 854:../libraries/STM32_USB-FS-Device_Driver/src/usb_core.c **** 
 855:../libraries/STM32_USB-FS-Device_Driver/src/usb_core.c **** /*******************************************************************************
 856:../libraries/STM32_USB-FS-Device_Driver/src/usb_core.c **** * Function Name  : Setup0_Process
 857:../libraries/STM32_USB-FS-Device_Driver/src/usb_core.c **** * Description    : Get the device request data and dispatch to individual process.
 858:../libraries/STM32_USB-FS-Device_Driver/src/usb_core.c **** * Input          : None.
 859:../libraries/STM32_USB-FS-Device_Driver/src/usb_core.c **** * Output         : None.
 860:../libraries/STM32_USB-FS-Device_Driver/src/usb_core.c **** * Return         : Post0_Process.
 861:../libraries/STM32_USB-FS-Device_Driver/src/usb_core.c **** *******************************************************************************/
 862:../libraries/STM32_USB-FS-Device_Driver/src/usb_core.c **** uint8_t Setup0_Process(void)
 863:../libraries/STM32_USB-FS-Device_Driver/src/usb_core.c **** {
 864:../libraries/STM32_USB-FS-Device_Driver/src/usb_core.c **** 
 865:../libraries/STM32_USB-FS-Device_Driver/src/usb_core.c ****   union
 866:../libraries/STM32_USB-FS-Device_Driver/src/usb_core.c ****   {
 867:../libraries/STM32_USB-FS-Device_Driver/src/usb_core.c ****     uint8_t* b;
 868:../libraries/STM32_USB-FS-Device_Driver/src/usb_core.c ****     uint16_t* w;
 869:../libraries/STM32_USB-FS-Device_Driver/src/usb_core.c ****   } pBuf;
 870:../libraries/STM32_USB-FS-Device_Driver/src/usb_core.c ****   uint16_t offset = 1;
 871:../libraries/STM32_USB-FS-Device_Driver/src/usb_core.c ****   
 872:../libraries/STM32_USB-FS-Device_Driver/src/usb_core.c ****   pBuf.b = PMAAddr + (uint8_t *)(_GetEPRxAddr(ENDP0) * 2); /* *2 for 32 bits addr */
 873:../libraries/STM32_USB-FS-Device_Driver/src/usb_core.c **** 
 874:../libraries/STM32_USB-FS-Device_Driver/src/usb_core.c ****   if (pInformation->ControlState != PAUSE)
 875:../libraries/STM32_USB-FS-Device_Driver/src/usb_core.c ****   {
 876:../libraries/STM32_USB-FS-Device_Driver/src/usb_core.c ****     pInformation->USBbmRequestType = *pBuf.b++; /* bmRequestType */
 877:../libraries/STM32_USB-FS-Device_Driver/src/usb_core.c ****     pInformation->USBbRequest = *pBuf.b++; /* bRequest */
 878:../libraries/STM32_USB-FS-Device_Driver/src/usb_core.c ****     pBuf.w += offset;  /* word not accessed because of 32 bits addressing */
 879:../libraries/STM32_USB-FS-Device_Driver/src/usb_core.c ****     pInformation->USBwValue = ByteSwap(*pBuf.w++); /* wValue */
 880:../libraries/STM32_USB-FS-Device_Driver/src/usb_core.c ****     pBuf.w += offset;  /* word not accessed because of 32 bits addressing */
 881:../libraries/STM32_USB-FS-Device_Driver/src/usb_core.c ****     pInformation->USBwIndex  = ByteSwap(*pBuf.w++); /* wIndex */
 882:../libraries/STM32_USB-FS-Device_Driver/src/usb_core.c ****     pBuf.w += offset;  /* word not accessed because of 32 bits addressing */
 883:../libraries/STM32_USB-FS-Device_Driver/src/usb_core.c ****     pInformation->USBwLength = *pBuf.w; /* wLength */
 884:../libraries/STM32_USB-FS-Device_Driver/src/usb_core.c ****   }
 885:../libraries/STM32_USB-FS-Device_Driver/src/usb_core.c **** 
 886:../libraries/STM32_USB-FS-Device_Driver/src/usb_core.c ****   pInformation->ControlState = SETTING_UP;
 887:../libraries/STM32_USB-FS-Device_Driver/src/usb_core.c ****   if (pInformation->USBwLength == 0)
 888:../libraries/STM32_USB-FS-Device_Driver/src/usb_core.c ****   {
 889:../libraries/STM32_USB-FS-Device_Driver/src/usb_core.c ****     /* Setup with no data stage */
 890:../libraries/STM32_USB-FS-Device_Driver/src/usb_core.c ****     NoData_Setup0();
 891:../libraries/STM32_USB-FS-Device_Driver/src/usb_core.c ****   }
 892:../libraries/STM32_USB-FS-Device_Driver/src/usb_core.c ****   else
 893:../libraries/STM32_USB-FS-Device_Driver/src/usb_core.c ****   {
 894:../libraries/STM32_USB-FS-Device_Driver/src/usb_core.c ****     /* Setup with data stage */
 895:../libraries/STM32_USB-FS-Device_Driver/src/usb_core.c ****     Data_Setup0();
 896:../libraries/STM32_USB-FS-Device_Driver/src/usb_core.c ****   }
 897:../libraries/STM32_USB-FS-Device_Driver/src/usb_core.c ****   return Post0_Process();
 898:../libraries/STM32_USB-FS-Device_Driver/src/usb_core.c **** }
 899:../libraries/STM32_USB-FS-Device_Driver/src/usb_core.c **** 
 900:../libraries/STM32_USB-FS-Device_Driver/src/usb_core.c **** /*******************************************************************************
 901:../libraries/STM32_USB-FS-Device_Driver/src/usb_core.c **** * Function Name  : In0_Process
 902:../libraries/STM32_USB-FS-Device_Driver/src/usb_core.c **** * Description    : Process the IN token on all default endpoint.
 903:../libraries/STM32_USB-FS-Device_Driver/src/usb_core.c **** * Input          : None.
 904:../libraries/STM32_USB-FS-Device_Driver/src/usb_core.c **** * Output         : None.
 905:../libraries/STM32_USB-FS-Device_Driver/src/usb_core.c **** * Return         : Post0_Process.
 906:../libraries/STM32_USB-FS-Device_Driver/src/usb_core.c **** *******************************************************************************/
 907:../libraries/STM32_USB-FS-Device_Driver/src/usb_core.c **** uint8_t In0_Process(void)
 908:../libraries/STM32_USB-FS-Device_Driver/src/usb_core.c **** {
 909:../libraries/STM32_USB-FS-Device_Driver/src/usb_core.c ****   uint32_t ControlState = pInformation->ControlState;
 910:../libraries/STM32_USB-FS-Device_Driver/src/usb_core.c **** 
 911:../libraries/STM32_USB-FS-Device_Driver/src/usb_core.c ****   if ((ControlState == IN_DATA) || (ControlState == LAST_IN_DATA))
 912:../libraries/STM32_USB-FS-Device_Driver/src/usb_core.c ****   {
 913:../libraries/STM32_USB-FS-Device_Driver/src/usb_core.c ****     DataStageIn();
 914:../libraries/STM32_USB-FS-Device_Driver/src/usb_core.c ****     /* ControlState may be changed outside the function */
 915:../libraries/STM32_USB-FS-Device_Driver/src/usb_core.c ****     ControlState = pInformation->ControlState;
 916:../libraries/STM32_USB-FS-Device_Driver/src/usb_core.c ****   }
 917:../libraries/STM32_USB-FS-Device_Driver/src/usb_core.c **** 
 918:../libraries/STM32_USB-FS-Device_Driver/src/usb_core.c ****   else if (ControlState == WAIT_STATUS_IN)
 919:../libraries/STM32_USB-FS-Device_Driver/src/usb_core.c ****   {
 920:../libraries/STM32_USB-FS-Device_Driver/src/usb_core.c ****     if ((pInformation->USBbRequest == SET_ADDRESS) &&
 921:../libraries/STM32_USB-FS-Device_Driver/src/usb_core.c ****         (Type_Recipient == (STANDARD_REQUEST | DEVICE_RECIPIENT)))
 922:../libraries/STM32_USB-FS-Device_Driver/src/usb_core.c ****     {
 923:../libraries/STM32_USB-FS-Device_Driver/src/usb_core.c ****       SetDeviceAddress(pInformation->USBwValue0);
 924:../libraries/STM32_USB-FS-Device_Driver/src/usb_core.c ****       pUser_Standard_Requests->User_SetDeviceAddress();
 925:../libraries/STM32_USB-FS-Device_Driver/src/usb_core.c ****     }
 926:../libraries/STM32_USB-FS-Device_Driver/src/usb_core.c ****     (*pProperty->Process_Status_IN)();
 927:../libraries/STM32_USB-FS-Device_Driver/src/usb_core.c ****     ControlState = STALLED;
 928:../libraries/STM32_USB-FS-Device_Driver/src/usb_core.c ****   }
 929:../libraries/STM32_USB-FS-Device_Driver/src/usb_core.c **** 
 930:../libraries/STM32_USB-FS-Device_Driver/src/usb_core.c ****   else
 931:../libraries/STM32_USB-FS-Device_Driver/src/usb_core.c ****   {
 932:../libraries/STM32_USB-FS-Device_Driver/src/usb_core.c ****     ControlState = STALLED;
 933:../libraries/STM32_USB-FS-Device_Driver/src/usb_core.c ****   }
 934:../libraries/STM32_USB-FS-Device_Driver/src/usb_core.c **** 
 935:../libraries/STM32_USB-FS-Device_Driver/src/usb_core.c ****   pInformation->ControlState = ControlState;
 936:../libraries/STM32_USB-FS-Device_Driver/src/usb_core.c **** 
 937:../libraries/STM32_USB-FS-Device_Driver/src/usb_core.c ****   return Post0_Process();
 938:../libraries/STM32_USB-FS-Device_Driver/src/usb_core.c **** }
 939:../libraries/STM32_USB-FS-Device_Driver/src/usb_core.c **** 
 940:../libraries/STM32_USB-FS-Device_Driver/src/usb_core.c **** /*******************************************************************************
 941:../libraries/STM32_USB-FS-Device_Driver/src/usb_core.c **** * Function Name  : Out0_Process
 942:../libraries/STM32_USB-FS-Device_Driver/src/usb_core.c **** * Description    : Process the OUT token on all default endpoint.
 943:../libraries/STM32_USB-FS-Device_Driver/src/usb_core.c **** * Input          : None.
 944:../libraries/STM32_USB-FS-Device_Driver/src/usb_core.c **** * Output         : None.
 945:../libraries/STM32_USB-FS-Device_Driver/src/usb_core.c **** * Return         : Post0_Process.
 946:../libraries/STM32_USB-FS-Device_Driver/src/usb_core.c **** *******************************************************************************/
 947:../libraries/STM32_USB-FS-Device_Driver/src/usb_core.c **** uint8_t Out0_Process(void)
 948:../libraries/STM32_USB-FS-Device_Driver/src/usb_core.c **** {
 949:../libraries/STM32_USB-FS-Device_Driver/src/usb_core.c ****   uint32_t ControlState = pInformation->ControlState;
 950:../libraries/STM32_USB-FS-Device_Driver/src/usb_core.c **** 
 951:../libraries/STM32_USB-FS-Device_Driver/src/usb_core.c ****   if ((ControlState == IN_DATA) || (ControlState == LAST_IN_DATA))
 952:../libraries/STM32_USB-FS-Device_Driver/src/usb_core.c ****   {
 953:../libraries/STM32_USB-FS-Device_Driver/src/usb_core.c ****     /* host aborts the transfer before finish */
 954:../libraries/STM32_USB-FS-Device_Driver/src/usb_core.c ****     ControlState = STALLED;
 955:../libraries/STM32_USB-FS-Device_Driver/src/usb_core.c ****   }
 956:../libraries/STM32_USB-FS-Device_Driver/src/usb_core.c ****   else if ((ControlState == OUT_DATA) || (ControlState == LAST_OUT_DATA))
 957:../libraries/STM32_USB-FS-Device_Driver/src/usb_core.c ****   {
 958:../libraries/STM32_USB-FS-Device_Driver/src/usb_core.c ****     DataStageOut();
 959:../libraries/STM32_USB-FS-Device_Driver/src/usb_core.c ****     ControlState = pInformation->ControlState; /* may be changed outside the function */
 960:../libraries/STM32_USB-FS-Device_Driver/src/usb_core.c ****   }
 961:../libraries/STM32_USB-FS-Device_Driver/src/usb_core.c **** 
 962:../libraries/STM32_USB-FS-Device_Driver/src/usb_core.c ****   else if (ControlState == WAIT_STATUS_OUT)
 963:../libraries/STM32_USB-FS-Device_Driver/src/usb_core.c ****   {
 964:../libraries/STM32_USB-FS-Device_Driver/src/usb_core.c ****     (*pProperty->Process_Status_OUT)();
 965:../libraries/STM32_USB-FS-Device_Driver/src/usb_core.c ****     ControlState = STALLED;
 966:../libraries/STM32_USB-FS-Device_Driver/src/usb_core.c ****   }
 967:../libraries/STM32_USB-FS-Device_Driver/src/usb_core.c **** 
 968:../libraries/STM32_USB-FS-Device_Driver/src/usb_core.c **** 
 969:../libraries/STM32_USB-FS-Device_Driver/src/usb_core.c ****   /* Unexpect state, STALL the endpoint */
 970:../libraries/STM32_USB-FS-Device_Driver/src/usb_core.c ****   else
 971:../libraries/STM32_USB-FS-Device_Driver/src/usb_core.c ****   {
 972:../libraries/STM32_USB-FS-Device_Driver/src/usb_core.c ****     ControlState = STALLED;
 973:../libraries/STM32_USB-FS-Device_Driver/src/usb_core.c ****   }
 974:../libraries/STM32_USB-FS-Device_Driver/src/usb_core.c **** 
 975:../libraries/STM32_USB-FS-Device_Driver/src/usb_core.c ****   pInformation->ControlState = ControlState;
 976:../libraries/STM32_USB-FS-Device_Driver/src/usb_core.c **** 
 977:../libraries/STM32_USB-FS-Device_Driver/src/usb_core.c ****   return Post0_Process();
 978:../libraries/STM32_USB-FS-Device_Driver/src/usb_core.c **** }
 979:../libraries/STM32_USB-FS-Device_Driver/src/usb_core.c **** 
 980:../libraries/STM32_USB-FS-Device_Driver/src/usb_core.c **** /*******************************************************************************
 981:../libraries/STM32_USB-FS-Device_Driver/src/usb_core.c **** * Function Name  : Post0_Process
 982:../libraries/STM32_USB-FS-Device_Driver/src/usb_core.c **** * Description    : Stall the Endpoint 0 in case of error.
 983:../libraries/STM32_USB-FS-Device_Driver/src/usb_core.c **** * Input          : None.
 984:../libraries/STM32_USB-FS-Device_Driver/src/usb_core.c **** * Output         : None.
 985:../libraries/STM32_USB-FS-Device_Driver/src/usb_core.c **** * Return         : - 0 if the control State is in PAUSE
 986:../libraries/STM32_USB-FS-Device_Driver/src/usb_core.c **** *                  - 1 if not.
 987:../libraries/STM32_USB-FS-Device_Driver/src/usb_core.c **** *******************************************************************************/
 988:../libraries/STM32_USB-FS-Device_Driver/src/usb_core.c **** uint8_t Post0_Process(void)
 989:../libraries/STM32_USB-FS-Device_Driver/src/usb_core.c **** {
 990:../libraries/STM32_USB-FS-Device_Driver/src/usb_core.c ****    
 991:../libraries/STM32_USB-FS-Device_Driver/src/usb_core.c ****   SetEPRxCount(ENDP0, Device_Property.MaxPacketSize);
 992:../libraries/STM32_USB-FS-Device_Driver/src/usb_core.c **** 
 993:../libraries/STM32_USB-FS-Device_Driver/src/usb_core.c ****   if (pInformation->ControlState == STALLED)
 994:../libraries/STM32_USB-FS-Device_Driver/src/usb_core.c ****   {
 995:../libraries/STM32_USB-FS-Device_Driver/src/usb_core.c ****     vSetEPRxStatus(EP_RX_STALL);
 996:../libraries/STM32_USB-FS-Device_Driver/src/usb_core.c ****     vSetEPTxStatus(EP_TX_STALL);
 997:../libraries/STM32_USB-FS-Device_Driver/src/usb_core.c ****   }
 998:../libraries/STM32_USB-FS-Device_Driver/src/usb_core.c **** 
 999:../libraries/STM32_USB-FS-Device_Driver/src/usb_core.c ****   return (pInformation->ControlState == PAUSE);
1000:../libraries/STM32_USB-FS-Device_Driver/src/usb_core.c **** }
1001:../libraries/STM32_USB-FS-Device_Driver/src/usb_core.c **** 
1002:../libraries/STM32_USB-FS-Device_Driver/src/usb_core.c **** /*******************************************************************************
1003:../libraries/STM32_USB-FS-Device_Driver/src/usb_core.c **** * Function Name  : SetDeviceAddress.
1004:../libraries/STM32_USB-FS-Device_Driver/src/usb_core.c **** * Description    : Set the device and all the used Endpoints addresses.
1005:../libraries/STM32_USB-FS-Device_Driver/src/usb_core.c **** * Input          : - Val: device address.
1006:../libraries/STM32_USB-FS-Device_Driver/src/usb_core.c **** * Output         : None.
1007:../libraries/STM32_USB-FS-Device_Driver/src/usb_core.c **** * Return         : None.
1008:../libraries/STM32_USB-FS-Device_Driver/src/usb_core.c **** *******************************************************************************/
1009:../libraries/STM32_USB-FS-Device_Driver/src/usb_core.c **** void SetDeviceAddress(uint8_t Val)
1010:../libraries/STM32_USB-FS-Device_Driver/src/usb_core.c **** {
1011:../libraries/STM32_USB-FS-Device_Driver/src/usb_core.c ****   uint32_t i;
1012:../libraries/STM32_USB-FS-Device_Driver/src/usb_core.c ****   uint32_t nEP = Device_Table.Total_Endpoint;
1013:../libraries/STM32_USB-FS-Device_Driver/src/usb_core.c **** 
1014:../libraries/STM32_USB-FS-Device_Driver/src/usb_core.c ****   /* set address in every used endpoint */
1015:../libraries/STM32_USB-FS-Device_Driver/src/usb_core.c ****   for (i = 0; i < nEP; i++)
1016:../libraries/STM32_USB-FS-Device_Driver/src/usb_core.c ****   {
1017:../libraries/STM32_USB-FS-Device_Driver/src/usb_core.c ****     _SetEPAddress((uint8_t)i, (uint8_t)i);
1018:../libraries/STM32_USB-FS-Device_Driver/src/usb_core.c ****   } /* for */
1019:../libraries/STM32_USB-FS-Device_Driver/src/usb_core.c ****   _SetDADDR(Val | DADDR_EF); /* set device address and enable function */ 
1020:../libraries/STM32_USB-FS-Device_Driver/src/usb_core.c **** }
1021:../libraries/STM32_USB-FS-Device_Driver/src/usb_core.c **** 
1022:../libraries/STM32_USB-FS-Device_Driver/src/usb_core.c **** /*******************************************************************************
1023:../libraries/STM32_USB-FS-Device_Driver/src/usb_core.c **** * Function Name  : NOP_Process
1024:../libraries/STM32_USB-FS-Device_Driver/src/usb_core.c **** * Description    : No operation function.
1025:../libraries/STM32_USB-FS-Device_Driver/src/usb_core.c **** * Input          : None.
1026:../libraries/STM32_USB-FS-Device_Driver/src/usb_core.c **** * Output         : None.
1027:../libraries/STM32_USB-FS-Device_Driver/src/usb_core.c **** * Return         : None.
1028:../libraries/STM32_USB-FS-Device_Driver/src/usb_core.c **** *******************************************************************************/
1029:../libraries/STM32_USB-FS-Device_Driver/src/usb_core.c **** void NOP_Process(void)
1030:../libraries/STM32_USB-FS-Device_Driver/src/usb_core.c **** {
1031:../libraries/STM32_USB-FS-Device_Driver/src/usb_core.c **** }
 294              		.loc 1 1031 0
 295 001e 94B2     		uxth	r4, r2
 514:../libraries/STM32_USB-FS-Device_Driver/src/usb_core.c ****       Send0LengthData();
 296              		.loc 1 514 0
 297 0020 1E4A     		ldr	r2, .L37+16
 298 0022 A218     		adds	r2, r4, r2
 299 0024 5200     		lsls	r2, r2, #1
 300 0026 1360     		str	r3, [r2, #0]
 301 0028 3022     		movs	r2, #48
 302 002a 0A80     		strh	r2, [r1, #0]	@ movhi
 303              	.LVL20:
 516:../libraries/STM32_USB-FS-Device_Driver/src/usb_core.c ****       Data_Mul_MaxPacketSize = FALSE;
 304              		.loc 1 516 0
 305 002c 0370     		strb	r3, [r0, #0]
 306 002e 28E0     		b	.L34
 307              	.LVL21:
 308              	.L33:
 522:../libraries/STM32_USB-FS-Device_Driver/src/usb_core.c ****       vSetEPTxStatus(EP_TX_STALL);
 309              		.loc 1 522 0
 310 0030 1026     		movs	r6, #16
 311 0032 0E80     		strh	r6, [r1, #0]	@ movhi
 521:../libraries/STM32_USB-FS-Device_Driver/src/usb_core.c ****       ControlState = WAIT_STATUS_OUT;
 312              		.loc 1 521 0
 313 0034 0726     		movs	r6, #7
 314 0036 24E0     		b	.L34
 315              	.LVL22:
 316              	.L32:
 529:../libraries/STM32_USB-FS-Device_Driver/src/usb_core.c ****   Length = pEPinfo->PacketSize;
 317              		.loc 1 529 0
 318 0038 A58A     		ldrh	r5, [r4, #20]
 319              	.LVL23:
 537:../libraries/STM32_USB-FS-Device_Driver/src/usb_core.c ****   DataBuffer = (*pEPinfo->CopyData)(Length);
 320              		.loc 1 537 0
 321 003a A169     		ldr	r1, [r4, #24]
 530:../libraries/STM32_USB-FS-Device_Driver/src/usb_core.c ****   ControlState = (save_wLength <= Length) ? LAST_IN_DATA : IN_DATA;
 322              		.loc 1 530 0
 323 003c AB42     		cmp	r3, r5
 324 003e 8CBF     		ite	hi
 325 0040 0226     		movhi	r6, #2
 326 0042 0426     		movls	r6, #4
 327              	.LVL24:
 537:../libraries/STM32_USB-FS-Device_Driver/src/usb_core.c ****   DataBuffer = (*pEPinfo->CopyData)(Length);
 328              		.loc 1 537 0
 329 0044 9D42     		cmp	r5, r3
 330 0046 28BF     		it	cs
 331 0048 1D46     		movcs	r5, r3
 332              	.LVL25:
 333 004a 2846     		mov	r0, r5
 334 004c 8847     		blx	r1
 335              	.LVL26:
 336 004e 0746     		mov	r7, r0
 337              	.LVL27:
 539:../libraries/STM32_USB-FS-Device_Driver/src/usb_core.c ****   UserToPMABufferCopy(DataBuffer, GetEPTxAddr(ENDP0), Length);
 338              		.loc 1 539 0
 339 0050 0020     		movs	r0, #0
 340              	.LVL28:
 341 0052 FFF7FEFF 		bl	GetEPTxAddr
 342              	.LVL29:
 343 0056 2A46     		mov	r2, r5
 344 0058 0146     		mov	r1, r0
 345 005a 3846     		mov	r0, r7
 346 005c FFF7FEFF 		bl	UserToPMABufferCopy
 347              	.LVL30:
 541:../libraries/STM32_USB-FS-Device_Driver/src/usb_core.c ****   SetEPTxCount(ENDP0, Length);
 348              		.loc 1 541 0
 349 0060 2946     		mov	r1, r5
 350 0062 0020     		movs	r0, #0
 351 0064 FFF7FEFF 		bl	SetEPTxCount
 352              	.LVL31:
 543:../libraries/STM32_USB-FS-Device_Driver/src/usb_core.c ****   pEPinfo->Usb_wLength -= Length;
 353              		.loc 1 543 0
 354 0068 208A     		ldrh	r0, [r4, #16]
 544:../libraries/STM32_USB-FS-Device_Driver/src/usb_core.c ****   pEPinfo->Usb_wOffset += Length;
 355              		.loc 1 544 0
 356 006a 638A     		ldrh	r3, [r4, #18]
 543:../libraries/STM32_USB-FS-Device_Driver/src/usb_core.c ****   pEPinfo->Usb_wLength -= Length;
 357              		.loc 1 543 0
 358 006c 421B     		subs	r2, r0, r5
 544:../libraries/STM32_USB-FS-Device_Driver/src/usb_core.c ****   pEPinfo->Usb_wOffset += Length;
 359              		.loc 1 544 0
 360 006e ED18     		adds	r5, r5, r3
 361              	.LVL32:
 545:../libraries/STM32_USB-FS-Device_Driver/src/usb_core.c ****   vSetEPTxStatus(EP_TX_VALID);
 362              		.loc 1 545 0
 363 0070 0848     		ldr	r0, .L37+8
 547:../libraries/STM32_USB-FS-Device_Driver/src/usb_core.c ****   USB_StatusOut();/* Expect the host to abort the data IN stage */
 364              		.loc 1 547 0
 365 0072 0B4B     		ldr	r3, .L37+20
 543:../libraries/STM32_USB-FS-Device_Driver/src/usb_core.c ****   pEPinfo->Usb_wLength -= Length;
 366              		.loc 1 543 0
 367 0074 2282     		strh	r2, [r4, #16]	@ movhi
 545:../libraries/STM32_USB-FS-Device_Driver/src/usb_core.c ****   vSetEPTxStatus(EP_TX_VALID);
 368              		.loc 1 545 0
 369 0076 3021     		movs	r1, #48
 547:../libraries/STM32_USB-FS-Device_Driver/src/usb_core.c ****   USB_StatusOut();/* Expect the host to abort the data IN stage */
 370              		.loc 1 547 0
 371 0078 4FF44052 		mov	r2, #12288
 545:../libraries/STM32_USB-FS-Device_Driver/src/usb_core.c ****   vSetEPTxStatus(EP_TX_VALID);
 372              		.loc 1 545 0
 373 007c 0180     		strh	r1, [r0, #0]	@ movhi
 544:../libraries/STM32_USB-FS-Device_Driver/src/usb_core.c ****   pEPinfo->Usb_wOffset += Length;
 374              		.loc 1 544 0
 375 007e 6582     		strh	r5, [r4, #18]	@ movhi
 547:../libraries/STM32_USB-FS-Device_Driver/src/usb_core.c ****   USB_StatusOut();/* Expect the host to abort the data IN stage */
 376              		.loc 1 547 0
 377 0080 1A80     		strh	r2, [r3, #0]	@ movhi
 378              	.LVL33:
 379              	.L34:
 550:../libraries/STM32_USB-FS-Device_Driver/src/usb_core.c ****   pInformation->ControlState = ControlState;
 380              		.loc 1 550 0
 381 0082 024B     		ldr	r3, .L37
 382 0084 1868     		ldr	r0, [r3, #0]
 383 0086 0672     		strb	r6, [r0, #8]
 384 0088 F8BD     		pop	{r3, r4, r5, r6, r7, pc}
 385              	.L38:
 386 008a 00BF     		.align	2
 387              	.L37:
 388 008c 00000000 		.word	pInformation
 389 0090 00000000 		.word	.LANCHOR0
 390 0094 00000000 		.word	SaveTState
 391 0098 505C0040 		.word	1073765456
 392 009c 02300020 		.word	536883202
 393 00a0 00000000 		.word	SaveRState
 394              		.cfi_endproc
 395              	.LFE66:
 397              		.section	.text.Standard_SetConfiguration,"ax",%progbits
 398              		.align	1
 399              		.global	Standard_SetConfiguration
 400              		.thumb
 401              		.thumb_func
 403              	Standard_SetConfiguration:
 404              	.LFB57:
  91:../libraries/STM32_USB-FS-Device_Driver/src/usb_core.c **** {
 405              		.loc 1 91 0
 406              		.cfi_startproc
 407              		@ args = 0, pretend = 0, frame = 0
 408              		@ frame_needed = 0, uses_anonymous_args = 0
 409 0000 10B5     		push	{r4, lr}
 410              	.LCFI4:
 411              		.cfi_def_cfa_offset 8
 412              		.cfi_offset 4, -8
 413              		.cfi_offset 14, -4
  93:../libraries/STM32_USB-FS-Device_Driver/src/usb_core.c ****   if ((pInformation->USBwValue0 <=
 414              		.loc 1 93 0
 415 0002 0A4B     		ldr	r3, .L44
  94:../libraries/STM32_USB-FS-Device_Driver/src/usb_core.c ****       Device_Table.Total_Configuration) && (pInformation->USBwValue1 == 0)
 416              		.loc 1 94 0
 417 0004 0A49     		ldr	r1, .L44+4
  93:../libraries/STM32_USB-FS-Device_Driver/src/usb_core.c ****   if ((pInformation->USBwValue0 <=
 418              		.loc 1 93 0
 419 0006 1868     		ldr	r0, [r3, #0]
 420 0008 4B78     		ldrb	r3, [r1, #1]	@ zero_extendqisi2
 421 000a C278     		ldrb	r2, [r0, #3]	@ zero_extendqisi2
 422 000c 9342     		cmp	r3, r2
 423 000e 0AD3     		bcc	.L43
  94:../libraries/STM32_USB-FS-Device_Driver/src/usb_core.c ****       Device_Table.Total_Configuration) && (pInformation->USBwValue1 == 0)
 424              		.loc 1 94 0
 425 0010 8178     		ldrb	r1, [r0, #2]	@ zero_extendqisi2
 426 0012 41B9     		cbnz	r1, .L43
  95:../libraries/STM32_USB-FS-Device_Driver/src/usb_core.c ****       && (pInformation->USBwIndex == 0)) /*call Back usb spec 2.0*/
 427              		.loc 1 95 0
 428 0014 8488     		ldrh	r4, [r0, #4]
 429 0016 34B9     		cbnz	r4, .L43
  97:../libraries/STM32_USB-FS-Device_Driver/src/usb_core.c ****     pInformation->Current_Configuration = pInformation->USBwValue0;
 430              		.loc 1 97 0
 431 0018 8272     		strb	r2, [r0, #10]
  98:../libraries/STM32_USB-FS-Device_Driver/src/usb_core.c ****     pUser_Standard_Requests->User_SetConfiguration();
 432              		.loc 1 98 0
 433 001a 0648     		ldr	r0, .L44+8
 434 001c 0268     		ldr	r2, [r0, #0]
 435 001e 5368     		ldr	r3, [r2, #4]
 436 0020 9847     		blx	r3
 437              	.LVL34:
  99:../libraries/STM32_USB-FS-Device_Driver/src/usb_core.c ****     return USB_SUCCESS;
 438              		.loc 1 99 0
 439 0022 2046     		mov	r0, r4
 440 0024 10BD     		pop	{r4, pc}
 441              	.L43:
 103:../libraries/STM32_USB-FS-Device_Driver/src/usb_core.c ****     return USB_UNSUPPORT;
 442              		.loc 1 103 0
 443 0026 0220     		movs	r0, #2
 105:../libraries/STM32_USB-FS-Device_Driver/src/usb_core.c **** }
 444              		.loc 1 105 0
 445 0028 10BD     		pop	{r4, pc}
 446              	.L45:
 447 002a 00BF     		.align	2
 448              	.L44:
 449 002c 00000000 		.word	pInformation
 450 0030 00000000 		.word	Device_Table
 451 0034 00000000 		.word	pUser_Standard_Requests
 452              		.cfi_endproc
 453              	.LFE57:
 455              		.section	.text.Standard_SetInterface,"ax",%progbits
 456              		.align	1
 457              		.global	Standard_SetInterface
 458              		.thumb
 459              		.thumb_func
 461              	Standard_SetInterface:
 462              	.LFB59:
 137:../libraries/STM32_USB-FS-Device_Driver/src/usb_core.c **** {
 463              		.loc 1 137 0
 464              		.cfi_startproc
 465              		@ args = 0, pretend = 0, frame = 0
 466              		@ frame_needed = 0, uses_anonymous_args = 0
 467 0000 38B5     		push	{r3, r4, r5, lr}
 468              	.LCFI5:
 469              		.cfi_def_cfa_offset 16
 470              		.cfi_offset 3, -16
 471              		.cfi_offset 4, -12
 472              		.cfi_offset 5, -8
 473              		.cfi_offset 14, -4
 141:../libraries/STM32_USB-FS-Device_Driver/src/usb_core.c ****   Re = (*pProperty->Class_Get_Interface_Setting)(pInformation->USBwIndex0, pInformation->USBwValue0
 474              		.loc 1 141 0
 475 0002 0E4A     		ldr	r2, .L52
 476 0004 0E4C     		ldr	r4, .L52+4
 477 0006 1068     		ldr	r0, [r2, #0]
 478 0008 2368     		ldr	r3, [r4, #0]
 479 000a 8269     		ldr	r2, [r0, #24]
 480 000c D978     		ldrb	r1, [r3, #3]	@ zero_extendqisi2
 481 000e 5879     		ldrb	r0, [r3, #5]	@ zero_extendqisi2
 482 0010 9047     		blx	r2
 483              	.LVL35:
 143:../libraries/STM32_USB-FS-Device_Driver/src/usb_core.c ****   if (pInformation->Current_Configuration != 0)
 484              		.loc 1 143 0
 485 0012 2168     		ldr	r1, [r4, #0]
 486 0014 8B7A     		ldrb	r3, [r1, #10]	@ zero_extendqisi2
 487 0016 7BB1     		cbz	r3, .L51
 145:../libraries/STM32_USB-FS-Device_Driver/src/usb_core.c ****     if ((Re != USB_SUCCESS) || (pInformation->USBwIndex1 != 0)
 488              		.loc 1 145 0
 489 0018 70B9     		cbnz	r0, .L51
 145:../libraries/STM32_USB-FS-Device_Driver/src/usb_core.c ****     if ((Re != USB_SUCCESS) || (pInformation->USBwIndex1 != 0)
 490              		.loc 1 145 0 is_stmt 0 discriminator 1
 491 001a 0879     		ldrb	r0, [r1, #4]	@ zero_extendqisi2
 492              	.LVL36:
 493 001c 60B9     		cbnz	r0, .L51
 146:../libraries/STM32_USB-FS-Device_Driver/src/usb_core.c ****         || (pInformation->USBwValue1 != 0))
 494              		.loc 1 146 0 is_stmt 1
 495 001e 8D78     		ldrb	r5, [r1, #2]	@ zero_extendqisi2
 496 0020 55B9     		cbnz	r5, .L51
 152:../libraries/STM32_USB-FS-Device_Driver/src/usb_core.c ****       pUser_Standard_Requests->User_SetInterface();
 497              		.loc 1 152 0
 498 0022 084A     		ldr	r2, .L52+8
 499 0024 1168     		ldr	r1, [r2, #0]
 500 0026 CB68     		ldr	r3, [r1, #12]
 501 0028 9847     		blx	r3
 502              	.LVL37:
 153:../libraries/STM32_USB-FS-Device_Driver/src/usb_core.c ****       pInformation->Current_Interface = pInformation->USBwIndex0;
 503              		.loc 1 153 0
 504 002a 2068     		ldr	r0, [r4, #0]
 505 002c 4279     		ldrb	r2, [r0, #5]	@ zero_extendqisi2
 154:../libraries/STM32_USB-FS-Device_Driver/src/usb_core.c ****       pInformation->Current_AlternateSetting = pInformation->USBwValue0;
 506              		.loc 1 154 0
 507 002e C178     		ldrb	r1, [r0, #3]	@ zero_extendqisi2
 153:../libraries/STM32_USB-FS-Device_Driver/src/usb_core.c ****       pInformation->Current_Interface = pInformation->USBwIndex0;
 508              		.loc 1 153 0
 509 0030 C272     		strb	r2, [r0, #11]
 154:../libraries/STM32_USB-FS-Device_Driver/src/usb_core.c ****       pInformation->Current_AlternateSetting = pInformation->USBwValue0;
 510              		.loc 1 154 0
 511 0032 0173     		strb	r1, [r0, #12]
 155:../libraries/STM32_USB-FS-Device_Driver/src/usb_core.c ****       return USB_SUCCESS;
 512              		.loc 1 155 0
 513 0034 2846     		mov	r0, r5
 514 0036 38BD     		pop	{r3, r4, r5, pc}
 515              	.L51:
 160:../libraries/STM32_USB-FS-Device_Driver/src/usb_core.c ****   return USB_UNSUPPORT;
 516              		.loc 1 160 0
 517 0038 0220     		movs	r0, #2
 161:../libraries/STM32_USB-FS-Device_Driver/src/usb_core.c **** }
 518              		.loc 1 161 0
 519 003a 38BD     		pop	{r3, r4, r5, pc}
 520              	.L53:
 521              		.align	2
 522              	.L52:
 523 003c 00000000 		.word	pProperty
 524 0040 00000000 		.word	pInformation
 525 0044 00000000 		.word	pUser_Standard_Requests
 526              		.cfi_endproc
 527              	.LFE59:
 529              		.section	.text.Standard_ClearFeature,"ax",%progbits
 530              		.align	1
 531              		.global	Standard_ClearFeature
 532              		.thumb
 533              		.thumb_func
 535              	Standard_ClearFeature:
 536              	.LFB61:
 254:../libraries/STM32_USB-FS-Device_Driver/src/usb_core.c **** {
 537              		.loc 1 254 0
 538              		.cfi_startproc
 539              		@ args = 0, pretend = 0, frame = 0
 540              		@ frame_needed = 0, uses_anonymous_args = 0
 541 0000 10B5     		push	{r4, lr}
 542              	.LCFI6:
 543              		.cfi_def_cfa_offset 8
 544              		.cfi_offset 4, -8
 545              		.cfi_offset 14, -4
 255:../libraries/STM32_USB-FS-Device_Driver/src/usb_core.c ****   uint32_t     Type_Rec = Type_Recipient;
 546              		.loc 1 255 0
 547 0002 324B     		ldr	r3, .L69
 548 0004 1B68     		ldr	r3, [r3, #0]
 549 0006 1878     		ldrb	r0, [r3, #0]	@ zero_extendqisi2
 550              	.LVL38:
 259:../libraries/STM32_USB-FS-Device_Driver/src/usb_core.c ****   if (Type_Rec == (STANDARD_REQUEST | DEVICE_RECIPIENT))
 551              		.loc 1 259 0
 552 0008 10F07F00 		ands	r0, r0, #127
 553              	.LVL39:
 554 000c 04D1     		bne	.L55
 261:../libraries/STM32_USB-FS-Device_Driver/src/usb_core.c ****     ClrBit(pInformation->Current_Feature, 5);
 555              		.loc 1 261 0
 556 000e 5A7A     		ldrb	r2, [r3, #9]	@ zero_extendqisi2
 557 0010 22F02001 		bic	r1, r2, #32
 558 0014 5972     		strb	r1, [r3, #9]
 262:../libraries/STM32_USB-FS-Device_Driver/src/usb_core.c ****     return USB_SUCCESS;
 559              		.loc 1 262 0
 560 0016 10BD     		pop	{r4, pc}
 561              	.L55:
 264:../libraries/STM32_USB-FS-Device_Driver/src/usb_core.c ****   else if (Type_Rec == (STANDARD_REQUEST | ENDPOINT_RECIPIENT))
 562              		.loc 1 264 0
 563 0018 0228     		cmp	r0, #2
 564 001a 55D1     		bne	.L67
 565              	.LBB4:
 271:../libraries/STM32_USB-FS-Device_Driver/src/usb_core.c ****     if ((pInformation->USBwValue != ENDPOINT_STALL)
 566              		.loc 1 271 0
 567 001c 5A88     		ldrh	r2, [r3, #2]
 568 001e 002A     		cmp	r2, #0
 569 0020 53D1     		bne	.L56
 272:../libraries/STM32_USB-FS-Device_Driver/src/usb_core.c ****         || (pInformation->USBwIndex1 != 0))
 570              		.loc 1 272 0
 571 0022 1979     		ldrb	r1, [r3, #4]	@ zero_extendqisi2
 572 0024 0029     		cmp	r1, #0
 573 0026 50D1     		bne	.L56
 574              	.LVL40:
 278:../libraries/STM32_USB-FS-Device_Driver/src/usb_core.c ****     wIndex0 = pInformation->USBwIndex0;
 575              		.loc 1 278 0
 576 0028 5A79     		ldrb	r2, [r3, #5]	@ zero_extendqisi2
 577              	.LVL41:
 279:../libraries/STM32_USB-FS-Device_Driver/src/usb_core.c ****     rEP = wIndex0 & ~0x80;
 578              		.loc 1 279 0
 579 002a 22F08000 		bic	r0, r2, #128
 580              	.LVL42:
 581 002e 4FEA8004 		lsl	r4, r0, #2
 286:../libraries/STM32_USB-FS-Device_Driver/src/usb_core.c ****       Status = _GetEPTxStatus(Related_Endpoint);
 582              		.loc 1 286 0
 583 0032 04F18041 		add	r1, r4, #1073741824
 584 0036 01F5B844 		add	r4, r1, #23552
 585 003a 2168     		ldr	r1, [r4, #0]
 293:../libraries/STM32_USB-FS-Device_Driver/src/usb_core.c ****     if ((rEP >= pDev->Total_Endpoint) || (Status == 0)
 586              		.loc 1 293 0
 587 003c 244C     		ldr	r4, .L69+4
 282:../libraries/STM32_USB-FS-Device_Driver/src/usb_core.c ****     if (ValBit(pInformation->USBwIndex0, 7))
 588              		.loc 1 282 0
 589 003e 12F0800F 		tst	r2, #128
 293:../libraries/STM32_USB-FS-Device_Driver/src/usb_core.c ****     if ((rEP >= pDev->Total_Endpoint) || (Status == 0)
 590              		.loc 1 293 0
 591 0042 2478     		ldrb	r4, [r4, #0]	@ zero_extendqisi2
 286:../libraries/STM32_USB-FS-Device_Driver/src/usb_core.c ****       Status = _GetEPTxStatus(Related_Endpoint);
 592              		.loc 1 286 0
 593 0044 14BF     		ite	ne
 594 0046 01F03001 		andne	r1, r1, #48
 595              	.LVL43:
 290:../libraries/STM32_USB-FS-Device_Driver/src/usb_core.c ****       Status = _GetEPRxStatus(Related_Endpoint);
 596              		.loc 1 290 0
 597 004a 01F44051 		andeq	r1, r1, #12288
 598              	.LVL44:
 293:../libraries/STM32_USB-FS-Device_Driver/src/usb_core.c ****     if ((rEP >= pDev->Total_Endpoint) || (Status == 0)
 599              		.loc 1 293 0
 600 004e A042     		cmp	r0, r4
 601 0050 3AD2     		bcs	.L67
 293:../libraries/STM32_USB-FS-Device_Driver/src/usb_core.c ****     if ((rEP >= pDev->Total_Endpoint) || (Status == 0)
 602              		.loc 1 293 0 is_stmt 0 discriminator 1
 603 0052 0029     		cmp	r1, #0
 604 0054 38D0     		beq	.L67
 294:../libraries/STM32_USB-FS-Device_Driver/src/usb_core.c ****         || (pInformation->Current_Configuration == 0))
 605              		.loc 1 294 0 is_stmt 1
 606 0056 9B7A     		ldrb	r3, [r3, #10]	@ zero_extendqisi2
 607              	.LVL45:
 608 0058 002B     		cmp	r3, #0
 609 005a 35D0     		beq	.L67
 610 005c 8400     		lsls	r4, r0, #2
 300:../libraries/STM32_USB-FS-Device_Driver/src/usb_core.c ****     if (wIndex0 & 0x80)
 611              		.loc 1 300 0
 612 005e 02F08002 		and	r2, r2, #128
 613              	.LVL46:
 303:../libraries/STM32_USB-FS-Device_Driver/src/usb_core.c ****       if (_GetTxStallStatus(Related_Endpoint ))
 614              		.loc 1 303 0
 615 0062 04F18043 		add	r3, r4, #1073741824
 300:../libraries/STM32_USB-FS-Device_Driver/src/usb_core.c ****     if (wIndex0 & 0x80)
 616              		.loc 1 300 0
 617 0066 D1B2     		uxtb	r1, r2
 618              	.LVL47:
 303:../libraries/STM32_USB-FS-Device_Driver/src/usb_core.c ****       if (_GetTxStallStatus(Related_Endpoint ))
 619              		.loc 1 303 0
 620 0068 03F5B844 		add	r4, r3, #23552
 621 006c 2268     		ldr	r2, [r4, #0]
 300:../libraries/STM32_USB-FS-Device_Driver/src/usb_core.c ****     if (wIndex0 & 0x80)
 622              		.loc 1 300 0
 623 006e 61B1     		cbz	r1, .L59
 303:../libraries/STM32_USB-FS-Device_Driver/src/usb_core.c ****       if (_GetTxStallStatus(Related_Endpoint ))
 624              		.loc 1 303 0
 625 0070 02F03002 		and	r2, r2, #48
 626 0074 102A     		cmp	r2, #16
 627 0076 21D1     		bne	.L60
 305:../libraries/STM32_USB-FS-Device_Driver/src/usb_core.c ****         ClearDTOG_TX(Related_Endpoint);
 628              		.loc 1 305 0
 629 0078 C4B2     		uxtb	r4, r0
 630 007a 2046     		mov	r0, r4
 631              	.LVL48:
 632 007c FFF7FEFF 		bl	ClearDTOG_TX
 633              	.LVL49:
 306:../libraries/STM32_USB-FS-Device_Driver/src/usb_core.c ****         SetEPTxStatus(Related_Endpoint, EP_TX_VALID);
 634              		.loc 1 306 0
 635 0080 2046     		mov	r0, r4
 636 0082 3021     		movs	r1, #48
 637 0084 FFF7FEFF 		bl	SetEPTxStatus
 638              	.LVL50:
 639 0088 18E0     		b	.L60
 640              	.LVL51:
 641              	.L59:
 312:../libraries/STM32_USB-FS-Device_Driver/src/usb_core.c ****       if (_GetRxStallStatus(Related_Endpoint))
 642              		.loc 1 312 0
 643 008a 02F44051 		and	r1, r2, #12288
 644 008e B1F5805F 		cmp	r1, #4096
 645 0092 13D1     		bne	.L60
 314:../libraries/STM32_USB-FS-Device_Driver/src/usb_core.c ****         if (Related_Endpoint == ENDP0)
 646              		.loc 1 314 0
 647 0094 28B9     		cbnz	r0, .L61
 317:../libraries/STM32_USB-FS-Device_Driver/src/usb_core.c ****           SetEPRxCount(Related_Endpoint, Device_Property.MaxPacketSize);
 648              		.loc 1 317 0
 649 0096 0F4B     		ldr	r3, .L69+8
 650 0098 93F82C10 		ldrb	r1, [r3, #44]	@ zero_extendqisi2
 651 009c FFF7FEFF 		bl	SetEPRxCount
 652              	.LVL52:
 653 00a0 01E0     		b	.L68
 654              	.LVL53:
 655              	.L61:
 322:../libraries/STM32_USB-FS-Device_Driver/src/usb_core.c ****           ClearDTOG_RX(Related_Endpoint);
 656              		.loc 1 322 0
 657 00a2 FFF7FEFF 		bl	ClearDTOG_RX
 658              	.LVL54:
 659              	.L68:
 660              	.LBB5:
 323:../libraries/STM32_USB-FS-Device_Driver/src/usb_core.c ****           _SetEPRxStatus(Related_Endpoint, EP_RX_VALID);
 661              		.loc 1 323 0
 662 00a6 2068     		ldr	r0, [r4, #0]
 663              	.LVL55:
 664 00a8 4BF68F72 		movw	r2, #49039
 665 00ac 0240     		ands	r2, r2, r0
 666 00ae 82F44051 		eor	r1, r2, #12288
 667 00b2 41F40043 		orr	r3, r1, #32768
 668 00b6 43F08000 		orr	r0, r3, #128
 669              	.LVL56:
 670 00ba 2060     		str	r0, [r4, #0]
 671              	.L60:
 672              	.LBE5:
 327:../libraries/STM32_USB-FS-Device_Driver/src/usb_core.c ****     pUser_Standard_Requests->User_ClearFeature();
 673              		.loc 1 327 0
 674 00bc 0649     		ldr	r1, .L69+12
 675 00be 0B68     		ldr	r3, [r1, #0]
 676 00c0 5869     		ldr	r0, [r3, #20]
 677 00c2 8047     		blx	r0
 678              	.LVL57:
 328:../libraries/STM32_USB-FS-Device_Driver/src/usb_core.c ****     return USB_SUCCESS;
 679              		.loc 1 328 0
 680 00c4 0020     		movs	r0, #0
 681 00c6 10BD     		pop	{r4, pc}
 682              	.LVL58:
 683              	.L67:
 331:../libraries/STM32_USB-FS-Device_Driver/src/usb_core.c ****   return USB_UNSUPPORT;
 684              		.loc 1 331 0
 685 00c8 0220     		movs	r0, #2
 686              	.L56:
 687              	.LBE4:
 332:../libraries/STM32_USB-FS-Device_Driver/src/usb_core.c **** }
 688              		.loc 1 332 0
 689 00ca 10BD     		pop	{r4, pc}
 690              	.L70:
 691              		.align	2
 692              	.L69:
 693 00cc 00000000 		.word	pInformation
 694 00d0 00000000 		.word	Device_Table
 695 00d4 00000000 		.word	Device_Property
 696 00d8 00000000 		.word	pUser_Standard_Requests
 697              		.cfi_endproc
 698              	.LFE61:
 700              		.section	.text.Standard_SetEndPointFeature,"ax",%progbits
 701              		.align	1
 702              		.global	Standard_SetEndPointFeature
 703              		.thumb
 704              		.thumb_func
 706              	Standard_SetEndPointFeature:
 707              	.LFB62:
 343:../libraries/STM32_USB-FS-Device_Driver/src/usb_core.c **** {
 708              		.loc 1 343 0
 709              		.cfi_startproc
 710              		@ args = 0, pretend = 0, frame = 0
 711              		@ frame_needed = 0, uses_anonymous_args = 0
 712 0000 10B5     		push	{r4, lr}
 713              	.LCFI7:
 714              		.cfi_def_cfa_offset 8
 715              		.cfi_offset 4, -8
 716              		.cfi_offset 14, -4
 349:../libraries/STM32_USB-FS-Device_Driver/src/usb_core.c ****   wIndex0 = pInformation->USBwIndex0;
 717              		.loc 1 349 0
 718 0002 1F4B     		ldr	r3, .L82
 719 0004 1968     		ldr	r1, [r3, #0]
 720 0006 4A79     		ldrb	r2, [r1, #5]	@ zero_extendqisi2
 721              	.LVL59:
 350:../libraries/STM32_USB-FS-Device_Driver/src/usb_core.c ****   rEP = wIndex0 & ~0x80;
 722              		.loc 1 350 0
 723 0008 22F08003 		bic	r3, r2, #128
 724              	.LVL60:
 725 000c 4FEA8300 		lsl	r0, r3, #2
 357:../libraries/STM32_USB-FS-Device_Driver/src/usb_core.c ****     Status = _GetEPTxStatus(Related_Endpoint);
 726              		.loc 1 357 0
 727 0010 00F18044 		add	r4, r0, #1073741824
 728 0014 04F5B840 		add	r0, r4, #23552
 364:../libraries/STM32_USB-FS-Device_Driver/src/usb_core.c ****   if (Related_Endpoint >= Device_Table.Total_Endpoint
 729              		.loc 1 364 0
 730 0018 1A4C     		ldr	r4, .L82+4
 357:../libraries/STM32_USB-FS-Device_Driver/src/usb_core.c ****     Status = _GetEPTxStatus(Related_Endpoint);
 731              		.loc 1 357 0
 732 001a 0068     		ldr	r0, [r0, #0]
 364:../libraries/STM32_USB-FS-Device_Driver/src/usb_core.c ****   if (Related_Endpoint >= Device_Table.Total_Endpoint
 733              		.loc 1 364 0
 734 001c 2478     		ldrb	r4, [r4, #0]	@ zero_extendqisi2
 353:../libraries/STM32_USB-FS-Device_Driver/src/usb_core.c ****   if (ValBit(pInformation->USBwIndex0, 7))
 735              		.loc 1 353 0
 736 001e 12F0800F 		tst	r2, #128
 357:../libraries/STM32_USB-FS-Device_Driver/src/usb_core.c ****     Status = _GetEPTxStatus(Related_Endpoint);
 737              		.loc 1 357 0
 738 0022 14BF     		ite	ne
 739 0024 00F03000 		andne	r0, r0, #48
 740              	.LVL61:
 361:../libraries/STM32_USB-FS-Device_Driver/src/usb_core.c ****     Status = _GetEPRxStatus(Related_Endpoint);
 741              		.loc 1 361 0
 742 0028 00F44050 		andeq	r0, r0, #12288
 743              	.LVL62:
 364:../libraries/STM32_USB-FS-Device_Driver/src/usb_core.c ****   if (Related_Endpoint >= Device_Table.Total_Endpoint
 744              		.loc 1 364 0
 745 002c A342     		cmp	r3, r4
 746 002e 24D2     		bcs	.L80
 365:../libraries/STM32_USB-FS-Device_Driver/src/usb_core.c ****       || pInformation->USBwValue != 0 || Status == 0
 747              		.loc 1 365 0
 748 0030 4C88     		ldrh	r4, [r1, #2]
 749 0032 14BB     		cbnz	r4, .L80
 365:../libraries/STM32_USB-FS-Device_Driver/src/usb_core.c ****       || pInformation->USBwValue != 0 || Status == 0
 750              		.loc 1 365 0 is_stmt 0 discriminator 1
 751 0034 08B3     		cbz	r0, .L80
 366:../libraries/STM32_USB-FS-Device_Driver/src/usb_core.c ****       || pInformation->Current_Configuration == 0)
 752              		.loc 1 366 0 is_stmt 1
 753 0036 897A     		ldrb	r1, [r1, #10]	@ zero_extendqisi2
 754 0038 F9B1     		cbz	r1, .L80
 755 003a 9B00     		lsls	r3, r3, #2
 756              	.LVL63:
 757              	.LBB6:
 375:../libraries/STM32_USB-FS-Device_Driver/src/usb_core.c ****       _SetEPTxStatus(Related_Endpoint, EP_TX_STALL);
 758              		.loc 1 375 0
 759 003c 03F18041 		add	r1, r3, #1073741824
 760              	.LBE6:
 372:../libraries/STM32_USB-FS-Device_Driver/src/usb_core.c ****     if (wIndex0 & 0x80)
 761              		.loc 1 372 0
 762 0040 02F08002 		and	r2, r2, #128
 763              	.LVL64:
 764              	.LBB7:
 375:../libraries/STM32_USB-FS-Device_Driver/src/usb_core.c ****       _SetEPTxStatus(Related_Endpoint, EP_TX_STALL);
 765              		.loc 1 375 0
 766 0044 01F5B843 		add	r3, r1, #23552
 767              	.LBE7:
 372:../libraries/STM32_USB-FS-Device_Driver/src/usb_core.c ****     if (wIndex0 & 0x80)
 768              		.loc 1 372 0
 769 0048 D0B2     		uxtb	r0, r2
 770              	.LVL65:
 771              	.LBB8:
 375:../libraries/STM32_USB-FS-Device_Driver/src/usb_core.c ****       _SetEPTxStatus(Related_Endpoint, EP_TX_STALL);
 772              		.loc 1 375 0
 773 004a 1968     		ldr	r1, [r3, #0]
 774              	.LBE8:
 372:../libraries/STM32_USB-FS-Device_Driver/src/usb_core.c ****     if (wIndex0 & 0x80)
 775              		.loc 1 372 0
 776 004c 28B1     		cbz	r0, .L75
 777              	.LVL66:
 778              	.LBB9:
 375:../libraries/STM32_USB-FS-Device_Driver/src/usb_core.c ****       _SetEPTxStatus(Related_Endpoint, EP_TX_STALL);
 779              		.loc 1 375 0
 780 004e 48F6BF72 		movw	r2, #36799
 781 0052 0A40     		ands	r2, r2, r1
 782 0054 82F01000 		eor	r0, r2, #16
 783 0058 04E0     		b	.L81
 784              	.LVL67:
 785              	.L75:
 786              	.LBE9:
 787              	.LBB10:
 381:../libraries/STM32_USB-FS-Device_Driver/src/usb_core.c ****       _SetEPRxStatus(Related_Endpoint, EP_RX_STALL);
 788              		.loc 1 381 0
 789 005a 4BF68F72 		movw	r2, #49039
 790 005e 0A40     		ands	r2, r2, r1
 791 0060 82F48050 		eor	r0, r2, #4096
 792              	.LVL68:
 793              	.L81:
 794 0064 40F40041 		orr	r1, r0, #32768
 795 0068 41F08000 		orr	r0, r1, #128
 796 006c 1860     		str	r0, [r3, #0]
 797              	.LBE10:
 384:../libraries/STM32_USB-FS-Device_Driver/src/usb_core.c ****   pUser_Standard_Requests->User_SetEndPointFeature();
 798              		.loc 1 384 0
 799 006e 064B     		ldr	r3, .L82+8
 800 0070 1A68     		ldr	r2, [r3, #0]
 801 0072 9169     		ldr	r1, [r2, #24]
 802 0074 8847     		blx	r1
 803              	.LVL69:
 385:../libraries/STM32_USB-FS-Device_Driver/src/usb_core.c ****   return USB_SUCCESS;
 804              		.loc 1 385 0
 805 0076 0020     		movs	r0, #0
 806 0078 10BD     		pop	{r4, pc}
 807              	.LVL70:
 808              	.L80:
 368:../libraries/STM32_USB-FS-Device_Driver/src/usb_core.c ****     return USB_UNSUPPORT;
 809              		.loc 1 368 0
 810 007a 0220     		movs	r0, #2
 811              	.LVL71:
 386:../libraries/STM32_USB-FS-Device_Driver/src/usb_core.c **** }
 812              		.loc 1 386 0
 813 007c 10BD     		pop	{r4, pc}
 814              	.L83:
 815 007e 00BF     		.align	2
 816              	.L82:
 817 0080 00000000 		.word	pInformation
 818 0084 00000000 		.word	Device_Table
 819 0088 00000000 		.word	pUser_Standard_Requests
 820              		.cfi_endproc
 821              	.LFE62:
 823              		.section	.text.Standard_SetDeviceFeature,"ax",%progbits
 824              		.align	1
 825              		.global	Standard_SetDeviceFeature
 826              		.thumb
 827              		.thumb_func
 829              	Standard_SetDeviceFeature:
 830              	.LFB63:
 397:../libraries/STM32_USB-FS-Device_Driver/src/usb_core.c **** {
 831              		.loc 1 397 0
 832              		.cfi_startproc
 833              		@ args = 0, pretend = 0, frame = 0
 834              		@ frame_needed = 0, uses_anonymous_args = 0
 835 0000 08B5     		push	{r3, lr}
 836              	.LCFI8:
 837              		.cfi_def_cfa_offset 8
 838              		.cfi_offset 3, -8
 839              		.cfi_offset 14, -4
 398:../libraries/STM32_USB-FS-Device_Driver/src/usb_core.c ****   SetBit(pInformation->Current_Feature, 5);
 840              		.loc 1 398 0
 841 0002 064B     		ldr	r3, .L85
 842 0004 1868     		ldr	r0, [r3, #0]
 399:../libraries/STM32_USB-FS-Device_Driver/src/usb_core.c ****   pUser_Standard_Requests->User_SetDeviceFeature();
 843              		.loc 1 399 0
 844 0006 064B     		ldr	r3, .L85+4
 398:../libraries/STM32_USB-FS-Device_Driver/src/usb_core.c ****   SetBit(pInformation->Current_Feature, 5);
 845              		.loc 1 398 0
 846 0008 427A     		ldrb	r2, [r0, #9]	@ zero_extendqisi2
 847 000a 42F02001 		orr	r1, r2, #32
 848 000e 4172     		strb	r1, [r0, #9]
 399:../libraries/STM32_USB-FS-Device_Driver/src/usb_core.c ****   pUser_Standard_Requests->User_SetDeviceFeature();
 849              		.loc 1 399 0
 850 0010 1868     		ldr	r0, [r3, #0]
 851 0012 C269     		ldr	r2, [r0, #28]
 852 0014 9047     		blx	r2
 853              	.LVL72:
 401:../libraries/STM32_USB-FS-Device_Driver/src/usb_core.c **** }
 854              		.loc 1 401 0
 855 0016 0020     		movs	r0, #0
 856 0018 08BD     		pop	{r3, pc}
 857              	.L86:
 858 001a 00BF     		.align	2
 859              	.L85:
 860 001c 00000000 		.word	pInformation
 861 0020 00000000 		.word	pUser_Standard_Requests
 862              		.cfi_endproc
 863              	.LFE63:
 865              		.section	.text.Standard_GetDescriptorData,"ax",%progbits
 866              		.align	1
 867              		.global	Standard_GetDescriptorData
 868              		.thumb
 869              		.thumb_func
 871              	Standard_GetDescriptorData:
 872              	.LFB64:
 423:../libraries/STM32_USB-FS-Device_Driver/src/usb_core.c **** {
 873              		.loc 1 423 0
 874              		.cfi_startproc
 875              		@ args = 0, pretend = 0, frame = 0
 876              		@ frame_needed = 0, uses_anonymous_args = 0
 877              		@ link register save eliminated.
 878              	.LVL73:
 426:../libraries/STM32_USB-FS-Device_Driver/src/usb_core.c ****   wOffset = pInformation->Ctrl_Info.Usb_wOffset;
 879              		.loc 1 426 0
 880 0000 054B     		ldr	r3, .L90
 881 0002 1A68     		ldr	r2, [r3, #0]
 882 0004 538A     		ldrh	r3, [r2, #18]
 883              	.LVL74:
 427:../libraries/STM32_USB-FS-Device_Driver/src/usb_core.c ****   if (Length == 0)
 884              		.loc 1 427 0
 885 0006 18B9     		cbnz	r0, .L88
 429:../libraries/STM32_USB-FS-Device_Driver/src/usb_core.c ****     pInformation->Ctrl_Info.Usb_wLength = pDesc->Descriptor_Size - wOffset;
 886              		.loc 1 429 0
 887 0008 8988     		ldrh	r1, [r1, #4]
 888              	.LVL75:
 889 000a CB1A     		subs	r3, r1, r3
 890              	.LVL76:
 891 000c 1382     		strh	r3, [r2, #16]	@ movhi
 430:../libraries/STM32_USB-FS-Device_Driver/src/usb_core.c ****     return 0;
 892              		.loc 1 430 0
 893 000e 7047     		bx	lr
 894              	.LVL77:
 895              	.L88:
 433:../libraries/STM32_USB-FS-Device_Driver/src/usb_core.c ****   return pDesc->Descriptor + wOffset;
 896              		.loc 1 433 0
 897 0010 0868     		ldr	r0, [r1, #0]
 898              	.LVL78:
 899 0012 C018     		adds	r0, r0, r3
 434:../libraries/STM32_USB-FS-Device_Driver/src/usb_core.c **** }
 900              		.loc 1 434 0
 901 0014 7047     		bx	lr
 902              	.L91:
 903 0016 00BF     		.align	2
 904              	.L90:
 905 0018 00000000 		.word	pInformation
 906              		.cfi_endproc
 907              	.LFE64:
 909              		.section	.text.Post0_Process,"ax",%progbits
 910              		.align	1
 911              		.global	Post0_Process
 912              		.thumb
 913              		.thumb_func
 915              	Post0_Process:
 916              	.LFB72:
 989:../libraries/STM32_USB-FS-Device_Driver/src/usb_core.c **** {
 917              		.loc 1 989 0
 918              		.cfi_startproc
 919              		@ args = 0, pretend = 0, frame = 0
 920              		@ frame_needed = 0, uses_anonymous_args = 0
 921 0000 08B5     		push	{r3, lr}
 922              	.LCFI9:
 923              		.cfi_def_cfa_offset 8
 924              		.cfi_offset 3, -8
 925              		.cfi_offset 14, -4
 991:../libraries/STM32_USB-FS-Device_Driver/src/usb_core.c ****   SetEPRxCount(ENDP0, Device_Property.MaxPacketSize);
 926              		.loc 1 991 0
 927 0002 0B4B     		ldr	r3, .L94
 928 0004 0020     		movs	r0, #0
 929 0006 93F82C10 		ldrb	r1, [r3, #44]	@ zero_extendqisi2
 930 000a FFF7FEFF 		bl	SetEPRxCount
 931              	.LVL79:
 993:../libraries/STM32_USB-FS-Device_Driver/src/usb_core.c ****   if (pInformation->ControlState == STALLED)
 932              		.loc 1 993 0
 933 000e 0948     		ldr	r0, .L94+4
 934 0010 0168     		ldr	r1, [r0, #0]
 935 0012 087A     		ldrb	r0, [r1, #8]	@ zero_extendqisi2
 936 0014 0828     		cmp	r0, #8
 937 0016 06D1     		bne	.L93
 995:../libraries/STM32_USB-FS-Device_Driver/src/usb_core.c ****     vSetEPRxStatus(EP_RX_STALL);
 938              		.loc 1 995 0
 939 0018 074B     		ldr	r3, .L94+8
 940 001a 4FF48052 		mov	r2, #4096
 941 001e 1A80     		strh	r2, [r3, #0]	@ movhi
 996:../libraries/STM32_USB-FS-Device_Driver/src/usb_core.c ****     vSetEPTxStatus(EP_TX_STALL);
 942              		.loc 1 996 0
 943 0020 064A     		ldr	r2, .L94+12
 944 0022 1021     		movs	r1, #16
 945 0024 1180     		strh	r1, [r2, #0]	@ movhi
 946              	.L93:
1000:../libraries/STM32_USB-FS-Device_Driver/src/usb_core.c **** }
 947              		.loc 1 1000 0
 948 0026 B0F10903 		subs	r3, r0, #9
 949 002a 5842     		rsbs	r0, r3, #0
 950 002c 5841     		adcs	r0, r0, r3
 951 002e 08BD     		pop	{r3, pc}
 952              	.L95:
 953              		.align	2
 954              	.L94:
 955 0030 00000000 		.word	Device_Property
 956 0034 00000000 		.word	pInformation
 957 0038 00000000 		.word	SaveRState
 958 003c 00000000 		.word	SaveTState
 959              		.cfi_endproc
 960              	.LFE72:
 962              		.section	.text.Out0_Process,"ax",%progbits
 963              		.align	1
 964              		.global	Out0_Process
 965              		.thumb
 966              		.thumb_func
 968              	Out0_Process:
 969              	.LFB71:
 948:../libraries/STM32_USB-FS-Device_Driver/src/usb_core.c **** {
 970              		.loc 1 948 0
 971              		.cfi_startproc
 972              		@ args = 0, pretend = 0, frame = 0
 973              		@ frame_needed = 0, uses_anonymous_args = 0
 974 0000 70B5     		push	{r4, r5, r6, lr}
 975              	.LCFI10:
 976              		.cfi_def_cfa_offset 16
 977              		.cfi_offset 4, -16
 978              		.cfi_offset 5, -12
 979              		.cfi_offset 6, -8
 980              		.cfi_offset 14, -4
 949:../libraries/STM32_USB-FS-Device_Driver/src/usb_core.c ****   uint32_t ControlState = pInformation->ControlState;
 981              		.loc 1 949 0
 982 0002 2E4B     		ldr	r3, .L121
 983 0004 1C68     		ldr	r4, [r3, #0]
 984 0006 207A     		ldrb	r0, [r4, #8]	@ zero_extendqisi2
 985              	.LVL80:
 951:../libraries/STM32_USB-FS-Device_Driver/src/usb_core.c ****   if ((ControlState == IN_DATA) || (ControlState == LAST_IN_DATA))
 986              		.loc 1 951 0
 987 0008 0228     		cmp	r0, #2
 988 000a 4FD0     		beq	.L107
 951:../libraries/STM32_USB-FS-Device_Driver/src/usb_core.c ****   if ((ControlState == IN_DATA) || (ControlState == LAST_IN_DATA))
 989              		.loc 1 951 0 is_stmt 0 discriminator 1
 990 000c 0428     		cmp	r0, #4
 991 000e 4DD0     		beq	.L107
 956:../libraries/STM32_USB-FS-Device_Driver/src/usb_core.c ****   else if ((ControlState == OUT_DATA) || (ControlState == LAST_OUT_DATA))
 992              		.loc 1 956 0 is_stmt 1
 993 0010 0328     		cmp	r0, #3
 994 0012 01D0     		beq	.L98
 956:../libraries/STM32_USB-FS-Device_Driver/src/usb_core.c ****   else if ((ControlState == OUT_DATA) || (ControlState == LAST_OUT_DATA))
 995              		.loc 1 956 0 is_stmt 0 discriminator 1
 996 0014 0528     		cmp	r0, #5
 997 0016 43D1     		bne	.L99
 998              	.L98:
 999              	.LVL81:
 1000              	.LBB14:
 1001              	.LBB15:
 450:../libraries/STM32_USB-FS-Device_Driver/src/usb_core.c ****   if (pEPinfo->CopyData && save_rLength)
 1002              		.loc 1 450 0 is_stmt 1
 1003 0018 A169     		ldr	r1, [r4, #24]
 448:../libraries/STM32_USB-FS-Device_Driver/src/usb_core.c ****   save_rLength = pEPinfo->Usb_rLength;
 1004              		.loc 1 448 0
 1005 001a 208A     		ldrh	r0, [r4, #16]
 1006              	.LVL82:
 450:../libraries/STM32_USB-FS-Device_Driver/src/usb_core.c ****   if (pEPinfo->CopyData && save_rLength)
 1007              		.loc 1 450 0
 1008 001c A9B1     		cbz	r1, .L100
 1009 001e A0B1     		cbz	r0, .L100
 1010              	.LBB16:
 455:../libraries/STM32_USB-FS-Device_Driver/src/usb_core.c ****     Length = pEPinfo->PacketSize;
 1011              		.loc 1 455 0
 1012 0020 A58A     		ldrh	r5, [r4, #20]
 1013              	.LVL83:
 461:../libraries/STM32_USB-FS-Device_Driver/src/usb_core.c ****     Buffer = (*pEPinfo->CopyData)(Length);
 1014              		.loc 1 461 0
 1015 0022 8542     		cmp	r5, r0
 1016 0024 28BF     		it	cs
 1017 0026 0546     		movcs	r5, r0
 1018              	.LVL84:
 1019 0028 2846     		mov	r0, r5
 1020              	.LVL85:
 1021 002a 8847     		blx	r1
 1022              	.LVL86:
 462:../libraries/STM32_USB-FS-Device_Driver/src/usb_core.c ****     pEPinfo->Usb_rLength -= Length;
 1023              		.loc 1 462 0
 1024 002c 228A     		ldrh	r2, [r4, #16]
 461:../libraries/STM32_USB-FS-Device_Driver/src/usb_core.c ****     Buffer = (*pEPinfo->CopyData)(Length);
 1025              		.loc 1 461 0
 1026 002e 0646     		mov	r6, r0
 1027              	.LVL87:
 463:../libraries/STM32_USB-FS-Device_Driver/src/usb_core.c ****     pEPinfo->Usb_rOffset += Length;
 1028              		.loc 1 463 0
 1029 0030 608A     		ldrh	r0, [r4, #18]
 1030              	.LVL88:
 462:../libraries/STM32_USB-FS-Device_Driver/src/usb_core.c ****     pEPinfo->Usb_rLength -= Length;
 1031              		.loc 1 462 0
 1032 0032 531B     		subs	r3, r2, r5
 463:../libraries/STM32_USB-FS-Device_Driver/src/usb_core.c ****     pEPinfo->Usb_rOffset += Length;
 1033              		.loc 1 463 0
 1034 0034 2918     		adds	r1, r5, r0
 1035 0036 6182     		strh	r1, [r4, #18]	@ movhi
 462:../libraries/STM32_USB-FS-Device_Driver/src/usb_core.c ****     pEPinfo->Usb_rLength -= Length;
 1036              		.loc 1 462 0
 1037 0038 2382     		strh	r3, [r4, #16]	@ movhi
 464:../libraries/STM32_USB-FS-Device_Driver/src/usb_core.c ****     PMAToUserBufferCopy(Buffer, GetEPRxAddr(ENDP0), Length);
 1038              		.loc 1 464 0
 1039 003a 0020     		movs	r0, #0
 1040 003c FFF7FEFF 		bl	GetEPRxAddr
 1041              	.LVL89:
 1042 0040 2A46     		mov	r2, r5
 1043 0042 0146     		mov	r1, r0
 1044 0044 3046     		mov	r0, r6
 1045 0046 FFF7FEFF 		bl	PMAToUserBufferCopy
 1046              	.LVL90:
 1047              	.L100:
 1048              	.LBE16:
 468:../libraries/STM32_USB-FS-Device_Driver/src/usb_core.c ****   if (pEPinfo->Usb_rLength != 0)
 1049              		.loc 1 468 0
 1050 004a 228A     		ldrh	r2, [r4, #16]
 1051 004c 52B1     		cbz	r2, .L101
 470:../libraries/STM32_USB-FS-Device_Driver/src/usb_core.c ****     vSetEPRxStatus(EP_RX_VALID);/* re-enable for next data reception */
 1052              		.loc 1 470 0
 1053 004e 1C4B     		ldr	r3, .L121+4
 1054 0050 4FF44050 		mov	r0, #12288
 1055 0054 1880     		strh	r0, [r3, #0]	@ movhi
 471:../libraries/STM32_USB-FS-Device_Driver/src/usb_core.c ****     SetEPTxCount(ENDP0, 0);
 1056              		.loc 1 471 0
 1057 0056 0020     		movs	r0, #0
 1058 0058 0146     		mov	r1, r0
 1059 005a FFF7FEFF 		bl	SetEPTxCount
 1060              	.LVL91:
 472:../libraries/STM32_USB-FS-Device_Driver/src/usb_core.c ****     vSetEPTxStatus(EP_TX_VALID);/* Expect the host to abort the data OUT stage */
 1061              		.loc 1 472 0
 1062 005e 194A     		ldr	r2, .L121+8
 1063 0060 3021     		movs	r1, #48
 1064 0062 1180     		strh	r1, [r2, #0]	@ movhi
 1065              	.L101:
 475:../libraries/STM32_USB-FS-Device_Driver/src/usb_core.c ****   if (pEPinfo->Usb_rLength >= pEPinfo->PacketSize)
 1066              		.loc 1 475 0
 1067 0064 208A     		ldrh	r0, [r4, #16]
 1068 0066 A38A     		ldrh	r3, [r4, #20]
 1069 0068 1449     		ldr	r1, .L121
 1070 006a 8342     		cmp	r3, r0
 1071 006c 02D8     		bhi	.L102
 477:../libraries/STM32_USB-FS-Device_Driver/src/usb_core.c ****     pInformation->ControlState = OUT_DATA;
 1072              		.loc 1 477 0
 1073 006e 0B68     		ldr	r3, [r1, #0]
 1074 0070 0322     		movs	r2, #3
 1075 0072 02E0     		b	.L120
 1076              	.L102:
 481:../libraries/STM32_USB-FS-Device_Driver/src/usb_core.c ****     if (pEPinfo->Usb_rLength > 0)
 1077              		.loc 1 481 0
 1078 0074 18B1     		cbz	r0, .L104
 483:../libraries/STM32_USB-FS-Device_Driver/src/usb_core.c ****       pInformation->ControlState = LAST_OUT_DATA;
 1079              		.loc 1 483 0
 1080 0076 0B68     		ldr	r3, [r1, #0]
 1081 0078 0522     		movs	r2, #5
 1082              	.L120:
 1083 007a 1A72     		strb	r2, [r3, #8]
 1084 007c 0CE0     		b	.L103
 1085              	.L104:
 487:../libraries/STM32_USB-FS-Device_Driver/src/usb_core.c ****       pInformation->ControlState = WAIT_STATUS_IN;
 1086              		.loc 1 487 0
 1087 007e 0A68     		ldr	r2, [r1, #0]
 1088 0080 0623     		movs	r3, #6
 488:../libraries/STM32_USB-FS-Device_Driver/src/usb_core.c ****       USB_StatusIn();
 1089              		.loc 1 488 0
 1090 0082 1149     		ldr	r1, .L121+12
 487:../libraries/STM32_USB-FS-Device_Driver/src/usb_core.c ****       pInformation->ControlState = WAIT_STATUS_IN;
 1091              		.loc 1 487 0
 1092 0084 1372     		strb	r3, [r2, #8]
 488:../libraries/STM32_USB-FS-Device_Driver/src/usb_core.c ****       USB_StatusIn();
 1093              		.loc 1 488 0
 1094 0086 0A68     		ldr	r2, [r1, #0]
 1095 0088 1049     		ldr	r1, .L121+16
 1096              	.LBE15:
 1097              		.loc 1 1031 0
 1098 008a 93B2     		uxth	r3, r2
 1099              	.LBB17:
 488:../libraries/STM32_USB-FS-Device_Driver/src/usb_core.c ****       USB_StatusIn();
 1100              		.loc 1 488 0
 1101 008c 5A18     		adds	r2, r3, r1
 1102 008e 5300     		lsls	r3, r2, #1
 1103 0090 0C49     		ldr	r1, .L121+8
 1104 0092 1860     		str	r0, [r3, #0]
 1105 0094 3020     		movs	r0, #48
 1106 0096 0880     		strh	r0, [r1, #0]	@ movhi
 1107              	.L103:
 1108              	.LBE17:
 1109              	.LBE14:
 959:../libraries/STM32_USB-FS-Device_Driver/src/usb_core.c ****     ControlState = pInformation->ControlState; /* may be changed outside the function */
 1110              		.loc 1 959 0
 1111 0098 0848     		ldr	r0, .L121
 1112 009a 0168     		ldr	r1, [r0, #0]
 1113 009c 0B7A     		ldrb	r3, [r1, #8]	@ zero_extendqisi2
 1114              	.LVL92:
 1115 009e 06E0     		b	.L97
 1116              	.LVL93:
 1117              	.L99:
 962:../libraries/STM32_USB-FS-Device_Driver/src/usb_core.c ****   else if (ControlState == WAIT_STATUS_OUT)
 1118              		.loc 1 962 0
 1119 00a0 0728     		cmp	r0, #7
 1120 00a2 03D1     		bne	.L107
 964:../libraries/STM32_USB-FS-Device_Driver/src/usb_core.c ****     (*pProperty->Process_Status_OUT)();
 1121              		.loc 1 964 0
 1122 00a4 0A49     		ldr	r1, .L121+20
 1123 00a6 0A68     		ldr	r2, [r1, #0]
 1124 00a8 D368     		ldr	r3, [r2, #12]
 1125 00aa 9847     		blx	r3
 1126              	.LVL94:
 1127              	.L107:
 954:../libraries/STM32_USB-FS-Device_Driver/src/usb_core.c ****     ControlState = STALLED;
 1128              		.loc 1 954 0
 1129 00ac 0823     		movs	r3, #8
 1130              	.L97:
 1131              	.LVL95:
 975:../libraries/STM32_USB-FS-Device_Driver/src/usb_core.c ****   pInformation->ControlState = ControlState;
 1132              		.loc 1 975 0
 1133 00ae 034A     		ldr	r2, .L121
 1134 00b0 1068     		ldr	r0, [r2, #0]
 1135 00b2 0372     		strb	r3, [r0, #8]
 978:../libraries/STM32_USB-FS-Device_Driver/src/usb_core.c **** }
 1136              		.loc 1 978 0
 1137 00b4 BDE87040 		pop	{r4, r5, r6, lr}
 977:../libraries/STM32_USB-FS-Device_Driver/src/usb_core.c ****   return Post0_Process();
 1138              		.loc 1 977 0
 1139 00b8 FFF7FEBF 		b	Post0_Process
 1140              	.LVL96:
 1141              	.L122:
 1142              		.align	2
 1143              	.L121:
 1144 00bc 00000000 		.word	pInformation
 1145 00c0 00000000 		.word	SaveRState
 1146 00c4 00000000 		.word	SaveTState
 1147 00c8 505C0040 		.word	1073765456
 1148 00cc 02300020 		.word	536883202
 1149 00d0 00000000 		.word	pProperty
 1150              		.cfi_endproc
 1151              	.LFE71:
 1153              		.section	.text.Setup0_Process,"ax",%progbits
 1154              		.align	1
 1155              		.global	Setup0_Process
 1156              		.thumb
 1157              		.thumb_func
 1159              	Setup0_Process:
 1160              	.LFB69:
 863:../libraries/STM32_USB-FS-Device_Driver/src/usb_core.c **** {
 1161              		.loc 1 863 0
 1162              		.cfi_startproc
 1163              		@ args = 0, pretend = 0, frame = 8
 1164              		@ frame_needed = 0, uses_anonymous_args = 0
 1165              	.LVL97:
 872:../libraries/STM32_USB-FS-Device_Driver/src/usb_core.c ****   pBuf.b = PMAAddr + (uint8_t *)(_GetEPRxAddr(ENDP0) * 2); /* *2 for 32 bits addr */
 1166              		.loc 1 872 0
 1167 0000 944B     		ldr	r3, .L193
 863:../libraries/STM32_USB-FS-Device_Driver/src/usb_core.c **** {
 1168              		.loc 1 863 0
 1169 0002 73B5     		push	{r0, r1, r4, r5, r6, lr}
 1170              	.LCFI11:
 1171              		.cfi_def_cfa_offset 24
 1172              		.cfi_offset 0, -24
 1173              		.cfi_offset 1, -20
 1174              		.cfi_offset 4, -16
 1175              		.cfi_offset 5, -12
 1176              		.cfi_offset 6, -8
 1177              		.cfi_offset 14, -4
 872:../libraries/STM32_USB-FS-Device_Driver/src/usb_core.c ****   pBuf.b = PMAAddr + (uint8_t *)(_GetEPRxAddr(ENDP0) * 2); /* *2 for 32 bits addr */
 1178              		.loc 1 872 0
 1179 0004 1A68     		ldr	r2, [r3, #0]
 1180 0006 9449     		ldr	r1, .L193+4
 1181              		.loc 1 1031 0
 1182 0008 90B2     		uxth	r0, r2
 872:../libraries/STM32_USB-FS-Device_Driver/src/usb_core.c ****   pBuf.b = PMAAddr + (uint8_t *)(_GetEPRxAddr(ENDP0) * 2); /* *2 for 32 bits addr */
 1183              		.loc 1 872 0
 1184 000a 4418     		adds	r4, r0, r1
 874:../libraries/STM32_USB-FS-Device_Driver/src/usb_core.c ****   if (pInformation->ControlState != PAUSE)
 1185              		.loc 1 874 0
 1186 000c 934E     		ldr	r6, .L193+8
 872:../libraries/STM32_USB-FS-Device_Driver/src/usb_core.c ****   pBuf.b = PMAAddr + (uint8_t *)(_GetEPRxAddr(ENDP0) * 2); /* *2 for 32 bits addr */
 1187              		.loc 1 872 0
 1188 000e 6500     		lsls	r5, r4, #1
 1189 0010 2A68     		ldr	r2, [r5, #0]
 1190              	.LVL98:
 874:../libraries/STM32_USB-FS-Device_Driver/src/usb_core.c ****   if (pInformation->ControlState != PAUSE)
 1191              		.loc 1 874 0
 1192 0012 3568     		ldr	r5, [r6, #0]
 1193 0014 2B7A     		ldrb	r3, [r5, #8]	@ zero_extendqisi2
 1194 0016 092B     		cmp	r3, #9
 1195 0018 15D0     		beq	.L124
 1196              		.loc 1 1031 0
 1197 001a 90B2     		uxth	r0, r2
 872:../libraries/STM32_USB-FS-Device_Driver/src/usb_core.c ****   pBuf.b = PMAAddr + (uint8_t *)(_GetEPRxAddr(ENDP0) * 2); /* *2 for 32 bits addr */
 1198              		.loc 1 872 0
 1199 001c 4100     		lsls	r1, r0, #1
 1200 001e 01F18044 		add	r4, r1, #1073741824
 1201 0022 04F5C044 		add	r4, r4, #24576
 876:../libraries/STM32_USB-FS-Device_Driver/src/usb_core.c ****     pInformation->USBbmRequestType = *pBuf.b++; /* bmRequestType */
 1202              		.loc 1 876 0
 1203 0026 2278     		ldrb	r2, [r4, #0]	@ zero_extendqisi2
 1204              	.LVL99:
 1205 0028 2A70     		strb	r2, [r5, #0]
 877:../libraries/STM32_USB-FS-Device_Driver/src/usb_core.c ****     pInformation->USBbRequest = *pBuf.b++; /* bRequest */
 1206              		.loc 1 877 0
 1207 002a 6378     		ldrb	r3, [r4, #1]	@ zero_extendqisi2
 1208 002c 6B70     		strb	r3, [r5, #1]
 879:../libraries/STM32_USB-FS-Device_Driver/src/usb_core.c ****     pInformation->USBwValue = ByteSwap(*pBuf.w++); /* wValue */
 1209              		.loc 1 879 0
 1210 002e A088     		ldrh	r0, [r4, #4]
 1211 0030 FFF7FEFF 		bl	ByteSwap
 1212              	.LVL100:
 1213 0034 6880     		strh	r0, [r5, #2]	@ movhi
 881:../libraries/STM32_USB-FS-Device_Driver/src/usb_core.c ****     pInformation->USBwIndex  = ByteSwap(*pBuf.w++); /* wIndex */
 1214              		.loc 1 881 0
 1215 0036 2089     		ldrh	r0, [r4, #8]
 1216 0038 3568     		ldr	r5, [r6, #0]
 1217 003a FFF7FEFF 		bl	ByteSwap
 1218              	.LVL101:
 1219 003e A880     		strh	r0, [r5, #4]	@ movhi
 883:../libraries/STM32_USB-FS-Device_Driver/src/usb_core.c ****     pInformation->USBwLength = *pBuf.w; /* wLength */
 1220              		.loc 1 883 0
 1221 0040 A089     		ldrh	r0, [r4, #12]
 1222 0042 3168     		ldr	r1, [r6, #0]
 1223 0044 C880     		strh	r0, [r1, #6]	@ movhi
 1224              	.L124:
 886:../libraries/STM32_USB-FS-Device_Driver/src/usb_core.c ****   pInformation->ControlState = SETTING_UP;
 1225              		.loc 1 886 0
 1226 0046 854D     		ldr	r5, .L193+8
 1227 0048 0124     		movs	r4, #1
 1228 004a 2B68     		ldr	r3, [r5, #0]
 887:../libraries/STM32_USB-FS-Device_Driver/src/usb_core.c ****   if (pInformation->USBwLength == 0)
 1229              		.loc 1 887 0
 1230 004c DA88     		ldrh	r2, [r3, #6]
 886:../libraries/STM32_USB-FS-Device_Driver/src/usb_core.c ****   pInformation->ControlState = SETTING_UP;
 1231              		.loc 1 886 0
 1232 004e 1C72     		strb	r4, [r3, #8]
 1233 0050 5C78     		ldrb	r4, [r3, #1]	@ zero_extendqisi2
 887:../libraries/STM32_USB-FS-Device_Driver/src/usb_core.c ****   if (pInformation->USBwLength == 0)
 1234              		.loc 1 887 0
 1235 0052 002A     		cmp	r2, #0
 1236 0054 64D1     		bne	.L125
 1237              	.LVL102:
 1238              	.LBB24:
 566:../libraries/STM32_USB-FS-Device_Driver/src/usb_core.c ****   if (Type_Recipient == (STANDARD_REQUEST | DEVICE_RECIPIENT))
 1239              		.loc 1 566 0
 1240 0056 1878     		ldrb	r0, [r3, #0]	@ zero_extendqisi2
 1241              	.LBB25:
 1242 0058 10F07F02 		ands	r2, r0, #127
 1243 005c 38D1     		bne	.L126
 570:../libraries/STM32_USB-FS-Device_Driver/src/usb_core.c ****     if (RequestNo == SET_CONFIGURATION)
 1244              		.loc 1 570 0
 1245 005e 092C     		cmp	r4, #9
 1246 0060 02D1     		bne	.L127
 572:../libraries/STM32_USB-FS-Device_Driver/src/usb_core.c ****       Result = Standard_SetConfiguration();
 1247              		.loc 1 572 0
 1248 0062 FFF7FEFF 		bl	Standard_SetConfiguration
 1249              	.LVL103:
 1250 0066 45E0     		b	.L128
 1251              	.LVL104:
 1252              	.L127:
 576:../libraries/STM32_USB-FS-Device_Driver/src/usb_core.c ****     else if (RequestNo == SET_ADDRESS)
 1253              		.loc 1 576 0
 1254 0068 052C     		cmp	r4, #5
 1255 006a 0FD1     		bne	.L129
 578:../libraries/STM32_USB-FS-Device_Driver/src/usb_core.c ****       if ((pInformation->USBwValue0 > 127) || (pInformation->USBwValue1 != 0)
 1256              		.loc 1 578 0
 1257 006c 93F90320 		ldrsb	r2, [r3, #3]
 1258 0070 002A     		cmp	r2, #0
 1259 0072 01DA     		bge	.L130
 1260              	.LVL105:
 1261              	.L132:
 1262              	.LBE25:
 1263              	.LBE24:
 583:../libraries/STM32_USB-FS-Device_Driver/src/usb_core.c ****         ControlState = STALLED;
 1264              		.loc 1 583 0
 1265 0074 0821     		movs	r1, #8
 1266 0076 4FE0     		b	.L131
 1267              	.LVL106:
 1268              	.L130:
 1269              	.LBB29:
 1270              	.LBB26:
 578:../libraries/STM32_USB-FS-Device_Driver/src/usb_core.c ****       if ((pInformation->USBwValue0 > 127) || (pInformation->USBwValue1 != 0)
 1271              		.loc 1 578 0
 1272 0078 9978     		ldrb	r1, [r3, #2]	@ zero_extendqisi2
 1273 007a 0029     		cmp	r1, #0
 1274 007c FAD1     		bne	.L132
 579:../libraries/STM32_USB-FS-Device_Driver/src/usb_core.c ****           || (pInformation->USBwIndex != 0)
 1275              		.loc 1 579 0
 1276 007e 9888     		ldrh	r0, [r3, #4]
 1277 0080 0028     		cmp	r0, #0
 1278 0082 F7D1     		bne	.L132
 580:../libraries/STM32_USB-FS-Device_Driver/src/usb_core.c ****           || (pInformation->Current_Configuration != 0))
 1279              		.loc 1 580 0
 1280 0084 9B7A     		ldrb	r3, [r3, #10]	@ zero_extendqisi2
 1281 0086 002B     		cmp	r3, #0
 1282 0088 38D0     		beq	.L163
 1283 008a F3E7     		b	.L132
 1284              	.L129:
 592:../libraries/STM32_USB-FS-Device_Driver/src/usb_core.c ****     else if (RequestNo == SET_FEATURE)
 1285              		.loc 1 592 0
 1286 008c 032C     		cmp	r4, #3
 1287 008e 10D1     		bne	.L134
 594:../libraries/STM32_USB-FS-Device_Driver/src/usb_core.c ****       if ((pInformation->USBwValue0 == DEVICE_REMOTE_WAKEUP) \
 1288              		.loc 1 594 0
 1289 0090 D878     		ldrb	r0, [r3, #3]	@ zero_extendqisi2
 1290 0092 0128     		cmp	r0, #1
 1291 0094 07D0     		beq	.L135
 1292              	.LVL107:
 1293              	.L137:
 653:../libraries/STM32_USB-FS-Device_Driver/src/usb_core.c ****     Result = (*pProperty->Class_NoData_Setup)(RequestNo);
 1294              		.loc 1 653 0
 1295 0096 724A     		ldr	r2, .L193+12
 1296 0098 2046     		mov	r0, r4
 1297 009a 1168     		ldr	r1, [r2, #0]
 1298 009c 4B69     		ldr	r3, [r1, #20]
 1299 009e 9847     		blx	r3
 1300              	.LVL108:
 654:../libraries/STM32_USB-FS-Device_Driver/src/usb_core.c ****     if (Result == USB_NOT_READY)
 1301              		.loc 1 654 0
 1302 00a0 0328     		cmp	r0, #3
 1303 00a2 29D1     		bne	.L186
 1304 00a4 37E0     		b	.L192
 1305              	.LVL109:
 1306              	.L135:
 595:../libraries/STM32_USB-FS-Device_Driver/src/usb_core.c ****           && (pInformation->USBwIndex == 0))
 1307              		.loc 1 595 0
 1308 00a6 9B88     		ldrh	r3, [r3, #4]
 1309 00a8 002B     		cmp	r3, #0
 1310 00aa F4D1     		bne	.L137
 597:../libraries/STM32_USB-FS-Device_Driver/src/usb_core.c ****         Result = Standard_SetDeviceFeature();
 1311              		.loc 1 597 0
 1312 00ac FFF7FEFF 		bl	Standard_SetDeviceFeature
 1313              	.LVL110:
 1314 00b0 20E0     		b	.L128
 1315              	.LVL111:
 1316              	.L134:
 605:../libraries/STM32_USB-FS-Device_Driver/src/usb_core.c ****     else if (RequestNo == CLEAR_FEATURE)
 1317              		.loc 1 605 0
 1318 00b2 012C     		cmp	r4, #1
 1319 00b4 EFD1     		bne	.L137
 607:../libraries/STM32_USB-FS-Device_Driver/src/usb_core.c ****       if (pInformation->USBwValue0 == DEVICE_REMOTE_WAKEUP
 1320              		.loc 1 607 0
 1321 00b6 D978     		ldrb	r1, [r3, #3]	@ zero_extendqisi2
 1322 00b8 0129     		cmp	r1, #1
 1323 00ba ECD1     		bne	.L137
 608:../libraries/STM32_USB-FS-Device_Driver/src/usb_core.c ****           && pInformation->USBwIndex == 0
 1324              		.loc 1 608 0
 1325 00bc 9888     		ldrh	r0, [r3, #4]
 1326 00be 0028     		cmp	r0, #0
 1327 00c0 E9D1     		bne	.L137
 1328              	.LBE26:
 609:../libraries/STM32_USB-FS-Device_Driver/src/usb_core.c ****           && ValBit(pInformation->Current_Feature, 5))
 1329              		.loc 1 609 0
 1330 00c2 5B7A     		ldrb	r3, [r3, #9]	@ zero_extendqisi2
 1331              	.LBB27:
 1332 00c4 03F02002 		and	r2, r3, #32
 1333 00c8 D1B2     		uxtb	r1, r2
 1334 00ca 0029     		cmp	r1, #0
 1335 00cc E3D0     		beq	.L137
 1336 00ce 0AE0     		b	.L188
 1337              	.L126:
 622:../libraries/STM32_USB-FS-Device_Driver/src/usb_core.c ****   else if (Type_Recipient == (STANDARD_REQUEST | INTERFACE_RECIPIENT))
 1338              		.loc 1 622 0
 1339 00d0 012A     		cmp	r2, #1
 1340 00d2 04D1     		bne	.L138
 625:../libraries/STM32_USB-FS-Device_Driver/src/usb_core.c ****     if (RequestNo == SET_INTERFACE)
 1341              		.loc 1 625 0
 1342 00d4 0B2C     		cmp	r4, #11
 1343 00d6 DED1     		bne	.L137
 627:../libraries/STM32_USB-FS-Device_Driver/src/usb_core.c ****       Result = Standard_SetInterface();
 1344              		.loc 1 627 0
 1345 00d8 FFF7FEFF 		bl	Standard_SetInterface
 1346              	.LVL112:
 1347 00dc 0AE0     		b	.L128
 1348              	.LVL113:
 1349              	.L138:
 632:../libraries/STM32_USB-FS-Device_Driver/src/usb_core.c ****   else if (Type_Recipient == (STANDARD_REQUEST | ENDPOINT_RECIPIENT))
 1350              		.loc 1 632 0
 1351 00de 022A     		cmp	r2, #2
 1352 00e0 D9D1     		bne	.L137
 635:../libraries/STM32_USB-FS-Device_Driver/src/usb_core.c ****     if (RequestNo == CLEAR_FEATURE)
 1353              		.loc 1 635 0
 1354 00e2 012C     		cmp	r4, #1
 1355 00e4 02D1     		bne	.L139
 1356              	.L188:
 637:../libraries/STM32_USB-FS-Device_Driver/src/usb_core.c ****       Result = Standard_ClearFeature();
 1357              		.loc 1 637 0
 1358 00e6 FFF7FEFF 		bl	Standard_ClearFeature
 1359              	.LVL114:
 1360 00ea 03E0     		b	.L128
 1361              	.LVL115:
 1362              	.L139:
 640:../libraries/STM32_USB-FS-Device_Driver/src/usb_core.c ****     else if (RequestNo == SET_FEATURE)
 1363              		.loc 1 640 0
 1364 00ec 032C     		cmp	r4, #3
 1365 00ee D2D1     		bne	.L137
 642:../libraries/STM32_USB-FS-Device_Driver/src/usb_core.c ****       Result = Standard_SetEndPointFeature();
 1366              		.loc 1 642 0
 1367 00f0 FFF7FEFF 		bl	Standard_SetEndPointFeature
 1368              	.LVL116:
 1369              	.L128:
 651:../libraries/STM32_USB-FS-Device_Driver/src/usb_core.c ****   if (Result != USB_SUCCESS)
 1370              		.loc 1 651 0
 1371 00f4 10B1     		cbz	r0, .L163
 1372 00f6 CEE7     		b	.L137
 1373              	.L186:
 661:../libraries/STM32_USB-FS-Device_Driver/src/usb_core.c ****   if (Result != USB_SUCCESS)
 1374              		.loc 1 661 0
 1375 00f8 0028     		cmp	r0, #0
 1376 00fa BBD1     		bne	.L132
 1377              	.LVL117:
 1378              	.L163:
 669:../libraries/STM32_USB-FS-Device_Driver/src/usb_core.c ****   USB_StatusIn();
 1379              		.loc 1 669 0
 1380 00fc 5548     		ldr	r0, .L193
 1381 00fe 594B     		ldr	r3, .L193+16
 1382 0100 0268     		ldr	r2, [r0, #0]
 1383              	.LBE27:
 1384              		.loc 1 1031 0
 1385 0102 91B2     		uxth	r1, r2
 1386              	.LBB28:
 669:../libraries/STM32_USB-FS-Device_Driver/src/usb_core.c ****   USB_StatusIn();
 1387              		.loc 1 669 0
 1388 0104 C818     		adds	r0, r1, r3
 1389 0106 584B     		ldr	r3, .L193+20
 1390 0108 4100     		lsls	r1, r0, #1
 1391 010a 0022     		movs	r2, #0
 1392 010c 3020     		movs	r0, #48
 1393 010e 0A60     		str	r2, [r1, #0]
 1394 0110 1880     		strh	r0, [r3, #0]	@ movhi
 667:../libraries/STM32_USB-FS-Device_Driver/src/usb_core.c ****   ControlState = WAIT_STATUS_IN;/* After no data stage SETUP */
 1395              		.loc 1 667 0
 1396 0112 0621     		movs	r1, #6
 1397 0114 00E0     		b	.L131
 1398              	.LVL118:
 1399              	.L192:
 656:../libraries/STM32_USB-FS-Device_Driver/src/usb_core.c ****       ControlState = PAUSE;
 1400              		.loc 1 656 0
 1401 0116 0921     		movs	r1, #9
 1402              	.LVL119:
 1403              	.L131:
 672:../libraries/STM32_USB-FS-Device_Driver/src/usb_core.c ****   pInformation->ControlState = ControlState;
 1404              		.loc 1 672 0
 1405 0118 504A     		ldr	r2, .L193+8
 1406 011a 1068     		ldr	r0, [r2, #0]
 1407 011c 0172     		strb	r1, [r0, #8]
 1408 011e D3E0     		b	.L140
 1409              	.LVL120:
 1410              	.L125:
 1411              	.LBE28:
 1412              	.LBE29:
 1413              	.LBB30:
 1414              	.LBB31:
 698:../libraries/STM32_USB-FS-Device_Driver/src/usb_core.c ****   if (Request_No == GET_DESCRIPTOR)
 1415              		.loc 1 698 0
 1416 0120 062C     		cmp	r4, #6
 1417 0122 13D1     		bne	.L141
 1418              	.LBE31:
 700:../libraries/STM32_USB-FS-Device_Driver/src/usb_core.c ****     if (Type_Recipient == (STANDARD_REQUEST | DEVICE_RECIPIENT))
 1419              		.loc 1 700 0
 1420 0124 1C78     		ldrb	r4, [r3, #0]	@ zero_extendqisi2
 1421              	.LVL121:
 1422              	.LBB34:
 1423 0126 6106     		lsls	r1, r4, #25
 1424 0128 7AD1     		bne	.L154
 1425              	.LBB32:
 702:../libraries/STM32_USB-FS-Device_Driver/src/usb_core.c ****       uint8_t wValue1 = pInformation->USBwValue1;
 1426              		.loc 1 702 0
 1427 012a 9A78     		ldrb	r2, [r3, #2]	@ zero_extendqisi2
 1428              	.LVL122:
 1429 012c 4C4B     		ldr	r3, .L193+12
 1430              	.LVL123:
 703:../libraries/STM32_USB-FS-Device_Driver/src/usb_core.c ****       if (wValue1 == DEVICE_DESCRIPTOR)
 1431              		.loc 1 703 0
 1432 012e 012A     		cmp	r2, #1
 1433 0130 02D1     		bne	.L143
 705:../libraries/STM32_USB-FS-Device_Driver/src/usb_core.c ****         CopyRoutine = pProperty->GetDeviceDescriptor;
 1434              		.loc 1 705 0
 1435 0132 1C68     		ldr	r4, [r3, #0]
 1436 0134 E369     		ldr	r3, [r4, #28]
 1437              	.LVL124:
 1438 0136 69E0     		b	.L144
 1439              	.LVL125:
 1440              	.L143:
 707:../libraries/STM32_USB-FS-Device_Driver/src/usb_core.c ****       else if (wValue1 == CONFIG_DESCRIPTOR)
 1441              		.loc 1 707 0
 1442 0138 022A     		cmp	r2, #2
 1443 013a 02D1     		bne	.L145
 709:../libraries/STM32_USB-FS-Device_Driver/src/usb_core.c ****         CopyRoutine = pProperty->GetConfigDescriptor;
 1444              		.loc 1 709 0
 1445 013c 1868     		ldr	r0, [r3, #0]
 1446 013e 036A     		ldr	r3, [r0, #32]
 1447              	.LVL126:
 1448 0140 64E0     		b	.L144
 1449              	.LVL127:
 1450              	.L145:
 711:../libraries/STM32_USB-FS-Device_Driver/src/usb_core.c ****       else if (wValue1 == STRING_DESCRIPTOR)
 1451              		.loc 1 711 0
 1452 0142 032A     		cmp	r2, #3
 1453 0144 6CD1     		bne	.L154
 713:../libraries/STM32_USB-FS-Device_Driver/src/usb_core.c ****         CopyRoutine = pProperty->GetStringDescriptor;
 1454              		.loc 1 713 0
 1455 0146 1968     		ldr	r1, [r3, #0]
 1456 0148 4B6A     		ldr	r3, [r1, #36]
 1457              	.LVL128:
 1458 014a 5FE0     		b	.L144
 1459              	.LVL129:
 1460              	.L141:
 1461              	.LBE32:
 719:../libraries/STM32_USB-FS-Device_Driver/src/usb_core.c ****   else if ((Request_No == GET_STATUS) && (pInformation->USBwValue == 0)
 1462              		.loc 1 719 0
 1463 014c 002C     		cmp	r4, #0
 1464 014e 3ED1     		bne	.L146
 1465 0150 5988     		ldrh	r1, [r3, #2]
 1466 0152 0029     		cmp	r1, #0
 1467 0154 64D1     		bne	.L154
 721:../libraries/STM32_USB-FS-Device_Driver/src/usb_core.c ****            && (pInformation->USBwIndex1 == 0))
 1468              		.loc 1 721 0
 1469 0156 5868     		ldr	r0, [r3, #4]
 1470 0158 20F47F42 		bic	r2, r0, #65280
 1471 015c B2F5003F 		cmp	r2, #131072
 1472 0160 5ED1     		bne	.L154
 1473              	.LBE34:
 724:../libraries/STM32_USB-FS-Device_Driver/src/usb_core.c ****     if ((Type_Recipient == (STANDARD_REQUEST | DEVICE_RECIPIENT))
 1474              		.loc 1 724 0
 1475 0162 1C78     		ldrb	r4, [r3, #0]	@ zero_extendqisi2
 1476              	.LVL130:
 1477              	.LBB35:
 1478 0164 14F07F00 		ands	r0, r4, #127
 1479 0168 04D1     		bne	.L147
 725:../libraries/STM32_USB-FS-Device_Driver/src/usb_core.c ****         && (pInformation->USBwIndex == 0))
 1480              		.loc 1 725 0
 1481 016a 9888     		ldrh	r0, [r3, #4]
 1482 016c 0028     		cmp	r0, #0
 1483 016e 00F0AE80 		beq	.L148
 1484 0172 55E0     		b	.L154
 1485              	.L147:
 731:../libraries/STM32_USB-FS-Device_Driver/src/usb_core.c ****     else if (Type_Recipient == (STANDARD_REQUEST | INTERFACE_RECIPIENT))
 1486              		.loc 1 731 0
 1487 0174 0128     		cmp	r0, #1
 1488 0176 0CD1     		bne	.L149
 733:../libraries/STM32_USB-FS-Device_Driver/src/usb_core.c ****       if (((*pProperty->Class_Get_Interface_Setting)(pInformation->USBwIndex0, 0) == USB_SUCCESS)
 1489              		.loc 1 733 0
 1490 0178 394A     		ldr	r2, .L193+12
 1491 017a 5879     		ldrb	r0, [r3, #5]	@ zero_extendqisi2
 1492 017c 1468     		ldr	r4, [r2, #0]
 1493 017e A269     		ldr	r2, [r4, #24]
 1494 0180 9047     		blx	r2
 1495              	.LVL131:
 1496 0182 0028     		cmp	r0, #0
 1497 0184 4CD1     		bne	.L154
 734:../libraries/STM32_USB-FS-Device_Driver/src/usb_core.c ****           && (pInformation->Current_Configuration != 0))
 1498              		.loc 1 734 0
 1499 0186 2B68     		ldr	r3, [r5, #0]
 1500 0188 997A     		ldrb	r1, [r3, #10]	@ zero_extendqisi2
 1501 018a 0029     		cmp	r1, #0
 1502 018c 40F09F80 		bne	.L148
 1503 0190 46E0     		b	.L154
 1504              	.LVL132:
 1505              	.L149:
 741:../libraries/STM32_USB-FS-Device_Driver/src/usb_core.c ****     else if (Type_Recipient == (STANDARD_REQUEST | ENDPOINT_RECIPIENT))
 1506              		.loc 1 741 0
 1507 0192 0228     		cmp	r0, #2
 1508 0194 44D1     		bne	.L154
 743:../libraries/STM32_USB-FS-Device_Driver/src/usb_core.c ****       Related_Endpoint = (pInformation->USBwIndex0 & 0x0f);
 1509              		.loc 1 743 0
 1510 0196 5B79     		ldrb	r3, [r3, #5]	@ zero_extendqisi2
 1511              	.LVL133:
 1512 0198 03F00F01 		and	r1, r3, #15
 1513              	.LVL134:
 1514 019c 4FEA8102 		lsl	r2, r1, #2
 750:../libraries/STM32_USB-FS-Device_Driver/src/usb_core.c ****         Status = _GetEPTxStatus(Related_Endpoint);
 1515              		.loc 1 750 0
 1516 01a0 02F18044 		add	r4, r2, #1073741824
 1517 01a4 04F5B840 		add	r0, r4, #23552
 757:../libraries/STM32_USB-FS-Device_Driver/src/usb_core.c ****       if ((Related_Endpoint < Device_Table.Total_Endpoint) && (Reserved == 0)
 1518              		.loc 1 757 0
 1519 01a8 304C     		ldr	r4, .L193+24
 750:../libraries/STM32_USB-FS-Device_Driver/src/usb_core.c ****         Status = _GetEPTxStatus(Related_Endpoint);
 1520              		.loc 1 750 0
 1521 01aa 0268     		ldr	r2, [r0, #0]
 757:../libraries/STM32_USB-FS-Device_Driver/src/usb_core.c ****       if ((Related_Endpoint < Device_Table.Total_Endpoint) && (Reserved == 0)
 1522              		.loc 1 757 0
 1523 01ac 2078     		ldrb	r0, [r4, #0]	@ zero_extendqisi2
 746:../libraries/STM32_USB-FS-Device_Driver/src/usb_core.c ****       if (ValBit(pInformation->USBwIndex0, 7))
 1524              		.loc 1 746 0
 1525 01ae 13F0800F 		tst	r3, #128
 750:../libraries/STM32_USB-FS-Device_Driver/src/usb_core.c ****         Status = _GetEPTxStatus(Related_Endpoint);
 1526              		.loc 1 750 0
 1527 01b2 14BF     		ite	ne
 1528 01b4 02F03002 		andne	r2, r2, #48
 1529              	.LVL135:
 754:../libraries/STM32_USB-FS-Device_Driver/src/usb_core.c ****         Status = _GetEPRxStatus(Related_Endpoint);
 1530              		.loc 1 754 0
 1531 01b8 02F44052 		andeq	r2, r2, #12288
 1532              	.LVL136:
 757:../libraries/STM32_USB-FS-Device_Driver/src/usb_core.c ****       if ((Related_Endpoint < Device_Table.Total_Endpoint) && (Reserved == 0)
 1533              		.loc 1 757 0
 1534 01bc 8142     		cmp	r1, r0
 1535 01be 2FD2     		bcs	.L154
 1536 01c0 13F0700F 		tst	r3, #112
 1537 01c4 2CD1     		bne	.L154
 758:../libraries/STM32_USB-FS-Device_Driver/src/usb_core.c ****           && (Status != 0))
 1538              		.loc 1 758 0
 1539 01c6 002A     		cmp	r2, #0
 1540 01c8 40F08180 		bne	.L148
 1541 01cc 28E0     		b	.L154
 1542              	.LVL137:
 1543              	.L146:
 767:../libraries/STM32_USB-FS-Device_Driver/src/usb_core.c ****   else if (Request_No == GET_CONFIGURATION)
 1544              		.loc 1 767 0
 1545 01ce 082C     		cmp	r4, #8
 1546 01d0 03D1     		bne	.L152
 1547              	.LBE35:
 769:../libraries/STM32_USB-FS-Device_Driver/src/usb_core.c ****     if (Type_Recipient == (STANDARD_REQUEST | DEVICE_RECIPIENT))
 1548              		.loc 1 769 0
 1549 01d2 1978     		ldrb	r1, [r3, #0]	@ zero_extendqisi2
 1550              	.LBB36:
 1551 01d4 4A06     		lsls	r2, r1, #25
 1552 01d6 7CD0     		beq	.L166
 1553 01d8 22E0     		b	.L154
 1554              	.L152:
 775:../libraries/STM32_USB-FS-Device_Driver/src/usb_core.c ****   else if (Request_No == GET_INTERFACE)
 1555              		.loc 1 775 0
 1556 01da 0A2C     		cmp	r4, #10
 1557 01dc 20D1     		bne	.L154
 1558              	.LBE36:
 777:../libraries/STM32_USB-FS-Device_Driver/src/usb_core.c ****     if ((Type_Recipient == (STANDARD_REQUEST | INTERFACE_RECIPIENT))
 1559              		.loc 1 777 0
 1560 01de 1878     		ldrb	r0, [r3, #0]	@ zero_extendqisi2
 1561              	.LBB37:
 1562 01e0 00F07F01 		and	r1, r0, #127
 1563 01e4 0129     		cmp	r1, #1
 1564 01e6 1BD1     		bne	.L154
 778:../libraries/STM32_USB-FS-Device_Driver/src/usb_core.c ****         && (pInformation->Current_Configuration != 0) && (pInformation->USBwValue == 0)
 1565              		.loc 1 778 0
 1566 01e8 9C7A     		ldrb	r4, [r3, #10]	@ zero_extendqisi2
 1567              	.LVL138:
 1568 01ea CCB1     		cbz	r4, .L154
 1569 01ec 5988     		ldrh	r1, [r3, #2]
 1570 01ee B9B9     		cbnz	r1, .L154
 779:../libraries/STM32_USB-FS-Device_Driver/src/usb_core.c ****         && (pInformation->USBwIndex1 == 0) && (pInformation->USBwLength == 0x0001)
 1571              		.loc 1 779 0
 1572 01f0 5A68     		ldr	r2, [r3, #4]
 1573 01f2 22F47F40 		bic	r0, r2, #65280
 1574 01f6 B0F5803F 		cmp	r0, #65536
 1575 01fa 11D1     		bne	.L154
 780:../libraries/STM32_USB-FS-Device_Driver/src/usb_core.c ****         && ((*pProperty->Class_Get_Interface_Setting)(pInformation->USBwIndex0, 0) == USB_SUCCESS))
 1576              		.loc 1 780 0
 1577 01fc 184C     		ldr	r4, .L193+12
 1578 01fe 5879     		ldrb	r0, [r3, #5]	@ zero_extendqisi2
 1579 0200 2268     		ldr	r2, [r4, #0]
 1580 0202 9469     		ldr	r4, [r2, #24]
 1581 0204 A047     		blx	r4
 1582              	.LVL139:
 1583 0206 0028     		cmp	r0, #0
 1584 0208 65D0     		beq	.L167
 1585 020a 09E0     		b	.L154
 1586              	.LVL140:
 1587              	.L144:
 787:../libraries/STM32_USB-FS-Device_Driver/src/usb_core.c ****   if (CopyRoutine)
 1588              		.loc 1 787 0
 1589 020c 43B1     		cbz	r3, .L154
 1590              	.LVL141:
 1591              	.L164:
 789:../libraries/STM32_USB-FS-Device_Driver/src/usb_core.c ****     pInformation->Ctrl_Info.Usb_wOffset = wOffset;
 1592              		.loc 1 789 0
 1593 020e 1348     		ldr	r0, .L193+8
 1594 0210 0024     		movs	r4, #0
 1595 0212 0168     		ldr	r1, [r0, #0]
 793:../libraries/STM32_USB-FS-Device_Driver/src/usb_core.c ****     (*CopyRoutine)(0);
 1596              		.loc 1 793 0
 1597 0214 2046     		mov	r0, r4
 789:../libraries/STM32_USB-FS-Device_Driver/src/usb_core.c ****     pInformation->Ctrl_Info.Usb_wOffset = wOffset;
 1598              		.loc 1 789 0
 1599 0216 4C82     		strh	r4, [r1, #18]	@ movhi
 790:../libraries/STM32_USB-FS-Device_Driver/src/usb_core.c ****     pInformation->Ctrl_Info.CopyData = CopyRoutine;
 1600              		.loc 1 790 0
 1601 0218 8B61     		str	r3, [r1, #24]
 793:../libraries/STM32_USB-FS-Device_Driver/src/usb_core.c ****     (*CopyRoutine)(0);
 1602              		.loc 1 793 0
 1603 021a 9847     		blx	r3
 1604              	.LVL142:
 794:../libraries/STM32_USB-FS-Device_Driver/src/usb_core.c ****     Result = USB_SUCCESS;
 1605              		.loc 1 794 0
 1606 021c 2046     		mov	r0, r4
 1607 021e 0AE0     		b	.L155
 1608              	.LVL143:
 1609              	.L154:
 798:../libraries/STM32_USB-FS-Device_Driver/src/usb_core.c ****     Result = (*pProperty->Class_Data_Setup)(pInformation->USBbRequest);
 1610              		.loc 1 798 0
 1611 0220 0F4A     		ldr	r2, .L193+12
 1612 0222 0E4C     		ldr	r4, .L193+8
 1613 0224 1168     		ldr	r1, [r2, #0]
 1614 0226 2368     		ldr	r3, [r4, #0]
 1615 0228 0A69     		ldr	r2, [r1, #16]
 1616 022a 5878     		ldrb	r0, [r3, #1]	@ zero_extendqisi2
 1617 022c 9047     		blx	r2
 1618              	.LVL144:
 799:../libraries/STM32_USB-FS-Device_Driver/src/usb_core.c ****     if (Result == USB_NOT_READY)
 1619              		.loc 1 799 0
 1620 022e 0328     		cmp	r0, #3
 1621 0230 01D1     		bne	.L155
 801:../libraries/STM32_USB-FS-Device_Driver/src/usb_core.c ****       pInformation->ControlState = PAUSE;
 1622              		.loc 1 801 0
 1623 0232 2368     		ldr	r3, [r4, #0]
 1624 0234 06E0     		b	.L191
 1625              	.LVL145:
 1626              	.L155:
 806:../libraries/STM32_USB-FS-Device_Driver/src/usb_core.c ****   if (pInformation->Ctrl_Info.Usb_wLength == 0xFFFF)
 1627              		.loc 1 806 0
 1628 0236 094B     		ldr	r3, .L193+8
 1629 0238 4FF6FF71 		movw	r1, #65535
 1630 023c 1B68     		ldr	r3, [r3, #0]
 1631 023e 1A8A     		ldrh	r2, [r3, #16]
 1632 0240 8A42     		cmp	r2, r1
 1633 0242 01D1     		bne	.L156
 1634              	.LVL146:
 1635              	.L191:
 809:../libraries/STM32_USB-FS-Device_Driver/src/usb_core.c ****     pInformation->ControlState = PAUSE;
 1636              		.loc 1 809 0
 1637 0244 0921     		movs	r1, #9
 1638 0246 03E0     		b	.L190
 1639              	.LVL147:
 1640              	.L156:
 812:../libraries/STM32_USB-FS-Device_Driver/src/usb_core.c ****   if ((Result == USB_UNSUPPORT) || (pInformation->Ctrl_Info.Usb_wLength == 0))
 1641              		.loc 1 812 0
 1642 0248 0228     		cmp	r0, #2
 1643 024a 00D0     		beq	.L157
 1644 024c 82B9     		cbnz	r2, .L158
 1645              	.L157:
 815:../libraries/STM32_USB-FS-Device_Driver/src/usb_core.c ****     pInformation->ControlState = STALLED;
 1646              		.loc 1 815 0
 1647 024e 0821     		movs	r1, #8
 1648              	.LVL148:
 1649              	.L190:
 1650 0250 1972     		strb	r1, [r3, #8]
 1651 0252 39E0     		b	.L140
 1652              	.L194:
 1653              		.align	2
 1654              	.L193:
 1655 0254 505C0040 		.word	1073765456
 1656 0258 04300020 		.word	536883204
 1657 025c 00000000 		.word	pInformation
 1658 0260 00000000 		.word	pProperty
 1659 0264 02300020 		.word	536883202
 1660 0268 00000000 		.word	SaveTState
 1661 026c 00000000 		.word	Device_Table
 1662              	.LVL149:
 1663              	.L158:
 820:../libraries/STM32_USB-FS-Device_Driver/src/usb_core.c ****   if (ValBit(pInformation->USBbmRequestType, 7))
 1664              		.loc 1 820 0
 1665 0270 93F90000 		ldrsb	r0, [r3, #0]
 1666              	.LVL150:
 1667 0274 0028     		cmp	r0, #0
 1668 0276 21DA     		bge	.L159
 1669              	.LBB33:
 823:../libraries/STM32_USB-FS-Device_Driver/src/usb_core.c ****     __IO uint32_t wLength = pInformation->USBwLength;
 1670              		.loc 1 823 0
 1671 0278 D988     		ldrh	r1, [r3, #6]
 1672 027a 0191     		str	r1, [sp, #4]
 1673              	.LVL151:
 826:../libraries/STM32_USB-FS-Device_Driver/src/usb_core.c ****     if (pInformation->Ctrl_Info.Usb_wLength > wLength)
 1674              		.loc 1 826 0
 1675 027c 0198     		ldr	r0, [sp, #4]
 1676 027e 8242     		cmp	r2, r0
 1677 0280 02D9     		bls	.L160
 828:../libraries/STM32_USB-FS-Device_Driver/src/usb_core.c ****       pInformation->Ctrl_Info.Usb_wLength = wLength;
 1678              		.loc 1 828 0
 1679 0282 019A     		ldr	r2, [sp, #4]
 1680 0284 1A82     		strh	r2, [r3, #16]	@ movhi
 1681 0286 11E0     		b	.L161
 1682              	.L160:
 831:../libraries/STM32_USB-FS-Device_Driver/src/usb_core.c ****     else if (pInformation->Ctrl_Info.Usb_wLength < pInformation->USBwLength)
 1683              		.loc 1 831 0
 1684 0288 8A42     		cmp	r2, r1
 1685 028a 0FD2     		bcs	.L161
 833:../libraries/STM32_USB-FS-Device_Driver/src/usb_core.c ****       if (pInformation->Ctrl_Info.Usb_wLength < pProperty->MaxPacketSize)
 1686              		.loc 1 833 0
 1687 028c 1349     		ldr	r1, .L195
 1688 028e 0868     		ldr	r0, [r1, #0]
 1689 0290 90F82C10 		ldrb	r1, [r0, #44]	@ zero_extendqisi2
 1690 0294 8A42     		cmp	r2, r1
 1691 0296 01D2     		bcs	.L162
 835:../libraries/STM32_USB-FS-Device_Driver/src/usb_core.c ****         Data_Mul_MaxPacketSize = FALSE;
 1692              		.loc 1 835 0
 1693 0298 0021     		movs	r1, #0
 1694 029a 05E0     		b	.L189
 1695              	.L162:
 837:../libraries/STM32_USB-FS-Device_Driver/src/usb_core.c ****       else if ((pInformation->Ctrl_Info.Usb_wLength % pProperty->MaxPacketSize) == 0)
 1696              		.loc 1 837 0
 1697 029c 92FBF1F0 		sdiv	r0, r2, r1
 1698 02a0 01FB1022 		mls	r2, r1, r0, r2
 1699 02a4 12B9     		cbnz	r2, .L161
 839:../libraries/STM32_USB-FS-Device_Driver/src/usb_core.c ****         Data_Mul_MaxPacketSize = TRUE;
 1700              		.loc 1 839 0
 1701 02a6 0121     		movs	r1, #1
 1702              	.L189:
 1703 02a8 0D48     		ldr	r0, .L195+4
 1704 02aa 0170     		strb	r1, [r0, #0]
 1705              	.L161:
 843:../libraries/STM32_USB-FS-Device_Driver/src/usb_core.c ****     pInformation->Ctrl_Info.PacketSize = pProperty->MaxPacketSize;
 1706              		.loc 1 843 0
 1707 02ac 0B49     		ldr	r1, .L195
 1708 02ae 0868     		ldr	r0, [r1, #0]
 1709 02b0 90F82C20 		ldrb	r2, [r0, #44]	@ zero_extendqisi2
 1710 02b4 9A82     		strh	r2, [r3, #20]	@ movhi
 844:../libraries/STM32_USB-FS-Device_Driver/src/usb_core.c ****     DataStageIn();
 1711              		.loc 1 844 0
 1712 02b6 FFF7FEFF 		bl	DataStageIn
 1713              	.LVL152:
 1714 02ba 05E0     		b	.L140
 1715              	.LVL153:
 1716              	.L159:
 1717              	.LBE33:
 848:../libraries/STM32_USB-FS-Device_Driver/src/usb_core.c ****     pInformation->ControlState = OUT_DATA;
 1718              		.loc 1 848 0
 1719 02bc 0322     		movs	r2, #3
 1720 02be 1A72     		strb	r2, [r3, #8]
 849:../libraries/STM32_USB-FS-Device_Driver/src/usb_core.c ****     vSetEPRxStatus(EP_RX_VALID); /* enable for next data reception */
 1721              		.loc 1 849 0
 1722 02c0 084B     		ldr	r3, .L195+8
 1723 02c2 4FF44051 		mov	r1, #12288
 1724 02c6 1980     		strh	r1, [r3, #0]	@ movhi
 1725              	.LVL154:
 1726              	.L140:
 1727              	.LBE37:
 1728              	.LBE30:
 897:../libraries/STM32_USB-FS-Device_Driver/src/usb_core.c ****   return Post0_Process();
 1729              		.loc 1 897 0
 1730 02c8 FFF7FEFF 		bl	Post0_Process
 1731              	.LVL155:
 898:../libraries/STM32_USB-FS-Device_Driver/src/usb_core.c **** }
 1732              		.loc 1 898 0
 1733 02cc 7CBD     		pop	{r2, r3, r4, r5, r6, pc}
 1734              	.LVL156:
 1735              	.L148:
 1736              	.LBB39:
 1737              	.LBB38:
 727:../libraries/STM32_USB-FS-Device_Driver/src/usb_core.c ****       CopyRoutine = Standard_GetStatus;
 1738              		.loc 1 727 0
 1739 02ce 064B     		ldr	r3, .L195+12
 1740 02d0 9DE7     		b	.L164
 1741              	.LVL157:
 1742              	.L166:
 771:../libraries/STM32_USB-FS-Device_Driver/src/usb_core.c ****       CopyRoutine = Standard_GetConfiguration;
 1743              		.loc 1 771 0
 1744 02d2 064B     		ldr	r3, .L195+16
 1745 02d4 9BE7     		b	.L164
 1746              	.LVL158:
 1747              	.L167:
 782:../libraries/STM32_USB-FS-Device_Driver/src/usb_core.c ****       CopyRoutine = Standard_GetInterface;
 1748              		.loc 1 782 0
 1749 02d6 064B     		ldr	r3, .L195+20
 1750              	.LVL159:
 1751 02d8 99E7     		b	.L164
 1752              	.L196:
 1753 02da 00BF     		.align	2
 1754              	.L195:
 1755 02dc 00000000 		.word	pProperty
 1756 02e0 00000000 		.word	.LANCHOR0
 1757 02e4 00000000 		.word	SaveRState
 1758 02e8 00000000 		.word	Standard_GetStatus
 1759 02ec 00000000 		.word	Standard_GetConfiguration
 1760 02f0 00000000 		.word	Standard_GetInterface
 1761              	.LBE38:
 1762              	.LBE39:
 1763              		.cfi_endproc
 1764              	.LFE69:
 1766              		.section	.text.SetDeviceAddress,"ax",%progbits
 1767              		.align	1
 1768              		.global	SetDeviceAddress
 1769              		.thumb
 1770              		.thumb_func
 1772              	SetDeviceAddress:
 1773              	.LFB73:
1010:../libraries/STM32_USB-FS-Device_Driver/src/usb_core.c **** {
 1774              		.loc 1 1010 0
 1775              		.cfi_startproc
 1776              		@ args = 0, pretend = 0, frame = 0
 1777              		@ frame_needed = 0, uses_anonymous_args = 0
 1778              	.LVL160:
 1779 0000 70B5     		push	{r4, r5, r6, lr}
 1780              	.LCFI12:
 1781              		.cfi_def_cfa_offset 16
 1782              		.cfi_offset 4, -16
 1783              		.cfi_offset 5, -12
 1784              		.cfi_offset 6, -8
 1785              		.cfi_offset 14, -4
1012:../libraries/STM32_USB-FS-Device_Driver/src/usb_core.c ****   uint32_t nEP = Device_Table.Total_Endpoint;
 1786              		.loc 1 1012 0
 1787 0002 0D4B     		ldr	r3, .L201
 1788 0004 1C78     		ldrb	r4, [r3, #0]	@ zero_extendqisi2
 1789              	.LVL161:
1015:../libraries/STM32_USB-FS-Device_Driver/src/usb_core.c ****   for (i = 0; i < nEP; i++)
 1790              		.loc 1 1015 0
 1791 0006 0023     		movs	r3, #0
 1792              	.LVL162:
 1793              	.L198:
1015:../libraries/STM32_USB-FS-Device_Driver/src/usb_core.c ****   for (i = 0; i < nEP; i++)
 1794              		.loc 1 1015 0 is_stmt 0 discriminator 1
 1795 0008 A342     		cmp	r3, r4
 1796 000a 10D2     		bcs	.L200
 1797              	.L199:
1009:../libraries/STM32_USB-FS-Device_Driver/src/usb_core.c **** void SetDeviceAddress(uint8_t Val)
 1798              		.loc 1 1009 0 is_stmt 1 discriminator 2
 1799 000c 03F18052 		add	r2, r3, #268435456
 1800 0010 02F5B855 		add	r5, r2, #5888
 1801 0014 A900     		lsls	r1, r5, #2
1017:../libraries/STM32_USB-FS-Device_Driver/src/usb_core.c ****     _SetEPAddress((uint8_t)i, (uint8_t)i);
 1802              		.loc 1 1017 0 discriminator 2
 1803 0016 43F40042 		orr	r2, r3, #32768
 1804 001a 0E68     		ldr	r6, [r1, #0]
 1805 001c 42F08005 		orr	r5, r2, #128
 1806 0020 40F60F72 		movw	r2, #3855
 1807 0024 3240     		ands	r2, r2, r6
 1808 0026 2A43     		orrs	r2, r2, r5
 1809 0028 0A60     		str	r2, [r1, #0]
1015:../libraries/STM32_USB-FS-Device_Driver/src/usb_core.c ****   for (i = 0; i < nEP; i++)
 1810              		.loc 1 1015 0 discriminator 2
 1811 002a 0133     		adds	r3, r3, #1
 1812              	.LVL163:
 1813 002c ECE7     		b	.L198
 1814              	.L200:
1019:../libraries/STM32_USB-FS-Device_Driver/src/usb_core.c ****   _SetDADDR(Val | DADDR_EF); /* set device address and enable function */ 
 1815              		.loc 1 1019 0
 1816 002e 0349     		ldr	r1, .L201+4
 1817 0030 40F08000 		orr	r0, r0, #128
 1818              	.LVL164:
 1819 0034 0860     		str	r0, [r1, #0]
 1820 0036 70BD     		pop	{r4, r5, r6, pc}
 1821              	.L202:
 1822              		.align	2
 1823              	.L201:
 1824 0038 00000000 		.word	Device_Table
 1825 003c 4C5C0040 		.word	1073765452
 1826              		.cfi_endproc
 1827              	.LFE73:
 1829              		.section	.text.In0_Process,"ax",%progbits
 1830              		.align	1
 1831              		.global	In0_Process
 1832              		.thumb
 1833              		.thumb_func
 1835              	In0_Process:
 1836              	.LFB70:
 908:../libraries/STM32_USB-FS-Device_Driver/src/usb_core.c **** {
 1837              		.loc 1 908 0
 1838              		.cfi_startproc
 1839              		@ args = 0, pretend = 0, frame = 0
 1840              		@ frame_needed = 0, uses_anonymous_args = 0
 1841 0000 10B5     		push	{r4, lr}
 1842              	.LCFI13:
 1843              		.cfi_def_cfa_offset 8
 1844              		.cfi_offset 4, -8
 1845              		.cfi_offset 14, -4
 909:../libraries/STM32_USB-FS-Device_Driver/src/usb_core.c ****   uint32_t ControlState = pInformation->ControlState;
 1846              		.loc 1 909 0
 1847 0002 1449     		ldr	r1, .L212
 1848 0004 0B68     		ldr	r3, [r1, #0]
 1849 0006 0C46     		mov	r4, r1
 1850 0008 1A7A     		ldrb	r2, [r3, #8]	@ zero_extendqisi2
 1851              	.LVL165:
 911:../libraries/STM32_USB-FS-Device_Driver/src/usb_core.c ****   if ((ControlState == IN_DATA) || (ControlState == LAST_IN_DATA))
 1852              		.loc 1 911 0
 1853 000a 022A     		cmp	r2, #2
 1854 000c 01D0     		beq	.L204
 911:../libraries/STM32_USB-FS-Device_Driver/src/usb_core.c ****   if ((ControlState == IN_DATA) || (ControlState == LAST_IN_DATA))
 1855              		.loc 1 911 0 is_stmt 0 discriminator 1
 1856 000e 042A     		cmp	r2, #4
 1857 0010 04D1     		bne	.L205
 1858              	.L204:
 913:../libraries/STM32_USB-FS-Device_Driver/src/usb_core.c ****     DataStageIn();
 1859              		.loc 1 913 0 is_stmt 1
 1860 0012 FFF7FEFF 		bl	DataStageIn
 1861              	.LVL166:
 915:../libraries/STM32_USB-FS-Device_Driver/src/usb_core.c ****     ControlState = pInformation->ControlState;
 1862              		.loc 1 915 0
 1863 0016 2168     		ldr	r1, [r4, #0]
 1864 0018 087A     		ldrb	r0, [r1, #8]	@ zero_extendqisi2
 1865              	.LVL167:
 1866 001a 13E0     		b	.L206
 1867              	.LVL168:
 1868              	.L205:
 918:../libraries/STM32_USB-FS-Device_Driver/src/usb_core.c ****   else if (ControlState == WAIT_STATUS_IN)
 1869              		.loc 1 918 0
 1870 001c 062A     		cmp	r2, #6
 1871 001e 10D1     		bne	.L208
 920:../libraries/STM32_USB-FS-Device_Driver/src/usb_core.c ****     if ((pInformation->USBbRequest == SET_ADDRESS) &&
 1872              		.loc 1 920 0
 1873 0020 5878     		ldrb	r0, [r3, #1]	@ zero_extendqisi2
 1874 0022 0528     		cmp	r0, #5
 1875 0024 09D1     		bne	.L207
 921:../libraries/STM32_USB-FS-Device_Driver/src/usb_core.c ****         (Type_Recipient == (STANDARD_REQUEST | DEVICE_RECIPIENT)))
 1876              		.loc 1 921 0 discriminator 1
 1877 0026 1978     		ldrb	r1, [r3, #0]	@ zero_extendqisi2
 920:../libraries/STM32_USB-FS-Device_Driver/src/usb_core.c ****     if ((pInformation->USBbRequest == SET_ADDRESS) &&
 1878              		.loc 1 920 0 discriminator 1
 1879 0028 4806     		lsls	r0, r1, #25
 1880 002a 06D1     		bne	.L207
 923:../libraries/STM32_USB-FS-Device_Driver/src/usb_core.c ****       SetDeviceAddress(pInformation->USBwValue0);
 1881              		.loc 1 923 0
 1882 002c D878     		ldrb	r0, [r3, #3]	@ zero_extendqisi2
 1883 002e FFF7FEFF 		bl	SetDeviceAddress
 1884              	.LVL169:
 924:../libraries/STM32_USB-FS-Device_Driver/src/usb_core.c ****       pUser_Standard_Requests->User_SetDeviceAddress();
 1885              		.loc 1 924 0
 1886 0032 094B     		ldr	r3, .L212+4
 1887 0034 1A68     		ldr	r2, [r3, #0]
 1888 0036 106A     		ldr	r0, [r2, #32]
 1889 0038 8047     		blx	r0
 1890              	.LVL170:
 1891              	.L207:
 926:../libraries/STM32_USB-FS-Device_Driver/src/usb_core.c ****     (*pProperty->Process_Status_IN)();
 1892              		.loc 1 926 0
 1893 003a 0849     		ldr	r1, .L212+8
 1894 003c 0B68     		ldr	r3, [r1, #0]
 1895 003e 9A68     		ldr	r2, [r3, #8]
 1896 0040 9047     		blx	r2
 1897              	.LVL171:
 1898              	.L208:
 932:../libraries/STM32_USB-FS-Device_Driver/src/usb_core.c ****     ControlState = STALLED;
 1899              		.loc 1 932 0
 1900 0042 0820     		movs	r0, #8
 1901              	.L206:
 1902              	.LVL172:
 935:../libraries/STM32_USB-FS-Device_Driver/src/usb_core.c ****   pInformation->ControlState = ControlState;
 1903              		.loc 1 935 0
 1904 0044 034B     		ldr	r3, .L212
 1905 0046 1A68     		ldr	r2, [r3, #0]
 1906 0048 1072     		strb	r0, [r2, #8]
 938:../libraries/STM32_USB-FS-Device_Driver/src/usb_core.c **** }
 1907              		.loc 1 938 0
 1908 004a BDE81040 		pop	{r4, lr}
 937:../libraries/STM32_USB-FS-Device_Driver/src/usb_core.c ****   return Post0_Process();
 1909              		.loc 1 937 0
 1910 004e FFF7FEBF 		b	Post0_Process
 1911              	.LVL173:
 1912              	.L213:
 1913 0052 00BF     		.align	2
 1914              	.L212:
 1915 0054 00000000 		.word	pInformation
 1916 0058 00000000 		.word	pUser_Standard_Requests
 1917 005c 00000000 		.word	pProperty
 1918              		.cfi_endproc
 1919              	.LFE70:
 1921              		.section	.text.NOP_Process,"ax",%progbits
 1922              		.align	1
 1923              		.global	NOP_Process
 1924              		.thumb
 1925              		.thumb_func
 1927              	NOP_Process:
 1928              	.LFB74:
1030:../libraries/STM32_USB-FS-Device_Driver/src/usb_core.c **** {
 1929              		.loc 1 1030 0
 1930              		.cfi_startproc
 1931              		@ args = 0, pretend = 0, frame = 0
 1932              		@ frame_needed = 0, uses_anonymous_args = 0
 1933              		@ link register save eliminated.
 1934 0000 7047     		bx	lr
 1935              		.cfi_endproc
 1936              	.LFE74:
 1938              		.global	Data_Mul_MaxPacketSize
 1939              		.comm	StatusInfo,2,2
 1940              		.bss
 1941              		.set	.LANCHOR0,. + 0
 1944              	Data_Mul_MaxPacketSize:
 1945 0000 00       		.space	1
 1946              		.text
 1947              	.Letext0:
 1948              		.file 2 "/usr/local/gcc-arm-none-eabi-4_7-2013q1/bin/../lib/gcc/arm-none-eabi/4.7.3/../../../../ar
 1949              		.file 3 "/Users/zac/code/spark/usb-dfu/libraries/STM32_USB-FS-Device_Driver/inc/usb_type.h"
 1950              		.file 4 "/Users/zac/code/spark/usb-dfu/libraries/STM32_USB-FS-Device_Driver/inc/usb_def.h"
 1951              		.file 5 "/Users/zac/code/spark/usb-dfu/libraries/STM32_USB-FS-Device_Driver/inc/usb_core.h"
 1952              		.file 6 "/Users/zac/code/spark/usb-dfu/libraries/CMSIS/Include/core_cm3.h"
 1953              		.file 7 "/Users/zac/code/spark/usb-dfu/libraries/STM32_USB-FS-Device_Driver/inc/usb_init.h"
 1954              		.file 8 "/Users/zac/code/spark/usb-dfu/libraries/STM32_USB-FS-Device_Driver/inc/usb_mem.h"
 1955              		.file 9 "/Users/zac/code/spark/usb-dfu/libraries/STM32_USB-FS-Device_Driver/inc/usb_regs.h"