   1              		.syntax unified
   2              		.cpu cortex-m3
   3              		.fpu softvfp
   4              		.eabi_attribute 20, 1
   5              		.eabi_attribute 21, 1
   6              		.eabi_attribute 23, 3
   7              		.eabi_attribute 24, 1
   8              		.eabi_attribute 25, 1
   9              		.eabi_attribute 26, 1
  10              		.eabi_attribute 30, 6
  11              		.eabi_attribute 34, 1
  12              		.eabi_attribute 18, 4
  13              		.thumb
  14              		.file	"usb_int.c"
  15              		.text
  16              	.Ltext0:
  17              		.cfi_sections	.debug_frame
  18              		.comm	SaveRState,2,2
  19              		.comm	SaveTState,2,2
  20              		.section	.text.CTR_LP,"ax",%progbits
  21              		.align	2
  22              		.global	CTR_LP
  23              		.thumb
  24              		.thumb_func
  26              	CTR_LP:
  27              	.LFB56:
  28              		.file 1 "../libraries/STM32_USB-FS-Device_Driver/src/usb_int.c"
   1:../libraries/STM32_USB-FS-Device_Driver/src/usb_int.c **** /**
   2:../libraries/STM32_USB-FS-Device_Driver/src/usb_int.c ****   ******************************************************************************
   3:../libraries/STM32_USB-FS-Device_Driver/src/usb_int.c ****   * @file    usb_int.c
   4:../libraries/STM32_USB-FS-Device_Driver/src/usb_int.c ****   * @author  MCD Application Team
   5:../libraries/STM32_USB-FS-Device_Driver/src/usb_int.c ****   * @version V4.0.0
   6:../libraries/STM32_USB-FS-Device_Driver/src/usb_int.c ****   * @date    28-August-2012
   7:../libraries/STM32_USB-FS-Device_Driver/src/usb_int.c ****   * @brief   Endpoint CTR (Low and High) interrupt's service routines
   8:../libraries/STM32_USB-FS-Device_Driver/src/usb_int.c ****   ******************************************************************************
   9:../libraries/STM32_USB-FS-Device_Driver/src/usb_int.c ****   * @attention
  10:../libraries/STM32_USB-FS-Device_Driver/src/usb_int.c ****   *
  11:../libraries/STM32_USB-FS-Device_Driver/src/usb_int.c ****   * <h2><center>&copy; COPYRIGHT 2012 STMicroelectronics</center></h2>
  12:../libraries/STM32_USB-FS-Device_Driver/src/usb_int.c ****   *
  13:../libraries/STM32_USB-FS-Device_Driver/src/usb_int.c ****   * Licensed under MCD-ST Liberty SW License Agreement V2, (the "License");
  14:../libraries/STM32_USB-FS-Device_Driver/src/usb_int.c ****   * You may not use this file except in compliance with the License.
  15:../libraries/STM32_USB-FS-Device_Driver/src/usb_int.c ****   * You may obtain a copy of the License at:
  16:../libraries/STM32_USB-FS-Device_Driver/src/usb_int.c ****   *
  17:../libraries/STM32_USB-FS-Device_Driver/src/usb_int.c ****   *        http://www.st.com/software_license_agreement_liberty_v2
  18:../libraries/STM32_USB-FS-Device_Driver/src/usb_int.c ****   *
  19:../libraries/STM32_USB-FS-Device_Driver/src/usb_int.c ****   * Unless required by applicable law or agreed to in writing, software 
  20:../libraries/STM32_USB-FS-Device_Driver/src/usb_int.c ****   * distributed under the License is distributed on an "AS IS" BASIS, 
  21:../libraries/STM32_USB-FS-Device_Driver/src/usb_int.c ****   * WITHOUT WARRANTIES OR CONDITIONS OF ANY KIND, either express or implied.
  22:../libraries/STM32_USB-FS-Device_Driver/src/usb_int.c ****   * See the License for the specific language governing permissions and
  23:../libraries/STM32_USB-FS-Device_Driver/src/usb_int.c ****   * limitations under the License.
  24:../libraries/STM32_USB-FS-Device_Driver/src/usb_int.c ****   *
  25:../libraries/STM32_USB-FS-Device_Driver/src/usb_int.c ****   ******************************************************************************
  26:../libraries/STM32_USB-FS-Device_Driver/src/usb_int.c ****   */
  27:../libraries/STM32_USB-FS-Device_Driver/src/usb_int.c **** 
  28:../libraries/STM32_USB-FS-Device_Driver/src/usb_int.c **** /* Includes ------------------------------------------------------------------*/
  29:../libraries/STM32_USB-FS-Device_Driver/src/usb_int.c **** #include "usb_lib.h"
  30:../libraries/STM32_USB-FS-Device_Driver/src/usb_int.c **** 
  31:../libraries/STM32_USB-FS-Device_Driver/src/usb_int.c **** /* Private typedef -----------------------------------------------------------*/
  32:../libraries/STM32_USB-FS-Device_Driver/src/usb_int.c **** /* Private define ------------------------------------------------------------*/
  33:../libraries/STM32_USB-FS-Device_Driver/src/usb_int.c **** /* Private macro -------------------------------------------------------------*/
  34:../libraries/STM32_USB-FS-Device_Driver/src/usb_int.c **** /* Private variables ---------------------------------------------------------*/
  35:../libraries/STM32_USB-FS-Device_Driver/src/usb_int.c **** __IO uint16_t SaveRState;
  36:../libraries/STM32_USB-FS-Device_Driver/src/usb_int.c **** __IO uint16_t SaveTState;
  37:../libraries/STM32_USB-FS-Device_Driver/src/usb_int.c **** 
  38:../libraries/STM32_USB-FS-Device_Driver/src/usb_int.c **** /* Extern variables ----------------------------------------------------------*/
  39:../libraries/STM32_USB-FS-Device_Driver/src/usb_int.c **** extern void (*pEpInt_IN[7])(void);    /*  Handles IN  interrupts   */
  40:../libraries/STM32_USB-FS-Device_Driver/src/usb_int.c **** extern void (*pEpInt_OUT[7])(void);   /*  Handles OUT interrupts   */
  41:../libraries/STM32_USB-FS-Device_Driver/src/usb_int.c **** 
  42:../libraries/STM32_USB-FS-Device_Driver/src/usb_int.c **** /* Private function prototypes -----------------------------------------------*/
  43:../libraries/STM32_USB-FS-Device_Driver/src/usb_int.c **** /* Private functions ---------------------------------------------------------*/
  44:../libraries/STM32_USB-FS-Device_Driver/src/usb_int.c **** 
  45:../libraries/STM32_USB-FS-Device_Driver/src/usb_int.c **** /*******************************************************************************
  46:../libraries/STM32_USB-FS-Device_Driver/src/usb_int.c **** * Function Name  : CTR_LP.
  47:../libraries/STM32_USB-FS-Device_Driver/src/usb_int.c **** * Description    : Low priority Endpoint Correct Transfer interrupt's service
  48:../libraries/STM32_USB-FS-Device_Driver/src/usb_int.c **** *                  routine.
  49:../libraries/STM32_USB-FS-Device_Driver/src/usb_int.c **** * Input          : None.
  50:../libraries/STM32_USB-FS-Device_Driver/src/usb_int.c **** * Output         : None.
  51:../libraries/STM32_USB-FS-Device_Driver/src/usb_int.c **** * Return         : None.
  52:../libraries/STM32_USB-FS-Device_Driver/src/usb_int.c **** *******************************************************************************/
  53:../libraries/STM32_USB-FS-Device_Driver/src/usb_int.c **** void CTR_LP(void)
  54:../libraries/STM32_USB-FS-Device_Driver/src/usb_int.c **** {
  29              		.loc 1 54 0
  30              		.cfi_startproc
  31              		@ args = 0, pretend = 0, frame = 8
  32              		@ frame_needed = 1, uses_anonymous_args = 0
  33 0000 90B5     		push	{r4, r7, lr}
  34              	.LCFI0:
  35              		.cfi_def_cfa_offset 12
  36              		.cfi_offset 4, -12
  37              		.cfi_offset 7, -8
  38              		.cfi_offset 14, -4
  39 0002 83B0     		sub	sp, sp, #12
  40              	.LCFI1:
  41              		.cfi_def_cfa_offset 24
  42 0004 00AF     		add	r7, sp, #0
  43              	.LCFI2:
  44              		.cfi_def_cfa_register 7
  55:../libraries/STM32_USB-FS-Device_Driver/src/usb_int.c ****   __IO uint16_t wEPVal = 0;
  45              		.loc 1 55 0
  46 0006 4FF00003 		mov	r3, #0
  47 000a FB80     		strh	r3, [r7, #6]	@ movhi
  56:../libraries/STM32_USB-FS-Device_Driver/src/usb_int.c ****   /* stay in loop while pending interrupts */
  57:../libraries/STM32_USB-FS-Device_Driver/src/usb_int.c ****   while (((wIstr = _GetISTR()) & ISTR_CTR) != 0)
  48              		.loc 1 57 0
  49 000c F5E1     		b	.L2
  50              	.L20:
  58:../libraries/STM32_USB-FS-Device_Driver/src/usb_int.c ****   {
  59:../libraries/STM32_USB-FS-Device_Driver/src/usb_int.c ****     /* extract highest priority endpoint number */
  60:../libraries/STM32_USB-FS-Device_Driver/src/usb_int.c ****     EPindex = (uint8_t)(wIstr & ISTR_EP_ID);
  51              		.loc 1 60 0
  52 000e 40F20003 		movw	r3, #:lower16:wIstr
  53 0012 C0F20003 		movt	r3, #:upper16:wIstr
  54 0016 1B88     		ldrh	r3, [r3, #0]	@ movhi
  55 0018 9BB2     		uxth	r3, r3
  56 001a DBB2     		uxtb	r3, r3
  57 001c 03F00F03 		and	r3, r3, #15
  58 0020 DAB2     		uxtb	r2, r3
  59 0022 40F20003 		movw	r3, #:lower16:EPindex
  60 0026 C0F20003 		movt	r3, #:upper16:EPindex
  61 002a 1A70     		strb	r2, [r3, #0]
  61:../libraries/STM32_USB-FS-Device_Driver/src/usb_int.c ****     if (EPindex == 0)
  62              		.loc 1 61 0
  63 002c 40F20003 		movw	r3, #:lower16:EPindex
  64 0030 C0F20003 		movt	r3, #:upper16:EPindex
  65 0034 1B78     		ldrb	r3, [r3, #0]	@ zero_extendqisi2
  66 0036 002B     		cmp	r3, #0
  67 0038 40F06F81 		bne	.L3
  62:../libraries/STM32_USB-FS-Device_Driver/src/usb_int.c ****     {
  63:../libraries/STM32_USB-FS-Device_Driver/src/usb_int.c ****       /* Decode and service control endpoint interrupt */
  64:../libraries/STM32_USB-FS-Device_Driver/src/usb_int.c ****       /* calling related service routine */
  65:../libraries/STM32_USB-FS-Device_Driver/src/usb_int.c ****       /* (Setup0_Process, In0_Process, Out0_Process) */
  66:../libraries/STM32_USB-FS-Device_Driver/src/usb_int.c **** 
  67:../libraries/STM32_USB-FS-Device_Driver/src/usb_int.c ****       /* save RX & TX status */
  68:../libraries/STM32_USB-FS-Device_Driver/src/usb_int.c ****       /* and set both to NAK */
  69:../libraries/STM32_USB-FS-Device_Driver/src/usb_int.c ****       
  70:../libraries/STM32_USB-FS-Device_Driver/src/usb_int.c **** 	    SaveRState = _GetENDPOINT(ENDP0);
  68              		.loc 1 70 0
  69 003c 4FF4B843 		mov	r3, #23552
  70 0040 C4F20003 		movt	r3, 16384
  71 0044 1B68     		ldr	r3, [r3, #0]
  72 0046 9AB2     		uxth	r2, r3
  73 0048 40F20003 		movw	r3, #:lower16:SaveRState
  74 004c C0F20003 		movt	r3, #:upper16:SaveRState
  75 0050 1A80     		strh	r2, [r3, #0]	@ movhi
  71:../libraries/STM32_USB-FS-Device_Driver/src/usb_int.c **** 	    SaveTState = SaveRState & EPTX_STAT;
  76              		.loc 1 71 0
  77 0052 40F20003 		movw	r3, #:lower16:SaveRState
  78 0056 C0F20003 		movt	r3, #:upper16:SaveRState
  79 005a 1B88     		ldrh	r3, [r3, #0]	@ movhi
  80 005c 9BB2     		uxth	r3, r3
  81 005e 03F03003 		and	r3, r3, #48
  82 0062 9AB2     		uxth	r2, r3
  83 0064 40F20003 		movw	r3, #:lower16:SaveTState
  84 0068 C0F20003 		movt	r3, #:upper16:SaveTState
  85 006c 1A80     		strh	r2, [r3, #0]	@ movhi
  72:../libraries/STM32_USB-FS-Device_Driver/src/usb_int.c **** 	    SaveRState &=  EPRX_STAT;	
  86              		.loc 1 72 0
  87 006e 40F20003 		movw	r3, #:lower16:SaveRState
  88 0072 C0F20003 		movt	r3, #:upper16:SaveRState
  89 0076 1B88     		ldrh	r3, [r3, #0]	@ movhi
  90 0078 9BB2     		uxth	r3, r3
  91 007a 03F44053 		and	r3, r3, #12288
  92 007e 9AB2     		uxth	r2, r3
  93 0080 40F20003 		movw	r3, #:lower16:SaveRState
  94 0084 C0F20003 		movt	r3, #:upper16:SaveRState
  95 0088 1A80     		strh	r2, [r3, #0]	@ movhi
  96              	.LBB2:
  73:../libraries/STM32_USB-FS-Device_Driver/src/usb_int.c **** 
  74:../libraries/STM32_USB-FS-Device_Driver/src/usb_int.c **** 	    _SetEPRxTxStatus(ENDP0,EP_RX_NAK,EP_TX_NAK);
  97              		.loc 1 74 0
  98 008a 4FF4B843 		mov	r3, #23552
  99 008e C4F20003 		movt	r3, 16384
 100 0092 1B68     		ldr	r3, [r3, #0]
 101 0094 9BB2     		uxth	r3, r3
 102 0096 4BF6BF74 		movw	r4, #49087
 103 009a 1C40     		ands	r4, r4, r3
 104 009c 84F40054 		eor	r4, r4, #8192
 105 00a0 84F02004 		eor	r4, r4, #32
 106 00a4 4FF4B842 		mov	r2, #23552
 107 00a8 C4F20002 		movt	r2, 16384
 108 00ac A1B2     		uxth	r1, r4
 109 00ae 48F28003 		movw	r3, #32896
 110 00b2 CFF6FF73 		movt	r3, 65535
 111 00b6 0B43     		orrs	r3, r3, r1
 112 00b8 9BB2     		uxth	r3, r3
 113 00ba 1360     		str	r3, [r2, #0]
 114              	.LBE2:
  75:../libraries/STM32_USB-FS-Device_Driver/src/usb_int.c **** 
  76:../libraries/STM32_USB-FS-Device_Driver/src/usb_int.c ****       /* DIR bit = origin of the interrupt */
  77:../libraries/STM32_USB-FS-Device_Driver/src/usb_int.c **** 
  78:../libraries/STM32_USB-FS-Device_Driver/src/usb_int.c ****       if ((wIstr & ISTR_DIR) == 0)
 115              		.loc 1 78 0
 116 00bc 40F20003 		movw	r3, #:lower16:wIstr
 117 00c0 C0F20003 		movt	r3, #:upper16:wIstr
 118 00c4 1B88     		ldrh	r3, [r3, #0]	@ movhi
 119 00c6 9BB2     		uxth	r3, r3
 120 00c8 03F01003 		and	r3, r3, #16
 121 00cc 002B     		cmp	r3, #0
 122 00ce 5AD1     		bne	.L4
  79:../libraries/STM32_USB-FS-Device_Driver/src/usb_int.c ****       {
  80:../libraries/STM32_USB-FS-Device_Driver/src/usb_int.c ****         /* DIR = 0 */
  81:../libraries/STM32_USB-FS-Device_Driver/src/usb_int.c **** 
  82:../libraries/STM32_USB-FS-Device_Driver/src/usb_int.c ****         /* DIR = 0      => IN  int */
  83:../libraries/STM32_USB-FS-Device_Driver/src/usb_int.c ****         /* DIR = 0 implies that (EP_CTR_TX = 1) always  */
  84:../libraries/STM32_USB-FS-Device_Driver/src/usb_int.c **** 
  85:../libraries/STM32_USB-FS-Device_Driver/src/usb_int.c ****         _ClearEP_CTR_TX(ENDP0);
 123              		.loc 1 85 0
 124 00d0 4FF4B843 		mov	r3, #23552
 125 00d4 C4F20003 		movt	r3, 16384
 126 00d8 4FF4B842 		mov	r2, #23552
 127 00dc C4F20002 		movt	r2, 16384
 128 00e0 1268     		ldr	r2, [r2, #0]
 129 00e2 92B2     		uxth	r2, r2
 130 00e4 1146     		mov	r1, r2
 131 00e6 48F60F72 		movw	r2, #36623
 132 00ea 0A40     		ands	r2, r2, r1
 133 00ec 1A60     		str	r2, [r3, #0]
  86:../libraries/STM32_USB-FS-Device_Driver/src/usb_int.c ****         In0_Process();
 134              		.loc 1 86 0
 135 00ee FFF7FEFF 		bl	In0_Process
 136              	.LBB3:
  87:../libraries/STM32_USB-FS-Device_Driver/src/usb_int.c **** 
  88:../libraries/STM32_USB-FS-Device_Driver/src/usb_int.c ****            /* before terminate set Tx & Rx status */
  89:../libraries/STM32_USB-FS-Device_Driver/src/usb_int.c **** 
  90:../libraries/STM32_USB-FS-Device_Driver/src/usb_int.c ****             _SetEPRxTxStatus(ENDP0,SaveRState,SaveTState);
 137              		.loc 1 90 0
 138 00f2 4FF4B843 		mov	r3, #23552
 139 00f6 C4F20003 		movt	r3, 16384
 140 00fa 1B68     		ldr	r3, [r3, #0]
 141 00fc 9BB2     		uxth	r3, r3
 142 00fe 4BF6BF74 		movw	r4, #49087
 143 0102 1C40     		ands	r4, r4, r3
 144 0104 40F20003 		movw	r3, #:lower16:SaveRState
 145 0108 C0F20003 		movt	r3, #:upper16:SaveRState
 146 010c 1B88     		ldrh	r3, [r3, #0]	@ movhi
 147 010e 9BB2     		uxth	r3, r3
 148 0110 03F48053 		and	r3, r3, #4096
 149 0114 9BB2     		uxth	r3, r3
 150 0116 002B     		cmp	r3, #0
 151 0118 01D0     		beq	.L5
 152              		.loc 1 90 0 is_stmt 0 discriminator 1
 153 011a 84F48054 		eor	r4, r4, #4096
 154              	.L5:
 155              		.loc 1 90 0 discriminator 2
 156 011e 40F20003 		movw	r3, #:lower16:SaveRState
 157 0122 C0F20003 		movt	r3, #:upper16:SaveRState
 158 0126 1B88     		ldrh	r3, [r3, #0]	@ movhi
 159 0128 9BB2     		uxth	r3, r3
 160 012a 03F40053 		and	r3, r3, #8192
 161 012e 9BB2     		uxth	r3, r3
 162 0130 002B     		cmp	r3, #0
 163 0132 01D0     		beq	.L6
 164              		.loc 1 90 0 discriminator 3
 165 0134 84F40054 		eor	r4, r4, #8192
 166              	.L6:
 167              		.loc 1 90 0 discriminator 4
 168 0138 40F20003 		movw	r3, #:lower16:SaveTState
 169 013c C0F20003 		movt	r3, #:upper16:SaveTState
 170 0140 1B88     		ldrh	r3, [r3, #0]	@ movhi
 171 0142 9BB2     		uxth	r3, r3
 172 0144 03F01003 		and	r3, r3, #16
 173 0148 9BB2     		uxth	r3, r3
 174 014a 002B     		cmp	r3, #0
 175 014c 01D0     		beq	.L7
 176              		.loc 1 90 0 discriminator 5
 177 014e 84F01004 		eor	r4, r4, #16
 178              	.L7:
 179              		.loc 1 90 0 discriminator 6
 180 0152 40F20003 		movw	r3, #:lower16:SaveTState
 181 0156 C0F20003 		movt	r3, #:upper16:SaveTState
 182 015a 1B88     		ldrh	r3, [r3, #0]	@ movhi
 183 015c 9BB2     		uxth	r3, r3
 184 015e 03F02003 		and	r3, r3, #32
 185 0162 9BB2     		uxth	r3, r3
 186 0164 002B     		cmp	r3, #0
 187 0166 01D0     		beq	.L8
 188              		.loc 1 90 0 discriminator 7
 189 0168 84F02004 		eor	r4, r4, #32
 190              	.L8:
 191              		.loc 1 90 0 discriminator 8
 192 016c 4FF4B842 		mov	r2, #23552
 193 0170 C4F20002 		movt	r2, 16384
 194 0174 A1B2     		uxth	r1, r4
 195 0176 48F28003 		movw	r3, #32896
 196 017a CFF6FF73 		movt	r3, 65535
 197 017e 0B43     		orrs	r3, r3, r1
 198 0180 9BB2     		uxth	r3, r3
 199 0182 1360     		str	r3, [r2, #0]
 200              	.LBE3:
  91:../libraries/STM32_USB-FS-Device_Driver/src/usb_int.c **** 		  return;
 201              		.loc 1 91 0 is_stmt 1 discriminator 8
 202 0184 4BE1     		b	.L1
 203              	.L4:
  92:../libraries/STM32_USB-FS-Device_Driver/src/usb_int.c ****       }
  93:../libraries/STM32_USB-FS-Device_Driver/src/usb_int.c ****       else
  94:../libraries/STM32_USB-FS-Device_Driver/src/usb_int.c ****       {
  95:../libraries/STM32_USB-FS-Device_Driver/src/usb_int.c ****         /* DIR = 1 */
  96:../libraries/STM32_USB-FS-Device_Driver/src/usb_int.c **** 
  97:../libraries/STM32_USB-FS-Device_Driver/src/usb_int.c ****         /* DIR = 1 & CTR_RX       => SETUP or OUT int */
  98:../libraries/STM32_USB-FS-Device_Driver/src/usb_int.c ****         /* DIR = 1 & (CTR_TX | CTR_RX) => 2 int pending */
  99:../libraries/STM32_USB-FS-Device_Driver/src/usb_int.c **** 
 100:../libraries/STM32_USB-FS-Device_Driver/src/usb_int.c ****         wEPVal = _GetENDPOINT(ENDP0);
 204              		.loc 1 100 0
 205 0186 4FF4B843 		mov	r3, #23552
 206 018a C4F20003 		movt	r3, 16384
 207 018e 1B68     		ldr	r3, [r3, #0]
 208 0190 9BB2     		uxth	r3, r3
 209 0192 FB80     		strh	r3, [r7, #6]	@ movhi
 101:../libraries/STM32_USB-FS-Device_Driver/src/usb_int.c ****         
 102:../libraries/STM32_USB-FS-Device_Driver/src/usb_int.c ****         if ((wEPVal &EP_SETUP) != 0)
 210              		.loc 1 102 0
 211 0194 FB88     		ldrh	r3, [r7, #6]	@ movhi
 212 0196 9BB2     		uxth	r3, r3
 213 0198 03F40063 		and	r3, r3, #2048
 214 019c 002B     		cmp	r3, #0
 215 019e 5AD0     		beq	.L10
 103:../libraries/STM32_USB-FS-Device_Driver/src/usb_int.c ****         {
 104:../libraries/STM32_USB-FS-Device_Driver/src/usb_int.c ****           _ClearEP_CTR_RX(ENDP0); /* SETUP bit kept frozen while CTR_RX = 1 */
 216              		.loc 1 104 0
 217 01a0 4FF4B843 		mov	r3, #23552
 218 01a4 C4F20003 		movt	r3, 16384
 219 01a8 4FF4B842 		mov	r2, #23552
 220 01ac C4F20002 		movt	r2, 16384
 221 01b0 1268     		ldr	r2, [r2, #0]
 222 01b2 92B2     		uxth	r2, r2
 223 01b4 1146     		mov	r1, r2
 224 01b6 40F68F72 		movw	r2, #3983
 225 01ba 0A40     		ands	r2, r2, r1
 226 01bc 1A60     		str	r2, [r3, #0]
 105:../libraries/STM32_USB-FS-Device_Driver/src/usb_int.c ****           Setup0_Process();
 227              		.loc 1 105 0
 228 01be FFF7FEFF 		bl	Setup0_Process
 229              	.LBB4:
 106:../libraries/STM32_USB-FS-Device_Driver/src/usb_int.c ****           /* before terminate set Tx & Rx status */
 107:../libraries/STM32_USB-FS-Device_Driver/src/usb_int.c **** 
 108:../libraries/STM32_USB-FS-Device_Driver/src/usb_int.c **** 		      _SetEPRxTxStatus(ENDP0,SaveRState,SaveTState);
 230              		.loc 1 108 0
 231 01c2 4FF4B843 		mov	r3, #23552
 232 01c6 C4F20003 		movt	r3, 16384
 233 01ca 1B68     		ldr	r3, [r3, #0]
 234 01cc 9BB2     		uxth	r3, r3
 235 01ce 4BF6BF74 		movw	r4, #49087
 236 01d2 1C40     		ands	r4, r4, r3
 237 01d4 40F20003 		movw	r3, #:lower16:SaveRState
 238 01d8 C0F20003 		movt	r3, #:upper16:SaveRState
 239 01dc 1B88     		ldrh	r3, [r3, #0]	@ movhi
 240 01de 9BB2     		uxth	r3, r3
 241 01e0 03F48053 		and	r3, r3, #4096
 242 01e4 9BB2     		uxth	r3, r3
 243 01e6 002B     		cmp	r3, #0
 244 01e8 01D0     		beq	.L11
 245              		.loc 1 108 0 is_stmt 0 discriminator 1
 246 01ea 84F48054 		eor	r4, r4, #4096
 247              	.L11:
 248              		.loc 1 108 0 discriminator 2
 249 01ee 40F20003 		movw	r3, #:lower16:SaveRState
 250 01f2 C0F20003 		movt	r3, #:upper16:SaveRState
 251 01f6 1B88     		ldrh	r3, [r3, #0]	@ movhi
 252 01f8 9BB2     		uxth	r3, r3
 253 01fa 03F40053 		and	r3, r3, #8192
 254 01fe 9BB2     		uxth	r3, r3
 255 0200 002B     		cmp	r3, #0
 256 0202 01D0     		beq	.L12
 257              		.loc 1 108 0 discriminator 3
 258 0204 84F40054 		eor	r4, r4, #8192
 259              	.L12:
 260              		.loc 1 108 0 discriminator 4
 261 0208 40F20003 		movw	r3, #:lower16:SaveTState
 262 020c C0F20003 		movt	r3, #:upper16:SaveTState
 263 0210 1B88     		ldrh	r3, [r3, #0]	@ movhi
 264 0212 9BB2     		uxth	r3, r3
 265 0214 03F01003 		and	r3, r3, #16
 266 0218 9BB2     		uxth	r3, r3
 267 021a 002B     		cmp	r3, #0
 268 021c 01D0     		beq	.L13
 269              		.loc 1 108 0 discriminator 5
 270 021e 84F01004 		eor	r4, r4, #16
 271              	.L13:
 272              		.loc 1 108 0 discriminator 6
 273 0222 40F20003 		movw	r3, #:lower16:SaveTState
 274 0226 C0F20003 		movt	r3, #:upper16:SaveTState
 275 022a 1B88     		ldrh	r3, [r3, #0]	@ movhi
 276 022c 9BB2     		uxth	r3, r3
 277 022e 03F02003 		and	r3, r3, #32
 278 0232 9BB2     		uxth	r3, r3
 279 0234 002B     		cmp	r3, #0
 280 0236 01D0     		beq	.L14
 281              		.loc 1 108 0 discriminator 7
 282 0238 84F02004 		eor	r4, r4, #32
 283              	.L14:
 284              		.loc 1 108 0 discriminator 8
 285 023c 4FF4B842 		mov	r2, #23552
 286 0240 C4F20002 		movt	r2, 16384
 287 0244 A1B2     		uxth	r1, r4
 288 0246 48F28003 		movw	r3, #32896
 289 024a CFF6FF73 		movt	r3, 65535
 290 024e 0B43     		orrs	r3, r3, r1
 291 0250 9BB2     		uxth	r3, r3
 292 0252 1360     		str	r3, [r2, #0]
 293              	.LBE4:
 109:../libraries/STM32_USB-FS-Device_Driver/src/usb_int.c ****           return;
 294              		.loc 1 109 0 is_stmt 1 discriminator 8
 295 0254 E3E0     		b	.L1
 296              	.L10:
 110:../libraries/STM32_USB-FS-Device_Driver/src/usb_int.c ****         }
 111:../libraries/STM32_USB-FS-Device_Driver/src/usb_int.c **** 
 112:../libraries/STM32_USB-FS-Device_Driver/src/usb_int.c ****         else if ((wEPVal & EP_CTR_RX) != 0)
 297              		.loc 1 112 0
 298 0256 FB88     		ldrh	r3, [r7, #6]	@ movhi
 299 0258 9BB2     		uxth	r3, r3
 300 025a 9BB2     		uxth	r3, r3
 301 025c 1BB2     		sxth	r3, r3
 302 025e 002B     		cmp	r3, #0
 303 0260 80F2CB80 		bge	.L2
 113:../libraries/STM32_USB-FS-Device_Driver/src/usb_int.c ****         {
 114:../libraries/STM32_USB-FS-Device_Driver/src/usb_int.c ****           _ClearEP_CTR_RX(ENDP0);
 304              		.loc 1 114 0
 305 0264 4FF4B843 		mov	r3, #23552
 306 0268 C4F20003 		movt	r3, 16384
 307 026c 4FF4B842 		mov	r2, #23552
 308 0270 C4F20002 		movt	r2, 16384
 309 0274 1268     		ldr	r2, [r2, #0]
 310 0276 92B2     		uxth	r2, r2
 311 0278 1146     		mov	r1, r2
 312 027a 40F68F72 		movw	r2, #3983
 313 027e 0A40     		ands	r2, r2, r1
 314 0280 1A60     		str	r2, [r3, #0]
 115:../libraries/STM32_USB-FS-Device_Driver/src/usb_int.c ****           Out0_Process();
 315              		.loc 1 115 0
 316 0282 FFF7FEFF 		bl	Out0_Process
 317              	.LBB5:
 116:../libraries/STM32_USB-FS-Device_Driver/src/usb_int.c ****           /* before terminate set Tx & Rx status */
 117:../libraries/STM32_USB-FS-Device_Driver/src/usb_int.c ****      
 118:../libraries/STM32_USB-FS-Device_Driver/src/usb_int.c **** 		     _SetEPRxTxStatus(ENDP0,SaveRState,SaveTState);
 318              		.loc 1 118 0
 319 0286 4FF4B843 		mov	r3, #23552
 320 028a C4F20003 		movt	r3, 16384
 321 028e 1B68     		ldr	r3, [r3, #0]
 322 0290 9BB2     		uxth	r3, r3
 323 0292 4BF6BF74 		movw	r4, #49087
 324 0296 1C40     		ands	r4, r4, r3
 325 0298 40F20003 		movw	r3, #:lower16:SaveRState
 326 029c C0F20003 		movt	r3, #:upper16:SaveRState
 327 02a0 1B88     		ldrh	r3, [r3, #0]	@ movhi
 328 02a2 9BB2     		uxth	r3, r3
 329 02a4 03F48053 		and	r3, r3, #4096
 330 02a8 9BB2     		uxth	r3, r3
 331 02aa 002B     		cmp	r3, #0
 332 02ac 01D0     		beq	.L15
 333              		.loc 1 118 0 is_stmt 0 discriminator 1
 334 02ae 84F48054 		eor	r4, r4, #4096
 335              	.L15:
 336              		.loc 1 118 0 discriminator 2
 337 02b2 40F20003 		movw	r3, #:lower16:SaveRState
 338 02b6 C0F20003 		movt	r3, #:upper16:SaveRState
 339 02ba 1B88     		ldrh	r3, [r3, #0]	@ movhi
 340 02bc 9BB2     		uxth	r3, r3
 341 02be 03F40053 		and	r3, r3, #8192
 342 02c2 9BB2     		uxth	r3, r3
 343 02c4 002B     		cmp	r3, #0
 344 02c6 01D0     		beq	.L16
 345              		.loc 1 118 0 discriminator 3
 346 02c8 84F40054 		eor	r4, r4, #8192
 347              	.L16:
 348              		.loc 1 118 0 discriminator 4
 349 02cc 40F20003 		movw	r3, #:lower16:SaveTState
 350 02d0 C0F20003 		movt	r3, #:upper16:SaveTState
 351 02d4 1B88     		ldrh	r3, [r3, #0]	@ movhi
 352 02d6 9BB2     		uxth	r3, r3
 353 02d8 03F01003 		and	r3, r3, #16
 354 02dc 9BB2     		uxth	r3, r3
 355 02de 002B     		cmp	r3, #0
 356 02e0 01D0     		beq	.L17
 357              		.loc 1 118 0 discriminator 5
 358 02e2 84F01004 		eor	r4, r4, #16
 359              	.L17:
 360              		.loc 1 118 0 discriminator 6
 361 02e6 40F20003 		movw	r3, #:lower16:SaveTState
 362 02ea C0F20003 		movt	r3, #:upper16:SaveTState
 363 02ee 1B88     		ldrh	r3, [r3, #0]	@ movhi
 364 02f0 9BB2     		uxth	r3, r3
 365 02f2 03F02003 		and	r3, r3, #32
 366 02f6 9BB2     		uxth	r3, r3
 367 02f8 002B     		cmp	r3, #0
 368 02fa 01D0     		beq	.L18
 369              		.loc 1 118 0 discriminator 7
 370 02fc 84F02004 		eor	r4, r4, #32
 371              	.L18:
 372              		.loc 1 118 0 discriminator 8
 373 0300 4FF4B842 		mov	r2, #23552
 374 0304 C4F20002 		movt	r2, 16384
 375 0308 A1B2     		uxth	r1, r4
 376 030a 48F28003 		movw	r3, #32896
 377 030e CFF6FF73 		movt	r3, 65535
 378 0312 0B43     		orrs	r3, r3, r1
 379 0314 9BB2     		uxth	r3, r3
 380 0316 1360     		str	r3, [r2, #0]
 381              	.LBE5:
 119:../libraries/STM32_USB-FS-Device_Driver/src/usb_int.c ****           return;
 382              		.loc 1 119 0 is_stmt 1 discriminator 8
 383 0318 81E0     		b	.L1
 384              	.L3:
 120:../libraries/STM32_USB-FS-Device_Driver/src/usb_int.c ****         }
 121:../libraries/STM32_USB-FS-Device_Driver/src/usb_int.c ****       }
 122:../libraries/STM32_USB-FS-Device_Driver/src/usb_int.c ****     }/* if(EPindex == 0) */
 123:../libraries/STM32_USB-FS-Device_Driver/src/usb_int.c ****     else
 124:../libraries/STM32_USB-FS-Device_Driver/src/usb_int.c ****     {
 125:../libraries/STM32_USB-FS-Device_Driver/src/usb_int.c ****       /* Decode and service non control endpoints interrupt  */
 126:../libraries/STM32_USB-FS-Device_Driver/src/usb_int.c **** 
 127:../libraries/STM32_USB-FS-Device_Driver/src/usb_int.c ****       /* process related endpoint register */
 128:../libraries/STM32_USB-FS-Device_Driver/src/usb_int.c ****       wEPVal = _GetENDPOINT(EPindex);
 385              		.loc 1 128 0
 386 031a 40F20003 		movw	r3, #:lower16:EPindex
 387 031e C0F20003 		movt	r3, #:upper16:EPindex
 388 0322 1B78     		ldrb	r3, [r3, #0]	@ zero_extendqisi2
 389 0324 4FEA8303 		lsl	r3, r3, #2
 390 0328 03F18043 		add	r3, r3, #1073741824
 391 032c 03F5B843 		add	r3, r3, #23552
 392 0330 1B68     		ldr	r3, [r3, #0]
 393 0332 9BB2     		uxth	r3, r3
 394 0334 FB80     		strh	r3, [r7, #6]	@ movhi
 129:../libraries/STM32_USB-FS-Device_Driver/src/usb_int.c ****       if ((wEPVal & EP_CTR_RX) != 0)
 395              		.loc 1 129 0
 396 0336 FB88     		ldrh	r3, [r7, #6]	@ movhi
 397 0338 9BB2     		uxth	r3, r3
 398 033a 9BB2     		uxth	r3, r3
 399 033c 1BB2     		sxth	r3, r3
 400 033e 002B     		cmp	r3, #0
 401 0340 2ADA     		bge	.L19
 130:../libraries/STM32_USB-FS-Device_Driver/src/usb_int.c ****       {
 131:../libraries/STM32_USB-FS-Device_Driver/src/usb_int.c ****         /* clear int flag */
 132:../libraries/STM32_USB-FS-Device_Driver/src/usb_int.c ****         _ClearEP_CTR_RX(EPindex);
 402              		.loc 1 132 0
 403 0342 40F20003 		movw	r3, #:lower16:EPindex
 404 0346 C0F20003 		movt	r3, #:upper16:EPindex
 405 034a 1B78     		ldrb	r3, [r3, #0]	@ zero_extendqisi2
 406 034c 4FEA8303 		lsl	r3, r3, #2
 407 0350 03F18043 		add	r3, r3, #1073741824
 408 0354 03F5B843 		add	r3, r3, #23552
 409 0358 40F20002 		movw	r2, #:lower16:EPindex
 410 035c C0F20002 		movt	r2, #:upper16:EPindex
 411 0360 1278     		ldrb	r2, [r2, #0]	@ zero_extendqisi2
 412 0362 4FEA8202 		lsl	r2, r2, #2
 413 0366 02F18042 		add	r2, r2, #1073741824
 414 036a 02F5B842 		add	r2, r2, #23552
 415 036e 1268     		ldr	r2, [r2, #0]
 416 0370 92B2     		uxth	r2, r2
 417 0372 1146     		mov	r1, r2
 418 0374 40F68F72 		movw	r2, #3983
 419 0378 0A40     		ands	r2, r2, r1
 420 037a 1A60     		str	r2, [r3, #0]
 133:../libraries/STM32_USB-FS-Device_Driver/src/usb_int.c **** 
 134:../libraries/STM32_USB-FS-Device_Driver/src/usb_int.c ****         /* call OUT service function */
 135:../libraries/STM32_USB-FS-Device_Driver/src/usb_int.c ****         (*pEpInt_OUT[EPindex-1])();
 421              		.loc 1 135 0
 422 037c 40F20003 		movw	r3, #:lower16:EPindex
 423 0380 C0F20003 		movt	r3, #:upper16:EPindex
 424 0384 1B78     		ldrb	r3, [r3, #0]	@ zero_extendqisi2
 425 0386 03F1FF32 		add	r2, r3, #-1
 426 038a 40F20003 		movw	r3, #:lower16:pEpInt_OUT
 427 038e C0F20003 		movt	r3, #:upper16:pEpInt_OUT
 428 0392 53F82230 		ldr	r3, [r3, r2, lsl #2]
 429 0396 9847     		blx	r3
 430              	.L19:
 136:../libraries/STM32_USB-FS-Device_Driver/src/usb_int.c **** 
 137:../libraries/STM32_USB-FS-Device_Driver/src/usb_int.c ****       } /* if((wEPVal & EP_CTR_RX) */
 138:../libraries/STM32_USB-FS-Device_Driver/src/usb_int.c **** 
 139:../libraries/STM32_USB-FS-Device_Driver/src/usb_int.c ****       if ((wEPVal & EP_CTR_TX) != 0)
 431              		.loc 1 139 0
 432 0398 FB88     		ldrh	r3, [r7, #6]	@ movhi
 433 039a 9BB2     		uxth	r3, r3
 434 039c 03F08003 		and	r3, r3, #128
 435 03a0 002B     		cmp	r3, #0
 436 03a2 2AD0     		beq	.L2
 140:../libraries/STM32_USB-FS-Device_Driver/src/usb_int.c ****       {
 141:../libraries/STM32_USB-FS-Device_Driver/src/usb_int.c ****         /* clear int flag */
 142:../libraries/STM32_USB-FS-Device_Driver/src/usb_int.c ****         _ClearEP_CTR_TX(EPindex);
 437              		.loc 1 142 0
 438 03a4 40F20003 		movw	r3, #:lower16:EPindex
 439 03a8 C0F20003 		movt	r3, #:upper16:EPindex
 440 03ac 1B78     		ldrb	r3, [r3, #0]	@ zero_extendqisi2
 441 03ae 4FEA8303 		lsl	r3, r3, #2
 442 03b2 03F18043 		add	r3, r3, #1073741824
 443 03b6 03F5B843 		add	r3, r3, #23552
 444 03ba 40F20002 		movw	r2, #:lower16:EPindex
 445 03be C0F20002 		movt	r2, #:upper16:EPindex
 446 03c2 1278     		ldrb	r2, [r2, #0]	@ zero_extendqisi2
 447 03c4 4FEA8202 		lsl	r2, r2, #2
 448 03c8 02F18042 		add	r2, r2, #1073741824
 449 03cc 02F5B842 		add	r2, r2, #23552
 450 03d0 1268     		ldr	r2, [r2, #0]
 451 03d2 92B2     		uxth	r2, r2
 452 03d4 1146     		mov	r1, r2
 453 03d6 48F60F72 		movw	r2, #36623
 454 03da 0A40     		ands	r2, r2, r1
 455 03dc 1A60     		str	r2, [r3, #0]
 143:../libraries/STM32_USB-FS-Device_Driver/src/usb_int.c **** 
 144:../libraries/STM32_USB-FS-Device_Driver/src/usb_int.c ****         /* call IN service function */
 145:../libraries/STM32_USB-FS-Device_Driver/src/usb_int.c ****         (*pEpInt_IN[EPindex-1])();
 456              		.loc 1 145 0
 457 03de 40F20003 		movw	r3, #:lower16:EPindex
 458 03e2 C0F20003 		movt	r3, #:upper16:EPindex
 459 03e6 1B78     		ldrb	r3, [r3, #0]	@ zero_extendqisi2
 460 03e8 03F1FF32 		add	r2, r3, #-1
 461 03ec 40F20003 		movw	r3, #:lower16:pEpInt_IN
 462 03f0 C0F20003 		movt	r3, #:upper16:pEpInt_IN
 463 03f4 53F82230 		ldr	r3, [r3, r2, lsl #2]
 464 03f8 9847     		blx	r3
 465              	.L2:
  57:../libraries/STM32_USB-FS-Device_Driver/src/usb_int.c ****   while (((wIstr = _GetISTR()) & ISTR_CTR) != 0)
 466              		.loc 1 57 0 discriminator 1
 467 03fa 45F64443 		movw	r3, #23620
 468 03fe C4F20003 		movt	r3, 16384
 469 0402 1B68     		ldr	r3, [r3, #0]
 470 0404 9BB2     		uxth	r3, r3
 471 0406 1A46     		mov	r2, r3
 472 0408 40F20003 		movw	r3, #:lower16:wIstr
 473 040c C0F20003 		movt	r3, #:upper16:wIstr
 474 0410 1146     		mov	r1, r2	@ movhi
 475 0412 1980     		strh	r1, [r3, #0]	@ movhi
 476 0414 93B2     		uxth	r3, r2
 477 0416 1BB2     		sxth	r3, r3
 478 0418 002B     		cmp	r3, #0
 479 041a FFF6F8AD 		blt	.L20
 480              	.L1:
 146:../libraries/STM32_USB-FS-Device_Driver/src/usb_int.c ****       } /* if((wEPVal & EP_CTR_TX) != 0) */
 147:../libraries/STM32_USB-FS-Device_Driver/src/usb_int.c **** 
 148:../libraries/STM32_USB-FS-Device_Driver/src/usb_int.c ****     }/* if(EPindex == 0) else */
 149:../libraries/STM32_USB-FS-Device_Driver/src/usb_int.c **** 
 150:../libraries/STM32_USB-FS-Device_Driver/src/usb_int.c ****   }/* while(...) */
 151:../libraries/STM32_USB-FS-Device_Driver/src/usb_int.c **** }
 481              		.loc 1 151 0
 482 041e 07F10C07 		add	r7, r7, #12
 483 0422 BD46     		mov	sp, r7
 484 0424 90BD     		pop	{r4, r7, pc}
 485              		.cfi_endproc
 486              	.LFE56:
 488 0426 00BF     		.section	.text.CTR_HP,"ax",%progbits
 489              		.align	2
 490              		.global	CTR_HP
 491              		.thumb
 492              		.thumb_func
 494              	CTR_HP:
 495              	.LFB57:
 152:../libraries/STM32_USB-FS-Device_Driver/src/usb_int.c **** 
 153:../libraries/STM32_USB-FS-Device_Driver/src/usb_int.c **** /*******************************************************************************
 154:../libraries/STM32_USB-FS-Device_Driver/src/usb_int.c **** * Function Name  : CTR_HP.
 155:../libraries/STM32_USB-FS-Device_Driver/src/usb_int.c **** * Description    : High Priority Endpoint Correct Transfer interrupt's service 
 156:../libraries/STM32_USB-FS-Device_Driver/src/usb_int.c **** *                  routine.
 157:../libraries/STM32_USB-FS-Device_Driver/src/usb_int.c **** * Input          : None.
 158:../libraries/STM32_USB-FS-Device_Driver/src/usb_int.c **** * Output         : None.
 159:../libraries/STM32_USB-FS-Device_Driver/src/usb_int.c **** * Return         : None.
 160:../libraries/STM32_USB-FS-Device_Driver/src/usb_int.c **** *******************************************************************************/
 161:../libraries/STM32_USB-FS-Device_Driver/src/usb_int.c **** void CTR_HP(void)
 162:../libraries/STM32_USB-FS-Device_Driver/src/usb_int.c **** {
 496              		.loc 1 162 0
 497              		.cfi_startproc
 498              		@ args = 0, pretend = 0, frame = 8
 499              		@ frame_needed = 1, uses_anonymous_args = 0
 500 0000 80B5     		push	{r7, lr}
 501              	.LCFI3:
 502              		.cfi_def_cfa_offset 8
 503              		.cfi_offset 7, -8
 504              		.cfi_offset 14, -4
 505 0002 82B0     		sub	sp, sp, #8
 506              	.LCFI4:
 507              		.cfi_def_cfa_offset 16
 508 0004 00AF     		add	r7, sp, #0
 509              	.LCFI5:
 510              		.cfi_def_cfa_register 7
 163:../libraries/STM32_USB-FS-Device_Driver/src/usb_int.c ****   uint32_t wEPVal = 0;
 511              		.loc 1 163 0
 512 0006 4FF00003 		mov	r3, #0
 513 000a 7B60     		str	r3, [r7, #4]
 164:../libraries/STM32_USB-FS-Device_Driver/src/usb_int.c **** 
 165:../libraries/STM32_USB-FS-Device_Driver/src/usb_int.c ****   while (((wIstr = _GetISTR()) & ISTR_CTR) != 0)
 514              		.loc 1 165 0
 515 000c 84E0     		b	.L22
 516              	.L24:
 166:../libraries/STM32_USB-FS-Device_Driver/src/usb_int.c ****   {
 167:../libraries/STM32_USB-FS-Device_Driver/src/usb_int.c ****     _SetISTR((uint16_t)CLR_CTR); /* clear CTR flag */
 517              		.loc 1 167 0
 518 000e 45F64443 		movw	r3, #23620
 519 0012 C4F20003 		movt	r3, 16384
 520 0016 47F6FF72 		movw	r2, #32767
 521 001a 1A60     		str	r2, [r3, #0]
 168:../libraries/STM32_USB-FS-Device_Driver/src/usb_int.c ****     /* extract highest priority endpoint number */
 169:../libraries/STM32_USB-FS-Device_Driver/src/usb_int.c ****     EPindex = (uint8_t)(wIstr & ISTR_EP_ID);
 522              		.loc 1 169 0
 523 001c 40F20003 		movw	r3, #:lower16:wIstr
 524 0020 C0F20003 		movt	r3, #:upper16:wIstr
 525 0024 1B88     		ldrh	r3, [r3, #0]	@ movhi
 526 0026 9BB2     		uxth	r3, r3
 527 0028 DBB2     		uxtb	r3, r3
 528 002a 03F00F03 		and	r3, r3, #15
 529 002e DAB2     		uxtb	r2, r3
 530 0030 40F20003 		movw	r3, #:lower16:EPindex
 531 0034 C0F20003 		movt	r3, #:upper16:EPindex
 532 0038 1A70     		strb	r2, [r3, #0]
 170:../libraries/STM32_USB-FS-Device_Driver/src/usb_int.c ****     /* process related endpoint register */
 171:../libraries/STM32_USB-FS-Device_Driver/src/usb_int.c ****     wEPVal = _GetENDPOINT(EPindex);
 533              		.loc 1 171 0
 534 003a 40F20003 		movw	r3, #:lower16:EPindex
 535 003e C0F20003 		movt	r3, #:upper16:EPindex
 536 0042 1B78     		ldrb	r3, [r3, #0]	@ zero_extendqisi2
 537 0044 4FEA8303 		lsl	r3, r3, #2
 538 0048 03F18043 		add	r3, r3, #1073741824
 539 004c 03F5B843 		add	r3, r3, #23552
 540 0050 1B68     		ldr	r3, [r3, #0]
 541 0052 9BB2     		uxth	r3, r3
 542 0054 7B60     		str	r3, [r7, #4]
 172:../libraries/STM32_USB-FS-Device_Driver/src/usb_int.c ****     if ((wEPVal & EP_CTR_RX) != 0)
 543              		.loc 1 172 0
 544 0056 7B68     		ldr	r3, [r7, #4]
 545 0058 03F40043 		and	r3, r3, #32768
 546 005c 002B     		cmp	r3, #0
 547 005e 2BD0     		beq	.L23
 173:../libraries/STM32_USB-FS-Device_Driver/src/usb_int.c ****     {
 174:../libraries/STM32_USB-FS-Device_Driver/src/usb_int.c ****       /* clear int flag */
 175:../libraries/STM32_USB-FS-Device_Driver/src/usb_int.c ****       _ClearEP_CTR_RX(EPindex);
 548              		.loc 1 175 0
 549 0060 40F20003 		movw	r3, #:lower16:EPindex
 550 0064 C0F20003 		movt	r3, #:upper16:EPindex
 551 0068 1B78     		ldrb	r3, [r3, #0]	@ zero_extendqisi2
 552 006a 4FEA8303 		lsl	r3, r3, #2
 553 006e 03F18043 		add	r3, r3, #1073741824
 554 0072 03F5B843 		add	r3, r3, #23552
 555 0076 40F20002 		movw	r2, #:lower16:EPindex
 556 007a C0F20002 		movt	r2, #:upper16:EPindex
 557 007e 1278     		ldrb	r2, [r2, #0]	@ zero_extendqisi2
 558 0080 4FEA8202 		lsl	r2, r2, #2
 559 0084 02F18042 		add	r2, r2, #1073741824
 560 0088 02F5B842 		add	r2, r2, #23552
 561 008c 1268     		ldr	r2, [r2, #0]
 562 008e 92B2     		uxth	r2, r2
 563 0090 1146     		mov	r1, r2
 564 0092 40F68F72 		movw	r2, #3983
 565 0096 0A40     		ands	r2, r2, r1
 566 0098 1A60     		str	r2, [r3, #0]
 176:../libraries/STM32_USB-FS-Device_Driver/src/usb_int.c **** 
 177:../libraries/STM32_USB-FS-Device_Driver/src/usb_int.c ****       /* call OUT service function */
 178:../libraries/STM32_USB-FS-Device_Driver/src/usb_int.c ****       (*pEpInt_OUT[EPindex-1])();
 567              		.loc 1 178 0
 568 009a 40F20003 		movw	r3, #:lower16:EPindex
 569 009e C0F20003 		movt	r3, #:upper16:EPindex
 570 00a2 1B78     		ldrb	r3, [r3, #0]	@ zero_extendqisi2
 571 00a4 03F1FF32 		add	r2, r3, #-1
 572 00a8 40F20003 		movw	r3, #:lower16:pEpInt_OUT
 573 00ac C0F20003 		movt	r3, #:upper16:pEpInt_OUT
 574 00b0 53F82230 		ldr	r3, [r3, r2, lsl #2]
 575 00b4 9847     		blx	r3
 576 00b6 2FE0     		b	.L22
 577              	.L23:
 179:../libraries/STM32_USB-FS-Device_Driver/src/usb_int.c **** 
 180:../libraries/STM32_USB-FS-Device_Driver/src/usb_int.c ****     } /* if((wEPVal & EP_CTR_RX) */
 181:../libraries/STM32_USB-FS-Device_Driver/src/usb_int.c ****     else if ((wEPVal & EP_CTR_TX) != 0)
 578              		.loc 1 181 0
 579 00b8 7B68     		ldr	r3, [r7, #4]
 580 00ba 03F08003 		and	r3, r3, #128
 581 00be 002B     		cmp	r3, #0
 582 00c0 2AD0     		beq	.L22
 182:../libraries/STM32_USB-FS-Device_Driver/src/usb_int.c ****     {
 183:../libraries/STM32_USB-FS-Device_Driver/src/usb_int.c ****       /* clear int flag */
 184:../libraries/STM32_USB-FS-Device_Driver/src/usb_int.c ****       _ClearEP_CTR_TX(EPindex);
 583              		.loc 1 184 0
 584 00c2 40F20003 		movw	r3, #:lower16:EPindex
 585 00c6 C0F20003 		movt	r3, #:upper16:EPindex
 586 00ca 1B78     		ldrb	r3, [r3, #0]	@ zero_extendqisi2
 587 00cc 4FEA8303 		lsl	r3, r3, #2
 588 00d0 03F18043 		add	r3, r3, #1073741824
 589 00d4 03F5B843 		add	r3, r3, #23552
 590 00d8 40F20002 		movw	r2, #:lower16:EPindex
 591 00dc C0F20002 		movt	r2, #:upper16:EPindex
 592 00e0 1278     		ldrb	r2, [r2, #0]	@ zero_extendqisi2
 593 00e2 4FEA8202 		lsl	r2, r2, #2
 594 00e6 02F18042 		add	r2, r2, #1073741824
 595 00ea 02F5B842 		add	r2, r2, #23552
 596 00ee 1268     		ldr	r2, [r2, #0]
 597 00f0 92B2     		uxth	r2, r2
 598 00f2 1146     		mov	r1, r2
 599 00f4 48F60F72 		movw	r2, #36623
 600 00f8 0A40     		ands	r2, r2, r1
 601 00fa 1A60     		str	r2, [r3, #0]
 185:../libraries/STM32_USB-FS-Device_Driver/src/usb_int.c **** 
 186:../libraries/STM32_USB-FS-Device_Driver/src/usb_int.c ****       /* call IN service function */
 187:../libraries/STM32_USB-FS-Device_Driver/src/usb_int.c ****       (*pEpInt_IN[EPindex-1])();
 602              		.loc 1 187 0
 603 00fc 40F20003 		movw	r3, #:lower16:EPindex
 604 0100 C0F20003 		movt	r3, #:upper16:EPindex
 605 0104 1B78     		ldrb	r3, [r3, #0]	@ zero_extendqisi2
 606 0106 03F1FF32 		add	r2, r3, #-1
 607 010a 40F20003 		movw	r3, #:lower16:pEpInt_IN
 608 010e C0F20003 		movt	r3, #:upper16:pEpInt_IN
 609 0112 53F82230 		ldr	r3, [r3, r2, lsl #2]
 610 0116 9847     		blx	r3
 611              	.L22:
 165:../libraries/STM32_USB-FS-Device_Driver/src/usb_int.c ****   while (((wIstr = _GetISTR()) & ISTR_CTR) != 0)
 612              		.loc 1 165 0 discriminator 1
 613 0118 45F64443 		movw	r3, #23620
 614 011c C4F20003 		movt	r3, 16384
 615 0120 1B68     		ldr	r3, [r3, #0]
 616 0122 9BB2     		uxth	r3, r3
 617 0124 1A46     		mov	r2, r3
 618 0126 40F20003 		movw	r3, #:lower16:wIstr
 619 012a C0F20003 		movt	r3, #:upper16:wIstr
 620 012e 1146     		mov	r1, r2	@ movhi
 621 0130 1980     		strh	r1, [r3, #0]	@ movhi
 622 0132 93B2     		uxth	r3, r2
 623 0134 1BB2     		sxth	r3, r3
 624 0136 002B     		cmp	r3, #0
 625 0138 FFF669AF 		blt	.L24
 188:../libraries/STM32_USB-FS-Device_Driver/src/usb_int.c **** 
 189:../libraries/STM32_USB-FS-Device_Driver/src/usb_int.c **** 
 190:../libraries/STM32_USB-FS-Device_Driver/src/usb_int.c ****     } /* if((wEPVal & EP_CTR_TX) != 0) */
 191:../libraries/STM32_USB-FS-Device_Driver/src/usb_int.c **** 
 192:../libraries/STM32_USB-FS-Device_Driver/src/usb_int.c ****   }/* while(...) */
 193:../libraries/STM32_USB-FS-Device_Driver/src/usb_int.c **** }
 626              		.loc 1 193 0
 627 013c 07F10807 		add	r7, r7, #8
 628 0140 BD46     		mov	sp, r7
 629 0142 80BD     		pop	{r7, pc}
 630              		.cfi_endproc
 631              	.LFE57:
 633              		.text
 634              	.Letext0:
 635              		.file 2 "/usr/local/gcc-arm-none-eabi-4_7-2013q1/bin/../lib/gcc/arm-none-eabi/4.7.3/../../../../ar
 636              		.file 3 "/Users/zac/code/spark/marvin/libraries/CMSIS/Include/core_cm3.h"
 637              		.file 4 "/Users/zac/code/spark/marvin/libraries/STM32_USB-FS-Device_Driver/inc/usb_regs.h"
 638              		.file 5 "/Users/zac/code/spark/marvin/libraries/STM32_USB-FS-Device_Driver/inc/usb_init.h"
DEFINED SYMBOLS
                            *ABS*:0000000000000000 usb_int.c
                            *COM*:0000000000000002 SaveRState
                            *COM*:0000000000000002 SaveTState
/var/folders/d1/846xqcps64v4wybnmd7kk8540000gn/T//cczxrtzg.s:21     .text.CTR_LP:0000000000000000 $t
/var/folders/d1/846xqcps64v4wybnmd7kk8540000gn/T//cczxrtzg.s:26     .text.CTR_LP:0000000000000000 CTR_LP
/var/folders/d1/846xqcps64v4wybnmd7kk8540000gn/T//cczxrtzg.s:489    .text.CTR_HP:0000000000000000 $t
/var/folders/d1/846xqcps64v4wybnmd7kk8540000gn/T//cczxrtzg.s:494    .text.CTR_HP:0000000000000000 CTR_HP
                     .debug_frame:0000000000000010 $d
                           .group:0000000000000000 wm4.1.8991b0b359e9e91a82acb66692cb6642
                           .group:0000000000000000 wm4.platform_config.h.13.2ca19a62528956b424fb49e2e8f19911
                           .group:0000000000000000 wm4.stm32f10x.h.57.69ab29c83f735418a543aa508b559235
                           .group:0000000000000000 wm4.core_cm3.h.32.8e21fbd14bb96c2b40e026c4d2c8fe1f
                           .group:0000000000000000 wm4.newlib.h.8.a9901dc52d1357e3e94003403d43f8b5
                           .group:0000000000000000 wm4.features.h.22.b72b3baab2bb2eab3661375590100b6b
                           .group:0000000000000000 wm4.config.h.193.5fb8ef056cdff92dec3dee9552839d8c
                           .group:0000000000000000 wm4._ansi.h.23.b5bb84d7ba97d82b5b1dc1826a7ae811
                           .group:0000000000000000 wm4.stdint.h.20.54ad762faa59e3c05491630641c8d8bf
                           .group:0000000000000000 wm4.core_cmInstr.h.25.d8165482ef3061013a2fc83e2d85f3d9
                           .group:0000000000000000 wm4.core_cm3.h.129.e08b7204181ea22e6a9fa84cb9ad0924
                           .group:0000000000000000 wm4.stm32f10x.h.532.91bd57525f6c583f00129a351847d405
                           .group:0000000000000000 wm4.stm32f10x_adc.h.89.9f2b285fa0070185d48a05b61a05798c
                           .group:0000000000000000 wm4.stm32f10x_bkp.h.31.74a586c036c8ee5d9205c6728cc8d6ab
                           .group:0000000000000000 wm4.stm32f10x_dma.h.31.ef16218235edc52b414c0353f44b4bf0
                           .group:0000000000000000 wm4.stm32f10x_exti.h.31.b25bcb4f1a2daad39d2d7dfa4e901646
                           .group:0000000000000000 wm4.stm32f10x_flash.h.31.0203bc95b65c5396b67991e07a675efb
                           .group:0000000000000000 wm4.stm32f10x_gpio.h.31.0a32659dbac1fc1055c7cbdc248963be
                           .group:0000000000000000 wm4.stm32f10x_i2c.h.31.93d7dc2d477856f119d957730d4c6f1c
                           .group:0000000000000000 wm4.stm32f10x_pwr.h.31.9168b6921e0cf03b467c7ed90861c701
                           .group:0000000000000000 wm4.stm32f10x_rcc.h.31.2ee3219a25ef4ced658f2fe9d8cd94aa
                           .group:0000000000000000 wm4.stm32f10x_rtc.h.31.00ba78fc0dbb06b6e6783a1e7fccf5a0
                           .group:0000000000000000 wm4.stm32f10x_spi.h.31.d2f6e4626887cabe8c98f3a185590a36
                           .group:0000000000000000 wm4.stm32f10x_tim.h.31.6c06f7f26e0864f9cd59597f46ca2c7c
                           .group:0000000000000000 wm4.stm32f10x_usart.h.31.28d75d6af05cefbbfa00cf30a7c8a335
                           .group:0000000000000000 wm4.misc.h.31.a89fba2040036f6f8c835a78a213e0cd
                           .group:0000000000000000 wm4.stm32f10x.h.8356.9fd2fa84655112ac7dfc5c88beeb383d
                           .group:0000000000000000 wm4.platform_config.h.311.32de75d5ca6059a48a62b60f7516e681
                           .group:0000000000000000 wm4.stdlib.h.13.603ed7eb09a1561ab06840b7c0fcff58
                           .group:0000000000000000 wm4.stddef.h.187.40b3a084f9bc2c020a9e00b9eabe9c14
                           .group:0000000000000000 wm4._default_types.h.6.5e12cd604db8ce00b62bb2f02708eaf3
                           .group:0000000000000000 wm4.lock.h.2.9bc98482741e5e2a9450b12934a684ea
                           .group:0000000000000000 wm4.stddef.h.349.31f4c5baff3fa2689010b32028da9c47
                           .group:0000000000000000 wm4.reent.h.16.9e42f0e588b85e70b2bf6572af57ce64
                           .group:0000000000000000 wm4.alloca.h.8.dfc0c703c47ec3e69746825b17d9e66d
                           .group:0000000000000000 wm4.stdlib.h.50.f5923f1950ced340a337f4676566f65a
                           .group:0000000000000000 wm4.errno.h.2.ba016d646105af6cad23be83630b6a3f
                           .group:0000000000000000 wm4.errno.h.9.65044c2b5d8494e43f5986ab0a1d770f
                           .group:0000000000000000 wm4.cc3000_common.h.58.2af7f8f8921b8cb4b89883c25878e207
                           .group:0000000000000000 wm4.usb_conf.h.13.ae0ffce2e8d0e4c6b2724f8ae0ada8cf
                           .group:0000000000000000 wm4.hw_config.h.61.9aaf7ecb821816183829c116d76d82b5
                           .group:0000000000000000 wm4.usb_regs.h.31.d9533108f8ac5724467880baa9cb0f26
                           .group:0000000000000000 wm4.usb_def.h.30.73e1a84be93039018a594bacb815cb88
                           .group:0000000000000000 wm4.usb_core.h.31.114a1d0e1de4beb01afdcd243bde9471

UNDEFINED SYMBOLS
wIstr
EPindex
In0_Process
Setup0_Process
Out0_Process
pEpInt_OUT
pEpInt_IN
