   1              		.syntax unified
   2              		.cpu cortex-m3
   3              		.fpu softvfp
   4              		.eabi_attribute 20, 1
   5              		.eabi_attribute 21, 1
   6              		.eabi_attribute 23, 3
   7              		.eabi_attribute 24, 1
   8              		.eabi_attribute 25, 1
   9              		.eabi_attribute 26, 1
  10              		.eabi_attribute 30, 4
  11              		.eabi_attribute 34, 1
  12              		.eabi_attribute 18, 4
  13              		.thumb
  14              		.file	"usb_mem.c"
  15              		.text
  16              	.Ltext0:
  17              		.cfi_sections	.debug_frame
  18              		.section	.text.UserToPMABufferCopy,"ax",%progbits
  19              		.align	1
  20              		.global	UserToPMABufferCopy
  21              		.thumb
  22              		.thumb_func
  24              	UserToPMABufferCopy:
  25              	.LFB56:
  26              		.file 1 "../libraries/STM32_USB-FS-Device_Driver/src/usb_mem.c"
   1:../libraries/STM32_USB-FS-Device_Driver/src/usb_mem.c **** /**
   2:../libraries/STM32_USB-FS-Device_Driver/src/usb_mem.c ****   ******************************************************************************
   3:../libraries/STM32_USB-FS-Device_Driver/src/usb_mem.c ****   * @file    usb_mem.c
   4:../libraries/STM32_USB-FS-Device_Driver/src/usb_mem.c ****   * @author  MCD Application Team
   5:../libraries/STM32_USB-FS-Device_Driver/src/usb_mem.c ****   * @version V4.0.0
   6:../libraries/STM32_USB-FS-Device_Driver/src/usb_mem.c ****   * @date    28-August-2012
   7:../libraries/STM32_USB-FS-Device_Driver/src/usb_mem.c ****   * @brief   Utility functions for memory transfers to/from PMA
   8:../libraries/STM32_USB-FS-Device_Driver/src/usb_mem.c ****   ******************************************************************************
   9:../libraries/STM32_USB-FS-Device_Driver/src/usb_mem.c ****   * @attention
  10:../libraries/STM32_USB-FS-Device_Driver/src/usb_mem.c ****   *
  11:../libraries/STM32_USB-FS-Device_Driver/src/usb_mem.c ****   * <h2><center>&copy; COPYRIGHT 2012 STMicroelectronics</center></h2>
  12:../libraries/STM32_USB-FS-Device_Driver/src/usb_mem.c ****   *
  13:../libraries/STM32_USB-FS-Device_Driver/src/usb_mem.c ****   * Licensed under MCD-ST Liberty SW License Agreement V2, (the "License");
  14:../libraries/STM32_USB-FS-Device_Driver/src/usb_mem.c ****   * You may not use this file except in compliance with the License.
  15:../libraries/STM32_USB-FS-Device_Driver/src/usb_mem.c ****   * You may obtain a copy of the License at:
  16:../libraries/STM32_USB-FS-Device_Driver/src/usb_mem.c ****   *
  17:../libraries/STM32_USB-FS-Device_Driver/src/usb_mem.c ****   *        http://www.st.com/software_license_agreement_liberty_v2
  18:../libraries/STM32_USB-FS-Device_Driver/src/usb_mem.c ****   *
  19:../libraries/STM32_USB-FS-Device_Driver/src/usb_mem.c ****   * Unless required by applicable law or agreed to in writing, software 
  20:../libraries/STM32_USB-FS-Device_Driver/src/usb_mem.c ****   * distributed under the License is distributed on an "AS IS" BASIS, 
  21:../libraries/STM32_USB-FS-Device_Driver/src/usb_mem.c ****   * WITHOUT WARRANTIES OR CONDITIONS OF ANY KIND, either express or implied.
  22:../libraries/STM32_USB-FS-Device_Driver/src/usb_mem.c ****   * See the License for the specific language governing permissions and
  23:../libraries/STM32_USB-FS-Device_Driver/src/usb_mem.c ****   * limitations under the License.
  24:../libraries/STM32_USB-FS-Device_Driver/src/usb_mem.c ****   *
  25:../libraries/STM32_USB-FS-Device_Driver/src/usb_mem.c ****   ******************************************************************************
  26:../libraries/STM32_USB-FS-Device_Driver/src/usb_mem.c ****   */
  27:../libraries/STM32_USB-FS-Device_Driver/src/usb_mem.c **** 
  28:../libraries/STM32_USB-FS-Device_Driver/src/usb_mem.c **** /* Includes ------------------------------------------------------------------*/
  29:../libraries/STM32_USB-FS-Device_Driver/src/usb_mem.c **** #include "usb_lib.h"
  30:../libraries/STM32_USB-FS-Device_Driver/src/usb_mem.c **** 
  31:../libraries/STM32_USB-FS-Device_Driver/src/usb_mem.c **** /* Private typedef -----------------------------------------------------------*/
  32:../libraries/STM32_USB-FS-Device_Driver/src/usb_mem.c **** /* Private define ------------------------------------------------------------*/
  33:../libraries/STM32_USB-FS-Device_Driver/src/usb_mem.c **** /* Private macro -------------------------------------------------------------*/
  34:../libraries/STM32_USB-FS-Device_Driver/src/usb_mem.c **** /* Private variables ---------------------------------------------------------*/
  35:../libraries/STM32_USB-FS-Device_Driver/src/usb_mem.c **** /* Extern variables ----------------------------------------------------------*/
  36:../libraries/STM32_USB-FS-Device_Driver/src/usb_mem.c **** /* Private function prototypes -----------------------------------------------*/
  37:../libraries/STM32_USB-FS-Device_Driver/src/usb_mem.c **** /* Private functions ---------------------------------------------------------*/
  38:../libraries/STM32_USB-FS-Device_Driver/src/usb_mem.c **** 
  39:../libraries/STM32_USB-FS-Device_Driver/src/usb_mem.c **** /*******************************************************************************
  40:../libraries/STM32_USB-FS-Device_Driver/src/usb_mem.c **** * Function Name  : UserToPMABufferCopy
  41:../libraries/STM32_USB-FS-Device_Driver/src/usb_mem.c **** * Description    : Copy a buffer from user memory area to packet memory area (PMA)
  42:../libraries/STM32_USB-FS-Device_Driver/src/usb_mem.c **** * Input          : - pbUsrBuf: pointer to user memory area.
  43:../libraries/STM32_USB-FS-Device_Driver/src/usb_mem.c **** *                  - wPMABufAddr: address into PMA.
  44:../libraries/STM32_USB-FS-Device_Driver/src/usb_mem.c **** *                  - wNBytes: no. of bytes to be copied.
  45:../libraries/STM32_USB-FS-Device_Driver/src/usb_mem.c **** * Output         : None.
  46:../libraries/STM32_USB-FS-Device_Driver/src/usb_mem.c **** * Return         : None	.
  47:../libraries/STM32_USB-FS-Device_Driver/src/usb_mem.c **** *******************************************************************************/
  48:../libraries/STM32_USB-FS-Device_Driver/src/usb_mem.c **** void UserToPMABufferCopy(uint8_t *pbUsrBuf, uint16_t wPMABufAddr, uint16_t wNBytes)
  49:../libraries/STM32_USB-FS-Device_Driver/src/usb_mem.c **** {
  27              		.loc 1 49 0
  28              		.cfi_startproc
  29              		@ args = 0, pretend = 0, frame = 0
  30              		@ frame_needed = 0, uses_anonymous_args = 0
  31              	.LVL0:
  32 0000 30B5     		push	{r4, r5, lr}
  33              	.LCFI0:
  34              		.cfi_def_cfa_offset 12
  35              		.cfi_offset 4, -12
  36              		.cfi_offset 5, -8
  37              		.cfi_offset 14, -4
  50:../libraries/STM32_USB-FS-Device_Driver/src/usb_mem.c ****   uint32_t n = (wNBytes + 1) >> 1;   /* n = (wNBytes + 1) / 2 */
  51:../libraries/STM32_USB-FS-Device_Driver/src/usb_mem.c ****   uint32_t i, temp1, temp2;
  52:../libraries/STM32_USB-FS-Device_Driver/src/usb_mem.c ****   uint16_t *pdwVal;
  53:../libraries/STM32_USB-FS-Device_Driver/src/usb_mem.c ****   pdwVal = (uint16_t *)(wPMABufAddr * 2 + PMAAddr);
  38              		.loc 1 53 0
  39 0002 01F10051 		add	r1, r1, #536870912
  40              	.LVL1:
  41 0006 01F54053 		add	r3, r1, #12288
  50:../libraries/STM32_USB-FS-Device_Driver/src/usb_mem.c ****   uint32_t n = (wNBytes + 1) >> 1;   /* n = (wNBytes + 1) / 2 */
  42              		.loc 1 50 0
  43 000a 0132     		adds	r2, r2, #1
  44              	.LVL2:
  45              		.loc 1 53 0
  46 000c 5900     		lsls	r1, r3, #1
  50:../libraries/STM32_USB-FS-Device_Driver/src/usb_mem.c ****   uint32_t n = (wNBytes + 1) >> 1;   /* n = (wNBytes + 1) / 2 */
  47              		.loc 1 50 0
  48 000e 5210     		asrs	r2, r2, #1
  49              	.LVL3:
  54:../libraries/STM32_USB-FS-Device_Driver/src/usb_mem.c ****   for (i = n; i != 0; i--)
  50              		.loc 1 54 0
  51 0010 0023     		movs	r3, #0
  52              	.LVL4:
  53              	.L2:
  54 0012 0230     		adds	r0, r0, #2
  55              		.loc 1 54 0 is_stmt 0 discriminator 1
  56 0014 9342     		cmp	r3, r2
  57 0016 09D0     		beq	.L5
  58              	.L3:
  59              	.LVL5:
  55:../libraries/STM32_USB-FS-Device_Driver/src/usb_mem.c ****   {
  56:../libraries/STM32_USB-FS-Device_Driver/src/usb_mem.c ****     temp1 = (uint16_t) * pbUsrBuf;
  57:../libraries/STM32_USB-FS-Device_Driver/src/usb_mem.c ****     pbUsrBuf++;
  58:../libraries/STM32_USB-FS-Device_Driver/src/usb_mem.c ****     temp2 = temp1 | (uint16_t) * pbUsrBuf << 8;
  60              		.loc 1 58 0 is_stmt 1 discriminator 2
  61 0018 10F8015C 		ldrb	r5, [r0, #-1]	@ zero_extendqisi2
  56:../libraries/STM32_USB-FS-Device_Driver/src/usb_mem.c ****     temp1 = (uint16_t) * pbUsrBuf;
  62              		.loc 1 56 0 discriminator 2
  63 001c 10F8024C 		ldrb	r4, [r0, #-2]	@ zero_extendqisi2
  64              	.LVL6:
  65              		.loc 1 58 0 discriminator 2
  66 0020 44EA0524 		orr	r4, r4, r5, lsl #8
  67              	.LVL7:
  59:../libraries/STM32_USB-FS-Device_Driver/src/usb_mem.c ****     *pdwVal++ = temp2;
  68              		.loc 1 59 0 discriminator 2
  69 0024 21F82340 		strh	r4, [r1, r3, lsl #2]	@ movhi
  70 0028 0133     		adds	r3, r3, #1
  71 002a F2E7     		b	.L2
  72              	.LVL8:
  73              	.L5:
  60:../libraries/STM32_USB-FS-Device_Driver/src/usb_mem.c ****     pdwVal++;
  61:../libraries/STM32_USB-FS-Device_Driver/src/usb_mem.c ****     pbUsrBuf++;
  62:../libraries/STM32_USB-FS-Device_Driver/src/usb_mem.c ****   }
  63:../libraries/STM32_USB-FS-Device_Driver/src/usb_mem.c **** }
  74              		.loc 1 63 0
  75 002c 30BD     		pop	{r4, r5, pc}
  76              		.cfi_endproc
  77              	.LFE56:
  79              		.section	.text.PMAToUserBufferCopy,"ax",%progbits
  80              		.align	1
  81              		.global	PMAToUserBufferCopy
  82              		.thumb
  83              		.thumb_func
  85              	PMAToUserBufferCopy:
  86              	.LFB57:
  64:../libraries/STM32_USB-FS-Device_Driver/src/usb_mem.c **** 
  65:../libraries/STM32_USB-FS-Device_Driver/src/usb_mem.c **** /*******************************************************************************
  66:../libraries/STM32_USB-FS-Device_Driver/src/usb_mem.c **** * Function Name  : PMAToUserBufferCopy
  67:../libraries/STM32_USB-FS-Device_Driver/src/usb_mem.c **** * Description    : Copy a buffer from user memory area to packet memory area (PMA)
  68:../libraries/STM32_USB-FS-Device_Driver/src/usb_mem.c **** * Input          : - pbUsrBuf    = pointer to user memory area.
  69:../libraries/STM32_USB-FS-Device_Driver/src/usb_mem.c **** *                  - wPMABufAddr = address into PMA.
  70:../libraries/STM32_USB-FS-Device_Driver/src/usb_mem.c **** *                  - wNBytes     = no. of bytes to be copied.
  71:../libraries/STM32_USB-FS-Device_Driver/src/usb_mem.c **** * Output         : None.
  72:../libraries/STM32_USB-FS-Device_Driver/src/usb_mem.c **** * Return         : None.
  73:../libraries/STM32_USB-FS-Device_Driver/src/usb_mem.c **** *******************************************************************************/
  74:../libraries/STM32_USB-FS-Device_Driver/src/usb_mem.c **** void PMAToUserBufferCopy(uint8_t *pbUsrBuf, uint16_t wPMABufAddr, uint16_t wNBytes)
  75:../libraries/STM32_USB-FS-Device_Driver/src/usb_mem.c **** {
  87              		.loc 1 75 0
  88              		.cfi_startproc
  89              		@ args = 0, pretend = 0, frame = 0
  90              		@ frame_needed = 0, uses_anonymous_args = 0
  91              	.LVL9:
  76:../libraries/STM32_USB-FS-Device_Driver/src/usb_mem.c ****   uint32_t n = (wNBytes + 1) >> 1;/* /2*/
  77:../libraries/STM32_USB-FS-Device_Driver/src/usb_mem.c ****   uint32_t i;
  78:../libraries/STM32_USB-FS-Device_Driver/src/usb_mem.c ****   uint32_t *pdwVal;
  79:../libraries/STM32_USB-FS-Device_Driver/src/usb_mem.c ****   pdwVal = (uint32_t *)(wPMABufAddr * 2 + PMAAddr);
  92              		.loc 1 79 0
  93 0000 01F10051 		add	r1, r1, #536870912
  94              	.LVL10:
  75:../libraries/STM32_USB-FS-Device_Driver/src/usb_mem.c **** {
  95              		.loc 1 75 0
  96 0004 10B5     		push	{r4, lr}
  97              	.LCFI1:
  98              		.cfi_def_cfa_offset 8
  99              		.cfi_offset 4, -8
 100              		.cfi_offset 14, -4
  76:../libraries/STM32_USB-FS-Device_Driver/src/usb_mem.c ****   uint32_t n = (wNBytes + 1) >> 1;/* /2*/
 101              		.loc 1 76 0
 102 0006 0132     		adds	r2, r2, #1
 103              	.LVL11:
 104              		.loc 1 79 0
 105 0008 01F54054 		add	r4, r1, #12288
  76:../libraries/STM32_USB-FS-Device_Driver/src/usb_mem.c ****   uint32_t n = (wNBytes + 1) >> 1;/* /2*/
 106              		.loc 1 76 0
 107 000c 5210     		asrs	r2, r2, #1
 108              	.LVL12:
 109              		.loc 1 79 0
 110 000e 6400     		lsls	r4, r4, #1
 111              	.LVL13:
  80:../libraries/STM32_USB-FS-Device_Driver/src/usb_mem.c ****   for (i = n; i != 0; i--)
 112              		.loc 1 80 0
 113 0010 0023     		movs	r3, #0
 114              	.LVL14:
 115              	.L7:
 116              		.loc 1 80 0 is_stmt 0 discriminator 1
 117 0012 9342     		cmp	r3, r2
 118 0014 05D0     		beq	.L9
 119              	.L8:
  81:../libraries/STM32_USB-FS-Device_Driver/src/usb_mem.c ****   {
  82:../libraries/STM32_USB-FS-Device_Driver/src/usb_mem.c ****     *(uint16_t*)pbUsrBuf++ = *pdwVal++;
 120              		.loc 1 82 0 is_stmt 1 discriminator 2
 121 0016 54F82310 		ldr	r1, [r4, r3, lsl #2]
 122 001a 20F81310 		strh	r1, [r0, r3, lsl #1]	@ movhi
 123 001e 0133     		adds	r3, r3, #1
 124 0020 F7E7     		b	.L7
 125              	.L9:
  83:../libraries/STM32_USB-FS-Device_Driver/src/usb_mem.c ****     pbUsrBuf++;
  84:../libraries/STM32_USB-FS-Device_Driver/src/usb_mem.c ****   }
  85:../libraries/STM32_USB-FS-Device_Driver/src/usb_mem.c **** }
 126              		.loc 1 85 0
 127 0022 10BD     		pop	{r4, pc}
 128              		.cfi_endproc
 129              	.LFE57:
 131              		.text
 132              	.Letext0:
 133              		.file 2 "/usr/local/gcc-arm-none-eabi-4_7-2013q1/bin/../lib/gcc/arm-none-eabi/4.7.3/../../../../ar
 134              		.file 3 "/Users/zac/code/spark/usb-dfu/libraries/CMSIS/Include/core_cm3.h"